ARM GAS  /tmp/ccBwyosj.s 			page 1


   1              		.cpu arm1176jz-s
   2              		.eabi_attribute 20, 1
   3              		.eabi_attribute 21, 1
   4              		.eabi_attribute 23, 3
   5              		.eabi_attribute 24, 1
   6              		.eabi_attribute 25, 1
   7              		.eabi_attribute 26, 1
   8              		.eabi_attribute 30, 2
   9              		.eabi_attribute 34, 1
  10              		.eabi_attribute 18, 4
  11              		.file	"chcond.c"
  12              		.text
  13              	.Ltext0:
  14              		.cfi_sections	.debug_frame
  15              		.section	.text.chCondInit,"ax",%progbits
  16              		.align	2
  17              		.global	chCondInit
  18              		.syntax unified
  19              		.arm
  20              		.fpu softvfp
  21              		.type	chCondInit, %function
  22              	chCondInit:
  23              	.LFB7:
  24              		.file 1 "../../os/kernel/src/chcond.c"
  25              		.loc 1 52 0
  26              		.cfi_startproc
  27              		@ args = 0, pretend = 0, frame = 0
  28              		@ frame_needed = 0, uses_anonymous_args = 0
  29              		@ link register save eliminated.
  30              	.LVL0:
  31              		.loc 1 56 0
  32 0000 040080E5 		str	r0, [r0, #4]
  33 0004 000080E5 		str	r0, [r0]
  34 0008 1EFF2FE1 		bx	lr
  35              		.cfi_endproc
  36              	.LFE7:
  37              		.size	chCondInit, .-chCondInit
  38              		.section	.text.chCondSignal,"ax",%progbits
  39              		.align	2
  40              		.global	chCondSignal
  41              		.syntax unified
  42              		.arm
  43              		.fpu softvfp
  44              		.type	chCondSignal, %function
  45              	chCondSignal:
  46              	.LFB8:
  47              		.loc 1 66 0
  48              		.cfi_startproc
  49              		@ args = 0, pretend = 0, frame = 0
  50              		@ frame_needed = 0, uses_anonymous_args = 0
  51              	.LVL1:
  52              		.loc 1 70 0
  53              		.syntax divided
  54              	@ 70 "../../os/kernel/src/chcond.c" 1
  55 0000 9FF021E3 		msr     CPSR_c, #0x9F
  56              	@ 0 "" 2
  57              		.loc 1 71 0
ARM GAS  /tmp/ccBwyosj.s 			page 2


  58              		.arm
  59              		.syntax unified
  60 0004 002090E5 		ldr	r2, [r0]
  61 0008 000052E1 		cmp	r2, r0
  62 000c 0900000A 		beq	.L5
  63 0010 0030A0E1 		mov	r3, r0
  64              	.LVL2:
  65              	.LBB16:
  66              	.LBB17:
  67              		.file 2 "../../os/kernel/include/chinline.h"
  68              		.loc 2 55 0
  69 0014 00C092E5 		ldr	ip, [r2]
  70              	.LBE17:
  71              	.LBE16:
  72              		.loc 1 66 0
  73 0018 10402DE9 		push	{r4, lr}
  74              		.cfi_def_cfa_offset 8
  75              		.cfi_offset 4, -8
  76              		.cfi_offset 14, -4
  77              		.loc 1 72 0
  78 001c 0200A0E1 		mov	r0, r2
  79              	.LVL3:
  80              	.LBB20:
  81              	.LBB18:
  82              		.loc 2 55 0
  83 0020 00C083E5 		str	ip, [r3]
  84              	.LBE18:
  85              	.LBE20:
  86              		.loc 1 72 0
  87 0024 0010A0E3 		mov	r1, #0
  88              	.LBB21:
  89              	.LBB19:
  90              		.loc 2 55 0
  91 0028 04308CE5 		str	r3, [ip, #4]
  92              	.LVL4:
  93              	.LBE19:
  94              	.LBE21:
  95              		.loc 1 72 0
  96 002c FEFFFFEB 		bl	chSchWakeupS
  97              	.LVL5:
  98              		.loc 1 73 0
  99              		.syntax divided
 100              	@ 73 "../../os/kernel/src/chcond.c" 1
 101 0030 1FF021E3 		msr     CPSR_c, #0x1F
 102              	@ 0 "" 2
 103              		.arm
 104              		.syntax unified
 105 0034 1080BDE8 		pop	{r4, pc}
 106              	.LVL6:
 107              	.L5:
 108              		.cfi_def_cfa_offset 0
 109              		.cfi_restore 4
 110              		.cfi_restore 14
 111              		.syntax divided
 112              	@ 73 "../../os/kernel/src/chcond.c" 1
 113 0038 1FF021E3 		msr     CPSR_c, #0x1F
 114              	@ 0 "" 2
ARM GAS  /tmp/ccBwyosj.s 			page 3


 115              		.arm
 116              		.syntax unified
 117 003c 1EFF2FE1 		bx	lr
 118              		.cfi_endproc
 119              	.LFE8:
 120              		.size	chCondSignal, .-chCondSignal
 121              		.section	.text.chCondSignalI,"ax",%progbits
 122              		.align	2
 123              		.global	chCondSignalI
 124              		.syntax unified
 125              		.arm
 126              		.fpu softvfp
 127              		.type	chCondSignalI, %function
 128              	chCondSignalI:
 129              	.LFB9:
 130              		.loc 1 87 0
 131              		.cfi_startproc
 132              		@ args = 0, pretend = 0, frame = 0
 133              		@ frame_needed = 0, uses_anonymous_args = 0
 134              	.LVL7:
 135              		.loc 1 92 0
 136 0000 002090E5 		ldr	r2, [r0]
 137 0004 000052E1 		cmp	r2, r0
 138 0008 1EFF2F01 		bxeq	lr
 139 000c 0030A0E1 		mov	r3, r0
 140              	.LVL8:
 141              	.LBB22:
 142              	.LBB23:
 143              		.loc 2 55 0
 144 0010 001092E5 		ldr	r1, [r2]
 145              	.LBE23:
 146              	.LBE22:
 147              		.loc 1 87 0
 148 0014 10402DE9 		push	{r4, lr}
 149              		.cfi_def_cfa_offset 8
 150              		.cfi_offset 4, -8
 151              		.cfi_offset 14, -4
 152              		.loc 1 93 0
 153 0018 0200A0E1 		mov	r0, r2
 154              	.LVL9:
 155              	.LBB25:
 156              	.LBB24:
 157              		.loc 2 55 0
 158 001c 001083E5 		str	r1, [r3]
 159 0020 043081E5 		str	r3, [r1, #4]
 160              	.LVL10:
 161              	.LBE24:
 162              	.LBE25:
 163              		.loc 1 93 0
 164 0024 FEFFFFEB 		bl	chSchReadyI
 165              	.LVL11:
 166 0028 0030A0E3 		mov	r3, #0
 167 002c 243080E5 		str	r3, [r0, #36]
 168 0030 1080BDE8 		pop	{r4, pc}
 169              		.cfi_endproc
 170              	.LFE9:
 171              		.size	chCondSignalI, .-chCondSignalI
ARM GAS  /tmp/ccBwyosj.s 			page 4


 172              		.section	.text.chCondBroadcast,"ax",%progbits
 173              		.align	2
 174              		.global	chCondBroadcast
 175              		.syntax unified
 176              		.arm
 177              		.fpu softvfp
 178              		.type	chCondBroadcast, %function
 179              	chCondBroadcast:
 180              	.LFB10:
 181              		.loc 1 103 0
 182              		.cfi_startproc
 183              		@ args = 0, pretend = 0, frame = 0
 184              		@ frame_needed = 0, uses_anonymous_args = 0
 185              	.LVL12:
 186 0000 70402DE9 		push	{r4, r5, r6, lr}
 187              		.cfi_def_cfa_offset 16
 188              		.cfi_offset 4, -16
 189              		.cfi_offset 5, -12
 190              		.cfi_offset 6, -8
 191              		.cfi_offset 14, -4
 192              		.loc 1 103 0
 193 0004 0040A0E1 		mov	r4, r0
 194              		.loc 1 105 0
 195              		.syntax divided
 196              	@ 105 "../../os/kernel/src/chcond.c" 1
 197 0008 9FF021E3 		msr     CPSR_c, #0x9F
 198              	@ 0 "" 2
 199              	.LVL13:
 200              		.arm
 201              		.syntax unified
 202              	.LBB26:
 203              	.LBB27:
 204              		.loc 1 130 0
 205 000c 000090E5 		ldr	r0, [r0]
 206              	.LVL14:
 207 0010 040050E1 		cmp	r0, r4
 208              		.loc 1 131 0
 209 0014 0150E013 		mvnne	r5, #1
 210              		.loc 1 130 0
 211 0018 0700000A 		beq	.L18
 212              	.L17:
 213              	.LVL15:
 214              	.LBB28:
 215              	.LBB29:
 216              		.loc 2 55 0
 217 001c 003090E5 		ldr	r3, [r0]
 218 0020 003084E5 		str	r3, [r4]
 219 0024 044083E5 		str	r4, [r3, #4]
 220              	.LVL16:
 221              	.LBE29:
 222              	.LBE28:
 223              		.loc 1 131 0
 224 0028 FEFFFFEB 		bl	chSchReadyI
 225              	.LVL17:
 226 002c 245080E5 		str	r5, [r0, #36]
 227              		.loc 1 130 0
 228 0030 000094E5 		ldr	r0, [r4]
ARM GAS  /tmp/ccBwyosj.s 			page 5


 229 0034 040050E1 		cmp	r0, r4
 230 0038 F7FFFF1A 		bne	.L17
 231              	.L18:
 232              	.LVL18:
 233              	.LBE27:
 234              	.LBE26:
 235              		.loc 1 107 0
 236 003c FEFFFFEB 		bl	chSchRescheduleS
 237              	.LVL19:
 238              		.loc 1 108 0
 239              		.syntax divided
 240              	@ 108 "../../os/kernel/src/chcond.c" 1
 241 0040 1FF021E3 		msr     CPSR_c, #0x1F
 242              	@ 0 "" 2
 243              		.loc 1 109 0
 244              		.arm
 245              		.syntax unified
 246 0044 7080BDE8 		pop	{r4, r5, r6, pc}
 247              		.cfi_endproc
 248              	.LFE10:
 249              		.size	chCondBroadcast, .-chCondBroadcast
 250              		.section	.text.chCondBroadcastI,"ax",%progbits
 251              		.align	2
 252              		.global	chCondBroadcastI
 253              		.syntax unified
 254              		.arm
 255              		.fpu softvfp
 256              		.type	chCondBroadcastI, %function
 257              	chCondBroadcastI:
 258              	.LFB11:
 259              		.loc 1 122 0
 260              		.cfi_startproc
 261              		@ args = 0, pretend = 0, frame = 0
 262              		@ frame_needed = 0, uses_anonymous_args = 0
 263              	.LVL20:
 264 0000 70402DE9 		push	{r4, r5, r6, lr}
 265              		.cfi_def_cfa_offset 16
 266              		.cfi_offset 4, -16
 267              		.cfi_offset 5, -12
 268              		.cfi_offset 6, -8
 269              		.cfi_offset 14, -4
 270              		.loc 1 122 0
 271 0004 0040A0E1 		mov	r4, r0
 272              		.loc 1 130 0
 273 0008 000090E5 		ldr	r0, [r0]
 274              	.LVL21:
 275 000c 040050E1 		cmp	r0, r4
 276 0010 7080BD08 		popeq	{r4, r5, r6, pc}
 277              		.loc 1 131 0
 278 0014 0150E0E3 		mvn	r5, #1
 279              	.L24:
 280              	.LVL22:
 281              	.LBB30:
 282              	.LBB31:
 283              		.loc 2 55 0
 284 0018 003090E5 		ldr	r3, [r0]
 285 001c 003084E5 		str	r3, [r4]
ARM GAS  /tmp/ccBwyosj.s 			page 6


 286 0020 044083E5 		str	r4, [r3, #4]
 287              	.LVL23:
 288              	.LBE31:
 289              	.LBE30:
 290              		.loc 1 131 0
 291 0024 FEFFFFEB 		bl	chSchReadyI
 292              	.LVL24:
 293 0028 245080E5 		str	r5, [r0, #36]
 294              		.loc 1 130 0
 295 002c 000094E5 		ldr	r0, [r4]
 296 0030 040050E1 		cmp	r0, r4
 297 0034 F7FFFF1A 		bne	.L24
 298 0038 7080BDE8 		pop	{r4, r5, r6, pc}
 299              		.cfi_endproc
 300              	.LFE11:
 301              		.size	chCondBroadcastI, .-chCondBroadcastI
 302              		.section	.text.chCondWaitS,"ax",%progbits
 303              		.align	2
 304              		.global	chCondWaitS
 305              		.syntax unified
 306              		.arm
 307              		.fpu softvfp
 308              		.type	chCondWaitS, %function
 309              	chCondWaitS:
 310              	.LFB13:
 311              		.loc 1 177 0
 312              		.cfi_startproc
 313              		@ args = 0, pretend = 0, frame = 0
 314              		@ frame_needed = 0, uses_anonymous_args = 0
 315              	.LVL25:
 316              		.loc 1 178 0
 317 0000 68309FE5 		ldr	r3, .L36
 318              		.loc 1 177 0
 319 0004 70402DE9 		push	{r4, r5, r6, lr}
 320              		.cfi_def_cfa_offset 16
 321              		.cfi_offset 4, -16
 322              		.cfi_offset 5, -12
 323              		.cfi_offset 6, -8
 324              		.cfi_offset 14, -4
 325              		.loc 1 177 0
 326 0008 0050A0E1 		mov	r5, r0
 327              		.loc 1 178 0
 328 000c 184093E5 		ldr	r4, [r3, #24]
 329              	.LVL26:
 330              		.loc 1 188 0
 331 0010 FEFFFFEB 		bl	chMtxUnlockS
 332              	.LVL27:
 333              		.loc 1 190 0
 334 0014 0530A0E1 		mov	r3, r5
 335              		.loc 1 188 0
 336 0018 0060A0E1 		mov	r6, r0
 337              	.LVL28:
 338              		.loc 1 189 0
 339 001c 245084E5 		str	r5, [r4, #36]
 340              	.LVL29:
 341 0020 030000EA 		b	.L30
 342              	.LVL30:
ARM GAS  /tmp/ccBwyosj.s 			page 7


 343              	.L35:
 344              	.LBB32:
 345              	.LBB33:
 346              		.loc 2 39 0
 347 0024 081093E5 		ldr	r1, [r3, #8]
 348 0028 082094E5 		ldr	r2, [r4, #8]
 349 002c 020051E1 		cmp	r1, r2
 350 0030 0200003A 		bcc	.L31
 351              	.L30:
 352              		.loc 2 38 0
 353 0034 003093E5 		ldr	r3, [r3]
 354              	.LVL31:
 355              		.loc 2 39 0
 356 0038 030055E1 		cmp	r5, r3
 357 003c F8FFFF1A 		bne	.L35
 358              	.L31:
 359              		.loc 2 41 0
 360 0040 042093E5 		ldr	r2, [r3, #4]
 361              	.LBE33:
 362              	.LBE32:
 363              		.loc 1 191 0
 364 0044 0500A0E3 		mov	r0, #5
 365              	.LVL32:
 366              	.LBB35:
 367              	.LBB34:
 368              		.loc 2 40 0
 369 0048 003084E5 		str	r3, [r4]
 370              		.loc 2 41 0
 371 004c 042084E5 		str	r2, [r4, #4]
 372              		.loc 2 42 0
 373 0050 044083E5 		str	r4, [r3, #4]
 374 0054 004082E5 		str	r4, [r2]
 375              	.LVL33:
 376              	.LBE34:
 377              	.LBE35:
 378              		.loc 1 191 0
 379 0058 FEFFFFEB 		bl	chSchGoSleepS
 380              	.LVL34:
 381              		.loc 1 192 0
 382 005c 244094E5 		ldr	r4, [r4, #36]
 383              	.LVL35:
 384              		.loc 1 193 0
 385 0060 0600A0E1 		mov	r0, r6
 386 0064 FEFFFFEB 		bl	chMtxLockS
 387              	.LVL36:
 388              		.loc 1 195 0
 389 0068 0400A0E1 		mov	r0, r4
 390 006c 7080BDE8 		pop	{r4, r5, r6, pc}
 391              	.L37:
 392              		.align	2
 393              	.L36:
 394 0070 00000000 		.word	rlist
 395              		.cfi_endproc
 396              	.LFE13:
 397              		.size	chCondWaitS, .-chCondWaitS
 398              		.section	.text.chCondWait,"ax",%progbits
 399              		.align	2
ARM GAS  /tmp/ccBwyosj.s 			page 8


 400              		.global	chCondWait
 401              		.syntax unified
 402              		.arm
 403              		.fpu softvfp
 404              		.type	chCondWait, %function
 405              	chCondWait:
 406              	.LFB12:
 407              		.loc 1 151 0
 408              		.cfi_startproc
 409              		@ args = 0, pretend = 0, frame = 0
 410              		@ frame_needed = 0, uses_anonymous_args = 0
 411              	.LVL37:
 412 0000 10402DE9 		push	{r4, lr}
 413              		.cfi_def_cfa_offset 8
 414              		.cfi_offset 4, -8
 415              		.cfi_offset 14, -4
 416              		.loc 1 154 0
 417              		.syntax divided
 418              	@ 154 "../../os/kernel/src/chcond.c" 1
 419 0004 9FF021E3 		msr     CPSR_c, #0x9F
 420              	@ 0 "" 2
 421              		.loc 1 155 0
 422              		.arm
 423              		.syntax unified
 424 0008 FEFFFFEB 		bl	chCondWaitS
 425              	.LVL38:
 426              		.loc 1 156 0
 427              		.syntax divided
 428              	@ 156 "../../os/kernel/src/chcond.c" 1
 429 000c 1FF021E3 		msr     CPSR_c, #0x1F
 430              	@ 0 "" 2
 431              		.loc 1 158 0
 432              		.arm
 433              		.syntax unified
 434 0010 1080BDE8 		pop	{r4, pc}
 435              		.cfi_endproc
 436              	.LFE12:
 437              		.size	chCondWait, .-chCondWait
 438              		.section	.text.chCondWaitTimeoutS,"ax",%progbits
 439              		.align	2
 440              		.global	chCondWaitTimeoutS
 441              		.syntax unified
 442              		.arm
 443              		.fpu softvfp
 444              		.type	chCondWaitTimeoutS, %function
 445              	chCondWaitTimeoutS:
 446              	.LFB15:
 447              		.loc 1 263 0
 448              		.cfi_startproc
 449              		@ args = 0, pretend = 0, frame = 0
 450              		@ frame_needed = 0, uses_anonymous_args = 0
 451              	.LVL39:
 452 0000 70402DE9 		push	{r4, r5, r6, lr}
 453              		.cfi_def_cfa_offset 16
 454              		.cfi_offset 4, -16
 455              		.cfi_offset 5, -12
 456              		.cfi_offset 6, -8
ARM GAS  /tmp/ccBwyosj.s 			page 9


 457              		.cfi_offset 14, -4
 458              		.loc 1 263 0
 459 0004 0040A0E1 		mov	r4, r0
 460 0008 0160A0E1 		mov	r6, r1
 461              		.loc 1 273 0
 462 000c FEFFFFEB 		bl	chMtxUnlockS
 463              	.LVL40:
 464              		.loc 1 274 0
 465 0010 68209FE5 		ldr	r2, .L48
 466              		.loc 1 273 0
 467 0014 0050A0E1 		mov	r5, r0
 468              	.LVL41:
 469              		.loc 1 274 0
 470 0018 18C092E5 		ldr	ip, [r2, #24]
 471              		.loc 1 275 0
 472 001c 0430A0E1 		mov	r3, r4
 473              		.loc 1 274 0
 474 0020 24408CE5 		str	r4, [ip, #36]
 475              	.LVL42:
 476 0024 030000EA 		b	.L44
 477              	.LVL43:
 478              	.L41:
 479              	.LBB36:
 480              	.LBB37:
 481              		.loc 2 39 0
 482 0028 080093E5 		ldr	r0, [r3, #8]
 483 002c 08209CE5 		ldr	r2, [ip, #8]
 484 0030 020050E1 		cmp	r0, r2
 485 0034 0200003A 		bcc	.L45
 486              	.L44:
 487              		.loc 2 38 0
 488 0038 003093E5 		ldr	r3, [r3]
 489              	.LVL44:
 490              		.loc 2 39 0
 491 003c 030054E1 		cmp	r4, r3
 492 0040 F8FFFF1A 		bne	.L41
 493              	.L45:
 494              		.loc 2 41 0
 495 0044 042093E5 		ldr	r2, [r3, #4]
 496              	.LBE37:
 497              	.LBE36:
 498              		.loc 1 276 0
 499 0048 0610A0E1 		mov	r1, r6
 500              	.LBB40:
 501              	.LBB38:
 502              		.loc 2 40 0
 503 004c 00308CE5 		str	r3, [ip]
 504              		.loc 2 41 0
 505 0050 04208CE5 		str	r2, [ip, #4]
 506              	.LBE38:
 507              	.LBE40:
 508              		.loc 1 276 0
 509 0054 0500A0E3 		mov	r0, #5
 510              	.LBB41:
 511              	.LBB39:
 512              		.loc 2 42 0
 513 0058 04C083E5 		str	ip, [r3, #4]
ARM GAS  /tmp/ccBwyosj.s 			page 10


 514 005c 00C082E5 		str	ip, [r2]
 515              	.LVL45:
 516              	.LBE39:
 517              	.LBE41:
 518              		.loc 1 276 0
 519 0060 FEFFFFEB 		bl	chSchGoSleepTimeoutS
 520              	.LVL46:
 521              		.loc 1 277 0
 522 0064 010070E3 		cmn	r0, #1
 523              		.loc 1 276 0
 524 0068 0040A0E1 		mov	r4, r0
 525              	.LVL47:
 526              		.loc 1 277 0
 527 006c 0100000A 		beq	.L40
 528              		.loc 1 278 0
 529 0070 0500A0E1 		mov	r0, r5
 530              	.LVL48:
 531 0074 FEFFFFEB 		bl	chMtxLockS
 532              	.LVL49:
 533              	.L40:
 534              		.loc 1 280 0
 535 0078 0400A0E1 		mov	r0, r4
 536 007c 7080BDE8 		pop	{r4, r5, r6, pc}
 537              	.L49:
 538              		.align	2
 539              	.L48:
 540 0080 00000000 		.word	rlist
 541              		.cfi_endproc
 542              	.LFE15:
 543              		.size	chCondWaitTimeoutS, .-chCondWaitTimeoutS
 544              		.section	.text.chCondWaitTimeout,"ax",%progbits
 545              		.align	2
 546              		.global	chCondWaitTimeout
 547              		.syntax unified
 548              		.arm
 549              		.fpu softvfp
 550              		.type	chCondWaitTimeout, %function
 551              	chCondWaitTimeout:
 552              	.LFB14:
 553              		.loc 1 226 0
 554              		.cfi_startproc
 555              		@ args = 0, pretend = 0, frame = 0
 556              		@ frame_needed = 0, uses_anonymous_args = 0
 557              	.LVL50:
 558 0000 10402DE9 		push	{r4, lr}
 559              		.cfi_def_cfa_offset 8
 560              		.cfi_offset 4, -8
 561              		.cfi_offset 14, -4
 562              		.loc 1 229 0
 563              		.syntax divided
 564              	@ 229 "../../os/kernel/src/chcond.c" 1
 565 0004 9FF021E3 		msr     CPSR_c, #0x9F
 566              	@ 0 "" 2
 567              		.loc 1 230 0
 568              		.arm
 569              		.syntax unified
 570 0008 FEFFFFEB 		bl	chCondWaitTimeoutS
ARM GAS  /tmp/ccBwyosj.s 			page 11


 571              	.LVL51:
 572              		.loc 1 231 0
 573              		.syntax divided
 574              	@ 231 "../../os/kernel/src/chcond.c" 1
 575 000c 1FF021E3 		msr     CPSR_c, #0x1F
 576              	@ 0 "" 2
 577              		.loc 1 233 0
 578              		.arm
 579              		.syntax unified
 580 0010 1080BDE8 		pop	{r4, pc}
 581              		.cfi_endproc
 582              	.LFE14:
 583              		.size	chCondWaitTimeout, .-chCondWaitTimeout
 584              		.text
 585              	.Letext0:
 586              		.file 3 "/usr/include/newlib/machine/_default_types.h"
 587              		.file 4 "/usr/include/newlib/sys/_stdint.h"
 588              		.file 5 "../../os/ports/GCC/ARM/chtypes.h"
 589              		.file 6 "../../os/kernel/include/chlists.h"
 590              		.file 7 "../../os/kernel/include/chthreads.h"
 591              		.file 8 "../../os/ports/GCC/ARM/chcore.h"
 592              		.file 9 "../../os/kernel/include/chvt.h"
 593              		.file 10 "../../os/kernel/include/chschd.h"
 594              		.file 11 "../../os/kernel/include/chmtx.h"
 595              		.file 12 "../../os/kernel/include/chcond.h"
 596              		.file 13 "../../os/kernel/include/chregistry.h"
 597              		.file 14 "../../os/kernel/include/ch.h"