ARM GAS  /tmp/ccBwyosj.s 			page 1


   1              		.cpu arm1176jz-s
   2              		.eabi_attribute 20, 1
   3              		.eabi_attribute 21, 1
   4              		.eabi_attribute 23, 3
   5              		.eabi_attribute 24, 1
   6              		.eabi_attribute 25, 1
   7              		.eabi_attribute 26, 1
   8              		.eabi_attribute 30, 2
   9              		.eabi_attribute 34, 1
  10              		.eabi_attribute 18, 4
  11              		.file	"chcond.c"
  12              		.text
  13              	.Ltext0:
  14              		.cfi_sections	.debug_frame
  15              		.section	.text.chCondInit,"ax",%progbits
  16              		.align	2
  17              		.global	chCondInit
  18              		.syntax unified
  19              		.arm
  20              		.fpu softvfp
  21              		.type	chCondInit, %function
  22              	chCondInit:
  23              	.LFB7:
  24              		.file 1 "../../os/kernel/src/chcond.c"
  25              		.loc 1 52 0
  26              		.cfi_startproc
  27              		@ args = 0, pretend = 0, frame = 0
  28              		@ frame_needed = 0, uses_anonymous_args = 0
  29              		@ link register save eliminated.
  30              	.LVL0:
  31              		.loc 1 56 0
  32 0000 040080E5 		str	r0, [r0, #4]
  33 0004 000080E5 		str	r0, [r0]
  34 0008 1EFF2FE1 		bx	lr
  35              		.cfi_endproc
  36              	.LFE7:
  37              		.size	chCondInit, .-chCondInit
  38              		.section	.text.chCondSignal,"ax",%progbits
  39              		.align	2
  40              		.global	chCondSignal
  41              		.syntax unified
  42              		.arm
  43              		.fpu softvfp
  44              		.type	chCondSignal, %function
  45              	chCondSignal:
  46              	.LFB8:
  47              		.loc 1 66 0
  48              		.cfi_startproc
  49              		@ args = 0, pretend = 0, frame = 0
  50              		@ frame_needed = 0, uses_anonymous_args = 0
  51              	.LVL1:
  52              		.loc 1 70 0
  53              		.syntax divided
  54              	@ 70 "../../os/kernel/src/chcond.c" 1
  55 0000 9FF021E3 		msr     CPSR_c, #0x9F
  56              	@ 0 "" 2
  57              		.loc 1 71 0
ARM GAS  /tmp/ccBwyosj.s 			page 2


  58              		.arm
  59              		.syntax unified
  60 0004 002090E5 		ldr	r2, [r0]
  61 0008 000052E1 		cmp	r2, r0
  62 000c 0900000A 		beq	.L5
  63 0010 0030A0E1 		mov	r3, r0
  64              	.LVL2:
  65              	.LBB16:
  66              	.LBB17:
  67              		.file 2 "../../os/kernel/include/chinline.h"
  68              		.loc 2 55 0
  69 0014 00C092E5 		ldr	ip, [r2]
  70              	.LBE17:
  71              	.LBE16:
  72              		.loc 1 66 0
  73 0018 10402DE9 		push	{r4, lr}
  74              		.cfi_def_cfa_offset 8
  75              		.cfi_offset 4, -8
  76              		.cfi_offset 14, -4
  77              		.loc 1 72 0
  78 001c 0200A0E1 		mov	r0, r2
  79              	.LVL3:
  80              	.LBB20:
  81              	.LBB18:
  82              		.loc 2 55 0
  83 0020 00C083E5 		str	ip, [r3]
  84              	.LBE18:
  85              	.LBE20:
  86              		.loc 1 72 0
  87 0024 0010A0E3 		mov	r1, #0
  88              	.LBB21:
  89              	.LBB19:
  90              		.loc 2 55 0
  91 0028 04308CE5 		str	r3, [ip, #4]
  92              	.LVL4:
  93              	.LBE19:
  94              	.LBE21:
  95              		.loc 1 72 0
  96 002c FEFFFFEB 		bl	chSchWakeupS
  97              	.LVL5:
  98              		.loc 1 73 0
  99              		.syntax divided
 100              	@ 73 "../../os/kernel/src/chcond.c" 1
 101 0030 1FF021E3 		msr     CPSR_c, #0x1F
 102              	@ 0 "" 2
 103              		.arm
 104              		.syntax unified
 105 0034 1080BDE8 		pop	{r4, pc}
 106              	.LVL6:
 107              	.L5:
 108              		.cfi_def_cfa_offset 0
 109              		.cfi_restore 4
 110              		.cfi_restore 14
 111              		.syntax divided
 112              	@ 73 "../../os/kernel/src/chcond.c" 1
 113 0038 1FF021E3 		msr     CPSR_c, #0x1F
 114              	@ 0 "" 2
ARM GAS  /tmp/ccBwyosj.s 			page 3


 115              		.arm
 116              		.syntax unified
 117 003c 1EFF2FE1 		bx	lr
 118              		.cfi_endproc
 119              	.LFE8:
 120              		.size	chCondSignal, .-chCondSignal
 121              		.section	.text.chCondSignalI,"ax",%progbits
 122              		.align	2
 123              		.global	chCondSignalI
 124              		.syntax unified
 125              		.arm
 126              		.fpu softvfp
 127              		.type	chCondSignalI, %function
 128              	chCondSignalI:
 129              	.LFB9:
 130              		.loc 1 87 0
 131              		.cfi_startproc
 132              		@ args = 0, pretend = 0, frame = 0
 133              		@ frame_needed = 0, uses_anonymous_args = 0
 134              	.LVL7:
 135              		.loc 1 92 0
 136 0000 002090E5 		ldr	r2, [r0]
 137 0004 000052E1 		cmp	r2, r0
 138 0008 1EFF2F01 		bxeq	lr
 139 000c 0030A0E1 		mov	r3, r0
 140              	.LVL8:
 141              	.LBB22:
 142              	.LBB23:
 143              		.loc 2 55 0
 144 0010 001092E5 		ldr	r1, [r2]
 145              	.LBE23:
 146              	.LBE22:
 147              		.loc 1 87 0
 148 0014 10402DE9 		push	{r4, lr}
 149              		.cfi_def_cfa_offset 8
 150              		.cfi_offset 4, -8
 151              		.cfi_offset 14, -4
 152              		.loc 1 93 0
 153 0018 0200A0E1 		mov	r0, r2
 154              	.LVL9:
 155              	.LBB25:
 156              	.LBB24:
 157              		.loc 2 55 0
 158 001c 001083E5 		str	r1, [r3]
 159 0020 043081E5 		str	r3, [r1, #4]
 160              	.LVL10:
 161              	.LBE24:
 162              	.LBE25:
 163              		.loc 1 93 0
 164 0024 FEFFFFEB 		bl	chSchReadyI
 165              	.LVL11:
 166 0028 0030A0E3 		mov	r3, #0
 167 002c 243080E5 		str	r3, [r0, #36]
 168 0030 1080BDE8 		pop	{r4, pc}
 169              		.cfi_endproc
 170              	.LFE9:
 171              		.size	chCondSignalI, .-chCondSignalI
ARM GAS  /tmp/ccBwyosj.s 			page 4


 172              		.section	.text.chCondBroadcast,"ax",%progbits
 173              		.align	2
 174              		.global	chCondBroadcast
 175              		.syntax unified
 176              		.arm
 177              		.fpu softvfp
 178              		.type	chCondBroadcast, %function
 179              	chCondBroadcast:
 180              	.LFB10:
 181              		.loc 1 103 0
 182              		.cfi_startproc
 183              		@ args = 0, pretend = 0, frame = 0
 184              		@ frame_needed = 0, uses_anonymous_args = 0
 185              	.LVL12:
 186 0000 70402DE9 		push	{r4, r5, r6, lr}
 187              		.cfi_def_cfa_offset 16
 188              		.cfi_offset 4, -16
 189              		.cfi_offset 5, -12
 190              		.cfi_offset 6, -8
 191              		.cfi_offset 14, -4
 192              		.loc 1 103 0
 193 0004 0040A0E1 		mov	r4, r0
 194              		.loc 1 105 0
 195              		.syntax divided
 196              	@ 105 "../../os/kernel/src/chcond.c" 1
 197 0008 9FF021E3 		msr     CPSR_c, #0x9F
 198              	@ 0 "" 2
 199              	.LVL13:
 200              		.arm
 201              		.syntax unified
 202              	.LBB26:
 203              	.LBB27:
 204              		.loc 1 130 0
 205 000c 000090E5 		ldr	r0, [r0]
 206              	.LVL14:
 207 0010 040050E1 		cmp	r0, r4
 208              		.loc 1 131 0
 209 0014 0150E013 		mvnne	r5, #1
 210              		.loc 1 130 0
 211 0018 0700000A 		beq	.L18
 212              	.L17:
 213              	.LVL15:
 214              	.LBB28:
 215              	.LBB29:
 216              		.loc 2 55 0
 217 001c 003090E5 		ldr	r3, [r0]
 218 0020 003084E5 		str	r3, [r4]
 219 0024 044083E5 		str	r4, [r3, #4]
 220              	.LVL16:
 221              	.LBE29:
 222              	.LBE28:
 223              		.loc 1 131 0
 224 0028 FEFFFFEB 		bl	chSchReadyI
 225              	.LVL17:
 226 002c 245080E5 		str	r5, [r0, #36]
 227              		.loc 1 130 0
 228 0030 000094E5 		ldr	r0, [r4]
ARM GAS  /tmp/ccBwyosj.s 			page 5


 229 0034 040050E1 		cmp	r0, r4
 230 0038 F7FFFF1A 		bne	.L17
 231              	.L18:
 232              	.LVL18:
 233              	.LBE27:
 234              	.LBE26:
 235              		.loc 1 107 0
 236 003c FEFFFFEB 		bl	chSchRescheduleS
 237              	.LVL19:
 238              		.loc 1 108 0
 239              		.syntax divided
 240              	@ 108 "../../os/kernel/src/chcond.c" 1
 241 0040 1FF021E3 		msr     CPSR_c, #0x1F
 242              	@ 0 "" 2
 243              		.loc 1 109 0
 244              		.arm
 245              		.syntax unified
 246 0044 7080BDE8 		pop	{r4, r5, r6, pc}
 247              		.cfi_endproc
 248              	.LFE10:
 249              		.size	chCondBroadcast, .-chCondBroadcast
 250              		.section	.text.chCondBroadcastI,"ax",%progbits
 251              		.align	2
 252              		.global	chCondBroadcastI
 253              		.syntax unified
 254              		.arm
 255              		.fpu softvfp
 256              		.type	chCondBroadcastI, %function
 257              	chCondBroadcastI:
 258              	.LFB11:
 259              		.loc 1 122 0
 260              		.cfi_startproc
 261              		@ args = 0, pretend = 0, frame = 0
 262              		@ frame_needed = 0, uses_anonymous_args = 0
 263              	.LVL20:
 264 0000 70402DE9 		push	{r4, r5, r6, lr}
 265              		.cfi_def_cfa_offset 16
 266              		.cfi_offset 4, -16
 267              		.cfi_offset 5, -12
 268              		.cfi_offset 6, -8
 269              		.cfi_offset 14, -4
 270              		.loc 1 122 0
 271 0004 0040A0E1 		mov	r4, r0
 272              		.loc 1 130 0
 273 0008 000090E5 		ldr	r0, [r0]
 274              	.LVL21:
 275 000c 040050E1 		cmp	r0, r4
 276 0010 7080BD08 		popeq	{r4, r5, r6, pc}
 277              		.loc 1 131 0
 278 0014 0150E0E3 		mvn	r5, #1
 279              	.L24:
 280              	.LVL22:
 281              	.LBB30:
 282              	.LBB31:
 283              		.loc 2 55 0
 284 0018 003090E5 		ldr	r3, [r0]
 285 001c 003084E5 		str	r3, [r4]
ARM GAS  /tmp/ccBwyosj.s 			page 6


 286 0020 044083E5 		str	r4, [r3, #4]
 287              	.LVL23:
 288              	.LBE31:
 289              	.LBE30:
 290              		.loc 1 131 0
 291 0024 FEFFFFEB 		bl	chSchReadyI
 292              	.LVL24:
 293 0028 245080E5 		str	r5, [r0, #36]
 294              		.loc 1 130 0
 295 002c 000094E5 		ldr	r0, [r4]
 296 0030 040050E1 		cmp	r0, r4
 297 0034 F7FFFF1A 		bne	.L24
 298 0038 7080BDE8 		pop	{r4, r5, r6, pc}
 299              		.cfi_endproc
 300              	.LFE11:
 301              		.size	chCondBroadcastI, .-chCondBroadcastI
 302              		.section	.text.chCondWaitS,"ax",%progbits
 303              		.align	2
 304              		.global	chCondWaitS
 305              		.syntax unified
 306              		.arm
 307              		.fpu softvfp
 308              		.type	chCondWaitS, %function
 309              	chCondWaitS:
 310              	.LFB13:
 311              		.loc 1 177 0
 312              		.cfi_startproc
 313              		@ args = 0, pretend = 0, frame = 0
 314              		@ frame_needed = 0, uses_anonymous_args = 0
 315              	.LVL25:
 316              		.loc 1 178 0
 317 0000 68309FE5 		ldr	r3, .L36
 318              		.loc 1 177 0
 319 0004 70402DE9 		push	{r4, r5, r6, lr}
 320              		.cfi_def_cfa_offset 16
 321              		.cfi_offset 4, -16
 322              		.cfi_offset 5, -12
 323              		.cfi_offset 6, -8
 324              		.cfi_offset 14, -4
 325              		.loc 1 177 0
 326 0008 0050A0E1 		mov	r5, r0
 327              		.loc 1 178 0
 328 000c 184093E5 		ldr	r4, [r3, #24]
 329              	.LVL26:
 330              		.loc 1 188 0
 331 0010 FEFFFFEB 		bl	chMtxUnlockS
 332              	.LVL27:
 333              		.loc 1 190 0
 334 0014 0530A0E1 		mov	r3, r5
 335              		.loc 1 188 0
 336 0018 0060A0E1 		mov	r6, r0
 337              	.LVL28:
 338              		.loc 1 189 0
 339 001c 245084E5 		str	r5, [r4, #36]
 340              	.LVL29:
 341 0020 030000EA 		b	.L30
 342              	.LVL30:
ARM GAS  /tmp/ccBwyosj.s 			page 7


 343              	.L35:
 344              	.LBB32:
 345              	.LBB33:
 346              		.loc 2 39 0
 347 0024 081093E5 		ldr	r1, [r3, #8]
 348 0028 082094E5 		ldr	r2, [r4, #8]
 349 002c 020051E1 		cmp	r1, r2
 350 0030 0200003A 		bcc	.L31
 351              	.L30:
 352              		.loc 2 38 0
 353 0034 003093E5 		ldr	r3, [r3]
 354              	.LVL31:
 355              		.loc 2 39 0
 356 0038 030055E1 		cmp	r5, r3
 357 003c F8FFFF1A 		bne	.L35
 358              	.L31:
 359              		.loc 2 41 0
 360 0040 042093E5 		ldr	r2, [r3, #4]
 361              	.LBE33:
 362              	.LBE32:
 363              		.loc 1 191 0
 364 0044 0500A0E3 		mov	r0, #5
 365              	.LVL32:
 366              	.LBB35:
 367              	.LBB34:
 368              		.loc 2 40 0
 369 0048 003084E5 		str	r3, [r4]
 370              		.loc 2 41 0
 371 004c 042084E5 		str	r2, [r4, #4]
 372              		.loc 2 42 0
 373 0050 044083E5 		str	r4, [r3, #4]
 374 0054 004082E5 		str	r4, [r2]
 375              	.LVL33:
 376              	.LBE34:
 377              	.LBE35:
 378              		.loc 1 191 0
 379 0058 FEFFFFEB 		bl	chSchGoSleepS
 380              	.LVL34:
 381              		.loc 1 192 0
 382 005c 244094E5 		ldr	r4, [r4, #36]
 383              	.LVL35:
 384              		.loc 1 193 0
 385 0060 0600A0E1 		mov	r0, r6
 386 0064 FEFFFFEB 		bl	chMtxLockS
 387              	.LVL36:
 388              		.loc 1 195 0
 389 0068 0400A0E1 		mov	r0, r4
 390 006c 7080BDE8 		pop	{r4, r5, r6, pc}
 391              	.L37:
 392              		.align	2
 393              	.L36:
 394 0070 00000000 		.word	rlist
 395              		.cfi_endproc
 396              	.LFE13:
 397              		.size	chCondWaitS, .-chCondWaitS
 398              		.section	.text.chCondWait,"ax",%progbits
 399              		.align	2
ARM GAS  /tmp/ccBwyosj.s 			page 8


 400              		.global	chCondWait
 401              		.syntax unified
 402              		.arm
 403              		.fpu softvfp
 404              		.type	chCondWait, %function
 405              	chCondWait:
 406              	.LFB12:
 407              		.loc 1 151 0
 408              		.cfi_startproc
 409              		@ args = 0, pretend = 0, frame = 0
 410              		@ frame_needed = 0, uses_anonymous_args = 0
 411              	.LVL37:
 412 0000 10402DE9 		push	{r4, lr}
 413              		.cfi_def_cfa_offset 8
 414              		.cfi_offset 4, -8
 415              		.cfi_offset 14, -4
 416              		.loc 1 154 0
 417              		.syntax divided
 418              	@ 154 "../../os/kernel/src/chcond.c" 1
 419 0004 9FF021E3 		msr     CPSR_c, #0x9F
 420              	@ 0 "" 2
 421              		.loc 1 155 0
 422              		.arm
 423              		.syntax unified
 424 0008 FEFFFFEB 		bl	chCondWaitS
 425              	.LVL38:
 426              		.loc 1 156 0
 427              		.syntax divided
 428              	@ 156 "../../os/kernel/src/chcond.c" 1
 429 000c 1FF021E3 		msr     CPSR_c, #0x1F
 430              	@ 0 "" 2
 431              		.loc 1 158 0
 432              		.arm
 433              		.syntax unified
 434 0010 1080BDE8 		pop	{r4, pc}
 435              		.cfi_endproc
 436              	.LFE12:
 437              		.size	chCondWait, .-chCondWait
 438              		.section	.text.chCondWaitTimeoutS,"ax",%progbits
 439              		.align	2
 440              		.global	chCondWaitTimeoutS
 441              		.syntax unified
 442              		.arm
 443              		.fpu softvfp
 444              		.type	chCondWaitTimeoutS, %function
 445              	chCondWaitTimeoutS:
 446              	.LFB15:
 447              		.loc 1 263 0
 448              		.cfi_startproc
 449              		@ args = 0, pretend = 0, frame = 0
 450              		@ frame_needed = 0, uses_anonymous_args = 0
 451              	.LVL39:
 452 0000 70402DE9 		push	{r4, r5, r6, lr}
 453              		.cfi_def_cfa_offset 16
 454              		.cfi_offset 4, -16
 455              		.cfi_offset 5, -12
 456              		.cfi_offset 6, -8
ARM GAS  /tmp/ccBwyosj.s 			page 9


 457              		.cfi_offset 14, -4
 458              		.loc 1 263 0
 459 0004 0040A0E1 		mov	r4, r0
 460 0008 0160A0E1 		mov	r6, r1
 461              		.loc 1 273 0
 462 000c FEFFFFEB 		bl	chMtxUnlockS
 463              	.LVL40:
 464              		.loc 1 274 0
 465 0010 68209FE5 		ldr	r2, .L48
 466              		.loc 1 273 0
 467 0014 0050A0E1 		mov	r5, r0
 468              	.LVL41:
 469              		.loc 1 274 0
 470 0018 18C092E5 		ldr	ip, [r2, #24]
 471              		.loc 1 275 0
 472 001c 0430A0E1 		mov	r3, r4
 473              		.loc 1 274 0
 474 0020 24408CE5 		str	r4, [ip, #36]
 475              	.LVL42:
 476 0024 030000EA 		b	.L44
 477              	.LVL43:
 478              	.L41:
 479              	.LBB36:
 480              	.LBB37:
 481              		.loc 2 39 0
 482 0028 080093E5 		ldr	r0, [r3, #8]
 483 002c 08209CE5 		ldr	r2, [ip, #8]
 484 0030 020050E1 		cmp	r0, r2
 485 0034 0200003A 		bcc	.L45
 486              	.L44:
 487              		.loc 2 38 0
 488 0038 003093E5 		ldr	r3, [r3]
 489              	.LVL44:
 490              		.loc 2 39 0
 491 003c 030054E1 		cmp	r4, r3
 492 0040 F8FFFF1A 		bne	.L41
 493              	.L45:
 494              		.loc 2 41 0
 495 0044 042093E5 		ldr	r2, [r3, #4]
 496              	.LBE37:
 497              	.LBE36:
 498              		.loc 1 276 0
 499 0048 0610A0E1 		mov	r1, r6
 500              	.LBB40:
 501              	.LBB38:
 502              		.loc 2 40 0
 503 004c 00308CE5 		str	r3, [ip]
 504              		.loc 2 41 0
 505 0050 04208CE5 		str	r2, [ip, #4]
 506              	.LBE38:
 507              	.LBE40:
 508              		.loc 1 276 0
 509 0054 0500A0E3 		mov	r0, #5
 510              	.LBB41:
 511              	.LBB39:
 512              		.loc 2 42 0
 513 0058 04C083E5 		str	ip, [r3, #4]
ARM GAS  /tmp/ccBwyosj.s 			page 10


 514 005c 00C082E5 		str	ip, [r2]
 515              	.LVL45:
 516              	.LBE39:
 517              	.LBE41:
 518              		.loc 1 276 0
 519 0060 FEFFFFEB 		bl	chSchGoSleepTimeoutS
 520              	.LVL46:
 521              		.loc 1 277 0
 522 0064 010070E3 		cmn	r0, #1
 523              		.loc 1 276 0
 524 0068 0040A0E1 		mov	r4, r0
 525              	.LVL47:
 526              		.loc 1 277 0
 527 006c 0100000A 		beq	.L40
 528              		.loc 1 278 0
 529 0070 0500A0E1 		mov	r0, r5
 530              	.LVL48:
 531 0074 FEFFFFEB 		bl	chMtxLockS
 532              	.LVL49:
 533              	.L40:
 534              		.loc 1 280 0
 535 0078 0400A0E1 		mov	r0, r4
 536 007c 7080BDE8 		pop	{r4, r5, r6, pc}
 537              	.L49:
 538              		.align	2
 539              	.L48:
 540 0080 00000000 		.word	rlist
 541              		.cfi_endproc
 542              	.LFE15:
 543              		.size	chCondWaitTimeoutS, .-chCondWaitTimeoutS
 544              		.section	.text.chCondWaitTimeout,"ax",%progbits
 545              		.align	2
 546              		.global	chCondWaitTimeout
 547              		.syntax unified
 548              		.arm
 549              		.fpu softvfp
 550              		.type	chCondWaitTimeout, %function
 551              	chCondWaitTimeout:
 552              	.LFB14:
 553              		.loc 1 226 0
 554              		.cfi_startproc
 555              		@ args = 0, pretend = 0, frame = 0
 556              		@ frame_needed = 0, uses_anonymous_args = 0
 557              	.LVL50:
 558 0000 10402DE9 		push	{r4, lr}
 559              		.cfi_def_cfa_offset 8
 560              		.cfi_offset 4, -8
 561              		.cfi_offset 14, -4
 562              		.loc 1 229 0
 563              		.syntax divided
 564              	@ 229 "../../os/kernel/src/chcond.c" 1
 565 0004 9FF021E3 		msr     CPSR_c, #0x9F
 566              	@ 0 "" 2
 567              		.loc 1 230 0
 568              		.arm
 569              		.syntax unified
 570 0008 FEFFFFEB 		bl	chCondWaitTimeoutS
ARM GAS  /tmp/ccBwyosj.s 			page 11


 571              	.LVL51:
 572              		.loc 1 231 0
 573              		.syntax divided
 574              	@ 231 "../../os/kernel/src/chcond.c" 1
 575 000c 1FF021E3 		msr     CPSR_c, #0x1F
 576              	@ 0 "" 2
 577              		.loc 1 233 0
 578              		.arm
 579              		.syntax unified
 580 0010 1080BDE8 		pop	{r4, pc}
 581              		.cfi_endproc
 582              	.LFE14:
 583              		.size	chCondWaitTimeout, .-chCondWaitTimeout
 584              		.text
 585              	.Letext0:
 586              		.file 3 "/usr/include/newlib/machine/_default_types.h"
 587              		.file 4 "/usr/include/newlib/sys/_stdint.h"
 588              		.file 5 "../../os/ports/GCC/ARM/chtypes.h"
 589              		.file 6 "../../os/kernel/include/chlists.h"
 590              		.file 7 "../../os/kernel/include/chthreads.h"
 591              		.file 8 "../../os/ports/GCC/ARM/chcore.h"
 592              		.file 9 "../../os/kernel/include/chvt.h"
 593              		.file 10 "../../os/kernel/include/chschd.h"
 594              		.file 11 "../../os/kernel/include/chmtx.h"
 595              		.file 12 "../../os/kernel/include/chcond.h"
 596              		.file 13 "../../os/kernel/include/chregistry.h"
 597              		.file 14 "../../os/kernel/include/ch.h"
 598              		.section	.debug_info,"",%progbits
 599              	.Ldebug_info0:
 600 0000 AC0A0000 		.4byte	0xaac
 601 0004 0400     		.2byte	0x4
 602 0006 00000000 		.4byte	.Ldebug_abbrev0
 603 000a 04       		.byte	0x4
 604 000b 01       		.uleb128 0x1
 605 000c 7E040000 		.4byte	.LASF117
 606 0010 0C       		.byte	0xc
 607 0011 95010000 		.4byte	.LASF118
 608 0015 4D000000 		.4byte	.LASF119
 609 0019 70000000 		.4byte	.Ldebug_ranges0+0x70
 610 001d 00000000 		.4byte	0
 611 0021 00000000 		.4byte	.Ldebug_line0
 612 0025 02       		.uleb128 0x2
 613 0026 04       		.byte	0x4
 614 0027 05       		.byte	0x5
 615 0028 696E7400 		.ascii	"int\000"
 616 002c 03       		.uleb128 0x3
 617 002d 04       		.byte	0x4
 618 002e 07       		.byte	0x7
 619 002f CC010000 		.4byte	.LASF0
 620 0033 03       		.uleb128 0x3
 621 0034 01       		.byte	0x1
 622 0035 06       		.byte	0x6
 623 0036 D1000000 		.4byte	.LASF1
 624 003a 04       		.uleb128 0x4
 625 003b 25000000 		.4byte	.LASF4
 626 003f 03       		.byte	0x3
 627 0040 1D       		.byte	0x1d
ARM GAS  /tmp/ccBwyosj.s 			page 12


 628 0041 45000000 		.4byte	0x45
 629 0045 03       		.uleb128 0x3
 630 0046 01       		.byte	0x1
 631 0047 08       		.byte	0x8
 632 0048 54030000 		.4byte	.LASF2
 633 004c 03       		.uleb128 0x3
 634 004d 02       		.byte	0x2
 635 004e 05       		.byte	0x5
 636 004f 6C030000 		.4byte	.LASF3
 637 0053 04       		.uleb128 0x4
 638 0054 23040000 		.4byte	.LASF5
 639 0058 03       		.byte	0x3
 640 0059 2B       		.byte	0x2b
 641 005a 5E000000 		.4byte	0x5e
 642 005e 03       		.uleb128 0x3
 643 005f 02       		.byte	0x2
 644 0060 07       		.byte	0x7
 645 0061 1B020000 		.4byte	.LASF6
 646 0065 04       		.uleb128 0x4
 647 0066 56040000 		.4byte	.LASF7
 648 006a 03       		.byte	0x3
 649 006b 3F       		.byte	0x3f
 650 006c 70000000 		.4byte	0x70
 651 0070 03       		.uleb128 0x3
 652 0071 04       		.byte	0x4
 653 0072 05       		.byte	0x5
 654 0073 14010000 		.4byte	.LASF8
 655 0077 04       		.uleb128 0x4
 656 0078 79010000 		.4byte	.LASF9
 657 007c 03       		.byte	0x3
 658 007d 41       		.byte	0x41
 659 007e 82000000 		.4byte	0x82
 660 0082 03       		.uleb128 0x3
 661 0083 04       		.byte	0x4
 662 0084 07       		.byte	0x7
 663 0085 E1010000 		.4byte	.LASF10
 664 0089 03       		.uleb128 0x3
 665 008a 08       		.byte	0x8
 666 008b 05       		.byte	0x5
 667 008c C3000000 		.4byte	.LASF11
 668 0090 03       		.uleb128 0x3
 669 0091 08       		.byte	0x8
 670 0092 07       		.byte	0x7
 671 0093 36000000 		.4byte	.LASF12
 672 0097 04       		.uleb128 0x4
 673 0098 3A050000 		.4byte	.LASF13
 674 009c 04       		.byte	0x4
 675 009d 18       		.byte	0x18
 676 009e 3A000000 		.4byte	0x3a
 677 00a2 04       		.uleb128 0x4
 678 00a3 3D010000 		.4byte	.LASF14
 679 00a7 04       		.byte	0x4
 680 00a8 24       		.byte	0x24
 681 00a9 53000000 		.4byte	0x53
 682 00ad 04       		.uleb128 0x4
 683 00ae 4C030000 		.4byte	.LASF15
 684 00b2 04       		.byte	0x4
ARM GAS  /tmp/ccBwyosj.s 			page 13


 685 00b3 2C       		.byte	0x2c
 686 00b4 65000000 		.4byte	0x65
 687 00b8 04       		.uleb128 0x4
 688 00b9 E8030000 		.4byte	.LASF16
 689 00bd 04       		.byte	0x4
 690 00be 30       		.byte	0x30
 691 00bf 77000000 		.4byte	0x77
 692 00c3 04       		.uleb128 0x4
 693 00c4 49020000 		.4byte	.LASF17
 694 00c8 05       		.byte	0x5
 695 00c9 2A       		.byte	0x2a
 696 00ca 97000000 		.4byte	0x97
 697 00ce 04       		.uleb128 0x4
 698 00cf 29010000 		.4byte	.LASF18
 699 00d3 05       		.byte	0x5
 700 00d4 2B       		.byte	0x2b
 701 00d5 97000000 		.4byte	0x97
 702 00d9 04       		.uleb128 0x4
 703 00da 1C030000 		.4byte	.LASF19
 704 00de 05       		.byte	0x5
 705 00df 2C       		.byte	0x2c
 706 00e0 97000000 		.4byte	0x97
 707 00e4 04       		.uleb128 0x4
 708 00e5 02010000 		.4byte	.LASF20
 709 00e9 05       		.byte	0x5
 710 00ea 2D       		.byte	0x2d
 711 00eb 97000000 		.4byte	0x97
 712 00ef 04       		.uleb128 0x4
 713 00f0 36030000 		.4byte	.LASF21
 714 00f4 05       		.byte	0x5
 715 00f5 2E       		.byte	0x2e
 716 00f6 B8000000 		.4byte	0xb8
 717 00fa 04       		.uleb128 0x4
 718 00fb 3B020000 		.4byte	.LASF22
 719 00ff 05       		.byte	0x5
 720 0100 2F       		.byte	0x2f
 721 0101 AD000000 		.4byte	0xad
 722 0105 04       		.uleb128 0x4
 723 0106 5D020000 		.4byte	.LASF23
 724 010a 05       		.byte	0x5
 725 010b 31       		.byte	0x31
 726 010c B8000000 		.4byte	0xb8
 727 0110 04       		.uleb128 0x4
 728 0111 41040000 		.4byte	.LASF24
 729 0115 05       		.byte	0x5
 730 0116 33       		.byte	0x33
 731 0117 B8000000 		.4byte	0xb8
 732 011b 05       		.uleb128 0x5
 733 011c 10010000 		.4byte	0x110
 734 0120 04       		.uleb128 0x4
 735 0121 C0030000 		.4byte	.LASF25
 736 0125 06       		.byte	0x6
 737 0126 23       		.byte	0x23
 738 0127 2B010000 		.4byte	0x12b
 739 012b 06       		.uleb128 0x6
 740 012c C0030000 		.4byte	.LASF25
 741 0130 44       		.byte	0x44
ARM GAS  /tmp/ccBwyosj.s 			page 14


 742 0131 07       		.byte	0x7
 743 0132 57       		.byte	0x57
 744 0133 1C020000 		.4byte	0x21c
 745 0137 07       		.uleb128 0x7
 746 0138 A2030000 		.4byte	.LASF26
 747 013c 07       		.byte	0x7
 748 013d 58       		.byte	0x58
 749 013e 3D020000 		.4byte	0x23d
 750 0142 00       		.byte	0
 751 0143 07       		.uleb128 0x7
 752 0144 2F030000 		.4byte	.LASF27
 753 0148 07       		.byte	0x7
 754 0149 5A       		.byte	0x5a
 755 014a 3D020000 		.4byte	0x23d
 756 014e 04       		.byte	0x4
 757 014f 07       		.uleb128 0x7
 758 0150 AF000000 		.4byte	.LASF28
 759 0154 07       		.byte	0x7
 760 0155 5C       		.byte	0x5c
 761 0156 EF000000 		.4byte	0xef
 762 015a 08       		.byte	0x8
 763 015b 07       		.uleb128 0x7
 764 015c A9050000 		.4byte	.LASF29
 765 0160 07       		.byte	0x7
 766 0161 5D       		.byte	0x5d
 767 0162 F8020000 		.4byte	0x2f8
 768 0166 0C       		.byte	0xc
 769 0167 07       		.uleb128 0x7
 770 0168 50010000 		.4byte	.LASF30
 771 016c 07       		.byte	0x7
 772 016d 5F       		.byte	0x5f
 773 016e 3D020000 		.4byte	0x23d
 774 0172 10       		.byte	0x10
 775 0173 07       		.uleb128 0x7
 776 0174 D2020000 		.4byte	.LASF31
 777 0178 07       		.byte	0x7
 778 0179 60       		.byte	0x60
 779 017a 3D020000 		.4byte	0x23d
 780 017e 14       		.byte	0x14
 781 017f 07       		.uleb128 0x7
 782 0180 56050000 		.4byte	.LASF32
 783 0184 07       		.byte	0x7
 784 0185 67       		.byte	0x67
 785 0186 DE040000 		.4byte	0x4de
 786 018a 18       		.byte	0x18
 787 018b 07       		.uleb128 0x7
 788 018c 76030000 		.4byte	.LASF33
 789 0190 07       		.byte	0x7
 790 0191 72       		.byte	0x72
 791 0192 CE000000 		.4byte	0xce
 792 0196 1C       		.byte	0x1c
 793 0197 07       		.uleb128 0x7
 794 0198 B8030000 		.4byte	.LASF34
 795 019c 07       		.byte	0x7
 796 019d 76       		.byte	0x76
 797 019e C3000000 		.4byte	0xc3
 798 01a2 1D       		.byte	0x1d
ARM GAS  /tmp/ccBwyosj.s 			page 15


 799 01a3 07       		.uleb128 0x7
 800 01a4 23050000 		.4byte	.LASF35
 801 01a8 07       		.byte	0x7
 802 01a9 7B       		.byte	0x7b
 803 01aa D9000000 		.4byte	0xd9
 804 01ae 1E       		.byte	0x1e
 805 01af 07       		.uleb128 0x7
 806 01b0 7E030000 		.4byte	.LASF36
 807 01b4 07       		.byte	0x7
 808 01b5 81       		.byte	0x81
 809 01b6 E4000000 		.4byte	0xe4
 810 01ba 1F       		.byte	0x1f
 811 01bb 07       		.uleb128 0x7
 812 01bc 77040000 		.4byte	.LASF37
 813 01c0 07       		.byte	0x7
 814 01c1 88       		.byte	0x88
 815 01c2 1B010000 		.4byte	0x11b
 816 01c6 20       		.byte	0x20
 817 01c7 08       		.uleb128 0x8
 818 01c8 705F7500 		.ascii	"p_u\000"
 819 01cc 07       		.byte	0x7
 820 01cd AD       		.byte	0xad
 821 01ce A9040000 		.4byte	0x4a9
 822 01d2 24       		.byte	0x24
 823 01d3 07       		.uleb128 0x7
 824 01d4 AF050000 		.4byte	.LASF38
 825 01d8 07       		.byte	0x7
 826 01d9 B2       		.byte	0xb2
 827 01da 63020000 		.4byte	0x263
 828 01de 28       		.byte	0x28
 829 01df 07       		.uleb128 0x7
 830 01e0 06050000 		.4byte	.LASF39
 831 01e4 07       		.byte	0x7
 832 01e5 B8       		.byte	0xb8
 833 01e6 43020000 		.4byte	0x243
 834 01ea 2C       		.byte	0x2c
 835 01eb 07       		.uleb128 0x7
 836 01ec 0D000000 		.4byte	.LASF40
 837 01f0 07       		.byte	0x7
 838 01f1 BC       		.byte	0xbc
 839 01f2 FA000000 		.4byte	0xfa
 840 01f6 34       		.byte	0x34
 841 01f7 07       		.uleb128 0x7
 842 01f8 DD030000 		.4byte	.LASF41
 843 01fc 07       		.byte	0x7
 844 01fd C2       		.byte	0xc2
 845 01fe 05010000 		.4byte	0x105
 846 0202 38       		.byte	0x38
 847 0203 07       		.uleb128 0x7
 848 0204 62030000 		.4byte	.LASF42
 849 0208 07       		.byte	0x7
 850 0209 C9       		.byte	0xc9
 851 020a F0040000 		.4byte	0x4f0
 852 020e 3C       		.byte	0x3c
 853 020f 07       		.uleb128 0x7
 854 0210 4B040000 		.4byte	.LASF43
 855 0214 07       		.byte	0x7
ARM GAS  /tmp/ccBwyosj.s 			page 16


 856 0215 CD       		.byte	0xcd
 857 0216 EF000000 		.4byte	0xef
 858 021a 40       		.byte	0x40
 859 021b 00       		.byte	0
 860 021c 09       		.uleb128 0x9
 861 021d 08       		.byte	0x8
 862 021e 06       		.byte	0x6
 863 021f 5A       		.byte	0x5a
 864 0220 3D020000 		.4byte	0x23d
 865 0224 07       		.uleb128 0x7
 866 0225 A2030000 		.4byte	.LASF26
 867 0229 06       		.byte	0x6
 868 022a 5B       		.byte	0x5b
 869 022b 3D020000 		.4byte	0x23d
 870 022f 00       		.byte	0
 871 0230 07       		.uleb128 0x7
 872 0231 2F030000 		.4byte	.LASF27
 873 0235 06       		.byte	0x6
 874 0236 5D       		.byte	0x5d
 875 0237 3D020000 		.4byte	0x23d
 876 023b 04       		.byte	0x4
 877 023c 00       		.byte	0
 878 023d 0A       		.uleb128 0xa
 879 023e 04       		.byte	0x4
 880 023f 20010000 		.4byte	0x120
 881 0243 04       		.uleb128 0x4
 882 0244 E0020000 		.4byte	.LASF44
 883 0248 06       		.byte	0x6
 884 0249 5F       		.byte	0x5f
 885 024a 1C020000 		.4byte	0x21c
 886 024e 09       		.uleb128 0x9
 887 024f 04       		.byte	0x4
 888 0250 06       		.byte	0x6
 889 0251 64       		.byte	0x64
 890 0252 63020000 		.4byte	0x263
 891 0256 07       		.uleb128 0x7
 892 0257 A2030000 		.4byte	.LASF26
 893 025b 06       		.byte	0x6
 894 025c 66       		.byte	0x66
 895 025d 3D020000 		.4byte	0x23d
 896 0261 00       		.byte	0
 897 0262 00       		.byte	0
 898 0263 04       		.uleb128 0x4
 899 0264 51020000 		.4byte	.LASF45
 900 0268 06       		.byte	0x6
 901 0269 69       		.byte	0x69
 902 026a 4E020000 		.4byte	0x24e
 903 026e 04       		.uleb128 0x4
 904 026f 6F020000 		.4byte	.LASF46
 905 0273 08       		.byte	0x8
 906 0274 9D       		.byte	0x9d
 907 0275 B8000000 		.4byte	0xb8
 908 0279 04       		.uleb128 0x4
 909 027a 84010000 		.4byte	.LASF47
 910 027e 08       		.byte	0x8
 911 027f A2       		.byte	0xa2
 912 0280 84020000 		.4byte	0x284
ARM GAS  /tmp/ccBwyosj.s 			page 17


 913 0284 0B       		.uleb128 0xb
 914 0285 04       		.byte	0x4
 915 0286 06       		.uleb128 0x6
 916 0287 FF040000 		.4byte	.LASF48
 917 028b 24       		.byte	0x24
 918 028c 08       		.byte	0x8
 919 028d B9       		.byte	0xb9
 920 028e F8020000 		.4byte	0x2f8
 921 0292 08       		.uleb128 0x8
 922 0293 723400   		.ascii	"r4\000"
 923 0296 08       		.byte	0x8
 924 0297 BA       		.byte	0xba
 925 0298 79020000 		.4byte	0x279
 926 029c 00       		.byte	0
 927 029d 08       		.uleb128 0x8
 928 029e 723500   		.ascii	"r5\000"
 929 02a1 08       		.byte	0x8
 930 02a2 BB       		.byte	0xbb
 931 02a3 79020000 		.4byte	0x279
 932 02a7 04       		.byte	0x4
 933 02a8 08       		.uleb128 0x8
 934 02a9 723600   		.ascii	"r6\000"
 935 02ac 08       		.byte	0x8
 936 02ad BC       		.byte	0xbc
 937 02ae 79020000 		.4byte	0x279
 938 02b2 08       		.byte	0x8
 939 02b3 08       		.uleb128 0x8
 940 02b4 723700   		.ascii	"r7\000"
 941 02b7 08       		.byte	0x8
 942 02b8 BD       		.byte	0xbd
 943 02b9 79020000 		.4byte	0x279
 944 02bd 0C       		.byte	0xc
 945 02be 08       		.uleb128 0x8
 946 02bf 723800   		.ascii	"r8\000"
 947 02c2 08       		.byte	0x8
 948 02c3 BE       		.byte	0xbe
 949 02c4 79020000 		.4byte	0x279
 950 02c8 10       		.byte	0x10
 951 02c9 08       		.uleb128 0x8
 952 02ca 723900   		.ascii	"r9\000"
 953 02cd 08       		.byte	0x8
 954 02ce BF       		.byte	0xbf
 955 02cf 79020000 		.4byte	0x279
 956 02d3 14       		.byte	0x14
 957 02d4 08       		.uleb128 0x8
 958 02d5 72313000 		.ascii	"r10\000"
 959 02d9 08       		.byte	0x8
 960 02da C0       		.byte	0xc0
 961 02db 79020000 		.4byte	0x279
 962 02df 18       		.byte	0x18
 963 02e0 08       		.uleb128 0x8
 964 02e1 72313100 		.ascii	"r11\000"
 965 02e5 08       		.byte	0x8
 966 02e6 C1       		.byte	0xc1
 967 02e7 79020000 		.4byte	0x279
 968 02eb 1C       		.byte	0x1c
 969 02ec 08       		.uleb128 0x8
ARM GAS  /tmp/ccBwyosj.s 			page 18


 970 02ed 6C7200   		.ascii	"lr\000"
 971 02f0 08       		.byte	0x8
 972 02f1 C2       		.byte	0xc2
 973 02f2 79020000 		.4byte	0x279
 974 02f6 20       		.byte	0x20
 975 02f7 00       		.byte	0
 976 02f8 06       		.uleb128 0x6
 977 02f9 13020000 		.4byte	.LASF49
 978 02fd 04       		.byte	0x4
 979 02fe 08       		.byte	0x8
 980 02ff CA       		.byte	0xca
 981 0300 11030000 		.4byte	0x311
 982 0304 08       		.uleb128 0x8
 983 0305 72313300 		.ascii	"r13\000"
 984 0309 08       		.byte	0x8
 985 030a CB       		.byte	0xcb
 986 030b 11030000 		.4byte	0x311
 987 030f 00       		.byte	0
 988 0310 00       		.byte	0
 989 0311 0A       		.uleb128 0xa
 990 0312 04       		.byte	0x4
 991 0313 86020000 		.4byte	0x286
 992 0317 04       		.uleb128 0x4
 993 0318 FC010000 		.4byte	.LASF50
 994 031c 09       		.byte	0x9
 995 031d 4E       		.byte	0x4e
 996 031e 22030000 		.4byte	0x322
 997 0322 0A       		.uleb128 0xa
 998 0323 04       		.byte	0x4
 999 0324 28030000 		.4byte	0x328
 1000 0328 0C       		.uleb128 0xc
 1001 0329 33030000 		.4byte	0x333
 1002 032d 0D       		.uleb128 0xd
 1003 032e 84020000 		.4byte	0x284
 1004 0332 00       		.byte	0
 1005 0333 04       		.uleb128 0x4
 1006 0334 05040000 		.4byte	.LASF51
 1007 0338 09       		.byte	0x9
 1008 0339 53       		.byte	0x53
 1009 033a 3E030000 		.4byte	0x33e
 1010 033e 06       		.uleb128 0x6
 1011 033f 05040000 		.4byte	.LASF51
 1012 0343 14       		.byte	0x14
 1013 0344 09       		.byte	0x9
 1014 0345 5A       		.byte	0x5a
 1015 0346 87030000 		.4byte	0x387
 1016 034a 07       		.uleb128 0x7
 1017 034b D9010000 		.4byte	.LASF52
 1018 034f 09       		.byte	0x9
 1019 0350 5B       		.byte	0x5b
 1020 0351 87030000 		.4byte	0x387
 1021 0355 00       		.byte	0
 1022 0356 07       		.uleb128 0x7
 1023 0357 8D010000 		.4byte	.LASF53
 1024 035b 09       		.byte	0x9
 1025 035c 5D       		.byte	0x5d
 1026 035d 87030000 		.4byte	0x387
ARM GAS  /tmp/ccBwyosj.s 			page 19


 1027 0361 04       		.byte	0x4
 1028 0362 07       		.uleb128 0x7
 1029 0363 8E020000 		.4byte	.LASF54
 1030 0367 09       		.byte	0x9
 1031 0368 5F       		.byte	0x5f
 1032 0369 10010000 		.4byte	0x110
 1033 036d 08       		.byte	0x8
 1034 036e 07       		.uleb128 0x7
 1035 036f 9F020000 		.4byte	.LASF55
 1036 0373 09       		.byte	0x9
 1037 0374 60       		.byte	0x60
 1038 0375 17030000 		.4byte	0x317
 1039 0379 0C       		.byte	0xc
 1040 037a 07       		.uleb128 0x7
 1041 037b 11050000 		.4byte	.LASF56
 1042 037f 09       		.byte	0x9
 1043 0380 62       		.byte	0x62
 1044 0381 84020000 		.4byte	0x284
 1045 0385 10       		.byte	0x10
 1046 0386 00       		.byte	0
 1047 0387 0A       		.uleb128 0xa
 1048 0388 04       		.byte	0x4
 1049 0389 33030000 		.4byte	0x333
 1050 038d 09       		.uleb128 0x9
 1051 038e 10       		.byte	0x10
 1052 038f 09       		.byte	0x9
 1053 0390 6C       		.byte	0x6c
 1054 0391 C6030000 		.4byte	0x3c6
 1055 0395 07       		.uleb128 0x7
 1056 0396 D9010000 		.4byte	.LASF52
 1057 039a 09       		.byte	0x9
 1058 039b 6D       		.byte	0x6d
 1059 039c 87030000 		.4byte	0x387
 1060 03a0 00       		.byte	0
 1061 03a1 07       		.uleb128 0x7
 1062 03a2 8D010000 		.4byte	.LASF53
 1063 03a6 09       		.byte	0x9
 1064 03a7 6F       		.byte	0x6f
 1065 03a8 87030000 		.4byte	0x387
 1066 03ac 04       		.byte	0x4
 1067 03ad 07       		.uleb128 0x7
 1068 03ae 8E020000 		.4byte	.LASF54
 1069 03b2 09       		.byte	0x9
 1070 03b3 71       		.byte	0x71
 1071 03b4 10010000 		.4byte	0x110
 1072 03b8 08       		.byte	0x8
 1073 03b9 07       		.uleb128 0x7
 1074 03ba 6F050000 		.4byte	.LASF57
 1075 03be 09       		.byte	0x9
 1076 03bf 72       		.byte	0x72
 1077 03c0 1B010000 		.4byte	0x11b
 1078 03c4 0C       		.byte	0xc
 1079 03c5 00       		.byte	0
 1080 03c6 04       		.uleb128 0x4
 1081 03c7 9A050000 		.4byte	.LASF58
 1082 03cb 09       		.byte	0x9
 1083 03cc 73       		.byte	0x73
ARM GAS  /tmp/ccBwyosj.s 			page 20


 1084 03cd 8D030000 		.4byte	0x38d
 1085 03d1 0E       		.uleb128 0xe
 1086 03d2 2F000000 		.4byte	.LASF66
 1087 03d6 09       		.byte	0x9
 1088 03d7 D1       		.byte	0xd1
 1089 03d8 C6030000 		.4byte	0x3c6
 1090 03dc 09       		.uleb128 0x9
 1091 03dd 1C       		.byte	0x1c
 1092 03de 0A       		.byte	0xa
 1093 03df 57       		.byte	0x57
 1094 03e0 2D040000 		.4byte	0x42d
 1095 03e4 07       		.uleb128 0x7
 1096 03e5 FD030000 		.4byte	.LASF59
 1097 03e9 0A       		.byte	0xa
 1098 03ea 58       		.byte	0x58
 1099 03eb 43020000 		.4byte	0x243
 1100 03ef 00       		.byte	0
 1101 03f0 07       		.uleb128 0x7
 1102 03f1 94030000 		.4byte	.LASF60
 1103 03f5 0A       		.byte	0xa
 1104 03f6 59       		.byte	0x59
 1105 03f7 EF000000 		.4byte	0xef
 1106 03fb 08       		.byte	0x8
 1107 03fc 07       		.uleb128 0x7
 1108 03fd DA020000 		.4byte	.LASF61
 1109 0401 0A       		.byte	0xa
 1110 0402 5B       		.byte	0x5b
 1111 0403 F8020000 		.4byte	0x2f8
 1112 0407 0C       		.byte	0xc
 1113 0408 07       		.uleb128 0x7
 1114 0409 41020000 		.4byte	.LASF62
 1115 040d 0A       		.byte	0xa
 1116 040e 5E       		.byte	0x5e
 1117 040f 3D020000 		.4byte	0x23d
 1118 0413 10       		.byte	0x10
 1119 0414 07       		.uleb128 0x7
 1120 0415 04030000 		.4byte	.LASF63
 1121 0419 0A       		.byte	0xa
 1122 041a 5F       		.byte	0x5f
 1123 041b 3D020000 		.4byte	0x23d
 1124 041f 14       		.byte	0x14
 1125 0420 07       		.uleb128 0x7
 1126 0421 FA020000 		.4byte	.LASF64
 1127 0425 0A       		.byte	0xa
 1128 0426 62       		.byte	0x62
 1129 0427 3D020000 		.4byte	0x23d
 1130 042b 18       		.byte	0x18
 1131 042c 00       		.byte	0
 1132 042d 04       		.uleb128 0x4
 1133 042e 2A050000 		.4byte	.LASF65
 1134 0432 0A       		.byte	0xa
 1135 0433 64       		.byte	0x64
 1136 0434 DC030000 		.4byte	0x3dc
 1137 0438 0E       		.uleb128 0xe
 1138 0439 34050000 		.4byte	.LASF67
 1139 043d 0A       		.byte	0xa
 1140 043e 68       		.byte	0x68
ARM GAS  /tmp/ccBwyosj.s 			page 21


 1141 043f 2D040000 		.4byte	0x42d
 1142 0443 06       		.uleb128 0x6
 1143 0444 69020000 		.4byte	.LASF68
 1144 0448 10       		.byte	0x10
 1145 0449 0B       		.byte	0xb
 1146 044a 25       		.byte	0x25
 1147 044b 74040000 		.4byte	0x474
 1148 044f 07       		.uleb128 0x7
 1149 0450 FA000000 		.4byte	.LASF69
 1150 0454 0B       		.byte	0xb
 1151 0455 26       		.byte	0x26
 1152 0456 43020000 		.4byte	0x243
 1153 045a 00       		.byte	0
 1154 045b 07       		.uleb128 0x7
 1155 045c A1050000 		.4byte	.LASF70
 1156 0460 0B       		.byte	0xb
 1157 0461 28       		.byte	0x28
 1158 0462 3D020000 		.4byte	0x23d
 1159 0466 08       		.byte	0x8
 1160 0467 07       		.uleb128 0x7
 1161 0468 3A040000 		.4byte	.LASF71
 1162 046c 0B       		.byte	0xb
 1163 046d 2A       		.byte	0x2a
 1164 046e 74040000 		.4byte	0x474
 1165 0472 0C       		.byte	0xc
 1166 0473 00       		.byte	0
 1167 0474 0A       		.uleb128 0xa
 1168 0475 04       		.byte	0x4
 1169 0476 43040000 		.4byte	0x443
 1170 047a 04       		.uleb128 0x4
 1171 047b 69020000 		.4byte	.LASF68
 1172 047f 0B       		.byte	0xb
 1173 0480 2C       		.byte	0x2c
 1174 0481 43040000 		.4byte	0x443
 1175 0485 06       		.uleb128 0x6
 1176 0486 0C010000 		.4byte	.LASF72
 1177 048a 08       		.byte	0x8
 1178 048b 0C       		.byte	0xc
 1179 048c 2F       		.byte	0x2f
 1180 048d 9E040000 		.4byte	0x49e
 1181 0491 07       		.uleb128 0x7
 1182 0492 C7030000 		.4byte	.LASF73
 1183 0496 0C       		.byte	0xc
 1184 0497 30       		.byte	0x30
 1185 0498 43020000 		.4byte	0x243
 1186 049c 00       		.byte	0
 1187 049d 00       		.byte	0
 1188 049e 04       		.uleb128 0x4
 1189 049f 0C010000 		.4byte	.LASF72
 1190 04a3 0C       		.byte	0xc
 1191 04a4 31       		.byte	0x31
 1192 04a5 85040000 		.4byte	0x485
 1193 04a9 0F       		.uleb128 0xf
 1194 04aa 04       		.byte	0x4
 1195 04ab 07       		.byte	0x7
 1196 04ac 8F       		.byte	0x8f
 1197 04ad DE040000 		.4byte	0x4de
ARM GAS  /tmp/ccBwyosj.s 			page 22


 1198 04b1 10       		.uleb128 0x10
 1199 04b2 1E000000 		.4byte	.LASF74
 1200 04b6 07       		.byte	0x7
 1201 04b7 96       		.byte	0x96
 1202 04b8 FA000000 		.4byte	0xfa
 1203 04bc 10       		.uleb128 0x10
 1204 04bd 95000000 		.4byte	.LASF75
 1205 04c1 07       		.byte	0x7
 1206 04c2 9D       		.byte	0x9d
 1207 04c3 FA000000 		.4byte	0xfa
 1208 04c7 10       		.uleb128 0x10
 1209 04c8 42050000 		.4byte	.LASF76
 1210 04cc 07       		.byte	0x7
 1211 04cd A4       		.byte	0xa4
 1212 04ce 84020000 		.4byte	0x284
 1213 04d2 10       		.uleb128 0x10
 1214 04d3 9B030000 		.4byte	.LASF77
 1215 04d7 07       		.byte	0x7
 1216 04d8 AB       		.byte	0xab
 1217 04d9 05010000 		.4byte	0x105
 1218 04dd 00       		.byte	0
 1219 04de 0A       		.uleb128 0xa
 1220 04df 04       		.byte	0x4
 1221 04e0 EB040000 		.4byte	0x4eb
 1222 04e4 03       		.uleb128 0x3
 1223 04e5 01       		.byte	0x1
 1224 04e6 08       		.byte	0x8
 1225 04e7 12040000 		.4byte	.LASF78
 1226 04eb 11       		.uleb128 0x11
 1227 04ec E4040000 		.4byte	0x4e4
 1228 04f0 0A       		.uleb128 0xa
 1229 04f1 04       		.byte	0x4
 1230 04f2 7A040000 		.4byte	0x47a
 1231 04f6 09       		.uleb128 0x9
 1232 04f7 16       		.byte	0x16
 1233 04f8 0D       		.byte	0xd
 1234 04f9 25       		.byte	0x25
 1235 04fa D7050000 		.4byte	0x5d7
 1236 04fe 07       		.uleb128 0x7
 1237 04ff 05020000 		.4byte	.LASF79
 1238 0503 0D       		.byte	0xd
 1239 0504 26       		.byte	0x26
 1240 0505 D7050000 		.4byte	0x5d7
 1241 0509 00       		.byte	0
 1242 050a 07       		.uleb128 0x7
 1243 050b 7A020000 		.4byte	.LASF80
 1244 050f 0D       		.byte	0xd
 1245 0510 27       		.byte	0x27
 1246 0511 97000000 		.4byte	0x97
 1247 0515 04       		.byte	0x4
 1248 0516 07       		.uleb128 0x7
 1249 0517 ED020000 		.4byte	.LASF81
 1250 051b 0D       		.byte	0xd
 1251 051c 28       		.byte	0x28
 1252 051d 97000000 		.4byte	0x97
 1253 0521 05       		.byte	0x5
 1254 0522 07       		.uleb128 0x7
ARM GAS  /tmp/ccBwyosj.s 			page 23


 1255 0523 8F050000 		.4byte	.LASF82
 1256 0527 0D       		.byte	0xd
 1257 0528 29       		.byte	0x29
 1258 0529 A2000000 		.4byte	0xa2
 1259 052d 06       		.byte	0x6
 1260 052e 07       		.uleb128 0x7
 1261 052f 24030000 		.4byte	.LASF83
 1262 0533 0D       		.byte	0xd
 1263 0534 2A       		.byte	0x2a
 1264 0535 97000000 		.4byte	0x97
 1265 0539 08       		.byte	0x8
 1266 053a 07       		.uleb128 0x7
 1267 053b BA020000 		.4byte	.LASF84
 1268 053f 0D       		.byte	0xd
 1269 0540 2B       		.byte	0x2b
 1270 0541 97000000 		.4byte	0x97
 1271 0545 09       		.byte	0x9
 1272 0546 07       		.uleb128 0x7
 1273 0547 87000000 		.4byte	.LASF85
 1274 054b 0D       		.byte	0xd
 1275 054c 2C       		.byte	0x2c
 1276 054d 97000000 		.4byte	0x97
 1277 0551 0A       		.byte	0xa
 1278 0552 07       		.uleb128 0x7
 1279 0553 F1030000 		.4byte	.LASF86
 1280 0557 0D       		.byte	0xd
 1281 0558 2D       		.byte	0x2d
 1282 0559 97000000 		.4byte	0x97
 1283 055d 0B       		.byte	0xb
 1284 055e 07       		.uleb128 0x7
 1285 055f 18050000 		.4byte	.LASF87
 1286 0563 0D       		.byte	0xd
 1287 0564 2E       		.byte	0x2e
 1288 0565 97000000 		.4byte	0x97
 1289 0569 0C       		.byte	0xc
 1290 056a 07       		.uleb128 0x7
 1291 056b 49050000 		.4byte	.LASF88
 1292 056f 0D       		.byte	0xd
 1293 0570 2F       		.byte	0x2f
 1294 0571 97000000 		.4byte	0x97
 1295 0575 0D       		.byte	0xd
 1296 0576 07       		.uleb128 0x7
 1297 0577 00000000 		.4byte	.LASF89
 1298 057b 0D       		.byte	0xd
 1299 057c 30       		.byte	0x30
 1300 057d 97000000 		.4byte	0x97
 1301 0581 0E       		.byte	0xe
 1302 0582 07       		.uleb128 0x7
 1303 0583 C6020000 		.4byte	.LASF90
 1304 0587 0D       		.byte	0xd
 1305 0588 31       		.byte	0x31
 1306 0589 97000000 		.4byte	0x97
 1307 058d 0F       		.byte	0xf
 1308 058e 07       		.uleb128 0x7
 1309 058f DD000000 		.4byte	.LASF91
 1310 0593 0D       		.byte	0xd
 1311 0594 32       		.byte	0x32
ARM GAS  /tmp/ccBwyosj.s 			page 24


 1312 0595 97000000 		.4byte	0x97
 1313 0599 10       		.byte	0x10
 1314 059a 07       		.uleb128 0x7
 1315 059b B6000000 		.4byte	.LASF92
 1316 059f 0D       		.byte	0xd
 1317 05a0 34       		.byte	0x34
 1318 05a1 97000000 		.4byte	0x97
 1319 05a5 11       		.byte	0x11
 1320 05a6 07       		.uleb128 0x7
 1321 05a7 ED000000 		.4byte	.LASF93
 1322 05ab 0D       		.byte	0xd
 1323 05ac 35       		.byte	0x35
 1324 05ad 97000000 		.4byte	0x97
 1325 05b1 12       		.byte	0x12
 1326 05b2 07       		.uleb128 0x7
 1327 05b3 82020000 		.4byte	.LASF94
 1328 05b7 0D       		.byte	0xd
 1329 05b8 36       		.byte	0x36
 1330 05b9 97000000 		.4byte	0x97
 1331 05bd 13       		.byte	0x13
 1332 05be 07       		.uleb128 0x7
 1333 05bf A9030000 		.4byte	.LASF95
 1334 05c3 0D       		.byte	0xd
 1335 05c4 37       		.byte	0x37
 1336 05c5 97000000 		.4byte	0x97
 1337 05c9 14       		.byte	0x14
 1338 05ca 07       		.uleb128 0x7
 1339 05cb 88030000 		.4byte	.LASF96
 1340 05cf 0D       		.byte	0xd
 1341 05d0 39       		.byte	0x39
 1342 05d1 97000000 		.4byte	0x97
 1343 05d5 15       		.byte	0x15
 1344 05d6 00       		.byte	0
 1345 05d7 12       		.uleb128 0x12
 1346 05d8 E4040000 		.4byte	0x4e4
 1347 05dc E7050000 		.4byte	0x5e7
 1348 05e0 13       		.uleb128 0x13
 1349 05e1 E7050000 		.4byte	0x5e7
 1350 05e5 03       		.byte	0x3
 1351 05e6 00       		.byte	0
 1352 05e7 03       		.uleb128 0x3
 1353 05e8 04       		.byte	0x4
 1354 05e9 07       		.byte	0x7
 1355 05ea 96020000 		.4byte	.LASF97
 1356 05ee 04       		.uleb128 0x4
 1357 05ef 46010000 		.4byte	.LASF98
 1358 05f3 0D       		.byte	0xd
 1359 05f4 3A       		.byte	0x3a
 1360 05f5 F6040000 		.4byte	0x4f6
 1361 05f9 11       		.uleb128 0x11
 1362 05fa EE050000 		.4byte	0x5ee
 1363 05fe 0E       		.uleb128 0xe
 1364 05ff F3010000 		.4byte	.LASF99
 1365 0603 0D       		.byte	0xd
 1366 0604 77       		.byte	0x77
 1367 0605 F9050000 		.4byte	0x5f9
 1368 0609 12       		.uleb128 0x12
ARM GAS  /tmp/ccBwyosj.s 			page 25


 1369 060a 6E020000 		.4byte	0x26e
 1370 060e 19060000 		.4byte	0x619
 1371 0612 13       		.uleb128 0x13
 1372 0613 E7050000 		.4byte	0x5e7
 1373 0617 26       		.byte	0x26
 1374 0618 00       		.byte	0
 1375 0619 0E       		.uleb128 0xe
 1376 061a 58010000 		.4byte	.LASF100
 1377 061e 0E       		.byte	0xe
 1378 061f 82       		.byte	0x82
 1379 0620 09060000 		.4byte	0x609
 1380 0624 14       		.uleb128 0x14
 1381 0625 A7020000 		.4byte	.LASF102
 1382 0629 01       		.byte	0x1
 1383 062a 0701     		.2byte	0x107
 1384 062c FA000000 		.4byte	0xfa
 1385 0630 00000000 		.4byte	.LFB15
 1386 0634 84000000 		.4byte	.LFE15-.LFB15
 1387 0638 01       		.uleb128 0x1
 1388 0639 9C       		.byte	0x9c
 1389 063a E5060000 		.4byte	0x6e5
 1390 063e 15       		.uleb128 0x15
 1391 063f 637000   		.ascii	"cp\000"
 1392 0642 01       		.byte	0x1
 1393 0643 0701     		.2byte	0x107
 1394 0645 E5060000 		.4byte	0x6e5
 1395 0649 00000000 		.4byte	.LLST20
 1396 064d 16       		.uleb128 0x16
 1397 064e F5020000 		.4byte	.LASF101
 1398 0652 01       		.byte	0x1
 1399 0653 0701     		.2byte	0x107
 1400 0655 10010000 		.4byte	0x110
 1401 0659 2C000000 		.4byte	.LLST21
 1402 065d 17       		.uleb128 0x17
 1403 065e 6D7000   		.ascii	"mp\000"
 1404 0661 01       		.byte	0x1
 1405 0662 0801     		.2byte	0x108
 1406 0664 F0040000 		.4byte	0x4f0
 1407 0668 4A000000 		.4byte	.LLST22
 1408 066c 17       		.uleb128 0x17
 1409 066d 6D736700 		.ascii	"msg\000"
 1410 0671 01       		.byte	0x1
 1411 0672 0901     		.2byte	0x109
 1412 0674 FA000000 		.4byte	0xfa
 1413 0678 68000000 		.4byte	.LLST23
 1414 067c 18       		.uleb128 0x18
 1415 067d E0090000 		.4byte	0x9e0
 1416 0681 28000000 		.4byte	.LBB36
 1417 0685 50000000 		.4byte	.Ldebug_ranges0+0x50
 1418 0689 01       		.byte	0x1
 1419 068a 1301     		.2byte	0x113
 1420 068c B2060000 		.4byte	0x6b2
 1421 0690 19       		.uleb128 0x19
 1422 0691 F6090000 		.4byte	0x9f6
 1423 0695 86000000 		.4byte	.LLST24
 1424 0699 19       		.uleb128 0x19
 1425 069a EC090000 		.4byte	0x9ec
ARM GAS  /tmp/ccBwyosj.s 			page 26


 1426 069e 99000000 		.4byte	.LLST25
 1427 06a2 1A       		.uleb128 0x1a
 1428 06a3 50000000 		.4byte	.Ldebug_ranges0+0x50
 1429 06a7 1B       		.uleb128 0x1b
 1430 06a8 010A0000 		.4byte	0xa01
 1431 06ac AC000000 		.4byte	.LLST26
 1432 06b0 00       		.byte	0
 1433 06b1 00       		.byte	0
 1434 06b2 1C       		.uleb128 0x1c
 1435 06b3 10000000 		.4byte	.LVL40
 1436 06b7 620A0000 		.4byte	0xa62
 1437 06bb 1D       		.uleb128 0x1d
 1438 06bc 64000000 		.4byte	.LVL46
 1439 06c0 6D0A0000 		.4byte	0xa6d
 1440 06c4 D4060000 		.4byte	0x6d4
 1441 06c8 1E       		.uleb128 0x1e
 1442 06c9 01       		.uleb128 0x1
 1443 06ca 50       		.byte	0x50
 1444 06cb 01       		.uleb128 0x1
 1445 06cc 35       		.byte	0x35
 1446 06cd 1E       		.uleb128 0x1e
 1447 06ce 01       		.uleb128 0x1
 1448 06cf 51       		.byte	0x51
 1449 06d0 02       		.uleb128 0x2
 1450 06d1 76       		.byte	0x76
 1451 06d2 00       		.sleb128 0
 1452 06d3 00       		.byte	0
 1453 06d4 1F       		.uleb128 0x1f
 1454 06d5 78000000 		.4byte	.LVL49
 1455 06d9 780A0000 		.4byte	0xa78
 1456 06dd 1E       		.uleb128 0x1e
 1457 06de 01       		.uleb128 0x1
 1458 06df 50       		.byte	0x50
 1459 06e0 02       		.uleb128 0x2
 1460 06e1 75       		.byte	0x75
 1461 06e2 00       		.sleb128 0
 1462 06e3 00       		.byte	0
 1463 06e4 00       		.byte	0
 1464 06e5 0A       		.uleb128 0xa
 1465 06e6 04       		.byte	0x4
 1466 06e7 9E040000 		.4byte	0x49e
 1467 06eb 20       		.uleb128 0x20
 1468 06ec 5D050000 		.4byte	.LASF103
 1469 06f0 01       		.byte	0x1
 1470 06f1 E2       		.byte	0xe2
 1471 06f2 FA000000 		.4byte	0xfa
 1472 06f6 00000000 		.4byte	.LFB14
 1473 06fa 14000000 		.4byte	.LFE14-.LFB14
 1474 06fe 01       		.uleb128 0x1
 1475 06ff 9C       		.byte	0x9c
 1476 0700 47070000 		.4byte	0x747
 1477 0704 21       		.uleb128 0x21
 1478 0705 637000   		.ascii	"cp\000"
 1479 0708 01       		.byte	0x1
 1480 0709 E2       		.byte	0xe2
 1481 070a E5060000 		.4byte	0x6e5
 1482 070e CA000000 		.4byte	.LLST27
ARM GAS  /tmp/ccBwyosj.s 			page 27


 1483 0712 22       		.uleb128 0x22
 1484 0713 F5020000 		.4byte	.LASF101
 1485 0717 01       		.byte	0x1
 1486 0718 E2       		.byte	0xe2
 1487 0719 10010000 		.4byte	0x110
 1488 071d EB000000 		.4byte	.LLST28
 1489 0721 23       		.uleb128 0x23
 1490 0722 6D736700 		.ascii	"msg\000"
 1491 0726 01       		.byte	0x1
 1492 0727 E3       		.byte	0xe3
 1493 0728 FA000000 		.4byte	0xfa
 1494 072c 01       		.uleb128 0x1
 1495 072d 50       		.byte	0x50
 1496 072e 1F       		.uleb128 0x1f
 1497 072f 0C000000 		.4byte	.LVL51
 1498 0733 24060000 		.4byte	0x624
 1499 0737 1E       		.uleb128 0x1e
 1500 0738 01       		.uleb128 0x1
 1501 0739 50       		.byte	0x50
 1502 073a 03       		.uleb128 0x3
 1503 073b F3       		.byte	0xf3
 1504 073c 01       		.uleb128 0x1
 1505 073d 50       		.byte	0x50
 1506 073e 1E       		.uleb128 0x1e
 1507 073f 01       		.uleb128 0x1
 1508 0740 51       		.byte	0x51
 1509 0741 03       		.uleb128 0x3
 1510 0742 F3       		.byte	0xf3
 1511 0743 01       		.uleb128 0x1
 1512 0744 51       		.byte	0x51
 1513 0745 00       		.byte	0
 1514 0746 00       		.byte	0
 1515 0747 20       		.uleb128 0x20
 1516 0748 1D010000 		.4byte	.LASF104
 1517 074c 01       		.byte	0x1
 1518 074d B1       		.byte	0xb1
 1519 074e FA000000 		.4byte	0xfa
 1520 0752 00000000 		.4byte	.LFB13
 1521 0756 74000000 		.4byte	.LFE13-.LFB13
 1522 075a 01       		.uleb128 0x1
 1523 075b 9C       		.byte	0x9c
 1524 075c FA070000 		.4byte	0x7fa
 1525 0760 21       		.uleb128 0x21
 1526 0761 637000   		.ascii	"cp\000"
 1527 0764 01       		.byte	0x1
 1528 0765 B1       		.byte	0xb1
 1529 0766 E5060000 		.4byte	0x6e5
 1530 076a 0C010000 		.4byte	.LLST13
 1531 076e 24       		.uleb128 0x24
 1532 076f 63747000 		.ascii	"ctp\000"
 1533 0773 01       		.byte	0x1
 1534 0774 B2       		.byte	0xb2
 1535 0775 3D020000 		.4byte	0x23d
 1536 0779 2A010000 		.4byte	.LLST14
 1537 077d 24       		.uleb128 0x24
 1538 077e 6D7000   		.ascii	"mp\000"
 1539 0781 01       		.byte	0x1
ARM GAS  /tmp/ccBwyosj.s 			page 28


 1540 0782 B3       		.byte	0xb3
 1541 0783 F0040000 		.4byte	0x4f0
 1542 0787 3D010000 		.4byte	.LLST15
 1543 078b 23       		.uleb128 0x23
 1544 078c 6D736700 		.ascii	"msg\000"
 1545 0790 01       		.byte	0x1
 1546 0791 B4       		.byte	0xb4
 1547 0792 FA000000 		.4byte	0xfa
 1548 0796 01       		.uleb128 0x1
 1549 0797 54       		.byte	0x54
 1550 0798 25       		.uleb128 0x25
 1551 0799 E0090000 		.4byte	0x9e0
 1552 079d 24000000 		.4byte	.LBB32
 1553 07a1 38000000 		.4byte	.Ldebug_ranges0+0x38
 1554 07a5 01       		.byte	0x1
 1555 07a6 BE       		.byte	0xbe
 1556 07a7 CD070000 		.4byte	0x7cd
 1557 07ab 19       		.uleb128 0x19
 1558 07ac F6090000 		.4byte	0x9f6
 1559 07b0 5B010000 		.4byte	.LLST16
 1560 07b4 19       		.uleb128 0x19
 1561 07b5 EC090000 		.4byte	0x9ec
 1562 07b9 6E010000 		.4byte	.LLST17
 1563 07bd 1A       		.uleb128 0x1a
 1564 07be 38000000 		.4byte	.Ldebug_ranges0+0x38
 1565 07c2 1B       		.uleb128 0x1b
 1566 07c3 010A0000 		.4byte	0xa01
 1567 07c7 81010000 		.4byte	.LLST18
 1568 07cb 00       		.byte	0
 1569 07cc 00       		.byte	0
 1570 07cd 1C       		.uleb128 0x1c
 1571 07ce 14000000 		.4byte	.LVL27
 1572 07d2 620A0000 		.4byte	0xa62
 1573 07d6 1D       		.uleb128 0x1d
 1574 07d7 5C000000 		.4byte	.LVL34
 1575 07db 830A0000 		.4byte	0xa83
 1576 07df E9070000 		.4byte	0x7e9
 1577 07e3 1E       		.uleb128 0x1e
 1578 07e4 01       		.uleb128 0x1
 1579 07e5 50       		.byte	0x50
 1580 07e6 01       		.uleb128 0x1
 1581 07e7 35       		.byte	0x35
 1582 07e8 00       		.byte	0
 1583 07e9 1F       		.uleb128 0x1f
 1584 07ea 68000000 		.4byte	.LVL36
 1585 07ee 780A0000 		.4byte	0xa78
 1586 07f2 1E       		.uleb128 0x1e
 1587 07f3 01       		.uleb128 0x1
 1588 07f4 50       		.byte	0x50
 1589 07f5 02       		.uleb128 0x2
 1590 07f6 76       		.byte	0x76
 1591 07f7 00       		.sleb128 0
 1592 07f8 00       		.byte	0
 1593 07f9 00       		.byte	0
 1594 07fa 20       		.uleb128 0x20
 1595 07fb 6C040000 		.4byte	.LASF105
 1596 07ff 01       		.byte	0x1
ARM GAS  /tmp/ccBwyosj.s 			page 29


 1597 0800 97       		.byte	0x97
 1598 0801 FA000000 		.4byte	0xfa
 1599 0805 00000000 		.4byte	.LFB12
 1600 0809 14000000 		.4byte	.LFE12-.LFB12
 1601 080d 01       		.uleb128 0x1
 1602 080e 9C       		.byte	0x9c
 1603 080f 40080000 		.4byte	0x840
 1604 0813 21       		.uleb128 0x21
 1605 0814 637000   		.ascii	"cp\000"
 1606 0817 01       		.byte	0x1
 1607 0818 97       		.byte	0x97
 1608 0819 E5060000 		.4byte	0x6e5
 1609 081d 9F010000 		.4byte	.LLST19
 1610 0821 23       		.uleb128 0x23
 1611 0822 6D736700 		.ascii	"msg\000"
 1612 0826 01       		.byte	0x1
 1613 0827 98       		.byte	0x98
 1614 0828 FA000000 		.4byte	0xfa
 1615 082c 01       		.uleb128 0x1
 1616 082d 50       		.byte	0x50
 1617 082e 1F       		.uleb128 0x1f
 1618 082f 0C000000 		.4byte	.LVL38
 1619 0833 47070000 		.4byte	0x747
 1620 0837 1E       		.uleb128 0x1e
 1621 0838 01       		.uleb128 0x1
 1622 0839 50       		.byte	0x50
 1623 083a 03       		.uleb128 0x3
 1624 083b F3       		.byte	0xf3
 1625 083c 01       		.uleb128 0x1
 1626 083d 50       		.byte	0x50
 1627 083e 00       		.byte	0
 1628 083f 00       		.byte	0
 1629 0840 26       		.uleb128 0x26
 1630 0841 9E000000 		.4byte	.LASF120
 1631 0845 01       		.byte	0x1
 1632 0846 7A       		.byte	0x7a
 1633 0847 01       		.byte	0x1
 1634 0848 57080000 		.4byte	0x857
 1635 084c 27       		.uleb128 0x27
 1636 084d 637000   		.ascii	"cp\000"
 1637 0850 01       		.byte	0x1
 1638 0851 7A       		.byte	0x7a
 1639 0852 E5060000 		.4byte	0x6e5
 1640 0856 00       		.byte	0
 1641 0857 28       		.uleb128 0x28
 1642 0858 0C030000 		.4byte	.LASF106
 1643 085c 01       		.byte	0x1
 1644 085d 67       		.byte	0x67
 1645 085e 00000000 		.4byte	.LFB10
 1646 0862 48000000 		.4byte	.LFE10-.LFB10
 1647 0866 01       		.uleb128 0x1
 1648 0867 9C       		.byte	0x9c
 1649 0868 DA080000 		.4byte	0x8da
 1650 086c 21       		.uleb128 0x21
 1651 086d 637000   		.ascii	"cp\000"
 1652 0870 01       		.byte	0x1
 1653 0871 67       		.byte	0x67
ARM GAS  /tmp/ccBwyosj.s 			page 30


 1654 0872 E5060000 		.4byte	0x6e5
 1655 0876 C0010000 		.4byte	.LLST6
 1656 087a 29       		.uleb128 0x29
 1657 087b 40080000 		.4byte	0x840
 1658 087f 0C000000 		.4byte	.LBB26
 1659 0883 30000000 		.4byte	.LBE26-.LBB26
 1660 0887 01       		.byte	0x1
 1661 0888 6A       		.byte	0x6a
 1662 0889 D0080000 		.4byte	0x8d0
 1663 088d 19       		.uleb128 0x19
 1664 088e 4C080000 		.4byte	0x84c
 1665 0892 DE010000 		.4byte	.LLST7
 1666 0896 29       		.uleb128 0x29
 1667 0897 B4090000 		.4byte	0x9b4
 1668 089b 1C000000 		.4byte	.LBB28
 1669 089f 0C000000 		.4byte	.LBE28-.LBB28
 1670 08a3 01       		.byte	0x1
 1671 08a4 83       		.byte	0x83
 1672 08a5 C6080000 		.4byte	0x8c6
 1673 08a9 19       		.uleb128 0x19
 1674 08aa C4090000 		.4byte	0x9c4
 1675 08ae FC010000 		.4byte	.LLST8
 1676 08b2 2A       		.uleb128 0x2a
 1677 08b3 1C000000 		.4byte	.LBB29
 1678 08b7 0C000000 		.4byte	.LBE29-.LBB29
 1679 08bb 1B       		.uleb128 0x1b
 1680 08bc CF090000 		.4byte	0x9cf
 1681 08c0 0F020000 		.4byte	.LLST9
 1682 08c4 00       		.byte	0
 1683 08c5 00       		.byte	0
 1684 08c6 1C       		.uleb128 0x1c
 1685 08c7 2C000000 		.4byte	.LVL17
 1686 08cb 8E0A0000 		.4byte	0xa8e
 1687 08cf 00       		.byte	0
 1688 08d0 1C       		.uleb128 0x1c
 1689 08d1 40000000 		.4byte	.LVL19
 1690 08d5 990A0000 		.4byte	0xa99
 1691 08d9 00       		.byte	0
 1692 08da 28       		.uleb128 0x28
 1693 08db 3E030000 		.4byte	.LASF107
 1694 08df 01       		.byte	0x1
 1695 08e0 57       		.byte	0x57
 1696 08e1 00000000 		.4byte	.LFB9
 1697 08e5 34000000 		.4byte	.LFE9-.LFB9
 1698 08e9 01       		.uleb128 0x1
 1699 08ea 9C       		.byte	0x9c
 1700 08eb 33090000 		.4byte	0x933
 1701 08ef 21       		.uleb128 0x21
 1702 08f0 637000   		.ascii	"cp\000"
 1703 08f3 01       		.byte	0x1
 1704 08f4 57       		.byte	0x57
 1705 08f5 E5060000 		.4byte	0x6e5
 1706 08f9 22020000 		.4byte	.LLST3
 1707 08fd 25       		.uleb128 0x25
 1708 08fe B4090000 		.4byte	0x9b4
 1709 0902 10000000 		.4byte	.LBB22
 1710 0906 20000000 		.4byte	.Ldebug_ranges0+0x20
ARM GAS  /tmp/ccBwyosj.s 			page 31


 1711 090a 01       		.byte	0x1
 1712 090b 5D       		.byte	0x5d
 1713 090c 29090000 		.4byte	0x929
 1714 0910 19       		.uleb128 0x19
 1715 0911 C4090000 		.4byte	0x9c4
 1716 0915 4E020000 		.4byte	.LLST4
 1717 0919 1A       		.uleb128 0x1a
 1718 091a 20000000 		.4byte	.Ldebug_ranges0+0x20
 1719 091e 1B       		.uleb128 0x1b
 1720 091f CF090000 		.4byte	0x9cf
 1721 0923 6C020000 		.4byte	.LLST5
 1722 0927 00       		.byte	0
 1723 0928 00       		.byte	0
 1724 0929 1C       		.uleb128 0x1c
 1725 092a 28000000 		.4byte	.LVL11
 1726 092e 8E0A0000 		.4byte	0xa8e
 1727 0932 00       		.byte	0
 1728 0933 28       		.uleb128 0x28
 1729 0934 B2010000 		.4byte	.LASF108
 1730 0938 01       		.byte	0x1
 1731 0939 42       		.byte	0x42
 1732 093a 00000000 		.4byte	.LFB8
 1733 093e 40000000 		.4byte	.LFE8-.LFB8
 1734 0942 01       		.uleb128 0x1
 1735 0943 9C       		.byte	0x9c
 1736 0944 92090000 		.4byte	0x992
 1737 0948 21       		.uleb128 0x21
 1738 0949 637000   		.ascii	"cp\000"
 1739 094c 01       		.byte	0x1
 1740 094d 42       		.byte	0x42
 1741 094e E5060000 		.4byte	0x6e5
 1742 0952 7F020000 		.4byte	.LLST0
 1743 0956 25       		.uleb128 0x25
 1744 0957 B4090000 		.4byte	0x9b4
 1745 095b 14000000 		.4byte	.LBB16
 1746 095f 00000000 		.4byte	.Ldebug_ranges0+0
 1747 0963 01       		.byte	0x1
 1748 0964 48       		.byte	0x48
 1749 0965 82090000 		.4byte	0x982
 1750 0969 19       		.uleb128 0x19
 1751 096a C4090000 		.4byte	0x9c4
 1752 096e B6020000 		.4byte	.LLST1
 1753 0972 1A       		.uleb128 0x1a
 1754 0973 00000000 		.4byte	.Ldebug_ranges0+0
 1755 0977 1B       		.uleb128 0x1b
 1756 0978 CF090000 		.4byte	0x9cf
 1757 097c D4020000 		.4byte	.LLST2
 1758 0980 00       		.byte	0
 1759 0981 00       		.byte	0
 1760 0982 1F       		.uleb128 0x1f
 1761 0983 30000000 		.4byte	.LVL5
 1762 0987 A40A0000 		.4byte	0xaa4
 1763 098b 1E       		.uleb128 0x1e
 1764 098c 01       		.uleb128 0x1
 1765 098d 51       		.byte	0x51
 1766 098e 01       		.uleb128 0x1
 1767 098f 30       		.byte	0x30
ARM GAS  /tmp/ccBwyosj.s 			page 32


 1768 0990 00       		.byte	0
 1769 0991 00       		.byte	0
 1770 0992 28       		.uleb128 0x28
 1771 0993 13000000 		.4byte	.LASF109
 1772 0997 01       		.byte	0x1
 1773 0998 34       		.byte	0x34
 1774 0999 00000000 		.4byte	.LFB7
 1775 099d 0C000000 		.4byte	.LFE7-.LFB7
 1776 09a1 01       		.uleb128 0x1
 1777 09a2 9C       		.byte	0x9c
 1778 09a3 B4090000 		.4byte	0x9b4
 1779 09a7 2B       		.uleb128 0x2b
 1780 09a8 637000   		.ascii	"cp\000"
 1781 09ab 01       		.byte	0x1
 1782 09ac 34       		.byte	0x34
 1783 09ad E5060000 		.4byte	0x6e5
 1784 09b1 01       		.uleb128 0x1
 1785 09b2 50       		.byte	0x50
 1786 09b3 00       		.byte	0
 1787 09b4 2C       		.uleb128 0x2c
 1788 09b5 17040000 		.4byte	.LASF121
 1789 09b9 02       		.byte	0x2
 1790 09ba 34       		.byte	0x34
 1791 09bb 3D020000 		.4byte	0x23d
 1792 09bf 03       		.byte	0x3
 1793 09c0 DA090000 		.4byte	0x9da
 1794 09c4 27       		.uleb128 0x27
 1795 09c5 74717000 		.ascii	"tqp\000"
 1796 09c9 02       		.byte	0x2
 1797 09ca 34       		.byte	0x34
 1798 09cb DA090000 		.4byte	0x9da
 1799 09cf 2D       		.uleb128 0x2d
 1800 09d0 747000   		.ascii	"tp\000"
 1801 09d3 02       		.byte	0x2
 1802 09d4 35       		.byte	0x35
 1803 09d5 3D020000 		.4byte	0x23d
 1804 09d9 00       		.byte	0
 1805 09da 0A       		.uleb128 0xa
 1806 09db 04       		.byte	0x4
 1807 09dc 43020000 		.4byte	0x243
 1808 09e0 2E       		.uleb128 0x2e
 1809 09e1 60040000 		.4byte	.LASF122
 1810 09e5 02       		.byte	0x2
 1811 09e6 22       		.byte	0x22
 1812 09e7 03       		.byte	0x3
 1813 09e8 0C0A0000 		.4byte	0xa0c
 1814 09ec 27       		.uleb128 0x27
 1815 09ed 747000   		.ascii	"tp\000"
 1816 09f0 02       		.byte	0x2
 1817 09f1 22       		.byte	0x22
 1818 09f2 3D020000 		.4byte	0x23d
 1819 09f6 27       		.uleb128 0x27
 1820 09f7 74717000 		.ascii	"tqp\000"
 1821 09fb 02       		.byte	0x2
 1822 09fc 22       		.byte	0x22
 1823 09fd DA090000 		.4byte	0x9da
 1824 0a01 2D       		.uleb128 0x2d
ARM GAS  /tmp/ccBwyosj.s 			page 33


 1825 0a02 637000   		.ascii	"cp\000"
 1826 0a05 02       		.byte	0x2
 1827 0a06 24       		.byte	0x24
 1828 0a07 3D020000 		.4byte	0x23d
 1829 0a0b 00       		.byte	0
 1830 0a0c 2F       		.uleb128 0x2f
 1831 0a0d 40080000 		.4byte	0x840
 1832 0a11 00000000 		.4byte	.LFB11
 1833 0a15 3C000000 		.4byte	.LFE11-.LFB11
 1834 0a19 01       		.uleb128 0x1
 1835 0a1a 9C       		.byte	0x9c
 1836 0a1b 620A0000 		.4byte	0xa62
 1837 0a1f 19       		.uleb128 0x19
 1838 0a20 4C080000 		.4byte	0x84c
 1839 0a24 E7020000 		.4byte	.LLST10
 1840 0a28 29       		.uleb128 0x29
 1841 0a29 B4090000 		.4byte	0x9b4
 1842 0a2d 18000000 		.4byte	.LBB30
 1843 0a31 0C000000 		.4byte	.LBE30-.LBB30
 1844 0a35 01       		.byte	0x1
 1845 0a36 83       		.byte	0x83
 1846 0a37 580A0000 		.4byte	0xa58
 1847 0a3b 19       		.uleb128 0x19
 1848 0a3c C4090000 		.4byte	0x9c4
 1849 0a40 05030000 		.4byte	.LLST11
 1850 0a44 2A       		.uleb128 0x2a
 1851 0a45 18000000 		.4byte	.LBB31
 1852 0a49 0C000000 		.4byte	.LBE31-.LBB31
 1853 0a4d 1B       		.uleb128 0x1b
 1854 0a4e CF090000 		.4byte	0x9cf
 1855 0a52 18030000 		.4byte	.LLST12
 1856 0a56 00       		.byte	0
 1857 0a57 00       		.byte	0
 1858 0a58 1C       		.uleb128 0x1c
 1859 0a59 28000000 		.4byte	.LVL24
 1860 0a5d 8E0A0000 		.4byte	0xa8e
 1861 0a61 00       		.byte	0
 1862 0a62 30       		.uleb128 0x30
 1863 0a63 BF010000 		.4byte	.LASF110
 1864 0a67 BF010000 		.4byte	.LASF110
 1865 0a6b 0B       		.byte	0xb
 1866 0a6c 37       		.byte	0x37
 1867 0a6d 30       		.uleb128 0x30
 1868 0a6e 7A050000 		.4byte	.LASF111
 1869 0a72 7A050000 		.4byte	.LASF111
 1870 0a76 0A       		.byte	0xa
 1871 0a77 8F       		.byte	0x8f
 1872 0a78 30       		.uleb128 0x30
 1873 0a79 32010000 		.4byte	.LASF112
 1874 0a7d 32010000 		.4byte	.LASF112
 1875 0a81 0B       		.byte	0xb
 1876 0a82 33       		.byte	0x33
 1877 0a83 30       		.uleb128 0x30
 1878 0a84 CF030000 		.4byte	.LASF113
 1879 0a88 CF030000 		.4byte	.LASF113
 1880 0a8c 0A       		.byte	0xa
 1881 0a8d 8C       		.byte	0x8c
ARM GAS  /tmp/ccBwyosj.s 			page 34


 1882 0a8e 30       		.uleb128 0x30
 1883 0a8f 2E040000 		.4byte	.LASF114
 1884 0a93 2E040000 		.4byte	.LASF114
 1885 0a97 0A       		.byte	0xa
 1886 0a98 89       		.byte	0x89
 1887 0a99 30       		.uleb128 0x30
 1888 0a9a 68010000 		.4byte	.LASF115
 1889 0a9e 68010000 		.4byte	.LASF115
 1890 0aa2 0A       		.byte	0xa
 1891 0aa3 95       		.byte	0x95
 1892 0aa4 30       		.uleb128 0x30
 1893 0aa5 2E020000 		.4byte	.LASF116
 1894 0aa9 2E020000 		.4byte	.LASF116
 1895 0aad 0A       		.byte	0xa
 1896 0aae 92       		.byte	0x92
 1897 0aaf 00       		.byte	0
 1898              		.section	.debug_abbrev,"",%progbits
 1899              	.Ldebug_abbrev0:
 1900 0000 01       		.uleb128 0x1
 1901 0001 11       		.uleb128 0x11
 1902 0002 01       		.byte	0x1
 1903 0003 25       		.uleb128 0x25
 1904 0004 0E       		.uleb128 0xe
 1905 0005 13       		.uleb128 0x13
 1906 0006 0B       		.uleb128 0xb
 1907 0007 03       		.uleb128 0x3
 1908 0008 0E       		.uleb128 0xe
 1909 0009 1B       		.uleb128 0x1b
 1910 000a 0E       		.uleb128 0xe
 1911 000b 55       		.uleb128 0x55
 1912 000c 17       		.uleb128 0x17
 1913 000d 11       		.uleb128 0x11
 1914 000e 01       		.uleb128 0x1
 1915 000f 10       		.uleb128 0x10
 1916 0010 17       		.uleb128 0x17
 1917 0011 00       		.byte	0
 1918 0012 00       		.byte	0
 1919 0013 02       		.uleb128 0x2
 1920 0014 24       		.uleb128 0x24
 1921 0015 00       		.byte	0
 1922 0016 0B       		.uleb128 0xb
 1923 0017 0B       		.uleb128 0xb
 1924 0018 3E       		.uleb128 0x3e
 1925 0019 0B       		.uleb128 0xb
 1926 001a 03       		.uleb128 0x3
 1927 001b 08       		.uleb128 0x8
 1928 001c 00       		.byte	0
 1929 001d 00       		.byte	0
 1930 001e 03       		.uleb128 0x3
 1931 001f 24       		.uleb128 0x24
 1932 0020 00       		.byte	0
 1933 0021 0B       		.uleb128 0xb
 1934 0022 0B       		.uleb128 0xb
 1935 0023 3E       		.uleb128 0x3e
 1936 0024 0B       		.uleb128 0xb
 1937 0025 03       		.uleb128 0x3
 1938 0026 0E       		.uleb128 0xe
ARM GAS  /tmp/ccBwyosj.s 			page 35


 1939 0027 00       		.byte	0
 1940 0028 00       		.byte	0
 1941 0029 04       		.uleb128 0x4
 1942 002a 16       		.uleb128 0x16
 1943 002b 00       		.byte	0
 1944 002c 03       		.uleb128 0x3
 1945 002d 0E       		.uleb128 0xe
 1946 002e 3A       		.uleb128 0x3a
 1947 002f 0B       		.uleb128 0xb
 1948 0030 3B       		.uleb128 0x3b
 1949 0031 0B       		.uleb128 0xb
 1950 0032 49       		.uleb128 0x49
 1951 0033 13       		.uleb128 0x13
 1952 0034 00       		.byte	0
 1953 0035 00       		.byte	0
 1954 0036 05       		.uleb128 0x5
 1955 0037 35       		.uleb128 0x35
 1956 0038 00       		.byte	0
 1957 0039 49       		.uleb128 0x49
 1958 003a 13       		.uleb128 0x13
 1959 003b 00       		.byte	0
 1960 003c 00       		.byte	0
 1961 003d 06       		.uleb128 0x6
 1962 003e 13       		.uleb128 0x13
 1963 003f 01       		.byte	0x1
 1964 0040 03       		.uleb128 0x3
 1965 0041 0E       		.uleb128 0xe
 1966 0042 0B       		.uleb128 0xb
 1967 0043 0B       		.uleb128 0xb
 1968 0044 3A       		.uleb128 0x3a
 1969 0045 0B       		.uleb128 0xb
 1970 0046 3B       		.uleb128 0x3b
 1971 0047 0B       		.uleb128 0xb
 1972 0048 01       		.uleb128 0x1
 1973 0049 13       		.uleb128 0x13
 1974 004a 00       		.byte	0
 1975 004b 00       		.byte	0
 1976 004c 07       		.uleb128 0x7
 1977 004d 0D       		.uleb128 0xd
 1978 004e 00       		.byte	0
 1979 004f 03       		.uleb128 0x3
 1980 0050 0E       		.uleb128 0xe
 1981 0051 3A       		.uleb128 0x3a
 1982 0052 0B       		.uleb128 0xb
 1983 0053 3B       		.uleb128 0x3b
 1984 0054 0B       		.uleb128 0xb
 1985 0055 49       		.uleb128 0x49
 1986 0056 13       		.uleb128 0x13
 1987 0057 38       		.uleb128 0x38
 1988 0058 0B       		.uleb128 0xb
 1989 0059 00       		.byte	0
 1990 005a 00       		.byte	0
 1991 005b 08       		.uleb128 0x8
 1992 005c 0D       		.uleb128 0xd
 1993 005d 00       		.byte	0
 1994 005e 03       		.uleb128 0x3
 1995 005f 08       		.uleb128 0x8
ARM GAS  /tmp/ccBwyosj.s 			page 36


 1996 0060 3A       		.uleb128 0x3a
 1997 0061 0B       		.uleb128 0xb
 1998 0062 3B       		.uleb128 0x3b
 1999 0063 0B       		.uleb128 0xb
 2000 0064 49       		.uleb128 0x49
 2001 0065 13       		.uleb128 0x13
 2002 0066 38       		.uleb128 0x38
 2003 0067 0B       		.uleb128 0xb
 2004 0068 00       		.byte	0
 2005 0069 00       		.byte	0
 2006 006a 09       		.uleb128 0x9
 2007 006b 13       		.uleb128 0x13
 2008 006c 01       		.byte	0x1
 2009 006d 0B       		.uleb128 0xb
 2010 006e 0B       		.uleb128 0xb
 2011 006f 3A       		.uleb128 0x3a
 2012 0070 0B       		.uleb128 0xb
 2013 0071 3B       		.uleb128 0x3b
 2014 0072 0B       		.uleb128 0xb
 2015 0073 01       		.uleb128 0x1
 2016 0074 13       		.uleb128 0x13
 2017 0075 00       		.byte	0
 2018 0076 00       		.byte	0
 2019 0077 0A       		.uleb128 0xa
 2020 0078 0F       		.uleb128 0xf
 2021 0079 00       		.byte	0
 2022 007a 0B       		.uleb128 0xb
 2023 007b 0B       		.uleb128 0xb
 2024 007c 49       		.uleb128 0x49
 2025 007d 13       		.uleb128 0x13
 2026 007e 00       		.byte	0
 2027 007f 00       		.byte	0
 2028 0080 0B       		.uleb128 0xb
 2029 0081 0F       		.uleb128 0xf
 2030 0082 00       		.byte	0
 2031 0083 0B       		.uleb128 0xb
 2032 0084 0B       		.uleb128 0xb
 2033 0085 00       		.byte	0
 2034 0086 00       		.byte	0
 2035 0087 0C       		.uleb128 0xc
 2036 0088 15       		.uleb128 0x15
 2037 0089 01       		.byte	0x1
 2038 008a 27       		.uleb128 0x27
 2039 008b 19       		.uleb128 0x19
 2040 008c 01       		.uleb128 0x1
 2041 008d 13       		.uleb128 0x13
 2042 008e 00       		.byte	0
 2043 008f 00       		.byte	0
 2044 0090 0D       		.uleb128 0xd
 2045 0091 05       		.uleb128 0x5
 2046 0092 00       		.byte	0
 2047 0093 49       		.uleb128 0x49
 2048 0094 13       		.uleb128 0x13
 2049 0095 00       		.byte	0
 2050 0096 00       		.byte	0
 2051 0097 0E       		.uleb128 0xe
 2052 0098 34       		.uleb128 0x34
ARM GAS  /tmp/ccBwyosj.s 			page 37


 2053 0099 00       		.byte	0
 2054 009a 03       		.uleb128 0x3
 2055 009b 0E       		.uleb128 0xe
 2056 009c 3A       		.uleb128 0x3a
 2057 009d 0B       		.uleb128 0xb
 2058 009e 3B       		.uleb128 0x3b
 2059 009f 0B       		.uleb128 0xb
 2060 00a0 49       		.uleb128 0x49
 2061 00a1 13       		.uleb128 0x13
 2062 00a2 3F       		.uleb128 0x3f
 2063 00a3 19       		.uleb128 0x19
 2064 00a4 3C       		.uleb128 0x3c
 2065 00a5 19       		.uleb128 0x19
 2066 00a6 00       		.byte	0
 2067 00a7 00       		.byte	0
 2068 00a8 0F       		.uleb128 0xf
 2069 00a9 17       		.uleb128 0x17
 2070 00aa 01       		.byte	0x1
 2071 00ab 0B       		.uleb128 0xb
 2072 00ac 0B       		.uleb128 0xb
 2073 00ad 3A       		.uleb128 0x3a
 2074 00ae 0B       		.uleb128 0xb
 2075 00af 3B       		.uleb128 0x3b
 2076 00b0 0B       		.uleb128 0xb
 2077 00b1 01       		.uleb128 0x1
 2078 00b2 13       		.uleb128 0x13
 2079 00b3 00       		.byte	0
 2080 00b4 00       		.byte	0
 2081 00b5 10       		.uleb128 0x10
 2082 00b6 0D       		.uleb128 0xd
 2083 00b7 00       		.byte	0
 2084 00b8 03       		.uleb128 0x3
 2085 00b9 0E       		.uleb128 0xe
 2086 00ba 3A       		.uleb128 0x3a
 2087 00bb 0B       		.uleb128 0xb
 2088 00bc 3B       		.uleb128 0x3b
 2089 00bd 0B       		.uleb128 0xb
 2090 00be 49       		.uleb128 0x49
 2091 00bf 13       		.uleb128 0x13
 2092 00c0 00       		.byte	0
 2093 00c1 00       		.byte	0
 2094 00c2 11       		.uleb128 0x11
 2095 00c3 26       		.uleb128 0x26
 2096 00c4 00       		.byte	0
 2097 00c5 49       		.uleb128 0x49
 2098 00c6 13       		.uleb128 0x13
 2099 00c7 00       		.byte	0
 2100 00c8 00       		.byte	0
 2101 00c9 12       		.uleb128 0x12
 2102 00ca 01       		.uleb128 0x1
 2103 00cb 01       		.byte	0x1
 2104 00cc 49       		.uleb128 0x49
 2105 00cd 13       		.uleb128 0x13
 2106 00ce 01       		.uleb128 0x1
 2107 00cf 13       		.uleb128 0x13
 2108 00d0 00       		.byte	0
 2109 00d1 00       		.byte	0
ARM GAS  /tmp/ccBwyosj.s 			page 38


 2110 00d2 13       		.uleb128 0x13
 2111 00d3 21       		.uleb128 0x21
 2112 00d4 00       		.byte	0
 2113 00d5 49       		.uleb128 0x49
 2114 00d6 13       		.uleb128 0x13
 2115 00d7 2F       		.uleb128 0x2f
 2116 00d8 0B       		.uleb128 0xb
 2117 00d9 00       		.byte	0
 2118 00da 00       		.byte	0
 2119 00db 14       		.uleb128 0x14
 2120 00dc 2E       		.uleb128 0x2e
 2121 00dd 01       		.byte	0x1
 2122 00de 3F       		.uleb128 0x3f
 2123 00df 19       		.uleb128 0x19
 2124 00e0 03       		.uleb128 0x3
 2125 00e1 0E       		.uleb128 0xe
 2126 00e2 3A       		.uleb128 0x3a
 2127 00e3 0B       		.uleb128 0xb
 2128 00e4 3B       		.uleb128 0x3b
 2129 00e5 05       		.uleb128 0x5
 2130 00e6 27       		.uleb128 0x27
 2131 00e7 19       		.uleb128 0x19
 2132 00e8 49       		.uleb128 0x49
 2133 00e9 13       		.uleb128 0x13
 2134 00ea 11       		.uleb128 0x11
 2135 00eb 01       		.uleb128 0x1
 2136 00ec 12       		.uleb128 0x12
 2137 00ed 06       		.uleb128 0x6
 2138 00ee 40       		.uleb128 0x40
 2139 00ef 18       		.uleb128 0x18
 2140 00f0 9742     		.uleb128 0x2117
 2141 00f2 19       		.uleb128 0x19
 2142 00f3 01       		.uleb128 0x1
 2143 00f4 13       		.uleb128 0x13
 2144 00f5 00       		.byte	0
 2145 00f6 00       		.byte	0
 2146 00f7 15       		.uleb128 0x15
 2147 00f8 05       		.uleb128 0x5
 2148 00f9 00       		.byte	0
 2149 00fa 03       		.uleb128 0x3
 2150 00fb 08       		.uleb128 0x8
 2151 00fc 3A       		.uleb128 0x3a
 2152 00fd 0B       		.uleb128 0xb
 2153 00fe 3B       		.uleb128 0x3b
 2154 00ff 05       		.uleb128 0x5
 2155 0100 49       		.uleb128 0x49
 2156 0101 13       		.uleb128 0x13
 2157 0102 02       		.uleb128 0x2
 2158 0103 17       		.uleb128 0x17
 2159 0104 00       		.byte	0
 2160 0105 00       		.byte	0
 2161 0106 16       		.uleb128 0x16
 2162 0107 05       		.uleb128 0x5
 2163 0108 00       		.byte	0
 2164 0109 03       		.uleb128 0x3
 2165 010a 0E       		.uleb128 0xe
 2166 010b 3A       		.uleb128 0x3a
ARM GAS  /tmp/ccBwyosj.s 			page 39


 2167 010c 0B       		.uleb128 0xb
 2168 010d 3B       		.uleb128 0x3b
 2169 010e 05       		.uleb128 0x5
 2170 010f 49       		.uleb128 0x49
 2171 0110 13       		.uleb128 0x13
 2172 0111 02       		.uleb128 0x2
 2173 0112 17       		.uleb128 0x17
 2174 0113 00       		.byte	0
 2175 0114 00       		.byte	0
 2176 0115 17       		.uleb128 0x17
 2177 0116 34       		.uleb128 0x34
 2178 0117 00       		.byte	0
 2179 0118 03       		.uleb128 0x3
 2180 0119 08       		.uleb128 0x8
 2181 011a 3A       		.uleb128 0x3a
 2182 011b 0B       		.uleb128 0xb
 2183 011c 3B       		.uleb128 0x3b
 2184 011d 05       		.uleb128 0x5
 2185 011e 49       		.uleb128 0x49
 2186 011f 13       		.uleb128 0x13
 2187 0120 02       		.uleb128 0x2
 2188 0121 17       		.uleb128 0x17
 2189 0122 00       		.byte	0
 2190 0123 00       		.byte	0
 2191 0124 18       		.uleb128 0x18
 2192 0125 1D       		.uleb128 0x1d
 2193 0126 01       		.byte	0x1
 2194 0127 31       		.uleb128 0x31
 2195 0128 13       		.uleb128 0x13
 2196 0129 52       		.uleb128 0x52
 2197 012a 01       		.uleb128 0x1
 2198 012b 55       		.uleb128 0x55
 2199 012c 17       		.uleb128 0x17
 2200 012d 58       		.uleb128 0x58
 2201 012e 0B       		.uleb128 0xb
 2202 012f 59       		.uleb128 0x59
 2203 0130 05       		.uleb128 0x5
 2204 0131 01       		.uleb128 0x1
 2205 0132 13       		.uleb128 0x13
 2206 0133 00       		.byte	0
 2207 0134 00       		.byte	0
 2208 0135 19       		.uleb128 0x19
 2209 0136 05       		.uleb128 0x5
 2210 0137 00       		.byte	0
 2211 0138 31       		.uleb128 0x31
 2212 0139 13       		.uleb128 0x13
 2213 013a 02       		.uleb128 0x2
 2214 013b 17       		.uleb128 0x17
 2215 013c 00       		.byte	0
 2216 013d 00       		.byte	0
 2217 013e 1A       		.uleb128 0x1a
 2218 013f 0B       		.uleb128 0xb
 2219 0140 01       		.byte	0x1
 2220 0141 55       		.uleb128 0x55
 2221 0142 17       		.uleb128 0x17
 2222 0143 00       		.byte	0
 2223 0144 00       		.byte	0
ARM GAS  /tmp/ccBwyosj.s 			page 40


 2224 0145 1B       		.uleb128 0x1b
 2225 0146 34       		.uleb128 0x34
 2226 0147 00       		.byte	0
 2227 0148 31       		.uleb128 0x31
 2228 0149 13       		.uleb128 0x13
 2229 014a 02       		.uleb128 0x2
 2230 014b 17       		.uleb128 0x17
 2231 014c 00       		.byte	0
 2232 014d 00       		.byte	0
 2233 014e 1C       		.uleb128 0x1c
 2234 014f 898201   		.uleb128 0x4109
 2235 0152 00       		.byte	0
 2236 0153 11       		.uleb128 0x11
 2237 0154 01       		.uleb128 0x1
 2238 0155 31       		.uleb128 0x31
 2239 0156 13       		.uleb128 0x13
 2240 0157 00       		.byte	0
 2241 0158 00       		.byte	0
 2242 0159 1D       		.uleb128 0x1d
 2243 015a 898201   		.uleb128 0x4109
 2244 015d 01       		.byte	0x1
 2245 015e 11       		.uleb128 0x11
 2246 015f 01       		.uleb128 0x1
 2247 0160 31       		.uleb128 0x31
 2248 0161 13       		.uleb128 0x13
 2249 0162 01       		.uleb128 0x1
 2250 0163 13       		.uleb128 0x13
 2251 0164 00       		.byte	0
 2252 0165 00       		.byte	0
 2253 0166 1E       		.uleb128 0x1e
 2254 0167 8A8201   		.uleb128 0x410a
 2255 016a 00       		.byte	0
 2256 016b 02       		.uleb128 0x2
 2257 016c 18       		.uleb128 0x18
 2258 016d 9142     		.uleb128 0x2111
 2259 016f 18       		.uleb128 0x18
 2260 0170 00       		.byte	0
 2261 0171 00       		.byte	0
 2262 0172 1F       		.uleb128 0x1f
 2263 0173 898201   		.uleb128 0x4109
 2264 0176 01       		.byte	0x1
 2265 0177 11       		.uleb128 0x11
 2266 0178 01       		.uleb128 0x1
 2267 0179 31       		.uleb128 0x31
 2268 017a 13       		.uleb128 0x13
 2269 017b 00       		.byte	0
 2270 017c 00       		.byte	0
 2271 017d 20       		.uleb128 0x20
 2272 017e 2E       		.uleb128 0x2e
 2273 017f 01       		.byte	0x1
 2274 0180 3F       		.uleb128 0x3f
 2275 0181 19       		.uleb128 0x19
 2276 0182 03       		.uleb128 0x3
 2277 0183 0E       		.uleb128 0xe
 2278 0184 3A       		.uleb128 0x3a
 2279 0185 0B       		.uleb128 0xb
 2280 0186 3B       		.uleb128 0x3b
ARM GAS  /tmp/ccBwyosj.s 			page 41


 2281 0187 0B       		.uleb128 0xb
 2282 0188 27       		.uleb128 0x27
 2283 0189 19       		.uleb128 0x19
 2284 018a 49       		.uleb128 0x49
 2285 018b 13       		.uleb128 0x13
 2286 018c 11       		.uleb128 0x11
 2287 018d 01       		.uleb128 0x1
 2288 018e 12       		.uleb128 0x12
 2289 018f 06       		.uleb128 0x6
 2290 0190 40       		.uleb128 0x40
 2291 0191 18       		.uleb128 0x18
 2292 0192 9742     		.uleb128 0x2117
 2293 0194 19       		.uleb128 0x19
 2294 0195 01       		.uleb128 0x1
 2295 0196 13       		.uleb128 0x13
 2296 0197 00       		.byte	0
 2297 0198 00       		.byte	0
 2298 0199 21       		.uleb128 0x21
 2299 019a 05       		.uleb128 0x5
 2300 019b 00       		.byte	0
 2301 019c 03       		.uleb128 0x3
 2302 019d 08       		.uleb128 0x8
 2303 019e 3A       		.uleb128 0x3a
 2304 019f 0B       		.uleb128 0xb
 2305 01a0 3B       		.uleb128 0x3b
 2306 01a1 0B       		.uleb128 0xb
 2307 01a2 49       		.uleb128 0x49
 2308 01a3 13       		.uleb128 0x13
 2309 01a4 02       		.uleb128 0x2
 2310 01a5 17       		.uleb128 0x17
 2311 01a6 00       		.byte	0
 2312 01a7 00       		.byte	0
 2313 01a8 22       		.uleb128 0x22
 2314 01a9 05       		.uleb128 0x5
 2315 01aa 00       		.byte	0
 2316 01ab 03       		.uleb128 0x3
 2317 01ac 0E       		.uleb128 0xe
 2318 01ad 3A       		.uleb128 0x3a
 2319 01ae 0B       		.uleb128 0xb
 2320 01af 3B       		.uleb128 0x3b
 2321 01b0 0B       		.uleb128 0xb
 2322 01b1 49       		.uleb128 0x49
 2323 01b2 13       		.uleb128 0x13
 2324 01b3 02       		.uleb128 0x2
 2325 01b4 17       		.uleb128 0x17
 2326 01b5 00       		.byte	0
 2327 01b6 00       		.byte	0
 2328 01b7 23       		.uleb128 0x23
 2329 01b8 34       		.uleb128 0x34
 2330 01b9 00       		.byte	0
 2331 01ba 03       		.uleb128 0x3
 2332 01bb 08       		.uleb128 0x8
 2333 01bc 3A       		.uleb128 0x3a
 2334 01bd 0B       		.uleb128 0xb
 2335 01be 3B       		.uleb128 0x3b
 2336 01bf 0B       		.uleb128 0xb
 2337 01c0 49       		.uleb128 0x49
ARM GAS  /tmp/ccBwyosj.s 			page 42


 2338 01c1 13       		.uleb128 0x13
 2339 01c2 02       		.uleb128 0x2
 2340 01c3 18       		.uleb128 0x18
 2341 01c4 00       		.byte	0
 2342 01c5 00       		.byte	0
 2343 01c6 24       		.uleb128 0x24
 2344 01c7 34       		.uleb128 0x34
 2345 01c8 00       		.byte	0
 2346 01c9 03       		.uleb128 0x3
 2347 01ca 08       		.uleb128 0x8
 2348 01cb 3A       		.uleb128 0x3a
 2349 01cc 0B       		.uleb128 0xb
 2350 01cd 3B       		.uleb128 0x3b
 2351 01ce 0B       		.uleb128 0xb
 2352 01cf 49       		.uleb128 0x49
 2353 01d0 13       		.uleb128 0x13
 2354 01d1 02       		.uleb128 0x2
 2355 01d2 17       		.uleb128 0x17
 2356 01d3 00       		.byte	0
 2357 01d4 00       		.byte	0
 2358 01d5 25       		.uleb128 0x25
 2359 01d6 1D       		.uleb128 0x1d
 2360 01d7 01       		.byte	0x1
 2361 01d8 31       		.uleb128 0x31
 2362 01d9 13       		.uleb128 0x13
 2363 01da 52       		.uleb128 0x52
 2364 01db 01       		.uleb128 0x1
 2365 01dc 55       		.uleb128 0x55
 2366 01dd 17       		.uleb128 0x17
 2367 01de 58       		.uleb128 0x58
 2368 01df 0B       		.uleb128 0xb
 2369 01e0 59       		.uleb128 0x59
 2370 01e1 0B       		.uleb128 0xb
 2371 01e2 01       		.uleb128 0x1
 2372 01e3 13       		.uleb128 0x13
 2373 01e4 00       		.byte	0
 2374 01e5 00       		.byte	0
 2375 01e6 26       		.uleb128 0x26
 2376 01e7 2E       		.uleb128 0x2e
 2377 01e8 01       		.byte	0x1
 2378 01e9 3F       		.uleb128 0x3f
 2379 01ea 19       		.uleb128 0x19
 2380 01eb 03       		.uleb128 0x3
 2381 01ec 0E       		.uleb128 0xe
 2382 01ed 3A       		.uleb128 0x3a
 2383 01ee 0B       		.uleb128 0xb
 2384 01ef 3B       		.uleb128 0x3b
 2385 01f0 0B       		.uleb128 0xb
 2386 01f1 27       		.uleb128 0x27
 2387 01f2 19       		.uleb128 0x19
 2388 01f3 20       		.uleb128 0x20
 2389 01f4 0B       		.uleb128 0xb
 2390 01f5 01       		.uleb128 0x1
 2391 01f6 13       		.uleb128 0x13
 2392 01f7 00       		.byte	0
 2393 01f8 00       		.byte	0
 2394 01f9 27       		.uleb128 0x27
ARM GAS  /tmp/ccBwyosj.s 			page 43


 2395 01fa 05       		.uleb128 0x5
 2396 01fb 00       		.byte	0
 2397 01fc 03       		.uleb128 0x3
 2398 01fd 08       		.uleb128 0x8
 2399 01fe 3A       		.uleb128 0x3a
 2400 01ff 0B       		.uleb128 0xb
 2401 0200 3B       		.uleb128 0x3b
 2402 0201 0B       		.uleb128 0xb
 2403 0202 49       		.uleb128 0x49
 2404 0203 13       		.uleb128 0x13
 2405 0204 00       		.byte	0
 2406 0205 00       		.byte	0
 2407 0206 28       		.uleb128 0x28
 2408 0207 2E       		.uleb128 0x2e
 2409 0208 01       		.byte	0x1
 2410 0209 3F       		.uleb128 0x3f
 2411 020a 19       		.uleb128 0x19
 2412 020b 03       		.uleb128 0x3
 2413 020c 0E       		.uleb128 0xe
 2414 020d 3A       		.uleb128 0x3a
 2415 020e 0B       		.uleb128 0xb
 2416 020f 3B       		.uleb128 0x3b
 2417 0210 0B       		.uleb128 0xb
 2418 0211 27       		.uleb128 0x27
 2419 0212 19       		.uleb128 0x19
 2420 0213 11       		.uleb128 0x11
 2421 0214 01       		.uleb128 0x1
 2422 0215 12       		.uleb128 0x12
 2423 0216 06       		.uleb128 0x6
 2424 0217 40       		.uleb128 0x40
 2425 0218 18       		.uleb128 0x18
 2426 0219 9742     		.uleb128 0x2117
 2427 021b 19       		.uleb128 0x19
 2428 021c 01       		.uleb128 0x1
 2429 021d 13       		.uleb128 0x13
 2430 021e 00       		.byte	0
 2431 021f 00       		.byte	0
 2432 0220 29       		.uleb128 0x29
 2433 0221 1D       		.uleb128 0x1d
 2434 0222 01       		.byte	0x1
 2435 0223 31       		.uleb128 0x31
 2436 0224 13       		.uleb128 0x13
 2437 0225 11       		.uleb128 0x11
 2438 0226 01       		.uleb128 0x1
 2439 0227 12       		.uleb128 0x12
 2440 0228 06       		.uleb128 0x6
 2441 0229 58       		.uleb128 0x58
 2442 022a 0B       		.uleb128 0xb
 2443 022b 59       		.uleb128 0x59
 2444 022c 0B       		.uleb128 0xb
 2445 022d 01       		.uleb128 0x1
 2446 022e 13       		.uleb128 0x13
 2447 022f 00       		.byte	0
 2448 0230 00       		.byte	0
 2449 0231 2A       		.uleb128 0x2a
 2450 0232 0B       		.uleb128 0xb
 2451 0233 01       		.byte	0x1
ARM GAS  /tmp/ccBwyosj.s 			page 44


 2452 0234 11       		.uleb128 0x11
 2453 0235 01       		.uleb128 0x1
 2454 0236 12       		.uleb128 0x12
 2455 0237 06       		.uleb128 0x6
 2456 0238 00       		.byte	0
 2457 0239 00       		.byte	0
 2458 023a 2B       		.uleb128 0x2b
 2459 023b 05       		.uleb128 0x5
 2460 023c 00       		.byte	0
 2461 023d 03       		.uleb128 0x3
 2462 023e 08       		.uleb128 0x8
 2463 023f 3A       		.uleb128 0x3a
 2464 0240 0B       		.uleb128 0xb
 2465 0241 3B       		.uleb128 0x3b
 2466 0242 0B       		.uleb128 0xb
 2467 0243 49       		.uleb128 0x49
 2468 0244 13       		.uleb128 0x13
 2469 0245 02       		.uleb128 0x2
 2470 0246 18       		.uleb128 0x18
 2471 0247 00       		.byte	0
 2472 0248 00       		.byte	0
 2473 0249 2C       		.uleb128 0x2c
 2474 024a 2E       		.uleb128 0x2e
 2475 024b 01       		.byte	0x1
 2476 024c 03       		.uleb128 0x3
 2477 024d 0E       		.uleb128 0xe
 2478 024e 3A       		.uleb128 0x3a
 2479 024f 0B       		.uleb128 0xb
 2480 0250 3B       		.uleb128 0x3b
 2481 0251 0B       		.uleb128 0xb
 2482 0252 27       		.uleb128 0x27
 2483 0253 19       		.uleb128 0x19
 2484 0254 49       		.uleb128 0x49
 2485 0255 13       		.uleb128 0x13
 2486 0256 20       		.uleb128 0x20
 2487 0257 0B       		.uleb128 0xb
 2488 0258 01       		.uleb128 0x1
 2489 0259 13       		.uleb128 0x13
 2490 025a 00       		.byte	0
 2491 025b 00       		.byte	0
 2492 025c 2D       		.uleb128 0x2d
 2493 025d 34       		.uleb128 0x34
 2494 025e 00       		.byte	0
 2495 025f 03       		.uleb128 0x3
 2496 0260 08       		.uleb128 0x8
 2497 0261 3A       		.uleb128 0x3a
 2498 0262 0B       		.uleb128 0xb
 2499 0263 3B       		.uleb128 0x3b
 2500 0264 0B       		.uleb128 0xb
 2501 0265 49       		.uleb128 0x49
 2502 0266 13       		.uleb128 0x13
 2503 0267 00       		.byte	0
 2504 0268 00       		.byte	0
 2505 0269 2E       		.uleb128 0x2e
 2506 026a 2E       		.uleb128 0x2e
 2507 026b 01       		.byte	0x1
 2508 026c 03       		.uleb128 0x3
ARM GAS  /tmp/ccBwyosj.s 			page 45


 2509 026d 0E       		.uleb128 0xe
 2510 026e 3A       		.uleb128 0x3a
 2511 026f 0B       		.uleb128 0xb
 2512 0270 3B       		.uleb128 0x3b
 2513 0271 0B       		.uleb128 0xb
 2514 0272 27       		.uleb128 0x27
 2515 0273 19       		.uleb128 0x19
 2516 0274 20       		.uleb128 0x20
 2517 0275 0B       		.uleb128 0xb
 2518 0276 01       		.uleb128 0x1
 2519 0277 13       		.uleb128 0x13
 2520 0278 00       		.byte	0
 2521 0279 00       		.byte	0
 2522 027a 2F       		.uleb128 0x2f
 2523 027b 2E       		.uleb128 0x2e
 2524 027c 01       		.byte	0x1
 2525 027d 31       		.uleb128 0x31
 2526 027e 13       		.uleb128 0x13
 2527 027f 11       		.uleb128 0x11
 2528 0280 01       		.uleb128 0x1
 2529 0281 12       		.uleb128 0x12
 2530 0282 06       		.uleb128 0x6
 2531 0283 40       		.uleb128 0x40
 2532 0284 18       		.uleb128 0x18
 2533 0285 9742     		.uleb128 0x2117
 2534 0287 19       		.uleb128 0x19
 2535 0288 01       		.uleb128 0x1
 2536 0289 13       		.uleb128 0x13
 2537 028a 00       		.byte	0
 2538 028b 00       		.byte	0
 2539 028c 30       		.uleb128 0x30
 2540 028d 2E       		.uleb128 0x2e
 2541 028e 00       		.byte	0
 2542 028f 3F       		.uleb128 0x3f
 2543 0290 19       		.uleb128 0x19
 2544 0291 3C       		.uleb128 0x3c
 2545 0292 19       		.uleb128 0x19
 2546 0293 6E       		.uleb128 0x6e
 2547 0294 0E       		.uleb128 0xe
 2548 0295 03       		.uleb128 0x3
 2549 0296 0E       		.uleb128 0xe
 2550 0297 3A       		.uleb128 0x3a
 2551 0298 0B       		.uleb128 0xb
 2552 0299 3B       		.uleb128 0x3b
 2553 029a 0B       		.uleb128 0xb
 2554 029b 00       		.byte	0
 2555 029c 00       		.byte	0
 2556 029d 00       		.byte	0
 2557              		.section	.debug_loc,"",%progbits
 2558              	.Ldebug_loc0:
 2559              	.LLST20:
 2560 0000 00000000 		.4byte	.LVL39
 2561 0004 0F000000 		.4byte	.LVL40-1
 2562 0008 0100     		.2byte	0x1
 2563 000a 50       		.byte	0x50
 2564 000b 0F000000 		.4byte	.LVL40-1
 2565 000f 6C000000 		.4byte	.LVL47
ARM GAS  /tmp/ccBwyosj.s 			page 46


 2566 0013 0100     		.2byte	0x1
 2567 0015 54       		.byte	0x54
 2568 0016 6C000000 		.4byte	.LVL47
 2569 001a 84000000 		.4byte	.LFE15
 2570 001e 0400     		.2byte	0x4
 2571 0020 F3       		.byte	0xf3
 2572 0021 01       		.uleb128 0x1
 2573 0022 50       		.byte	0x50
 2574 0023 9F       		.byte	0x9f
 2575 0024 00000000 		.4byte	0
 2576 0028 00000000 		.4byte	0
 2577              	.LLST21:
 2578 002c 00000000 		.4byte	.LVL39
 2579 0030 0F000000 		.4byte	.LVL40-1
 2580 0034 0100     		.2byte	0x1
 2581 0036 51       		.byte	0x51
 2582 0037 0F000000 		.4byte	.LVL40-1
 2583 003b 84000000 		.4byte	.LFE15
 2584 003f 0100     		.2byte	0x1
 2585 0041 56       		.byte	0x56
 2586 0042 00000000 		.4byte	0
 2587 0046 00000000 		.4byte	0
 2588              	.LLST22:
 2589 004a 18000000 		.4byte	.LVL41
 2590 004e 28000000 		.4byte	.LVL43
 2591 0052 0100     		.2byte	0x1
 2592 0054 50       		.byte	0x50
 2593 0055 28000000 		.4byte	.LVL43
 2594 0059 84000000 		.4byte	.LFE15
 2595 005d 0100     		.2byte	0x1
 2596 005f 55       		.byte	0x55
 2597 0060 00000000 		.4byte	0
 2598 0064 00000000 		.4byte	0
 2599              	.LLST23:
 2600 0068 6C000000 		.4byte	.LVL47
 2601 006c 74000000 		.4byte	.LVL48
 2602 0070 0100     		.2byte	0x1
 2603 0072 50       		.byte	0x50
 2604 0073 74000000 		.4byte	.LVL48
 2605 0077 84000000 		.4byte	.LFE15
 2606 007b 0100     		.2byte	0x1
 2607 007d 54       		.byte	0x54
 2608 007e 00000000 		.4byte	0
 2609 0082 00000000 		.4byte	0
 2610              	.LLST24:
 2611 0086 24000000 		.4byte	.LVL42
 2612 008a 60000000 		.4byte	.LVL45
 2613 008e 0100     		.2byte	0x1
 2614 0090 54       		.byte	0x54
 2615 0091 00000000 		.4byte	0
 2616 0095 00000000 		.4byte	0
 2617              	.LLST25:
 2618 0099 24000000 		.4byte	.LVL42
 2619 009d 60000000 		.4byte	.LVL45
 2620 00a1 0100     		.2byte	0x1
 2621 00a3 5C       		.byte	0x5c
 2622 00a4 00000000 		.4byte	0
ARM GAS  /tmp/ccBwyosj.s 			page 47


 2623 00a8 00000000 		.4byte	0
 2624              	.LLST26:
 2625 00ac 24000000 		.4byte	.LVL42
 2626 00b0 28000000 		.4byte	.LVL43
 2627 00b4 0100     		.2byte	0x1
 2628 00b6 54       		.byte	0x54
 2629 00b7 28000000 		.4byte	.LVL43
 2630 00bb 60000000 		.4byte	.LVL45
 2631 00bf 0100     		.2byte	0x1
 2632 00c1 53       		.byte	0x53
 2633 00c2 00000000 		.4byte	0
 2634 00c6 00000000 		.4byte	0
 2635              	.LLST27:
 2636 00ca 00000000 		.4byte	.LVL50
 2637 00ce 0B000000 		.4byte	.LVL51-1
 2638 00d2 0100     		.2byte	0x1
 2639 00d4 50       		.byte	0x50
 2640 00d5 0B000000 		.4byte	.LVL51-1
 2641 00d9 14000000 		.4byte	.LFE14
 2642 00dd 0400     		.2byte	0x4
 2643 00df F3       		.byte	0xf3
 2644 00e0 01       		.uleb128 0x1
 2645 00e1 50       		.byte	0x50
 2646 00e2 9F       		.byte	0x9f
 2647 00e3 00000000 		.4byte	0
 2648 00e7 00000000 		.4byte	0
 2649              	.LLST28:
 2650 00eb 00000000 		.4byte	.LVL50
 2651 00ef 0B000000 		.4byte	.LVL51-1
 2652 00f3 0100     		.2byte	0x1
 2653 00f5 51       		.byte	0x51
 2654 00f6 0B000000 		.4byte	.LVL51-1
 2655 00fa 14000000 		.4byte	.LFE14
 2656 00fe 0400     		.2byte	0x4
 2657 0100 F3       		.byte	0xf3
 2658 0101 01       		.uleb128 0x1
 2659 0102 51       		.byte	0x51
 2660 0103 9F       		.byte	0x9f
 2661 0104 00000000 		.4byte	0
 2662 0108 00000000 		.4byte	0
 2663              	.LLST13:
 2664 010c 00000000 		.4byte	.LVL25
 2665 0110 13000000 		.4byte	.LVL27-1
 2666 0114 0100     		.2byte	0x1
 2667 0116 50       		.byte	0x50
 2668 0117 13000000 		.4byte	.LVL27-1
 2669 011b 74000000 		.4byte	.LFE13
 2670 011f 0100     		.2byte	0x1
 2671 0121 55       		.byte	0x55
 2672 0122 00000000 		.4byte	0
 2673 0126 00000000 		.4byte	0
 2674              	.LLST14:
 2675 012a 10000000 		.4byte	.LVL26
 2676 012e 60000000 		.4byte	.LVL35
 2677 0132 0100     		.2byte	0x1
 2678 0134 54       		.byte	0x54
 2679 0135 00000000 		.4byte	0
ARM GAS  /tmp/ccBwyosj.s 			page 48


 2680 0139 00000000 		.4byte	0
 2681              	.LLST15:
 2682 013d 1C000000 		.4byte	.LVL28
 2683 0141 48000000 		.4byte	.LVL32
 2684 0145 0100     		.2byte	0x1
 2685 0147 50       		.byte	0x50
 2686 0148 48000000 		.4byte	.LVL32
 2687 014c 74000000 		.4byte	.LFE13
 2688 0150 0100     		.2byte	0x1
 2689 0152 56       		.byte	0x56
 2690 0153 00000000 		.4byte	0
 2691 0157 00000000 		.4byte	0
 2692              	.LLST16:
 2693 015b 20000000 		.4byte	.LVL29
 2694 015f 58000000 		.4byte	.LVL33
 2695 0163 0100     		.2byte	0x1
 2696 0165 55       		.byte	0x55
 2697 0166 00000000 		.4byte	0
 2698 016a 00000000 		.4byte	0
 2699              	.LLST17:
 2700 016e 20000000 		.4byte	.LVL29
 2701 0172 58000000 		.4byte	.LVL33
 2702 0176 0100     		.2byte	0x1
 2703 0178 54       		.byte	0x54
 2704 0179 00000000 		.4byte	0
 2705 017d 00000000 		.4byte	0
 2706              	.LLST18:
 2707 0181 20000000 		.4byte	.LVL29
 2708 0185 24000000 		.4byte	.LVL30
 2709 0189 0100     		.2byte	0x1
 2710 018b 55       		.byte	0x55
 2711 018c 24000000 		.4byte	.LVL30
 2712 0190 58000000 		.4byte	.LVL33
 2713 0194 0100     		.2byte	0x1
 2714 0196 53       		.byte	0x53
 2715 0197 00000000 		.4byte	0
 2716 019b 00000000 		.4byte	0
 2717              	.LLST19:
 2718 019f 00000000 		.4byte	.LVL37
 2719 01a3 0B000000 		.4byte	.LVL38-1
 2720 01a7 0100     		.2byte	0x1
 2721 01a9 50       		.byte	0x50
 2722 01aa 0B000000 		.4byte	.LVL38-1
 2723 01ae 14000000 		.4byte	.LFE12
 2724 01b2 0400     		.2byte	0x4
 2725 01b4 F3       		.byte	0xf3
 2726 01b5 01       		.uleb128 0x1
 2727 01b6 50       		.byte	0x50
 2728 01b7 9F       		.byte	0x9f
 2729 01b8 00000000 		.4byte	0
 2730 01bc 00000000 		.4byte	0
 2731              	.LLST6:
 2732 01c0 00000000 		.4byte	.LVL12
 2733 01c4 10000000 		.4byte	.LVL14
 2734 01c8 0100     		.2byte	0x1
 2735 01ca 50       		.byte	0x50
 2736 01cb 10000000 		.4byte	.LVL14
ARM GAS  /tmp/ccBwyosj.s 			page 49


 2737 01cf 48000000 		.4byte	.LFE10
 2738 01d3 0100     		.2byte	0x1
 2739 01d5 54       		.byte	0x54
 2740 01d6 00000000 		.4byte	0
 2741 01da 00000000 		.4byte	0
 2742              	.LLST7:
 2743 01de 0C000000 		.4byte	.LVL13
 2744 01e2 10000000 		.4byte	.LVL14
 2745 01e6 0100     		.2byte	0x1
 2746 01e8 50       		.byte	0x50
 2747 01e9 10000000 		.4byte	.LVL14
 2748 01ed 3C000000 		.4byte	.LVL18
 2749 01f1 0100     		.2byte	0x1
 2750 01f3 54       		.byte	0x54
 2751 01f4 00000000 		.4byte	0
 2752 01f8 00000000 		.4byte	0
 2753              	.LLST8:
 2754 01fc 1C000000 		.4byte	.LVL15
 2755 0200 28000000 		.4byte	.LVL16
 2756 0204 0100     		.2byte	0x1
 2757 0206 54       		.byte	0x54
 2758 0207 00000000 		.4byte	0
 2759 020b 00000000 		.4byte	0
 2760              	.LLST9:
 2761 020f 1C000000 		.4byte	.LVL15
 2762 0213 28000000 		.4byte	.LVL16
 2763 0217 0100     		.2byte	0x1
 2764 0219 50       		.byte	0x50
 2765 021a 00000000 		.4byte	0
 2766 021e 00000000 		.4byte	0
 2767              	.LLST3:
 2768 0222 00000000 		.4byte	.LVL7
 2769 0226 1C000000 		.4byte	.LVL9
 2770 022a 0100     		.2byte	0x1
 2771 022c 50       		.byte	0x50
 2772 022d 1C000000 		.4byte	.LVL9
 2773 0231 27000000 		.4byte	.LVL11-1
 2774 0235 0100     		.2byte	0x1
 2775 0237 53       		.byte	0x53
 2776 0238 27000000 		.4byte	.LVL11-1
 2777 023c 34000000 		.4byte	.LFE9
 2778 0240 0400     		.2byte	0x4
 2779 0242 F3       		.byte	0xf3
 2780 0243 01       		.uleb128 0x1
 2781 0244 50       		.byte	0x50
 2782 0245 9F       		.byte	0x9f
 2783 0246 00000000 		.4byte	0
 2784 024a 00000000 		.4byte	0
 2785              	.LLST4:
 2786 024e 10000000 		.4byte	.LVL8
 2787 0252 1C000000 		.4byte	.LVL9
 2788 0256 0100     		.2byte	0x1
 2789 0258 50       		.byte	0x50
 2790 0259 1C000000 		.4byte	.LVL9
 2791 025d 24000000 		.4byte	.LVL10
 2792 0261 0100     		.2byte	0x1
 2793 0263 53       		.byte	0x53
ARM GAS  /tmp/ccBwyosj.s 			page 50


 2794 0264 00000000 		.4byte	0
 2795 0268 00000000 		.4byte	0
 2796              	.LLST5:
 2797 026c 10000000 		.4byte	.LVL8
 2798 0270 24000000 		.4byte	.LVL10
 2799 0274 0100     		.2byte	0x1
 2800 0276 52       		.byte	0x52
 2801 0277 00000000 		.4byte	0
 2802 027b 00000000 		.4byte	0
 2803              	.LLST0:
 2804 027f 00000000 		.4byte	.LVL1
 2805 0283 20000000 		.4byte	.LVL3
 2806 0287 0100     		.2byte	0x1
 2807 0289 50       		.byte	0x50
 2808 028a 20000000 		.4byte	.LVL3
 2809 028e 2F000000 		.4byte	.LVL5-1
 2810 0292 0100     		.2byte	0x1
 2811 0294 53       		.byte	0x53
 2812 0295 2F000000 		.4byte	.LVL5-1
 2813 0299 38000000 		.4byte	.LVL6
 2814 029d 0400     		.2byte	0x4
 2815 029f F3       		.byte	0xf3
 2816 02a0 01       		.uleb128 0x1
 2817 02a1 50       		.byte	0x50
 2818 02a2 9F       		.byte	0x9f
 2819 02a3 38000000 		.4byte	.LVL6
 2820 02a7 40000000 		.4byte	.LFE8
 2821 02ab 0100     		.2byte	0x1
 2822 02ad 50       		.byte	0x50
 2823 02ae 00000000 		.4byte	0
 2824 02b2 00000000 		.4byte	0
 2825              	.LLST1:
 2826 02b6 14000000 		.4byte	.LVL2
 2827 02ba 20000000 		.4byte	.LVL3
 2828 02be 0100     		.2byte	0x1
 2829 02c0 50       		.byte	0x50
 2830 02c1 20000000 		.4byte	.LVL3
 2831 02c5 2C000000 		.4byte	.LVL4
 2832 02c9 0100     		.2byte	0x1
 2833 02cb 53       		.byte	0x53
 2834 02cc 00000000 		.4byte	0
 2835 02d0 00000000 		.4byte	0
 2836              	.LLST2:
 2837 02d4 14000000 		.4byte	.LVL2
 2838 02d8 2C000000 		.4byte	.LVL4
 2839 02dc 0100     		.2byte	0x1
 2840 02de 52       		.byte	0x52
 2841 02df 00000000 		.4byte	0
 2842 02e3 00000000 		.4byte	0
 2843              	.LLST10:
 2844 02e7 00000000 		.4byte	.LVL20
 2845 02eb 0C000000 		.4byte	.LVL21
 2846 02ef 0100     		.2byte	0x1
 2847 02f1 50       		.byte	0x50
 2848 02f2 0C000000 		.4byte	.LVL21
 2849 02f6 3C000000 		.4byte	.LFE11
 2850 02fa 0100     		.2byte	0x1
ARM GAS  /tmp/ccBwyosj.s 			page 51


 2851 02fc 54       		.byte	0x54
 2852 02fd 00000000 		.4byte	0
 2853 0301 00000000 		.4byte	0
 2854              	.LLST11:
 2855 0305 18000000 		.4byte	.LVL22
 2856 0309 24000000 		.4byte	.LVL23
 2857 030d 0100     		.2byte	0x1
 2858 030f 54       		.byte	0x54
 2859 0310 00000000 		.4byte	0
 2860 0314 00000000 		.4byte	0
 2861              	.LLST12:
 2862 0318 18000000 		.4byte	.LVL22
 2863 031c 24000000 		.4byte	.LVL23
 2864 0320 0100     		.2byte	0x1
 2865 0322 50       		.byte	0x50
 2866 0323 00000000 		.4byte	0
 2867 0327 00000000 		.4byte	0
 2868              		.section	.debug_aranges,"",%progbits
 2869 0000 5C000000 		.4byte	0x5c
 2870 0004 0200     		.2byte	0x2
 2871 0006 00000000 		.4byte	.Ldebug_info0
 2872 000a 04       		.byte	0x4
 2873 000b 00       		.byte	0
 2874 000c 0000     		.2byte	0
 2875 000e 0000     		.2byte	0
 2876 0010 00000000 		.4byte	.LFB7
 2877 0014 0C000000 		.4byte	.LFE7-.LFB7
 2878 0018 00000000 		.4byte	.LFB8
 2879 001c 40000000 		.4byte	.LFE8-.LFB8
 2880 0020 00000000 		.4byte	.LFB9
 2881 0024 34000000 		.4byte	.LFE9-.LFB9
 2882 0028 00000000 		.4byte	.LFB10
 2883 002c 48000000 		.4byte	.LFE10-.LFB10
 2884 0030 00000000 		.4byte	.LFB11
 2885 0034 3C000000 		.4byte	.LFE11-.LFB11
 2886 0038 00000000 		.4byte	.LFB13
 2887 003c 74000000 		.4byte	.LFE13-.LFB13
 2888 0040 00000000 		.4byte	.LFB12
 2889 0044 14000000 		.4byte	.LFE12-.LFB12
 2890 0048 00000000 		.4byte	.LFB15
 2891 004c 84000000 		.4byte	.LFE15-.LFB15
 2892 0050 00000000 		.4byte	.LFB14
 2893 0054 14000000 		.4byte	.LFE14-.LFB14
 2894 0058 00000000 		.4byte	0
 2895 005c 00000000 		.4byte	0
 2896              		.section	.debug_ranges,"",%progbits
 2897              	.Ldebug_ranges0:
 2898 0000 14000000 		.4byte	.LBB16
 2899 0004 18000000 		.4byte	.LBE16
 2900 0008 20000000 		.4byte	.LBB20
 2901 000c 24000000 		.4byte	.LBE20
 2902 0010 28000000 		.4byte	.LBB21
 2903 0014 2C000000 		.4byte	.LBE21
 2904 0018 00000000 		.4byte	0
 2905 001c 00000000 		.4byte	0
 2906 0020 10000000 		.4byte	.LBB22
 2907 0024 14000000 		.4byte	.LBE22
ARM GAS  /tmp/ccBwyosj.s 			page 52


 2908 0028 1C000000 		.4byte	.LBB25
 2909 002c 24000000 		.4byte	.LBE25
 2910 0030 00000000 		.4byte	0
 2911 0034 00000000 		.4byte	0
 2912 0038 24000000 		.4byte	.LBB32
 2913 003c 44000000 		.4byte	.LBE32
 2914 0040 48000000 		.4byte	.LBB35
 2915 0044 58000000 		.4byte	.LBE35
 2916 0048 00000000 		.4byte	0
 2917 004c 00000000 		.4byte	0
 2918 0050 28000000 		.4byte	.LBB36
 2919 0054 48000000 		.4byte	.LBE36
 2920 0058 4C000000 		.4byte	.LBB40
 2921 005c 54000000 		.4byte	.LBE40
 2922 0060 58000000 		.4byte	.LBB41
 2923 0064 60000000 		.4byte	.LBE41
 2924 0068 00000000 		.4byte	0
 2925 006c 00000000 		.4byte	0
 2926 0070 00000000 		.4byte	.LFB7
 2927 0074 0C000000 		.4byte	.LFE7
 2928 0078 00000000 		.4byte	.LFB8
 2929 007c 40000000 		.4byte	.LFE8
 2930 0080 00000000 		.4byte	.LFB9
 2931 0084 34000000 		.4byte	.LFE9
 2932 0088 00000000 		.4byte	.LFB10
 2933 008c 48000000 		.4byte	.LFE10
 2934 0090 00000000 		.4byte	.LFB11
 2935 0094 3C000000 		.4byte	.LFE11
 2936 0098 00000000 		.4byte	.LFB13
 2937 009c 74000000 		.4byte	.LFE13
 2938 00a0 00000000 		.4byte	.LFB12
 2939 00a4 14000000 		.4byte	.LFE12
 2940 00a8 00000000 		.4byte	.LFB15
 2941 00ac 84000000 		.4byte	.LFE15
 2942 00b0 00000000 		.4byte	.LFB14
 2943 00b4 14000000 		.4byte	.LFE14
 2944 00b8 00000000 		.4byte	0
 2945 00bc 00000000 		.4byte	0
 2946              		.section	.debug_line,"",%progbits
 2947              	.Ldebug_line0:
 2948 0000 9E020000 		.section	.debug_str,"MS",%progbits,1
 2948      02003F01 
 2948      00000201 
 2948      FB0E0D00 
 2948      01010101 
 2949              	.LASF89:
 2950 0000 63665F6F 		.ascii	"cf_off_older\000"
 2950      66665F6F 
 2950      6C646572 
 2950      00
 2951              	.LASF40:
 2952 000d 705F6D73 		.ascii	"p_msg\000"
 2952      6700
 2953              	.LASF109:
 2954 0013 6368436F 		.ascii	"chCondInit\000"
 2954      6E64496E 
 2954      697400
ARM GAS  /tmp/ccBwyosj.s 			page 53


 2955              	.LASF74:
 2956 001e 7264796D 		.ascii	"rdymsg\000"
 2956      736700
 2957              	.LASF4:
 2958 0025 5F5F7569 		.ascii	"__uint8_t\000"
 2958      6E74385F 
 2958      7400
 2959              	.LASF66:
 2960 002f 76746C69 		.ascii	"vtlist\000"
 2960      737400
 2961              	.LASF12:
 2962 0036 6C6F6E67 		.ascii	"long long unsigned int\000"
 2962      206C6F6E 
 2962      6720756E 
 2962      7369676E 
 2962      65642069 
 2963              	.LASF119:
 2964 004d 2F686F6D 		.ascii	"/home/lmr/Downloads/ChibiOS-RPi/ChibiOS-RPi/demos/P"
 2964      652F6C6D 
 2964      722F446F 
 2964      776E6C6F 
 2964      6164732F 
 2965 0080 726F6A65 		.ascii	"roject\000"
 2965      637400
 2966              	.LASF85:
 2967 0087 63685F74 		.ascii	"ch_threadsize\000"
 2967      68726561 
 2967      6473697A 
 2967      6500
 2968              	.LASF75:
 2969 0095 65786974 		.ascii	"exitcode\000"
 2969      636F6465 
 2969      00
 2970              	.LASF120:
 2971 009e 6368436F 		.ascii	"chCondBroadcastI\000"
 2971      6E644272 
 2971      6F616463 
 2971      61737449 
 2971      00
 2972              	.LASF28:
 2973 00af 705F7072 		.ascii	"p_prio\000"
 2973      696F00
 2974              	.LASF92:
 2975 00b6 63665F6F 		.ascii	"cf_off_state\000"
 2975      66665F73 
 2975      74617465 
 2975      00
 2976              	.LASF11:
 2977 00c3 6C6F6E67 		.ascii	"long long int\000"
 2977      206C6F6E 
 2977      6720696E 
 2977      7400
 2978              	.LASF1:
 2979 00d1 7369676E 		.ascii	"signed char\000"
 2979      65642063 
 2979      68617200 
 2980              	.LASF91:
ARM GAS  /tmp/ccBwyosj.s 			page 54


 2981 00dd 63665F6F 		.ascii	"cf_off_stklimit\000"
 2981      66665F73 
 2981      746B6C69 
 2981      6D697400 
 2982              	.LASF93:
 2983 00ed 63665F6F 		.ascii	"cf_off_flags\000"
 2983      66665F66 
 2983      6C616773 
 2983      00
 2984              	.LASF69:
 2985 00fa 6D5F7175 		.ascii	"m_queue\000"
 2985      65756500 
 2986              	.LASF20:
 2987 0102 74736C69 		.ascii	"tslices_t\000"
 2987      6365735F 
 2987      7400
 2988              	.LASF72:
 2989 010c 436F6E64 		.ascii	"CondVar\000"
 2989      56617200 
 2990              	.LASF8:
 2991 0114 6C6F6E67 		.ascii	"long int\000"
 2991      20696E74 
 2991      00
 2992              	.LASF104:
 2993 011d 6368436F 		.ascii	"chCondWaitS\000"
 2993      6E645761 
 2993      69745300 
 2994              	.LASF18:
 2995 0129 74737461 		.ascii	"tstate_t\000"
 2995      74655F74 
 2995      00
 2996              	.LASF112:
 2997 0132 63684D74 		.ascii	"chMtxLockS\000"
 2997      784C6F63 
 2997      6B5300
 2998              	.LASF14:
 2999 013d 75696E74 		.ascii	"uint16_t\000"
 2999      31365F74 
 2999      00
 3000              	.LASF98:
 3001 0146 63686465 		.ascii	"chdebug_t\000"
 3001      6275675F 
 3001      7400
 3002              	.LASF30:
 3003 0150 705F6E65 		.ascii	"p_newer\000"
 3003      77657200 
 3004              	.LASF100:
 3005 0158 5F69646C 		.ascii	"_idle_thread_wa\000"
 3005      655F7468 
 3005      72656164 
 3005      5F776100 
 3006              	.LASF115:
 3007 0168 63685363 		.ascii	"chSchRescheduleS\000"
 3007      68526573 
 3007      63686564 
 3007      756C6553 
 3007      00
ARM GAS  /tmp/ccBwyosj.s 			page 55


 3008              	.LASF9:
 3009 0179 5F5F7569 		.ascii	"__uint32_t\000"
 3009      6E743332 
 3009      5F7400
 3010              	.LASF47:
 3011 0184 72656761 		.ascii	"regarm_t\000"
 3011      726D5F74 
 3011      00
 3012              	.LASF53:
 3013 018d 76745F70 		.ascii	"vt_prev\000"
 3013      72657600 
 3014              	.LASF118:
 3015 0195 2E2E2F2E 		.ascii	"../../os/kernel/src/chcond.c\000"
 3015      2E2F6F73 
 3015      2F6B6572 
 3015      6E656C2F 
 3015      7372632F 
 3016              	.LASF108:
 3017 01b2 6368436F 		.ascii	"chCondSignal\000"
 3017      6E645369 
 3017      676E616C 
 3017      00
 3018              	.LASF110:
 3019 01bf 63684D74 		.ascii	"chMtxUnlockS\000"
 3019      78556E6C 
 3019      6F636B53 
 3019      00
 3020              	.LASF0:
 3021 01cc 756E7369 		.ascii	"unsigned int\000"
 3021      676E6564 
 3021      20696E74 
 3021      00
 3022              	.LASF52:
 3023 01d9 76745F6E 		.ascii	"vt_next\000"
 3023      65787400 
 3024              	.LASF10:
 3025 01e1 6C6F6E67 		.ascii	"long unsigned int\000"
 3025      20756E73 
 3025      69676E65 
 3025      6420696E 
 3025      7400
 3026              	.LASF99:
 3027 01f3 63685F64 		.ascii	"ch_debug\000"
 3027      65627567 
 3027      00
 3028              	.LASF50:
 3029 01fc 76746675 		.ascii	"vtfunc_t\000"
 3029      6E635F74 
 3029      00
 3030              	.LASF79:
 3031 0205 63685F69 		.ascii	"ch_identifier\000"
 3031      64656E74 
 3031      69666965 
 3031      7200
 3032              	.LASF49:
 3033 0213 636F6E74 		.ascii	"context\000"
 3033      65787400 
ARM GAS  /tmp/ccBwyosj.s 			page 56


 3034              	.LASF6:
 3035 021b 73686F72 		.ascii	"short unsigned int\000"
 3035      7420756E 
 3035      7369676E 
 3035      65642069 
 3035      6E7400
 3036              	.LASF116:
 3037 022e 63685363 		.ascii	"chSchWakeupS\000"
 3037      6857616B 
 3037      65757053 
 3037      00
 3038              	.LASF22:
 3039 023b 6D73675F 		.ascii	"msg_t\000"
 3039      7400
 3040              	.LASF62:
 3041 0241 725F6E65 		.ascii	"r_newer\000"
 3041      77657200 
 3042              	.LASF17:
 3043 0249 746D6F64 		.ascii	"tmode_t\000"
 3043      655F7400 
 3044              	.LASF45:
 3045 0251 54687265 		.ascii	"ThreadsList\000"
 3045      6164734C 
 3045      69737400 
 3046              	.LASF23:
 3047 025d 6576656E 		.ascii	"eventmask_t\000"
 3047      746D6173 
 3047      6B5F7400 
 3048              	.LASF68:
 3049 0269 4D757465 		.ascii	"Mutex\000"
 3049      7800
 3050              	.LASF46:
 3051 026f 73746B61 		.ascii	"stkalign_t\000"
 3051      6C69676E 
 3051      5F7400
 3052              	.LASF80:
 3053 027a 63685F7A 		.ascii	"ch_zero\000"
 3053      65726F00 
 3054              	.LASF94:
 3055 0282 63665F6F 		.ascii	"cf_off_refs\000"
 3055      66665F72 
 3055      65667300 
 3056              	.LASF54:
 3057 028e 76745F74 		.ascii	"vt_time\000"
 3057      696D6500 
 3058              	.LASF97:
 3059 0296 73697A65 		.ascii	"sizetype\000"
 3059      74797065 
 3059      00
 3060              	.LASF55:
 3061 029f 76745F66 		.ascii	"vt_func\000"
 3061      756E6300 
 3062              	.LASF102:
 3063 02a7 6368436F 		.ascii	"chCondWaitTimeoutS\000"
 3063      6E645761 
 3063      69745469 
 3063      6D656F75 
ARM GAS  /tmp/ccBwyosj.s 			page 57


 3063      745300
 3064              	.LASF84:
 3065 02ba 63685F74 		.ascii	"ch_timesize\000"
 3065      696D6573 
 3065      697A6500 
 3066              	.LASF90:
 3067 02c6 63665F6F 		.ascii	"cf_off_name\000"
 3067      66665F6E 
 3067      616D6500 
 3068              	.LASF31:
 3069 02d2 705F6F6C 		.ascii	"p_older\000"
 3069      64657200 
 3070              	.LASF61:
 3071 02da 725F6374 		.ascii	"r_ctx\000"
 3071      7800
 3072              	.LASF44:
 3073 02e0 54687265 		.ascii	"ThreadsQueue\000"
 3073      61647351 
 3073      75657565 
 3073      00
 3074              	.LASF81:
 3075 02ed 63685F73 		.ascii	"ch_size\000"
 3075      697A6500 
 3076              	.LASF101:
 3077 02f5 74696D65 		.ascii	"time\000"
 3077      00
 3078              	.LASF64:
 3079 02fa 725F6375 		.ascii	"r_current\000"
 3079      7272656E 
 3079      7400
 3080              	.LASF63:
 3081 0304 725F6F6C 		.ascii	"r_older\000"
 3081      64657200 
 3082              	.LASF106:
 3083 030c 6368436F 		.ascii	"chCondBroadcast\000"
 3083      6E644272 
 3083      6F616463 
 3083      61737400 
 3084              	.LASF19:
 3085 031c 74726566 		.ascii	"trefs_t\000"
 3085      735F7400 
 3086              	.LASF83:
 3087 0324 63685F70 		.ascii	"ch_ptrsize\000"
 3087      74727369 
 3087      7A6500
 3088              	.LASF27:
 3089 032f 705F7072 		.ascii	"p_prev\000"
 3089      657600
 3090              	.LASF21:
 3091 0336 74707269 		.ascii	"tprio_t\000"
 3091      6F5F7400 
 3092              	.LASF107:
 3093 033e 6368436F 		.ascii	"chCondSignalI\000"
 3093      6E645369 
 3093      676E616C 
 3093      4900
 3094              	.LASF15:
ARM GAS  /tmp/ccBwyosj.s 			page 58


 3095 034c 696E7433 		.ascii	"int32_t\000"
 3095      325F7400 
 3096              	.LASF2:
 3097 0354 756E7369 		.ascii	"unsigned char\000"
 3097      676E6564 
 3097      20636861 
 3097      7200
 3098              	.LASF42:
 3099 0362 705F6D74 		.ascii	"p_mtxlist\000"
 3099      786C6973 
 3099      7400
 3100              	.LASF3:
 3101 036c 73686F72 		.ascii	"short int\000"
 3101      7420696E 
 3101      7400
 3102              	.LASF33:
 3103 0376 705F7374 		.ascii	"p_state\000"
 3103      61746500 
 3104              	.LASF36:
 3105 037e 705F7072 		.ascii	"p_preempt\000"
 3105      65656D70 
 3105      7400
 3106              	.LASF96:
 3107 0388 63665F6F 		.ascii	"cf_off_time\000"
 3107      66665F74 
 3107      696D6500 
 3108              	.LASF60:
 3109 0394 725F7072 		.ascii	"r_prio\000"
 3109      696F00
 3110              	.LASF77:
 3111 039b 65776D61 		.ascii	"ewmask\000"
 3111      736B00
 3112              	.LASF26:
 3113 03a2 705F6E65 		.ascii	"p_next\000"
 3113      787400
 3114              	.LASF95:
 3115 03a9 63665F6F 		.ascii	"cf_off_preempt\000"
 3115      66665F70 
 3115      7265656D 
 3115      707400
 3116              	.LASF34:
 3117 03b8 705F666C 		.ascii	"p_flags\000"
 3117      61677300 
 3118              	.LASF25:
 3119 03c0 54687265 		.ascii	"Thread\000"
 3119      616400
 3120              	.LASF73:
 3121 03c7 635F7175 		.ascii	"c_queue\000"
 3121      65756500 
 3122              	.LASF113:
 3123 03cf 63685363 		.ascii	"chSchGoSleepS\000"
 3123      68476F53 
 3123      6C656570 
 3123      5300
 3124              	.LASF41:
 3125 03dd 705F6570 		.ascii	"p_epending\000"
 3125      656E6469 
ARM GAS  /tmp/ccBwyosj.s 			page 59


 3125      6E6700
 3126              	.LASF16:
 3127 03e8 75696E74 		.ascii	"uint32_t\000"
 3127      33325F74 
 3127      00
 3128              	.LASF86:
 3129 03f1 63665F6F 		.ascii	"cf_off_prio\000"
 3129      66665F70 
 3129      72696F00 
 3130              	.LASF59:
 3131 03fd 725F7175 		.ascii	"r_queue\000"
 3131      65756500 
 3132              	.LASF51:
 3133 0405 56697274 		.ascii	"VirtualTimer\000"
 3133      75616C54 
 3133      696D6572 
 3133      00
 3134              	.LASF78:
 3135 0412 63686172 		.ascii	"char\000"
 3135      00
 3136              	.LASF121:
 3137 0417 6669666F 		.ascii	"fifo_remove\000"
 3137      5F72656D 
 3137      6F766500 
 3138              	.LASF5:
 3139 0423 5F5F7569 		.ascii	"__uint16_t\000"
 3139      6E743136 
 3139      5F7400
 3140              	.LASF114:
 3141 042e 63685363 		.ascii	"chSchReadyI\000"
 3141      68526561 
 3141      64794900 
 3142              	.LASF71:
 3143 043a 6D5F6E65 		.ascii	"m_next\000"
 3143      787400
 3144              	.LASF24:
 3145 0441 73797374 		.ascii	"systime_t\000"
 3145      696D655F 
 3145      7400
 3146              	.LASF43:
 3147 044b 705F7265 		.ascii	"p_realprio\000"
 3147      616C7072 
 3147      696F00
 3148              	.LASF7:
 3149 0456 5F5F696E 		.ascii	"__int32_t\000"
 3149      7433325F 
 3149      7400
 3150              	.LASF122:
 3151 0460 7072696F 		.ascii	"prio_insert\000"
 3151      5F696E73 
 3151      65727400 
 3152              	.LASF105:
 3153 046c 6368436F 		.ascii	"chCondWait\000"
 3153      6E645761 
 3153      697400
 3154              	.LASF37:
 3155 0477 705F7469 		.ascii	"p_time\000"
ARM GAS  /tmp/ccBwyosj.s 			page 60


 3155      6D6500
 3156              	.LASF117:
 3157 047e 474E5520 		.ascii	"GNU C11 6.3.1 20170620 -mcpu=arm1176jz-s -mno-thumb"
 3157      43313120 
 3157      362E332E 
 3157      31203230 
 3157      31373036 
 3158 04b1 2D696E74 		.ascii	"-interwork -ggdb -O2 -fomit-frame-pointer -ffunctio"
 3158      6572776F 
 3158      726B202D 
 3158      67676462 
 3158      202D4F32 
 3159 04e4 6E2D7365 		.ascii	"n-sections -fdata-sections\000"
 3159      6374696F 
 3159      6E73202D 
 3159      66646174 
 3159      612D7365 
 3160              	.LASF48:
 3161 04ff 696E7463 		.ascii	"intctx\000"
 3161      747800
 3162              	.LASF39:
 3163 0506 705F6D73 		.ascii	"p_msgqueue\000"
 3163      67717565 
 3163      756500
 3164              	.LASF56:
 3165 0511 76745F70 		.ascii	"vt_par\000"
 3165      617200
 3166              	.LASF87:
 3167 0518 63665F6F 		.ascii	"cf_off_ctx\000"
 3167      66665F63 
 3167      747800
 3168              	.LASF35:
 3169 0523 705F7265 		.ascii	"p_refs\000"
 3169      667300
 3170              	.LASF65:
 3171 052a 52656164 		.ascii	"ReadyList\000"
 3171      794C6973 
 3171      7400
 3172              	.LASF67:
 3173 0534 726C6973 		.ascii	"rlist\000"
 3173      7400
 3174              	.LASF13:
 3175 053a 75696E74 		.ascii	"uint8_t\000"
 3175      385F7400 
 3176              	.LASF76:
 3177 0542 77746F62 		.ascii	"wtobjp\000"
 3177      6A7000
 3178              	.LASF88:
 3179 0549 63665F6F 		.ascii	"cf_off_newer\000"
 3179      66665F6E 
 3179      65776572 
 3179      00
 3180              	.LASF32:
 3181 0556 705F6E61 		.ascii	"p_name\000"
 3181      6D6500
 3182              	.LASF103:
 3183 055d 6368436F 		.ascii	"chCondWaitTimeout\000"
ARM GAS  /tmp/ccBwyosj.s 			page 61


 3183      6E645761 
 3183      69745469 
 3183      6D656F75 
 3183      7400
 3184              	.LASF57:
 3185 056f 76745F73 		.ascii	"vt_systime\000"
 3185      79737469 
 3185      6D6500
 3186              	.LASF111:
 3187 057a 63685363 		.ascii	"chSchGoSleepTimeoutS\000"
 3187      68476F53 
 3187      6C656570 
 3187      54696D65 
 3187      6F757453 
 3188              	.LASF82:
 3189 058f 63685F76 		.ascii	"ch_version\000"
 3189      65727369 
 3189      6F6E00
 3190              	.LASF58:
 3191 059a 56544C69 		.ascii	"VTList\000"
 3191      737400
 3192              	.LASF70:
 3193 05a1 6D5F6F77 		.ascii	"m_owner\000"
 3193      6E657200 
 3194              	.LASF29:
 3195 05a9 705F6374 		.ascii	"p_ctx\000"
 3195      7800
 3196              	.LASF38:
 3197 05af 705F7761 		.ascii	"p_waiting\000"
 3197      6974696E 
 3197      6700
 3198              		.ident	"GCC: (15:6.3.1+svn253039-1build1) 6.3.1 20170620"
ARM GAS  /tmp/ccBwyosj.s 			page 62


DEFINED SYMBOLS
                            *ABS*:0000000000000000 chcond.c
     /tmp/ccBwyosj.s:16     .text.chCondInit:0000000000000000 $a
     /tmp/ccBwyosj.s:22     .text.chCondInit:0000000000000000 chCondInit
     /tmp/ccBwyosj.s:39     .text.chCondSignal:0000000000000000 $a
     /tmp/ccBwyosj.s:45     .text.chCondSignal:0000000000000000 chCondSignal
     /tmp/ccBwyosj.s:122    .text.chCondSignalI:0000000000000000 $a
     /tmp/ccBwyosj.s:128    .text.chCondSignalI:0000000000000000 chCondSignalI
     /tmp/ccBwyosj.s:173    .text.chCondBroadcast:0000000000000000 $a
     /tmp/ccBwyosj.s:179    .text.chCondBroadcast:0000000000000000 chCondBroadcast
     /tmp/ccBwyosj.s:251    .text.chCondBroadcastI:0000000000000000 $a
     /tmp/ccBwyosj.s:257    .text.chCondBroadcastI:0000000000000000 chCondBroadcastI
     /tmp/ccBwyosj.s:303    .text.chCondWaitS:0000000000000000 $a
     /tmp/ccBwyosj.s:309    .text.chCondWaitS:0000000000000000 chCondWaitS
     /tmp/ccBwyosj.s:394    .text.chCondWaitS:0000000000000070 $d
     /tmp/ccBwyosj.s:399    .text.chCondWait:0000000000000000 $a
     /tmp/ccBwyosj.s:405    .text.chCondWait:0000000000000000 chCondWait
     /tmp/ccBwyosj.s:439    .text.chCondWaitTimeoutS:0000000000000000 $a
     /tmp/ccBwyosj.s:445    .text.chCondWaitTimeoutS:0000000000000000 chCondWaitTimeoutS
     /tmp/ccBwyosj.s:540    .text.chCondWaitTimeoutS:0000000000000080 $d
     /tmp/ccBwyosj.s:545    .text.chCondWaitTimeout:0000000000000000 $a
     /tmp/ccBwyosj.s:551    .text.chCondWaitTimeout:0000000000000000 chCondWaitTimeout
                     .debug_frame:0000000000000010 $d

UNDEFINED SYMBOLS
chSchWakeupS
chSchReadyI
chSchRescheduleS
chMtxUnlockS
chSchGoSleepS
chMtxLockS
rlist
chSchGoSleepTimeoutS
