ARM GAS  /tmp/cc2Q4My5.s 			page 1


   1              		.cpu arm1176jz-s
   2              		.eabi_attribute 20, 1
   3              		.eabi_attribute 21, 1
   4              		.eabi_attribute 23, 3
   5              		.eabi_attribute 24, 1
   6              		.eabi_attribute 25, 1
   7              		.eabi_attribute 26, 1
   8              		.eabi_attribute 30, 2
   9              		.eabi_attribute 34, 1
  10              		.eabi_attribute 18, 4
  11              		.file	"chdynamic.c"
  12              		.text
  13              	.Ltext0:
  14              		.cfi_sections	.debug_frame
  15              		.section	.text.chThdAddRef,"ax",%progbits
  16              		.align	2
  17              		.global	chThdAddRef
  18              		.syntax unified
  19              		.arm
  20              		.fpu softvfp
  21              		.type	chThdAddRef, %function
  22              	chThdAddRef:
  23              	.LFB7:
  24              		.file 1 "../../os/kernel/src/chdynamic.c"
  25              		.loc 1 45 0
  26              		.cfi_startproc
  27              		@ args = 0, pretend = 0, frame = 0
  28              		@ frame_needed = 0, uses_anonymous_args = 0
  29              		@ link register save eliminated.
  30              	.LVL0:
  31              		.loc 1 47 0
  32              		.syntax divided
  33              	@ 47 "../../os/kernel/src/chdynamic.c" 1
  34 0000 9FF021E3 		msr     CPSR_c, #0x9F
  35              	@ 0 "" 2
  36              		.loc 1 49 0
  37              		.arm
  38              		.syntax unified
  39 0004 1E30D0E5 		ldrb	r3, [r0, #30]	@ zero_extendqisi2
  40 0008 013083E2 		add	r3, r3, #1
  41 000c 1E30C0E5 		strb	r3, [r0, #30]
  42              		.loc 1 50 0
  43              		.syntax divided
  44              	@ 50 "../../os/kernel/src/chdynamic.c" 1
  45 0010 1FF021E3 		msr     CPSR_c, #0x1F
  46              	@ 0 "" 2
  47              		.loc 1 52 0
  48              		.arm
  49              		.syntax unified
  50 0014 1EFF2FE1 		bx	lr
  51              		.cfi_endproc
  52              	.LFE7:
  53              		.size	chThdAddRef, .-chThdAddRef
  54              		.section	.text.chThdRelease,"ax",%progbits
  55              		.align	2
  56              		.global	chThdRelease
  57              		.syntax unified
ARM GAS  /tmp/cc2Q4My5.s 			page 2


  58              		.arm
  59              		.fpu softvfp
  60              		.type	chThdRelease, %function
  61              	chThdRelease:
  62              	.LFB8:
  63              		.loc 1 67 0
  64              		.cfi_startproc
  65              		@ args = 0, pretend = 0, frame = 0
  66              		@ frame_needed = 0, uses_anonymous_args = 0
  67              		@ link register save eliminated.
  68              	.LVL1:
  69              		.loc 1 70 0
  70              		.syntax divided
  71              	@ 70 "../../os/kernel/src/chdynamic.c" 1
  72 0000 9FF021E3 		msr     CPSR_c, #0x9F
  73              	@ 0 "" 2
  74              		.loc 1 72 0
  75              		.arm
  76              		.syntax unified
  77 0004 1E30D0E5 		ldrb	r3, [r0, #30]	@ zero_extendqisi2
  78 0008 013043E2 		sub	r3, r3, #1
  79 000c 7330EFE6 		uxtb	r3, r3
  80 0010 1E30C0E5 		strb	r3, [r0, #30]
  81              	.LVL2:
  82              		.loc 1 73 0
  83              		.syntax divided
  84              	@ 73 "../../os/kernel/src/chdynamic.c" 1
  85 0014 1FF021E3 		msr     CPSR_c, #0x1F
  86              	@ 0 "" 2
  87              		.loc 1 78 0
  88              		.arm
  89              		.syntax unified
  90 0018 000053E3 		cmp	r3, #0
  91 001c 1EFF2F11 		bxne	lr
  92              		.loc 1 78 0 is_stmt 0 discriminator 1
  93 0020 1C30D0E5 		ldrb	r3, [r0, #28]	@ zero_extendqisi2
  94              	.LVL3:
  95 0024 0E0053E3 		cmp	r3, #14
  96 0028 1EFF2F11 		bxne	lr
  97              		.loc 1 79 0 is_stmt 1
  98 002c 1D30D0E5 		ldrb	r3, [r0, #29]	@ zero_extendqisi2
  99 0030 033003E2 		and	r3, r3, #3
 100 0034 010053E3 		cmp	r3, #1
 101 0038 1EFF2F11 		bxne	lr
 102              		.loc 1 83 0
 103 003c 143090E5 		ldr	r3, [r0, #20]
 104 0040 101090E5 		ldr	r1, [r0, #16]
 105 0044 101083E5 		str	r1, [r3, #16]
 106              	.LVL4:
 107 0048 102090E5 		ldr	r2, [r0, #16]
 108 004c 143082E5 		str	r3, [r2, #20]
 109              		.loc 1 85 0
 110 0050 FEFFFFEA 		b	chHeapFree
 111              	.LVL5:
 112              		.cfi_endproc
 113              	.LFE8:
 114              		.size	chThdRelease, .-chThdRelease
ARM GAS  /tmp/cc2Q4My5.s 			page 3


 115              		.section	.text.chThdCreateFromHeap,"ax",%progbits
 116              		.align	2
 117              		.global	chThdCreateFromHeap
 118              		.syntax unified
 119              		.arm
 120              		.fpu softvfp
 121              		.type	chThdCreateFromHeap, %function
 122              	chThdCreateFromHeap:
 123              	.LFB9:
 124              		.loc 1 124 0
 125              		.cfi_startproc
 126              		@ args = 4, pretend = 0, frame = 0
 127              		@ frame_needed = 0, uses_anonymous_args = 0
 128              	.LVL6:
 129 0000 F0402DE9 		push	{r4, r5, r6, r7, lr}
 130              		.cfi_def_cfa_offset 20
 131              		.cfi_offset 4, -20
 132              		.cfi_offset 5, -16
 133              		.cfi_offset 6, -12
 134              		.cfi_offset 7, -8
 135              		.cfi_offset 14, -4
 136 0004 0CD04DE2 		sub	sp, sp, #12
 137              		.cfi_def_cfa_offset 32
 138              		.loc 1 124 0
 139 0008 0260A0E1 		mov	r6, r2
 140 000c 0370A0E1 		mov	r7, r3
 141 0010 0150A0E1 		mov	r5, r1
 142              		.loc 1 128 0
 143 0014 FEFFFFEB 		bl	chHeapAlloc
 144              	.LVL7:
 145              		.loc 1 129 0
 146 0018 004050E2 		subs	r4, r0, #0
 147 001c 0C00000A 		beq	.L6
 148              		.loc 1 141 0
 149              		.syntax divided
 150              	@ 141 "../../os/kernel/src/chdynamic.c" 1
 151 0020 9FF021E3 		msr     CPSR_c, #0x9F
 152              	@ 0 "" 2
 153              		.loc 1 142 0
 154              		.arm
 155              		.syntax unified
 156 0024 20309DE5 		ldr	r3, [sp, #32]
 157 0028 0620A0E1 		mov	r2, r6
 158 002c 00308DE5 		str	r3, [sp]
 159 0030 0510A0E1 		mov	r1, r5
 160 0034 0730A0E1 		mov	r3, r7
 161 0038 FEFFFFEB 		bl	chThdCreateI
 162              	.LVL8:
 163              		.loc 1 143 0
 164 003c 0130A0E3 		mov	r3, #1
 165              		.loc 1 144 0
 166 0040 0010A0E3 		mov	r1, #0
 167              		.loc 1 143 0
 168 0044 1D30C0E5 		strb	r3, [r0, #29]
 169              		.loc 1 142 0
 170 0048 0040A0E1 		mov	r4, r0
 171              	.LVL9:
ARM GAS  /tmp/cc2Q4My5.s 			page 4


 172              		.loc 1 144 0
 173 004c FEFFFFEB 		bl	chSchWakeupS
 174              	.LVL10:
 175              		.loc 1 145 0
 176              		.syntax divided
 177              	@ 145 "../../os/kernel/src/chdynamic.c" 1
 178 0050 1FF021E3 		msr     CPSR_c, #0x1F
 179              	@ 0 "" 2
 180              	.LVL11:
 181              		.arm
 182              		.syntax unified
 183              	.L6:
 184              		.loc 1 147 0
 185 0054 0400A0E1 		mov	r0, r4
 186 0058 0CD08DE2 		add	sp, sp, #12
 187              		.cfi_def_cfa_offset 20
 188              		@ sp needed
 189 005c F080BDE8 		pop	{r4, r5, r6, r7, pc}
 190              		.cfi_endproc
 191              	.LFE9:
 192              		.size	chThdCreateFromHeap, .-chThdCreateFromHeap
 193              		.text
 194              	.Letext0:
 195              		.file 2 "/usr/lib/gcc/arm-none-eabi/6.3.1/include/stddef.h"
 196              		.file 3 "/usr/include/newlib/machine/_default_types.h"
 197              		.file 4 "/usr/include/newlib/sys/_stdint.h"
 198              		.file 5 "../../os/ports/GCC/ARM/chtypes.h"
 199              		.file 6 "../../os/kernel/include/chlists.h"
 200              		.file 7 "../../os/kernel/include/chthreads.h"
 201              		.file 8 "../../os/ports/GCC/ARM/chcore.h"
 202              		.file 9 "../../os/kernel/include/chvt.h"
 203              		.file 10 "../../os/kernel/include/chschd.h"
 204              		.file 11 "../../os/kernel/include/chmtx.h"
 205              		.file 12 "../../os/kernel/include/chmemcore.h"
 206              		.file 13 "../../os/kernel/include/chheap.h"
 207              		.file 14 "../../os/kernel/include/chregistry.h"
 208              		.file 15 "../../os/kernel/include/ch.h"