ARM GAS  /tmp/cc2Q4My5.s 			page 1


   1              		.cpu arm1176jz-s
   2              		.eabi_attribute 20, 1
   3              		.eabi_attribute 21, 1
   4              		.eabi_attribute 23, 3
   5              		.eabi_attribute 24, 1
   6              		.eabi_attribute 25, 1
   7              		.eabi_attribute 26, 1
   8              		.eabi_attribute 30, 2
   9              		.eabi_attribute 34, 1
  10              		.eabi_attribute 18, 4
  11              		.file	"chdynamic.c"
  12              		.text
  13              	.Ltext0:
  14              		.cfi_sections	.debug_frame
  15              		.section	.text.chThdAddRef,"ax",%progbits
  16              		.align	2
  17              		.global	chThdAddRef
  18              		.syntax unified
  19              		.arm
  20              		.fpu softvfp
  21              		.type	chThdAddRef, %function
  22              	chThdAddRef:
  23              	.LFB7:
  24              		.file 1 "../../os/kernel/src/chdynamic.c"
  25              		.loc 1 45 0
  26              		.cfi_startproc
  27              		@ args = 0, pretend = 0, frame = 0
  28              		@ frame_needed = 0, uses_anonymous_args = 0
  29              		@ link register save eliminated.
  30              	.LVL0:
  31              		.loc 1 47 0
  32              		.syntax divided
  33              	@ 47 "../../os/kernel/src/chdynamic.c" 1
  34 0000 9FF021E3 		msr     CPSR_c, #0x9F
  35              	@ 0 "" 2
  36              		.loc 1 49 0
  37              		.arm
  38              		.syntax unified
  39 0004 1E30D0E5 		ldrb	r3, [r0, #30]	@ zero_extendqisi2
  40 0008 013083E2 		add	r3, r3, #1
  41 000c 1E30C0E5 		strb	r3, [r0, #30]
  42              		.loc 1 50 0
  43              		.syntax divided
  44              	@ 50 "../../os/kernel/src/chdynamic.c" 1
  45 0010 1FF021E3 		msr     CPSR_c, #0x1F
  46              	@ 0 "" 2
  47              		.loc 1 52 0
  48              		.arm
  49              		.syntax unified
  50 0014 1EFF2FE1 		bx	lr
  51              		.cfi_endproc
  52              	.LFE7:
  53              		.size	chThdAddRef, .-chThdAddRef
  54              		.section	.text.chThdRelease,"ax",%progbits
  55              		.align	2
  56              		.global	chThdRelease
  57              		.syntax unified
ARM GAS  /tmp/cc2Q4My5.s 			page 2


  58              		.arm
  59              		.fpu softvfp
  60              		.type	chThdRelease, %function
  61              	chThdRelease:
  62              	.LFB8:
  63              		.loc 1 67 0
  64              		.cfi_startproc
  65              		@ args = 0, pretend = 0, frame = 0
  66              		@ frame_needed = 0, uses_anonymous_args = 0
  67              		@ link register save eliminated.
  68              	.LVL1:
  69              		.loc 1 70 0
  70              		.syntax divided
  71              	@ 70 "../../os/kernel/src/chdynamic.c" 1
  72 0000 9FF021E3 		msr     CPSR_c, #0x9F
  73              	@ 0 "" 2
  74              		.loc 1 72 0
  75              		.arm
  76              		.syntax unified
  77 0004 1E30D0E5 		ldrb	r3, [r0, #30]	@ zero_extendqisi2
  78 0008 013043E2 		sub	r3, r3, #1
  79 000c 7330EFE6 		uxtb	r3, r3
  80 0010 1E30C0E5 		strb	r3, [r0, #30]
  81              	.LVL2:
  82              		.loc 1 73 0
  83              		.syntax divided
  84              	@ 73 "../../os/kernel/src/chdynamic.c" 1
  85 0014 1FF021E3 		msr     CPSR_c, #0x1F
  86              	@ 0 "" 2
  87              		.loc 1 78 0
  88              		.arm
  89              		.syntax unified
  90 0018 000053E3 		cmp	r3, #0
  91 001c 1EFF2F11 		bxne	lr
  92              		.loc 1 78 0 is_stmt 0 discriminator 1
  93 0020 1C30D0E5 		ldrb	r3, [r0, #28]	@ zero_extendqisi2
  94              	.LVL3:
  95 0024 0E0053E3 		cmp	r3, #14
  96 0028 1EFF2F11 		bxne	lr
  97              		.loc 1 79 0 is_stmt 1
  98 002c 1D30D0E5 		ldrb	r3, [r0, #29]	@ zero_extendqisi2
  99 0030 033003E2 		and	r3, r3, #3
 100 0034 010053E3 		cmp	r3, #1
 101 0038 1EFF2F11 		bxne	lr
 102              		.loc 1 83 0
 103 003c 143090E5 		ldr	r3, [r0, #20]
 104 0040 101090E5 		ldr	r1, [r0, #16]
 105 0044 101083E5 		str	r1, [r3, #16]
 106              	.LVL4:
 107 0048 102090E5 		ldr	r2, [r0, #16]
 108 004c 143082E5 		str	r3, [r2, #20]
 109              		.loc 1 85 0
 110 0050 FEFFFFEA 		b	chHeapFree
 111              	.LVL5:
 112              		.cfi_endproc
 113              	.LFE8:
 114              		.size	chThdRelease, .-chThdRelease
ARM GAS  /tmp/cc2Q4My5.s 			page 3


 115              		.section	.text.chThdCreateFromHeap,"ax",%progbits
 116              		.align	2
 117              		.global	chThdCreateFromHeap
 118              		.syntax unified
 119              		.arm
 120              		.fpu softvfp
 121              		.type	chThdCreateFromHeap, %function
 122              	chThdCreateFromHeap:
 123              	.LFB9:
 124              		.loc 1 124 0
 125              		.cfi_startproc
 126              		@ args = 4, pretend = 0, frame = 0
 127              		@ frame_needed = 0, uses_anonymous_args = 0
 128              	.LVL6:
 129 0000 F0402DE9 		push	{r4, r5, r6, r7, lr}
 130              		.cfi_def_cfa_offset 20
 131              		.cfi_offset 4, -20
 132              		.cfi_offset 5, -16
 133              		.cfi_offset 6, -12
 134              		.cfi_offset 7, -8
 135              		.cfi_offset 14, -4
 136 0004 0CD04DE2 		sub	sp, sp, #12
 137              		.cfi_def_cfa_offset 32
 138              		.loc 1 124 0
 139 0008 0260A0E1 		mov	r6, r2
 140 000c 0370A0E1 		mov	r7, r3
 141 0010 0150A0E1 		mov	r5, r1
 142              		.loc 1 128 0
 143 0014 FEFFFFEB 		bl	chHeapAlloc
 144              	.LVL7:
 145              		.loc 1 129 0
 146 0018 004050E2 		subs	r4, r0, #0
 147 001c 0C00000A 		beq	.L6
 148              		.loc 1 141 0
 149              		.syntax divided
 150              	@ 141 "../../os/kernel/src/chdynamic.c" 1
 151 0020 9FF021E3 		msr     CPSR_c, #0x9F
 152              	@ 0 "" 2
 153              		.loc 1 142 0
 154              		.arm
 155              		.syntax unified
 156 0024 20309DE5 		ldr	r3, [sp, #32]
 157 0028 0620A0E1 		mov	r2, r6
 158 002c 00308DE5 		str	r3, [sp]
 159 0030 0510A0E1 		mov	r1, r5
 160 0034 0730A0E1 		mov	r3, r7
 161 0038 FEFFFFEB 		bl	chThdCreateI
 162              	.LVL8:
 163              		.loc 1 143 0
 164 003c 0130A0E3 		mov	r3, #1
 165              		.loc 1 144 0
 166 0040 0010A0E3 		mov	r1, #0
 167              		.loc 1 143 0
 168 0044 1D30C0E5 		strb	r3, [r0, #29]
 169              		.loc 1 142 0
 170 0048 0040A0E1 		mov	r4, r0
 171              	.LVL9:
ARM GAS  /tmp/cc2Q4My5.s 			page 4


 172              		.loc 1 144 0
 173 004c FEFFFFEB 		bl	chSchWakeupS
 174              	.LVL10:
 175              		.loc 1 145 0
 176              		.syntax divided
 177              	@ 145 "../../os/kernel/src/chdynamic.c" 1
 178 0050 1FF021E3 		msr     CPSR_c, #0x1F
 179              	@ 0 "" 2
 180              	.LVL11:
 181              		.arm
 182              		.syntax unified
 183              	.L6:
 184              		.loc 1 147 0
 185 0054 0400A0E1 		mov	r0, r4
 186 0058 0CD08DE2 		add	sp, sp, #12
 187              		.cfi_def_cfa_offset 20
 188              		@ sp needed
 189 005c F080BDE8 		pop	{r4, r5, r6, r7, pc}
 190              		.cfi_endproc
 191              	.LFE9:
 192              		.size	chThdCreateFromHeap, .-chThdCreateFromHeap
 193              		.text
 194              	.Letext0:
 195              		.file 2 "/usr/lib/gcc/arm-none-eabi/6.3.1/include/stddef.h"
 196              		.file 3 "/usr/include/newlib/machine/_default_types.h"
 197              		.file 4 "/usr/include/newlib/sys/_stdint.h"
 198              		.file 5 "../../os/ports/GCC/ARM/chtypes.h"
 199              		.file 6 "../../os/kernel/include/chlists.h"
 200              		.file 7 "../../os/kernel/include/chthreads.h"
 201              		.file 8 "../../os/ports/GCC/ARM/chcore.h"
 202              		.file 9 "../../os/kernel/include/chvt.h"
 203              		.file 10 "../../os/kernel/include/chschd.h"
 204              		.file 11 "../../os/kernel/include/chmtx.h"
 205              		.file 12 "../../os/kernel/include/chmemcore.h"
 206              		.file 13 "../../os/kernel/include/chheap.h"
 207              		.file 14 "../../os/kernel/include/chregistry.h"
 208              		.file 15 "../../os/kernel/include/ch.h"
 209              		.section	.debug_info,"",%progbits
 210              	.Ldebug_info0:
 211 0000 64080000 		.4byte	0x864
 212 0004 0400     		.2byte	0x4
 213 0006 00000000 		.4byte	.Ldebug_abbrev0
 214 000a 04       		.byte	0x4
 215 000b 01       		.uleb128 0x1
 216 000c 6E040000 		.4byte	.LASF120
 217 0010 0C       		.byte	0xc
 218 0011 0E000000 		.4byte	.LASF121
 219 0015 76000000 		.4byte	.LASF122
 220 0019 00000000 		.4byte	.Ldebug_ranges0+0
 221 001d 00000000 		.4byte	0
 222 0021 00000000 		.4byte	.Ldebug_line0
 223 0025 02       		.uleb128 0x2
 224 0026 04       		.byte	0x4
 225 0027 05       		.byte	0x5
 226 0028 696E7400 		.ascii	"int\000"
 227 002c 03       		.uleb128 0x3
 228 002d 2E000000 		.4byte	.LASF2
ARM GAS  /tmp/cc2Q4My5.s 			page 5


 229 0031 02       		.byte	0x2
 230 0032 D8       		.byte	0xd8
 231 0033 37000000 		.4byte	0x37
 232 0037 04       		.uleb128 0x4
 233 0038 04       		.byte	0x4
 234 0039 07       		.byte	0x7
 235 003a C7010000 		.4byte	.LASF0
 236 003e 04       		.uleb128 0x4
 237 003f 01       		.byte	0x1
 238 0040 06       		.byte	0x6
 239 0041 FB000000 		.4byte	.LASF1
 240 0045 03       		.uleb128 0x3
 241 0046 41000000 		.4byte	.LASF3
 242 004a 03       		.byte	0x3
 243 004b 1D       		.byte	0x1d
 244 004c 50000000 		.4byte	0x50
 245 0050 04       		.uleb128 0x4
 246 0051 01       		.byte	0x1
 247 0052 08       		.byte	0x8
 248 0053 47030000 		.4byte	.LASF4
 249 0057 04       		.uleb128 0x4
 250 0058 02       		.byte	0x2
 251 0059 05       		.byte	0x5
 252 005a 6A030000 		.4byte	.LASF5
 253 005e 03       		.uleb128 0x3
 254 005f 36040000 		.4byte	.LASF6
 255 0063 03       		.byte	0x3
 256 0064 2B       		.byte	0x2b
 257 0065 69000000 		.4byte	0x69
 258 0069 04       		.uleb128 0x4
 259 006a 02       		.byte	0x2
 260 006b 07       		.byte	0x7
 261 006c 28020000 		.4byte	.LASF7
 262 0070 03       		.uleb128 0x3
 263 0071 5D040000 		.4byte	.LASF8
 264 0075 03       		.byte	0x3
 265 0076 3F       		.byte	0x3f
 266 0077 7B000000 		.4byte	0x7b
 267 007b 04       		.uleb128 0x4
 268 007c 04       		.byte	0x4
 269 007d 05       		.byte	0x5
 270 007e 54010000 		.4byte	.LASF9
 271 0082 03       		.uleb128 0x3
 272 0083 A5010000 		.4byte	.LASF10
 273 0087 03       		.byte	0x3
 274 0088 41       		.byte	0x41
 275 0089 8D000000 		.4byte	0x8d
 276 008d 04       		.uleb128 0x4
 277 008e 04       		.byte	0x4
 278 008f 07       		.byte	0x7
 279 0090 E9010000 		.4byte	.LASF11
 280 0094 04       		.uleb128 0x4
 281 0095 08       		.byte	0x8
 282 0096 05       		.byte	0x5
 283 0097 ED000000 		.4byte	.LASF12
 284 009b 04       		.uleb128 0x4
 285 009c 08       		.byte	0x8
ARM GAS  /tmp/cc2Q4My5.s 			page 6


 286 009d 07       		.byte	0x7
 287 009e 5F000000 		.4byte	.LASF13
 288 00a2 03       		.uleb128 0x3
 289 00a3 2A050000 		.4byte	.LASF14
 290 00a7 04       		.byte	0x4
 291 00a8 18       		.byte	0x18
 292 00a9 45000000 		.4byte	0x45
 293 00ad 03       		.uleb128 0x3
 294 00ae 7A010000 		.4byte	.LASF15
 295 00b2 04       		.byte	0x4
 296 00b3 24       		.byte	0x24
 297 00b4 5E000000 		.4byte	0x5e
 298 00b8 03       		.uleb128 0x3
 299 00b9 3F030000 		.4byte	.LASF16
 300 00bd 04       		.byte	0x4
 301 00be 2C       		.byte	0x2c
 302 00bf 70000000 		.4byte	0x70
 303 00c3 03       		.uleb128 0x3
 304 00c4 02040000 		.4byte	.LASF17
 305 00c8 04       		.byte	0x4
 306 00c9 30       		.byte	0x30
 307 00ca 82000000 		.4byte	0x82
 308 00ce 03       		.uleb128 0x3
 309 00cf 56020000 		.4byte	.LASF18
 310 00d3 05       		.byte	0x5
 311 00d4 2A       		.byte	0x2a
 312 00d5 A2000000 		.4byte	0xa2
 313 00d9 03       		.uleb128 0x3
 314 00da 71010000 		.4byte	.LASF19
 315 00de 05       		.byte	0x5
 316 00df 2B       		.byte	0x2b
 317 00e0 A2000000 		.4byte	0xa2
 318 00e4 03       		.uleb128 0x3
 319 00e5 18030000 		.4byte	.LASF20
 320 00e9 05       		.byte	0x5
 321 00ea 2C       		.byte	0x2c
 322 00eb A2000000 		.4byte	0xa2
 323 00ef 03       		.uleb128 0x3
 324 00f0 3D010000 		.4byte	.LASF21
 325 00f4 05       		.byte	0x5
 326 00f5 2D       		.byte	0x2d
 327 00f6 A2000000 		.4byte	0xa2
 328 00fa 03       		.uleb128 0x3
 329 00fb 37030000 		.4byte	.LASF22
 330 00ff 05       		.byte	0x5
 331 0100 2E       		.byte	0x2e
 332 0101 C3000000 		.4byte	0xc3
 333 0105 03       		.uleb128 0x3
 334 0106 48020000 		.4byte	.LASF23
 335 010a 05       		.byte	0x5
 336 010b 2F       		.byte	0x2f
 337 010c B8000000 		.4byte	0xb8
 338 0110 03       		.uleb128 0x3
 339 0111 6A020000 		.4byte	.LASF24
 340 0115 05       		.byte	0x5
 341 0116 31       		.byte	0x31
 342 0117 C3000000 		.4byte	0xc3
ARM GAS  /tmp/cc2Q4My5.s 			page 7


 343 011b 03       		.uleb128 0x3
 344 011c 48040000 		.4byte	.LASF25
 345 0120 05       		.byte	0x5
 346 0121 33       		.byte	0x33
 347 0122 C3000000 		.4byte	0xc3
 348 0126 05       		.uleb128 0x5
 349 0127 1B010000 		.4byte	0x11b
 350 012b 03       		.uleb128 0x3
 351 012c D7030000 		.4byte	.LASF26
 352 0130 06       		.byte	0x6
 353 0131 23       		.byte	0x23
 354 0132 36010000 		.4byte	0x136
 355 0136 06       		.uleb128 0x6
 356 0137 D7030000 		.4byte	.LASF26
 357 013b 44       		.byte	0x44
 358 013c 07       		.byte	0x7
 359 013d 57       		.byte	0x57
 360 013e 27020000 		.4byte	0x227
 361 0142 07       		.uleb128 0x7
 362 0143 AC030000 		.4byte	.LASF27
 363 0147 07       		.byte	0x7
 364 0148 58       		.byte	0x58
 365 0149 48020000 		.4byte	0x248
 366 014d 00       		.byte	0
 367 014e 07       		.uleb128 0x7
 368 014f 30030000 		.4byte	.LASF28
 369 0153 07       		.byte	0x7
 370 0154 5A       		.byte	0x5a
 371 0155 48020000 		.4byte	0x248
 372 0159 04       		.byte	0x4
 373 015a 07       		.uleb128 0x7
 374 015b D9000000 		.4byte	.LASF29
 375 015f 07       		.byte	0x7
 376 0160 5C       		.byte	0x5c
 377 0161 FA000000 		.4byte	0xfa
 378 0165 08       		.byte	0x8
 379 0166 07       		.uleb128 0x7
 380 0167 65050000 		.4byte	.LASF30
 381 016b 07       		.byte	0x7
 382 016c 5D       		.byte	0x5d
 383 016d 03030000 		.4byte	0x303
 384 0171 0C       		.byte	0xc
 385 0172 07       		.uleb128 0x7
 386 0173 8D010000 		.4byte	.LASF31
 387 0177 07       		.byte	0x7
 388 0178 5F       		.byte	0x5f
 389 0179 48020000 		.4byte	0x248
 390 017d 10       		.byte	0x10
 391 017e 07       		.uleb128 0x7
 392 017f D8020000 		.4byte	.LASF32
 393 0183 07       		.byte	0x7
 394 0184 60       		.byte	0x60
 395 0185 48020000 		.4byte	0x248
 396 0189 14       		.byte	0x14
 397 018a 07       		.uleb128 0x7
 398 018b 39050000 		.4byte	.LASF33
 399 018f 07       		.byte	0x7
ARM GAS  /tmp/cc2Q4My5.s 			page 8


 400 0190 67       		.byte	0x67
 401 0191 8C050000 		.4byte	0x58c
 402 0195 18       		.byte	0x18
 403 0196 07       		.uleb128 0x7
 404 0197 74030000 		.4byte	.LASF34
 405 019b 07       		.byte	0x7
 406 019c 72       		.byte	0x72
 407 019d D9000000 		.4byte	0xd9
 408 01a1 1C       		.byte	0x1c
 409 01a2 07       		.uleb128 0x7
 410 01a3 C2030000 		.4byte	.LASF35
 411 01a7 07       		.byte	0x7
 412 01a8 76       		.byte	0x76
 413 01a9 CE000000 		.4byte	0xce
 414 01ad 1D       		.byte	0x1d
 415 01ae 07       		.uleb128 0x7
 416 01af 13050000 		.4byte	.LASF36
 417 01b3 07       		.byte	0x7
 418 01b4 7B       		.byte	0x7b
 419 01b5 E4000000 		.4byte	0xe4
 420 01b9 1E       		.byte	0x1e
 421 01ba 07       		.uleb128 0x7
 422 01bb 7C030000 		.4byte	.LASF37
 423 01bf 07       		.byte	0x7
 424 01c0 81       		.byte	0x81
 425 01c1 EF000000 		.4byte	0xef
 426 01c5 1F       		.byte	0x1f
 427 01c6 07       		.uleb128 0x7
 428 01c7 67040000 		.4byte	.LASF38
 429 01cb 07       		.byte	0x7
 430 01cc 88       		.byte	0x88
 431 01cd 26010000 		.4byte	0x126
 432 01d1 20       		.byte	0x20
 433 01d2 08       		.uleb128 0x8
 434 01d3 705F7500 		.ascii	"p_u\000"
 435 01d7 07       		.byte	0x7
 436 01d8 AD       		.byte	0xad
 437 01d9 57050000 		.4byte	0x557
 438 01dd 24       		.byte	0x24
 439 01de 07       		.uleb128 0x7
 440 01df 6B050000 		.4byte	.LASF39
 441 01e3 07       		.byte	0x7
 442 01e4 B2       		.byte	0xb2
 443 01e5 6E020000 		.4byte	0x26e
 444 01e9 28       		.byte	0x28
 445 01ea 07       		.uleb128 0x7
 446 01eb F6040000 		.4byte	.LASF40
 447 01ef 07       		.byte	0x7
 448 01f0 B8       		.byte	0xb8
 449 01f1 4E020000 		.4byte	0x24e
 450 01f5 2C       		.byte	0x2c
 451 01f6 07       		.uleb128 0x7
 452 01f7 08000000 		.4byte	.LASF41
 453 01fb 07       		.byte	0x7
 454 01fc BC       		.byte	0xbc
 455 01fd 05010000 		.4byte	0x105
 456 0201 34       		.byte	0x34
ARM GAS  /tmp/cc2Q4My5.s 			page 9


 457 0202 07       		.uleb128 0x7
 458 0203 F7030000 		.4byte	.LASF42
 459 0207 07       		.byte	0x7
 460 0208 C2       		.byte	0xc2
 461 0209 10010000 		.4byte	0x110
 462 020d 38       		.byte	0x38
 463 020e 07       		.uleb128 0x7
 464 020f 60030000 		.4byte	.LASF43
 465 0213 07       		.byte	0x7
 466 0214 C9       		.byte	0xc9
 467 0215 9E050000 		.4byte	0x59e
 468 0219 3C       		.byte	0x3c
 469 021a 07       		.uleb128 0x7
 470 021b 52040000 		.4byte	.LASF44
 471 021f 07       		.byte	0x7
 472 0220 CD       		.byte	0xcd
 473 0221 FA000000 		.4byte	0xfa
 474 0225 40       		.byte	0x40
 475 0226 00       		.byte	0
 476 0227 09       		.uleb128 0x9
 477 0228 08       		.byte	0x8
 478 0229 06       		.byte	0x6
 479 022a 5A       		.byte	0x5a
 480 022b 48020000 		.4byte	0x248
 481 022f 07       		.uleb128 0x7
 482 0230 AC030000 		.4byte	.LASF27
 483 0234 06       		.byte	0x6
 484 0235 5B       		.byte	0x5b
 485 0236 48020000 		.4byte	0x248
 486 023a 00       		.byte	0
 487 023b 07       		.uleb128 0x7
 488 023c 30030000 		.4byte	.LASF28
 489 0240 06       		.byte	0x6
 490 0241 5D       		.byte	0x5d
 491 0242 48020000 		.4byte	0x248
 492 0246 04       		.byte	0x4
 493 0247 00       		.byte	0
 494 0248 0A       		.uleb128 0xa
 495 0249 04       		.byte	0x4
 496 024a 2B010000 		.4byte	0x12b
 497 024e 03       		.uleb128 0x3
 498 024f E6020000 		.4byte	.LASF45
 499 0253 06       		.byte	0x6
 500 0254 5F       		.byte	0x5f
 501 0255 27020000 		.4byte	0x227
 502 0259 09       		.uleb128 0x9
 503 025a 04       		.byte	0x4
 504 025b 06       		.byte	0x6
 505 025c 64       		.byte	0x64
 506 025d 6E020000 		.4byte	0x26e
 507 0261 07       		.uleb128 0x7
 508 0262 AC030000 		.4byte	.LASF27
 509 0266 06       		.byte	0x6
 510 0267 66       		.byte	0x66
 511 0268 48020000 		.4byte	0x248
 512 026c 00       		.byte	0
 513 026d 00       		.byte	0
ARM GAS  /tmp/cc2Q4My5.s 			page 10


 514 026e 03       		.uleb128 0x3
 515 026f 5E020000 		.4byte	.LASF46
 516 0273 06       		.byte	0x6
 517 0274 69       		.byte	0x69
 518 0275 59020000 		.4byte	0x259
 519 0279 03       		.uleb128 0x3
 520 027a 88020000 		.4byte	.LASF47
 521 027e 08       		.byte	0x8
 522 027f 9D       		.byte	0x9d
 523 0280 C3000000 		.4byte	0xc3
 524 0284 03       		.uleb128 0x3
 525 0285 B0010000 		.4byte	.LASF48
 526 0289 08       		.byte	0x8
 527 028a A2       		.byte	0xa2
 528 028b 8F020000 		.4byte	0x28f
 529 028f 0B       		.uleb128 0xb
 530 0290 04       		.byte	0x4
 531 0291 06       		.uleb128 0x6
 532 0292 EF040000 		.4byte	.LASF49
 533 0296 24       		.byte	0x24
 534 0297 08       		.byte	0x8
 535 0298 B9       		.byte	0xb9
 536 0299 03030000 		.4byte	0x303
 537 029d 08       		.uleb128 0x8
 538 029e 723400   		.ascii	"r4\000"
 539 02a1 08       		.byte	0x8
 540 02a2 BA       		.byte	0xba
 541 02a3 84020000 		.4byte	0x284
 542 02a7 00       		.byte	0
 543 02a8 08       		.uleb128 0x8
 544 02a9 723500   		.ascii	"r5\000"
 545 02ac 08       		.byte	0x8
 546 02ad BB       		.byte	0xbb
 547 02ae 84020000 		.4byte	0x284
 548 02b2 04       		.byte	0x4
 549 02b3 08       		.uleb128 0x8
 550 02b4 723600   		.ascii	"r6\000"
 551 02b7 08       		.byte	0x8
 552 02b8 BC       		.byte	0xbc
 553 02b9 84020000 		.4byte	0x284
 554 02bd 08       		.byte	0x8
 555 02be 08       		.uleb128 0x8
 556 02bf 723700   		.ascii	"r7\000"
 557 02c2 08       		.byte	0x8
 558 02c3 BD       		.byte	0xbd
 559 02c4 84020000 		.4byte	0x284
 560 02c8 0C       		.byte	0xc
 561 02c9 08       		.uleb128 0x8
 562 02ca 723800   		.ascii	"r8\000"
 563 02cd 08       		.byte	0x8
 564 02ce BE       		.byte	0xbe
 565 02cf 84020000 		.4byte	0x284
 566 02d3 10       		.byte	0x10
 567 02d4 08       		.uleb128 0x8
 568 02d5 723900   		.ascii	"r9\000"
 569 02d8 08       		.byte	0x8
 570 02d9 BF       		.byte	0xbf
ARM GAS  /tmp/cc2Q4My5.s 			page 11


 571 02da 84020000 		.4byte	0x284
 572 02de 14       		.byte	0x14
 573 02df 08       		.uleb128 0x8
 574 02e0 72313000 		.ascii	"r10\000"
 575 02e4 08       		.byte	0x8
 576 02e5 C0       		.byte	0xc0
 577 02e6 84020000 		.4byte	0x284
 578 02ea 18       		.byte	0x18
 579 02eb 08       		.uleb128 0x8
 580 02ec 72313100 		.ascii	"r11\000"
 581 02f0 08       		.byte	0x8
 582 02f1 C1       		.byte	0xc1
 583 02f2 84020000 		.4byte	0x284
 584 02f6 1C       		.byte	0x1c
 585 02f7 08       		.uleb128 0x8
 586 02f8 6C7200   		.ascii	"lr\000"
 587 02fb 08       		.byte	0x8
 588 02fc C2       		.byte	0xc2
 589 02fd 84020000 		.4byte	0x284
 590 0301 20       		.byte	0x20
 591 0302 00       		.byte	0
 592 0303 06       		.uleb128 0x6
 593 0304 1B020000 		.4byte	.LASF50
 594 0308 04       		.byte	0x4
 595 0309 08       		.byte	0x8
 596 030a CA       		.byte	0xca
 597 030b 1C030000 		.4byte	0x31c
 598 030f 08       		.uleb128 0x8
 599 0310 72313300 		.ascii	"r13\000"
 600 0314 08       		.byte	0x8
 601 0315 CB       		.byte	0xcb
 602 0316 1C030000 		.4byte	0x31c
 603 031a 00       		.byte	0
 604 031b 00       		.byte	0
 605 031c 0A       		.uleb128 0xa
 606 031d 04       		.byte	0x4
 607 031e 91020000 		.4byte	0x291
 608 0322 03       		.uleb128 0x3
 609 0323 04020000 		.4byte	.LASF51
 610 0327 09       		.byte	0x9
 611 0328 4E       		.byte	0x4e
 612 0329 2D030000 		.4byte	0x32d
 613 032d 0A       		.uleb128 0xa
 614 032e 04       		.byte	0x4
 615 032f 33030000 		.4byte	0x333
 616 0333 0C       		.uleb128 0xc
 617 0334 3E030000 		.4byte	0x33e
 618 0338 0D       		.uleb128 0xd
 619 0339 8F020000 		.4byte	0x28f
 620 033d 00       		.byte	0
 621 033e 03       		.uleb128 0x3
 622 033f 1F040000 		.4byte	.LASF52
 623 0343 09       		.byte	0x9
 624 0344 53       		.byte	0x53
 625 0345 49030000 		.4byte	0x349
 626 0349 06       		.uleb128 0x6
 627 034a 1F040000 		.4byte	.LASF52
ARM GAS  /tmp/cc2Q4My5.s 			page 12


 628 034e 14       		.byte	0x14
 629 034f 09       		.byte	0x9
 630 0350 5A       		.byte	0x5a
 631 0351 92030000 		.4byte	0x392
 632 0355 07       		.uleb128 0x7
 633 0356 D4010000 		.4byte	.LASF53
 634 035a 09       		.byte	0x9
 635 035b 5B       		.byte	0x5b
 636 035c 92030000 		.4byte	0x392
 637 0360 00       		.byte	0
 638 0361 07       		.uleb128 0x7
 639 0362 B9010000 		.4byte	.LASF54
 640 0366 09       		.byte	0x9
 641 0367 5D       		.byte	0x5d
 642 0368 92030000 		.4byte	0x392
 643 036c 04       		.byte	0x4
 644 036d 07       		.uleb128 0x7
 645 036e A7020000 		.4byte	.LASF55
 646 0372 09       		.byte	0x9
 647 0373 5F       		.byte	0x5f
 648 0374 1B010000 		.4byte	0x11b
 649 0378 08       		.byte	0x8
 650 0379 07       		.uleb128 0x7
 651 037a B8020000 		.4byte	.LASF56
 652 037e 09       		.byte	0x9
 653 037f 60       		.byte	0x60
 654 0380 22030000 		.4byte	0x322
 655 0384 0C       		.byte	0xc
 656 0385 07       		.uleb128 0x7
 657 0386 01050000 		.4byte	.LASF57
 658 038a 09       		.byte	0x9
 659 038b 62       		.byte	0x62
 660 038c 8F020000 		.4byte	0x28f
 661 0390 10       		.byte	0x10
 662 0391 00       		.byte	0
 663 0392 0A       		.uleb128 0xa
 664 0393 04       		.byte	0x4
 665 0394 3E030000 		.4byte	0x33e
 666 0398 09       		.uleb128 0x9
 667 0399 10       		.byte	0x10
 668 039a 09       		.byte	0x9
 669 039b 6C       		.byte	0x6c
 670 039c D1030000 		.4byte	0x3d1
 671 03a0 07       		.uleb128 0x7
 672 03a1 D4010000 		.4byte	.LASF53
 673 03a5 09       		.byte	0x9
 674 03a6 6D       		.byte	0x6d
 675 03a7 92030000 		.4byte	0x392
 676 03ab 00       		.byte	0
 677 03ac 07       		.uleb128 0x7
 678 03ad B9010000 		.4byte	.LASF54
 679 03b1 09       		.byte	0x9
 680 03b2 6F       		.byte	0x6f
 681 03b3 92030000 		.4byte	0x392
 682 03b7 04       		.byte	0x4
 683 03b8 07       		.uleb128 0x7
 684 03b9 A7020000 		.4byte	.LASF55
ARM GAS  /tmp/cc2Q4My5.s 			page 13


 685 03bd 09       		.byte	0x9
 686 03be 71       		.byte	0x71
 687 03bf 1B010000 		.4byte	0x11b
 688 03c3 08       		.byte	0x8
 689 03c4 07       		.uleb128 0x7
 690 03c5 40050000 		.4byte	.LASF58
 691 03c9 09       		.byte	0x9
 692 03ca 72       		.byte	0x72
 693 03cb 26010000 		.4byte	0x126
 694 03cf 0C       		.byte	0xc
 695 03d0 00       		.byte	0
 696 03d1 03       		.uleb128 0x3
 697 03d2 56050000 		.4byte	.LASF59
 698 03d6 09       		.byte	0x9
 699 03d7 73       		.byte	0x73
 700 03d8 98030000 		.4byte	0x398
 701 03dc 0E       		.uleb128 0xe
 702 03dd 4B000000 		.4byte	.LASF67
 703 03e1 09       		.byte	0x9
 704 03e2 D1       		.byte	0xd1
 705 03e3 D1030000 		.4byte	0x3d1
 706 03e7 09       		.uleb128 0x9
 707 03e8 1C       		.byte	0x1c
 708 03e9 0A       		.byte	0xa
 709 03ea 57       		.byte	0x57
 710 03eb 38040000 		.4byte	0x438
 711 03ef 07       		.uleb128 0x7
 712 03f0 17040000 		.4byte	.LASF60
 713 03f4 0A       		.byte	0xa
 714 03f5 58       		.byte	0x58
 715 03f6 4E020000 		.4byte	0x24e
 716 03fa 00       		.byte	0
 717 03fb 07       		.uleb128 0x7
 718 03fc 92030000 		.4byte	.LASF61
 719 0400 0A       		.byte	0xa
 720 0401 59       		.byte	0x59
 721 0402 FA000000 		.4byte	0xfa
 722 0406 08       		.byte	0x8
 723 0407 07       		.uleb128 0x7
 724 0408 E0020000 		.4byte	.LASF62
 725 040c 0A       		.byte	0xa
 726 040d 5B       		.byte	0x5b
 727 040e 03030000 		.4byte	0x303
 728 0412 0C       		.byte	0xc
 729 0413 07       		.uleb128 0x7
 730 0414 4E020000 		.4byte	.LASF63
 731 0418 0A       		.byte	0xa
 732 0419 5E       		.byte	0x5e
 733 041a 48020000 		.4byte	0x248
 734 041e 10       		.byte	0x10
 735 041f 07       		.uleb128 0x7
 736 0420 05030000 		.4byte	.LASF64
 737 0424 0A       		.byte	0xa
 738 0425 5F       		.byte	0x5f
 739 0426 48020000 		.4byte	0x248
 740 042a 14       		.byte	0x14
 741 042b 07       		.uleb128 0x7
ARM GAS  /tmp/cc2Q4My5.s 			page 14


 742 042c FB020000 		.4byte	.LASF65
 743 0430 0A       		.byte	0xa
 744 0431 62       		.byte	0x62
 745 0432 48020000 		.4byte	0x248
 746 0436 18       		.byte	0x18
 747 0437 00       		.byte	0
 748 0438 03       		.uleb128 0x3
 749 0439 1A050000 		.4byte	.LASF66
 750 043d 0A       		.byte	0xa
 751 043e 64       		.byte	0x64
 752 043f E7030000 		.4byte	0x3e7
 753 0443 0E       		.uleb128 0xe
 754 0444 24050000 		.4byte	.LASF68
 755 0448 0A       		.byte	0xa
 756 0449 68       		.byte	0x68
 757 044a 38040000 		.4byte	0x438
 758 044e 06       		.uleb128 0x6
 759 044f 76020000 		.4byte	.LASF69
 760 0453 10       		.byte	0x10
 761 0454 0B       		.byte	0xb
 762 0455 25       		.byte	0x25
 763 0456 7F040000 		.4byte	0x47f
 764 045a 07       		.uleb128 0x7
 765 045b 2A010000 		.4byte	.LASF70
 766 045f 0B       		.byte	0xb
 767 0460 26       		.byte	0x26
 768 0461 4E020000 		.4byte	0x24e
 769 0465 00       		.byte	0
 770 0466 07       		.uleb128 0x7
 771 0467 5D050000 		.4byte	.LASF71
 772 046b 0B       		.byte	0xb
 773 046c 28       		.byte	0x28
 774 046d 48020000 		.4byte	0x248
 775 0471 08       		.byte	0x8
 776 0472 07       		.uleb128 0x7
 777 0473 41040000 		.4byte	.LASF72
 778 0477 0B       		.byte	0xb
 779 0478 2A       		.byte	0x2a
 780 0479 7F040000 		.4byte	0x47f
 781 047d 0C       		.byte	0xc
 782 047e 00       		.byte	0
 783 047f 0A       		.uleb128 0xa
 784 0480 04       		.byte	0x4
 785 0481 4E040000 		.4byte	0x44e
 786 0485 03       		.uleb128 0x3
 787 0486 76020000 		.4byte	.LASF69
 788 048a 0B       		.byte	0xb
 789 048b 2C       		.byte	0x2c
 790 048c 4E040000 		.4byte	0x44e
 791 0490 03       		.uleb128 0x3
 792 0491 52000000 		.4byte	.LASF73
 793 0495 0C       		.byte	0xc
 794 0496 25       		.byte	0x25
 795 0497 9B040000 		.4byte	0x49b
 796 049b 0A       		.uleb128 0xa
 797 049c 04       		.byte	0x4
 798 049d A1040000 		.4byte	0x4a1
ARM GAS  /tmp/cc2Q4My5.s 			page 15


 799 04a1 0F       		.uleb128 0xf
 800 04a2 8F020000 		.4byte	0x28f
 801 04a6 B0040000 		.4byte	0x4b0
 802 04aa 0D       		.uleb128 0xd
 803 04ab 2C000000 		.4byte	0x2c
 804 04af 00       		.byte	0
 805 04b0 03       		.uleb128 0x3
 806 04b1 0D030000 		.4byte	.LASF74
 807 04b5 0D       		.byte	0xd
 808 04b6 2D       		.byte	0x2d
 809 04b7 BB040000 		.4byte	0x4bb
 810 04bb 06       		.uleb128 0x6
 811 04bc 75050000 		.4byte	.LASF75
 812 04c0 1C       		.byte	0x1c
 813 04c1 0D       		.byte	0xd
 814 04c2 40       		.byte	0x40
 815 04c3 EC040000 		.4byte	0x4ec
 816 04c7 07       		.uleb128 0x7
 817 04c8 55030000 		.4byte	.LASF76
 818 04cc 0D       		.byte	0xd
 819 04cd 41       		.byte	0x41
 820 04ce 90040000 		.4byte	0x490
 821 04d2 00       		.byte	0
 822 04d3 07       		.uleb128 0x7
 823 04d4 C7000000 		.4byte	.LASF77
 824 04d8 0D       		.byte	0xd
 825 04d9 43       		.byte	0x43
 826 04da 0B050000 		.4byte	0x50b
 827 04de 04       		.byte	0x4
 828 04df 07       		.uleb128 0x7
 829 04e0 07010000 		.4byte	.LASF78
 830 04e4 0D       		.byte	0xd
 831 04e5 45       		.byte	0x45
 832 04e6 85040000 		.4byte	0x485
 833 04ea 0C       		.byte	0xc
 834 04eb 00       		.byte	0
 835 04ec 10       		.uleb128 0x10
 836 04ed 04       		.byte	0x4
 837 04ee 0D       		.byte	0xd
 838 04ef 35       		.byte	0x35
 839 04f0 0B050000 		.4byte	0x50b
 840 04f4 11       		.uleb128 0x11
 841 04f5 D4000000 		.4byte	.LASF79
 842 04f9 0D       		.byte	0xd
 843 04fa 36       		.byte	0x36
 844 04fb 2C050000 		.4byte	0x52c
 845 04ff 11       		.uleb128 0x11
 846 0500 2C040000 		.4byte	.LASF80
 847 0504 0D       		.byte	0xd
 848 0505 37       		.byte	0x37
 849 0506 32050000 		.4byte	0x532
 850 050a 00       		.byte	0
 851 050b 12       		.uleb128 0x12
 852 050c 99030000 		.4byte	.LASF123
 853 0510 08       		.byte	0x8
 854 0511 0D       		.byte	0xd
 855 0512 32       		.byte	0x32
ARM GAS  /tmp/cc2Q4My5.s 			page 16


 856 0513 2C050000 		.4byte	0x52c
 857 0517 11       		.uleb128 0x11
 858 0518 C1010000 		.4byte	.LASF81
 859 051c 0D       		.byte	0xd
 860 051d 33       		.byte	0x33
 861 051e 79020000 		.4byte	0x279
 862 0522 13       		.uleb128 0x13
 863 0523 6800     		.ascii	"h\000"
 864 0525 0D       		.byte	0xd
 865 0526 3A       		.byte	0x3a
 866 0527 38050000 		.4byte	0x538
 867 052b 00       		.byte	0
 868 052c 0A       		.uleb128 0xa
 869 052d 04       		.byte	0x4
 870 052e 0B050000 		.4byte	0x50b
 871 0532 0A       		.uleb128 0xa
 872 0533 04       		.byte	0x4
 873 0534 B0040000 		.4byte	0x4b0
 874 0538 09       		.uleb128 0x9
 875 0539 08       		.byte	0x8
 876 053a 0D       		.byte	0xd
 877 053b 34       		.byte	0x34
 878 053c 57050000 		.4byte	0x557
 879 0540 08       		.uleb128 0x8
 880 0541 7500     		.ascii	"u\000"
 881 0543 0D       		.byte	0xd
 882 0544 38       		.byte	0x38
 883 0545 EC040000 		.4byte	0x4ec
 884 0549 00       		.byte	0
 885 054a 07       		.uleb128 0x7
 886 054b 23020000 		.4byte	.LASF82
 887 054f 0D       		.byte	0xd
 888 0550 39       		.byte	0x39
 889 0551 2C000000 		.4byte	0x2c
 890 0555 04       		.byte	0x4
 891 0556 00       		.byte	0
 892 0557 10       		.uleb128 0x10
 893 0558 04       		.byte	0x4
 894 0559 07       		.byte	0x7
 895 055a 8F       		.byte	0x8f
 896 055b 8C050000 		.4byte	0x58c
 897 055f 11       		.uleb128 0x11
 898 0560 3A000000 		.4byte	.LASF83
 899 0564 07       		.byte	0x7
 900 0565 96       		.byte	0x96
 901 0566 05010000 		.4byte	0x105
 902 056a 11       		.uleb128 0x11
 903 056b BE000000 		.4byte	.LASF84
 904 056f 07       		.byte	0x7
 905 0570 9D       		.byte	0x9d
 906 0571 05010000 		.4byte	0x105
 907 0575 11       		.uleb128 0x11
 908 0576 32050000 		.4byte	.LASF85
 909 057a 07       		.byte	0x7
 910 057b A4       		.byte	0xa4
 911 057c 8F020000 		.4byte	0x28f
 912 0580 11       		.uleb128 0x11
ARM GAS  /tmp/cc2Q4My5.s 			page 17


 913 0581 A5030000 		.4byte	.LASF86
 914 0585 07       		.byte	0x7
 915 0586 AB       		.byte	0xab
 916 0587 10010000 		.4byte	0x110
 917 058b 00       		.byte	0
 918 058c 0A       		.uleb128 0xa
 919 058d 04       		.byte	0x4
 920 058e 99050000 		.4byte	0x599
 921 0592 04       		.uleb128 0x4
 922 0593 01       		.byte	0x1
 923 0594 08       		.byte	0x8
 924 0595 31040000 		.4byte	.LASF87
 925 0599 14       		.uleb128 0x14
 926 059a 92050000 		.4byte	0x592
 927 059e 0A       		.uleb128 0xa
 928 059f 04       		.byte	0x4
 929 05a0 85040000 		.4byte	0x485
 930 05a4 03       		.uleb128 0x3
 931 05a5 00000000 		.4byte	.LASF88
 932 05a9 07       		.byte	0x7
 933 05aa DE       		.byte	0xde
 934 05ab AF050000 		.4byte	0x5af
 935 05af 0A       		.uleb128 0xa
 936 05b0 04       		.byte	0x4
 937 05b1 B5050000 		.4byte	0x5b5
 938 05b5 0F       		.uleb128 0xf
 939 05b6 05010000 		.4byte	0x105
 940 05ba C4050000 		.4byte	0x5c4
 941 05be 0D       		.uleb128 0xd
 942 05bf 8F020000 		.4byte	0x28f
 943 05c3 00       		.byte	0
 944 05c4 09       		.uleb128 0x9
 945 05c5 16       		.byte	0x16
 946 05c6 0E       		.byte	0xe
 947 05c7 25       		.byte	0x25
 948 05c8 A5060000 		.4byte	0x6a5
 949 05cc 07       		.uleb128 0x7
 950 05cd 0D020000 		.4byte	.LASF89
 951 05d1 0E       		.byte	0xe
 952 05d2 26       		.byte	0x26
 953 05d3 A5060000 		.4byte	0x6a5
 954 05d7 00       		.byte	0
 955 05d8 07       		.uleb128 0x7
 956 05d9 93020000 		.4byte	.LASF90
 957 05dd 0E       		.byte	0xe
 958 05de 27       		.byte	0x27
 959 05df A2000000 		.4byte	0xa2
 960 05e3 04       		.byte	0x4
 961 05e4 07       		.uleb128 0x7
 962 05e5 F3020000 		.4byte	.LASF91
 963 05e9 0E       		.byte	0xe
 964 05ea 28       		.byte	0x28
 965 05eb A2000000 		.4byte	0xa2
 966 05ef 05       		.byte	0x5
 967 05f0 07       		.uleb128 0x7
 968 05f1 4B050000 		.4byte	.LASF92
 969 05f5 0E       		.byte	0xe
ARM GAS  /tmp/cc2Q4My5.s 			page 18


 970 05f6 29       		.byte	0x29
 971 05f7 AD000000 		.4byte	0xad
 972 05fb 06       		.byte	0x6
 973 05fc 07       		.uleb128 0x7
 974 05fd 20030000 		.4byte	.LASF93
 975 0601 0E       		.byte	0xe
 976 0602 2A       		.byte	0x2a
 977 0603 A2000000 		.4byte	0xa2
 978 0607 08       		.byte	0x8
 979 0608 07       		.uleb128 0x7
 980 0609 C0020000 		.4byte	.LASF94
 981 060d 0E       		.byte	0xe
 982 060e 2B       		.byte	0x2b
 983 060f A2000000 		.4byte	0xa2
 984 0613 09       		.byte	0x9
 985 0614 07       		.uleb128 0x7
 986 0615 B0000000 		.4byte	.LASF95
 987 0619 0E       		.byte	0xe
 988 061a 2C       		.byte	0x2c
 989 061b A2000000 		.4byte	0xa2
 990 061f 0A       		.byte	0xa
 991 0620 07       		.uleb128 0x7
 992 0621 0B040000 		.4byte	.LASF96
 993 0625 0E       		.byte	0xe
 994 0626 2D       		.byte	0x2d
 995 0627 A2000000 		.4byte	0xa2
 996 062b 0B       		.byte	0xb
 997 062c 07       		.uleb128 0x7
 998 062d 08050000 		.4byte	.LASF97
 999 0631 0E       		.byte	0xe
 1000 0632 2E       		.byte	0x2e
 1001 0633 A2000000 		.4byte	0xa2
 1002 0637 0C       		.byte	0xc
 1003 0638 07       		.uleb128 0x7
 1004 0639 EA030000 		.4byte	.LASF98
 1005 063d 0E       		.byte	0xe
 1006 063e 2F       		.byte	0x2f
 1007 063f A2000000 		.4byte	0xa2
 1008 0643 0D       		.byte	0xd
 1009 0644 07       		.uleb128 0x7
 1010 0645 DC010000 		.4byte	.LASF99
 1011 0649 0E       		.byte	0xe
 1012 064a 30       		.byte	0x30
 1013 064b A2000000 		.4byte	0xa2
 1014 064f 0E       		.byte	0xe
 1015 0650 07       		.uleb128 0x7
 1016 0651 CC020000 		.4byte	.LASF100
 1017 0655 0E       		.byte	0xe
 1018 0656 31       		.byte	0x31
 1019 0657 A2000000 		.4byte	0xa2
 1020 065b 0F       		.byte	0xf
 1021 065c 07       		.uleb128 0x7
 1022 065d 0D010000 		.4byte	.LASF101
 1023 0661 0E       		.byte	0xe
 1024 0662 32       		.byte	0x32
 1025 0663 A2000000 		.4byte	0xa2
 1026 0667 10       		.byte	0x10
ARM GAS  /tmp/cc2Q4My5.s 			page 19


 1027 0668 07       		.uleb128 0x7
 1028 0669 E0000000 		.4byte	.LASF102
 1029 066d 0E       		.byte	0xe
 1030 066e 34       		.byte	0x34
 1031 066f A2000000 		.4byte	0xa2
 1032 0673 11       		.byte	0x11
 1033 0674 07       		.uleb128 0x7
 1034 0675 1D010000 		.4byte	.LASF103
 1035 0679 0E       		.byte	0xe
 1036 067a 35       		.byte	0x35
 1037 067b A2000000 		.4byte	0xa2
 1038 067f 12       		.byte	0x12
 1039 0680 07       		.uleb128 0x7
 1040 0681 9B020000 		.4byte	.LASF104
 1041 0685 0E       		.byte	0xe
 1042 0686 36       		.byte	0x36
 1043 0687 A2000000 		.4byte	0xa2
 1044 068b 13       		.byte	0x13
 1045 068c 07       		.uleb128 0x7
 1046 068d B3030000 		.4byte	.LASF105
 1047 0691 0E       		.byte	0xe
 1048 0692 37       		.byte	0x37
 1049 0693 A2000000 		.4byte	0xa2
 1050 0697 14       		.byte	0x14
 1051 0698 07       		.uleb128 0x7
 1052 0699 86030000 		.4byte	.LASF106
 1053 069d 0E       		.byte	0xe
 1054 069e 39       		.byte	0x39
 1055 069f A2000000 		.4byte	0xa2
 1056 06a3 15       		.byte	0x15
 1057 06a4 00       		.byte	0
 1058 06a5 15       		.uleb128 0x15
 1059 06a6 92050000 		.4byte	0x592
 1060 06aa B5060000 		.4byte	0x6b5
 1061 06ae 16       		.uleb128 0x16
 1062 06af B5060000 		.4byte	0x6b5
 1063 06b3 03       		.byte	0x3
 1064 06b4 00       		.byte	0
 1065 06b5 04       		.uleb128 0x4
 1066 06b6 04       		.byte	0x4
 1067 06b7 07       		.byte	0x7
 1068 06b8 AF020000 		.4byte	.LASF107
 1069 06bc 03       		.uleb128 0x3
 1070 06bd 83010000 		.4byte	.LASF108
 1071 06c1 0E       		.byte	0xe
 1072 06c2 3A       		.byte	0x3a
 1073 06c3 C4050000 		.4byte	0x5c4
 1074 06c7 14       		.uleb128 0x14
 1075 06c8 BC060000 		.4byte	0x6bc
 1076 06cc 0E       		.uleb128 0xe
 1077 06cd FB010000 		.4byte	.LASF109
 1078 06d1 0E       		.byte	0xe
 1079 06d2 77       		.byte	0x77
 1080 06d3 C7060000 		.4byte	0x6c7
 1081 06d7 15       		.uleb128 0x15
 1082 06d8 79020000 		.4byte	0x279
 1083 06dc E7060000 		.4byte	0x6e7
ARM GAS  /tmp/cc2Q4My5.s 			page 20


 1084 06e0 16       		.uleb128 0x16
 1085 06e1 B5060000 		.4byte	0x6b5
 1086 06e5 26       		.byte	0x26
 1087 06e6 00       		.byte	0
 1088 06e7 0E       		.uleb128 0xe
 1089 06e8 95010000 		.4byte	.LASF110
 1090 06ec 0F       		.byte	0xf
 1091 06ed 82       		.byte	0x82
 1092 06ee D7060000 		.4byte	0x6d7
 1093 06f2 17       		.uleb128 0x17
 1094 06f3 5D010000 		.4byte	.LASF114
 1095 06f7 01       		.byte	0x1
 1096 06f8 7B       		.byte	0x7b
 1097 06f9 48020000 		.4byte	0x248
 1098 06fd 00000000 		.4byte	.LFB9
 1099 0701 60000000 		.4byte	.LFE9-.LFB9
 1100 0705 01       		.uleb128 0x1
 1101 0706 9C       		.byte	0x9c
 1102 0707 D0070000 		.4byte	0x7d0
 1103 070b 18       		.uleb128 0x18
 1104 070c CE000000 		.4byte	.LASF111
 1105 0710 01       		.byte	0x1
 1106 0711 7B       		.byte	0x7b
 1107 0712 32050000 		.4byte	0x532
 1108 0716 00000000 		.4byte	.LLST2
 1109 071a 18       		.uleb128 0x18
 1110 071b 23020000 		.4byte	.LASF82
 1111 071f 01       		.byte	0x1
 1112 0720 7B       		.byte	0x7b
 1113 0721 2C000000 		.4byte	0x2c
 1114 0725 21000000 		.4byte	.LLST3
 1115 0729 18       		.uleb128 0x18
 1116 072a 35000000 		.4byte	.LASF112
 1117 072e 01       		.byte	0x1
 1118 072f 7C       		.byte	0x7c
 1119 0730 FA000000 		.4byte	0xfa
 1120 0734 3F000000 		.4byte	.LLST4
 1121 0738 19       		.uleb128 0x19
 1122 0739 706600   		.ascii	"pf\000"
 1123 073c 01       		.byte	0x1
 1124 073d 7C       		.byte	0x7c
 1125 073e A4050000 		.4byte	0x5a4
 1126 0742 5D000000 		.4byte	.LLST5
 1127 0746 1A       		.uleb128 0x1a
 1128 0747 61726700 		.ascii	"arg\000"
 1129 074b 01       		.byte	0x1
 1130 074c 7C       		.byte	0x7c
 1131 074d 8F020000 		.4byte	0x28f
 1132 0751 02       		.uleb128 0x2
 1133 0752 91       		.byte	0x91
 1134 0753 00       		.sleb128 0
 1135 0754 1B       		.uleb128 0x1b
 1136 0755 77737000 		.ascii	"wsp\000"
 1137 0759 01       		.byte	0x1
 1138 075a 7D       		.byte	0x7d
 1139 075b 8F020000 		.4byte	0x28f
 1140 075f 7B000000 		.4byte	.LLST6
ARM GAS  /tmp/cc2Q4My5.s 			page 21


 1141 0763 1B       		.uleb128 0x1b
 1142 0764 747000   		.ascii	"tp\000"
 1143 0767 01       		.byte	0x1
 1144 0768 7E       		.byte	0x7e
 1145 0769 48020000 		.4byte	0x248
 1146 076d 99000000 		.4byte	.LLST7
 1147 0771 1C       		.uleb128 0x1c
 1148 0772 18000000 		.4byte	.LVL7
 1149 0776 3A080000 		.4byte	0x83a
 1150 077a 8C070000 		.4byte	0x78c
 1151 077e 1D       		.uleb128 0x1d
 1152 077f 01       		.uleb128 0x1
 1153 0780 50       		.byte	0x50
 1154 0781 03       		.uleb128 0x3
 1155 0782 F3       		.byte	0xf3
 1156 0783 01       		.uleb128 0x1
 1157 0784 50       		.byte	0x50
 1158 0785 1D       		.uleb128 0x1d
 1159 0786 01       		.uleb128 0x1
 1160 0787 51       		.byte	0x51
 1161 0788 02       		.uleb128 0x2
 1162 0789 75       		.byte	0x75
 1163 078a 00       		.sleb128 0
 1164 078b 00       		.byte	0
 1165 078c 1C       		.uleb128 0x1c
 1166 078d 3C000000 		.4byte	.LVL8
 1167 0791 45080000 		.4byte	0x845
 1168 0795 BA070000 		.4byte	0x7ba
 1169 0799 1D       		.uleb128 0x1d
 1170 079a 01       		.uleb128 0x1
 1171 079b 50       		.byte	0x50
 1172 079c 02       		.uleb128 0x2
 1173 079d 74       		.byte	0x74
 1174 079e 00       		.sleb128 0
 1175 079f 1D       		.uleb128 0x1d
 1176 07a0 01       		.uleb128 0x1
 1177 07a1 51       		.byte	0x51
 1178 07a2 02       		.uleb128 0x2
 1179 07a3 75       		.byte	0x75
 1180 07a4 00       		.sleb128 0
 1181 07a5 1D       		.uleb128 0x1d
 1182 07a6 01       		.uleb128 0x1
 1183 07a7 52       		.byte	0x52
 1184 07a8 02       		.uleb128 0x2
 1185 07a9 76       		.byte	0x76
 1186 07aa 00       		.sleb128 0
 1187 07ab 1D       		.uleb128 0x1d
 1188 07ac 01       		.uleb128 0x1
 1189 07ad 53       		.byte	0x53
 1190 07ae 02       		.uleb128 0x2
 1191 07af 77       		.byte	0x77
 1192 07b0 00       		.sleb128 0
 1193 07b1 1D       		.uleb128 0x1d
 1194 07b2 02       		.uleb128 0x2
 1195 07b3 7D       		.byte	0x7d
 1196 07b4 00       		.sleb128 0
 1197 07b5 03       		.uleb128 0x3
ARM GAS  /tmp/cc2Q4My5.s 			page 22


 1198 07b6 91       		.byte	0x91
 1199 07b7 78       		.sleb128 -8
 1200 07b8 06       		.byte	0x6
 1201 07b9 00       		.byte	0
 1202 07ba 1E       		.uleb128 0x1e
 1203 07bb 50000000 		.4byte	.LVL10
 1204 07bf 51080000 		.4byte	0x851
 1205 07c3 1D       		.uleb128 0x1d
 1206 07c4 01       		.uleb128 0x1
 1207 07c5 50       		.byte	0x50
 1208 07c6 02       		.uleb128 0x2
 1209 07c7 74       		.byte	0x74
 1210 07c8 00       		.sleb128 0
 1211 07c9 1D       		.uleb128 0x1d
 1212 07ca 01       		.uleb128 0x1
 1213 07cb 51       		.byte	0x51
 1214 07cc 01       		.uleb128 0x1
 1215 07cd 30       		.byte	0x30
 1216 07ce 00       		.byte	0
 1217 07cf 00       		.byte	0
 1218 07d0 1F       		.uleb128 0x1f
 1219 07d1 CA030000 		.4byte	.LASF124
 1220 07d5 01       		.byte	0x1
 1221 07d6 43       		.byte	0x43
 1222 07d7 00000000 		.4byte	.LFB8
 1223 07db 54000000 		.4byte	.LFE8-.LFB8
 1224 07df 01       		.uleb128 0x1
 1225 07e0 9C       		.byte	0x9c
 1226 07e1 14080000 		.4byte	0x814
 1227 07e5 19       		.uleb128 0x19
 1228 07e6 747000   		.ascii	"tp\000"
 1229 07e9 01       		.byte	0x1
 1230 07ea 43       		.byte	0x43
 1231 07eb 48020000 		.4byte	0x248
 1232 07ef B7000000 		.4byte	.LLST0
 1233 07f3 20       		.uleb128 0x20
 1234 07f4 2B030000 		.4byte	.LASF113
 1235 07f8 01       		.byte	0x1
 1236 07f9 44       		.byte	0x44
 1237 07fa E4000000 		.4byte	0xe4
 1238 07fe D8000000 		.4byte	.LLST1
 1239 0802 21       		.uleb128 0x21
 1240 0803 54000000 		.4byte	.LVL5
 1241 0807 5C080000 		.4byte	0x85c
 1242 080b 1D       		.uleb128 0x1d
 1243 080c 01       		.uleb128 0x1
 1244 080d 50       		.byte	0x50
 1245 080e 03       		.uleb128 0x3
 1246 080f F3       		.byte	0xf3
 1247 0810 01       		.uleb128 0x1
 1248 0811 50       		.byte	0x50
 1249 0812 00       		.byte	0
 1250 0813 00       		.byte	0
 1251 0814 17       		.uleb128 0x17
 1252 0815 7C020000 		.4byte	.LASF115
 1253 0819 01       		.byte	0x1
 1254 081a 2D       		.byte	0x2d
ARM GAS  /tmp/cc2Q4My5.s 			page 23


 1255 081b 48020000 		.4byte	0x248
 1256 081f 00000000 		.4byte	.LFB7
 1257 0823 18000000 		.4byte	.LFE7-.LFB7
 1258 0827 01       		.uleb128 0x1
 1259 0828 9C       		.byte	0x9c
 1260 0829 3A080000 		.4byte	0x83a
 1261 082d 1A       		.uleb128 0x1a
 1262 082e 747000   		.ascii	"tp\000"
 1263 0831 01       		.byte	0x1
 1264 0832 2D       		.byte	0x2d
 1265 0833 48020000 		.4byte	0x248
 1266 0837 01       		.uleb128 0x1
 1267 0838 50       		.byte	0x50
 1268 0839 00       		.byte	0
 1269 083a 22       		.uleb128 0x22
 1270 083b DE030000 		.4byte	.LASF116
 1271 083f DE030000 		.4byte	.LASF116
 1272 0843 0D       		.byte	0xd
 1273 0844 52       		.byte	0x52
 1274 0845 23       		.uleb128 0x23
 1275 0846 47010000 		.4byte	.LASF117
 1276 084a 47010000 		.4byte	.LASF117
 1277 084e 07       		.byte	0x7
 1278 084f 6201     		.2byte	0x162
 1279 0851 22       		.uleb128 0x22
 1280 0852 3B020000 		.4byte	.LASF118
 1281 0856 3B020000 		.4byte	.LASF118
 1282 085a 0A       		.byte	0xa
 1283 085b 92       		.byte	0x92
 1284 085c 22       		.uleb128 0x22
 1285 085d 32010000 		.4byte	.LASF119
 1286 0861 32010000 		.4byte	.LASF119
 1287 0865 0D       		.byte	0xd
 1288 0866 53       		.byte	0x53
 1289 0867 00       		.byte	0
 1290              		.section	.debug_abbrev,"",%progbits
 1291              	.Ldebug_abbrev0:
 1292 0000 01       		.uleb128 0x1
 1293 0001 11       		.uleb128 0x11
 1294 0002 01       		.byte	0x1
 1295 0003 25       		.uleb128 0x25
 1296 0004 0E       		.uleb128 0xe
 1297 0005 13       		.uleb128 0x13
 1298 0006 0B       		.uleb128 0xb
 1299 0007 03       		.uleb128 0x3
 1300 0008 0E       		.uleb128 0xe
 1301 0009 1B       		.uleb128 0x1b
 1302 000a 0E       		.uleb128 0xe
 1303 000b 55       		.uleb128 0x55
 1304 000c 17       		.uleb128 0x17
 1305 000d 11       		.uleb128 0x11
 1306 000e 01       		.uleb128 0x1
 1307 000f 10       		.uleb128 0x10
 1308 0010 17       		.uleb128 0x17
 1309 0011 00       		.byte	0
 1310 0012 00       		.byte	0
 1311 0013 02       		.uleb128 0x2
ARM GAS  /tmp/cc2Q4My5.s 			page 24


 1312 0014 24       		.uleb128 0x24
 1313 0015 00       		.byte	0
 1314 0016 0B       		.uleb128 0xb
 1315 0017 0B       		.uleb128 0xb
 1316 0018 3E       		.uleb128 0x3e
 1317 0019 0B       		.uleb128 0xb
 1318 001a 03       		.uleb128 0x3
 1319 001b 08       		.uleb128 0x8
 1320 001c 00       		.byte	0
 1321 001d 00       		.byte	0
 1322 001e 03       		.uleb128 0x3
 1323 001f 16       		.uleb128 0x16
 1324 0020 00       		.byte	0
 1325 0021 03       		.uleb128 0x3
 1326 0022 0E       		.uleb128 0xe
 1327 0023 3A       		.uleb128 0x3a
 1328 0024 0B       		.uleb128 0xb
 1329 0025 3B       		.uleb128 0x3b
 1330 0026 0B       		.uleb128 0xb
 1331 0027 49       		.uleb128 0x49
 1332 0028 13       		.uleb128 0x13
 1333 0029 00       		.byte	0
 1334 002a 00       		.byte	0
 1335 002b 04       		.uleb128 0x4
 1336 002c 24       		.uleb128 0x24
 1337 002d 00       		.byte	0
 1338 002e 0B       		.uleb128 0xb
 1339 002f 0B       		.uleb128 0xb
 1340 0030 3E       		.uleb128 0x3e
 1341 0031 0B       		.uleb128 0xb
 1342 0032 03       		.uleb128 0x3
 1343 0033 0E       		.uleb128 0xe
 1344 0034 00       		.byte	0
 1345 0035 00       		.byte	0
 1346 0036 05       		.uleb128 0x5
 1347 0037 35       		.uleb128 0x35
 1348 0038 00       		.byte	0
 1349 0039 49       		.uleb128 0x49
 1350 003a 13       		.uleb128 0x13
 1351 003b 00       		.byte	0
 1352 003c 00       		.byte	0
 1353 003d 06       		.uleb128 0x6
 1354 003e 13       		.uleb128 0x13
 1355 003f 01       		.byte	0x1
 1356 0040 03       		.uleb128 0x3
 1357 0041 0E       		.uleb128 0xe
 1358 0042 0B       		.uleb128 0xb
 1359 0043 0B       		.uleb128 0xb
 1360 0044 3A       		.uleb128 0x3a
 1361 0045 0B       		.uleb128 0xb
 1362 0046 3B       		.uleb128 0x3b
 1363 0047 0B       		.uleb128 0xb
 1364 0048 01       		.uleb128 0x1
 1365 0049 13       		.uleb128 0x13
 1366 004a 00       		.byte	0
 1367 004b 00       		.byte	0
 1368 004c 07       		.uleb128 0x7
ARM GAS  /tmp/cc2Q4My5.s 			page 25


 1369 004d 0D       		.uleb128 0xd
 1370 004e 00       		.byte	0
 1371 004f 03       		.uleb128 0x3
 1372 0050 0E       		.uleb128 0xe
 1373 0051 3A       		.uleb128 0x3a
 1374 0052 0B       		.uleb128 0xb
 1375 0053 3B       		.uleb128 0x3b
 1376 0054 0B       		.uleb128 0xb
 1377 0055 49       		.uleb128 0x49
 1378 0056 13       		.uleb128 0x13
 1379 0057 38       		.uleb128 0x38
 1380 0058 0B       		.uleb128 0xb
 1381 0059 00       		.byte	0
 1382 005a 00       		.byte	0
 1383 005b 08       		.uleb128 0x8
 1384 005c 0D       		.uleb128 0xd
 1385 005d 00       		.byte	0
 1386 005e 03       		.uleb128 0x3
 1387 005f 08       		.uleb128 0x8
 1388 0060 3A       		.uleb128 0x3a
 1389 0061 0B       		.uleb128 0xb
 1390 0062 3B       		.uleb128 0x3b
 1391 0063 0B       		.uleb128 0xb
 1392 0064 49       		.uleb128 0x49
 1393 0065 13       		.uleb128 0x13
 1394 0066 38       		.uleb128 0x38
 1395 0067 0B       		.uleb128 0xb
 1396 0068 00       		.byte	0
 1397 0069 00       		.byte	0
 1398 006a 09       		.uleb128 0x9
 1399 006b 13       		.uleb128 0x13
 1400 006c 01       		.byte	0x1
 1401 006d 0B       		.uleb128 0xb
 1402 006e 0B       		.uleb128 0xb
 1403 006f 3A       		.uleb128 0x3a
 1404 0070 0B       		.uleb128 0xb
 1405 0071 3B       		.uleb128 0x3b
 1406 0072 0B       		.uleb128 0xb
 1407 0073 01       		.uleb128 0x1
 1408 0074 13       		.uleb128 0x13
 1409 0075 00       		.byte	0
 1410 0076 00       		.byte	0
 1411 0077 0A       		.uleb128 0xa
 1412 0078 0F       		.uleb128 0xf
 1413 0079 00       		.byte	0
 1414 007a 0B       		.uleb128 0xb
 1415 007b 0B       		.uleb128 0xb
 1416 007c 49       		.uleb128 0x49
 1417 007d 13       		.uleb128 0x13
 1418 007e 00       		.byte	0
 1419 007f 00       		.byte	0
 1420 0080 0B       		.uleb128 0xb
 1421 0081 0F       		.uleb128 0xf
 1422 0082 00       		.byte	0
 1423 0083 0B       		.uleb128 0xb
 1424 0084 0B       		.uleb128 0xb
 1425 0085 00       		.byte	0
ARM GAS  /tmp/cc2Q4My5.s 			page 26


 1426 0086 00       		.byte	0
 1427 0087 0C       		.uleb128 0xc
 1428 0088 15       		.uleb128 0x15
 1429 0089 01       		.byte	0x1
 1430 008a 27       		.uleb128 0x27
 1431 008b 19       		.uleb128 0x19
 1432 008c 01       		.uleb128 0x1
 1433 008d 13       		.uleb128 0x13
 1434 008e 00       		.byte	0
 1435 008f 00       		.byte	0
 1436 0090 0D       		.uleb128 0xd
 1437 0091 05       		.uleb128 0x5
 1438 0092 00       		.byte	0
 1439 0093 49       		.uleb128 0x49
 1440 0094 13       		.uleb128 0x13
 1441 0095 00       		.byte	0
 1442 0096 00       		.byte	0
 1443 0097 0E       		.uleb128 0xe
 1444 0098 34       		.uleb128 0x34
 1445 0099 00       		.byte	0
 1446 009a 03       		.uleb128 0x3
 1447 009b 0E       		.uleb128 0xe
 1448 009c 3A       		.uleb128 0x3a
 1449 009d 0B       		.uleb128 0xb
 1450 009e 3B       		.uleb128 0x3b
 1451 009f 0B       		.uleb128 0xb
 1452 00a0 49       		.uleb128 0x49
 1453 00a1 13       		.uleb128 0x13
 1454 00a2 3F       		.uleb128 0x3f
 1455 00a3 19       		.uleb128 0x19
 1456 00a4 3C       		.uleb128 0x3c
 1457 00a5 19       		.uleb128 0x19
 1458 00a6 00       		.byte	0
 1459 00a7 00       		.byte	0
 1460 00a8 0F       		.uleb128 0xf
 1461 00a9 15       		.uleb128 0x15
 1462 00aa 01       		.byte	0x1
 1463 00ab 27       		.uleb128 0x27
 1464 00ac 19       		.uleb128 0x19
 1465 00ad 49       		.uleb128 0x49
 1466 00ae 13       		.uleb128 0x13
 1467 00af 01       		.uleb128 0x1
 1468 00b0 13       		.uleb128 0x13
 1469 00b1 00       		.byte	0
 1470 00b2 00       		.byte	0
 1471 00b3 10       		.uleb128 0x10
 1472 00b4 17       		.uleb128 0x17
 1473 00b5 01       		.byte	0x1
 1474 00b6 0B       		.uleb128 0xb
 1475 00b7 0B       		.uleb128 0xb
 1476 00b8 3A       		.uleb128 0x3a
 1477 00b9 0B       		.uleb128 0xb
 1478 00ba 3B       		.uleb128 0x3b
 1479 00bb 0B       		.uleb128 0xb
 1480 00bc 01       		.uleb128 0x1
 1481 00bd 13       		.uleb128 0x13
 1482 00be 00       		.byte	0
ARM GAS  /tmp/cc2Q4My5.s 			page 27


 1483 00bf 00       		.byte	0
 1484 00c0 11       		.uleb128 0x11
 1485 00c1 0D       		.uleb128 0xd
 1486 00c2 00       		.byte	0
 1487 00c3 03       		.uleb128 0x3
 1488 00c4 0E       		.uleb128 0xe
 1489 00c5 3A       		.uleb128 0x3a
 1490 00c6 0B       		.uleb128 0xb
 1491 00c7 3B       		.uleb128 0x3b
 1492 00c8 0B       		.uleb128 0xb
 1493 00c9 49       		.uleb128 0x49
 1494 00ca 13       		.uleb128 0x13
 1495 00cb 00       		.byte	0
 1496 00cc 00       		.byte	0
 1497 00cd 12       		.uleb128 0x12
 1498 00ce 17       		.uleb128 0x17
 1499 00cf 01       		.byte	0x1
 1500 00d0 03       		.uleb128 0x3
 1501 00d1 0E       		.uleb128 0xe
 1502 00d2 0B       		.uleb128 0xb
 1503 00d3 0B       		.uleb128 0xb
 1504 00d4 3A       		.uleb128 0x3a
 1505 00d5 0B       		.uleb128 0xb
 1506 00d6 3B       		.uleb128 0x3b
 1507 00d7 0B       		.uleb128 0xb
 1508 00d8 01       		.uleb128 0x1
 1509 00d9 13       		.uleb128 0x13
 1510 00da 00       		.byte	0
 1511 00db 00       		.byte	0
 1512 00dc 13       		.uleb128 0x13
 1513 00dd 0D       		.uleb128 0xd
 1514 00de 00       		.byte	0
 1515 00df 03       		.uleb128 0x3
 1516 00e0 08       		.uleb128 0x8
 1517 00e1 3A       		.uleb128 0x3a
 1518 00e2 0B       		.uleb128 0xb
 1519 00e3 3B       		.uleb128 0x3b
 1520 00e4 0B       		.uleb128 0xb
 1521 00e5 49       		.uleb128 0x49
 1522 00e6 13       		.uleb128 0x13
 1523 00e7 00       		.byte	0
 1524 00e8 00       		.byte	0
 1525 00e9 14       		.uleb128 0x14
 1526 00ea 26       		.uleb128 0x26
 1527 00eb 00       		.byte	0
 1528 00ec 49       		.uleb128 0x49
 1529 00ed 13       		.uleb128 0x13
 1530 00ee 00       		.byte	0
 1531 00ef 00       		.byte	0
 1532 00f0 15       		.uleb128 0x15
 1533 00f1 01       		.uleb128 0x1
 1534 00f2 01       		.byte	0x1
 1535 00f3 49       		.uleb128 0x49
 1536 00f4 13       		.uleb128 0x13
 1537 00f5 01       		.uleb128 0x1
 1538 00f6 13       		.uleb128 0x13
 1539 00f7 00       		.byte	0
ARM GAS  /tmp/cc2Q4My5.s 			page 28


 1540 00f8 00       		.byte	0
 1541 00f9 16       		.uleb128 0x16
 1542 00fa 21       		.uleb128 0x21
 1543 00fb 00       		.byte	0
 1544 00fc 49       		.uleb128 0x49
 1545 00fd 13       		.uleb128 0x13
 1546 00fe 2F       		.uleb128 0x2f
 1547 00ff 0B       		.uleb128 0xb
 1548 0100 00       		.byte	0
 1549 0101 00       		.byte	0
 1550 0102 17       		.uleb128 0x17
 1551 0103 2E       		.uleb128 0x2e
 1552 0104 01       		.byte	0x1
 1553 0105 3F       		.uleb128 0x3f
 1554 0106 19       		.uleb128 0x19
 1555 0107 03       		.uleb128 0x3
 1556 0108 0E       		.uleb128 0xe
 1557 0109 3A       		.uleb128 0x3a
 1558 010a 0B       		.uleb128 0xb
 1559 010b 3B       		.uleb128 0x3b
 1560 010c 0B       		.uleb128 0xb
 1561 010d 27       		.uleb128 0x27
 1562 010e 19       		.uleb128 0x19
 1563 010f 49       		.uleb128 0x49
 1564 0110 13       		.uleb128 0x13
 1565 0111 11       		.uleb128 0x11
 1566 0112 01       		.uleb128 0x1
 1567 0113 12       		.uleb128 0x12
 1568 0114 06       		.uleb128 0x6
 1569 0115 40       		.uleb128 0x40
 1570 0116 18       		.uleb128 0x18
 1571 0117 9742     		.uleb128 0x2117
 1572 0119 19       		.uleb128 0x19
 1573 011a 01       		.uleb128 0x1
 1574 011b 13       		.uleb128 0x13
 1575 011c 00       		.byte	0
 1576 011d 00       		.byte	0
 1577 011e 18       		.uleb128 0x18
 1578 011f 05       		.uleb128 0x5
 1579 0120 00       		.byte	0
 1580 0121 03       		.uleb128 0x3
 1581 0122 0E       		.uleb128 0xe
 1582 0123 3A       		.uleb128 0x3a
 1583 0124 0B       		.uleb128 0xb
 1584 0125 3B       		.uleb128 0x3b
 1585 0126 0B       		.uleb128 0xb
 1586 0127 49       		.uleb128 0x49
 1587 0128 13       		.uleb128 0x13
 1588 0129 02       		.uleb128 0x2
 1589 012a 17       		.uleb128 0x17
 1590 012b 00       		.byte	0
 1591 012c 00       		.byte	0
 1592 012d 19       		.uleb128 0x19
 1593 012e 05       		.uleb128 0x5
 1594 012f 00       		.byte	0
 1595 0130 03       		.uleb128 0x3
 1596 0131 08       		.uleb128 0x8
ARM GAS  /tmp/cc2Q4My5.s 			page 29


 1597 0132 3A       		.uleb128 0x3a
 1598 0133 0B       		.uleb128 0xb
 1599 0134 3B       		.uleb128 0x3b
 1600 0135 0B       		.uleb128 0xb
 1601 0136 49       		.uleb128 0x49
 1602 0137 13       		.uleb128 0x13
 1603 0138 02       		.uleb128 0x2
 1604 0139 17       		.uleb128 0x17
 1605 013a 00       		.byte	0
 1606 013b 00       		.byte	0
 1607 013c 1A       		.uleb128 0x1a
 1608 013d 05       		.uleb128 0x5
 1609 013e 00       		.byte	0
 1610 013f 03       		.uleb128 0x3
 1611 0140 08       		.uleb128 0x8
 1612 0141 3A       		.uleb128 0x3a
 1613 0142 0B       		.uleb128 0xb
 1614 0143 3B       		.uleb128 0x3b
 1615 0144 0B       		.uleb128 0xb
 1616 0145 49       		.uleb128 0x49
 1617 0146 13       		.uleb128 0x13
 1618 0147 02       		.uleb128 0x2
 1619 0148 18       		.uleb128 0x18
 1620 0149 00       		.byte	0
 1621 014a 00       		.byte	0
 1622 014b 1B       		.uleb128 0x1b
 1623 014c 34       		.uleb128 0x34
 1624 014d 00       		.byte	0
 1625 014e 03       		.uleb128 0x3
 1626 014f 08       		.uleb128 0x8
 1627 0150 3A       		.uleb128 0x3a
 1628 0151 0B       		.uleb128 0xb
 1629 0152 3B       		.uleb128 0x3b
 1630 0153 0B       		.uleb128 0xb
 1631 0154 49       		.uleb128 0x49
 1632 0155 13       		.uleb128 0x13
 1633 0156 02       		.uleb128 0x2
 1634 0157 17       		.uleb128 0x17
 1635 0158 00       		.byte	0
 1636 0159 00       		.byte	0
 1637 015a 1C       		.uleb128 0x1c
 1638 015b 898201   		.uleb128 0x4109
 1639 015e 01       		.byte	0x1
 1640 015f 11       		.uleb128 0x11
 1641 0160 01       		.uleb128 0x1
 1642 0161 31       		.uleb128 0x31
 1643 0162 13       		.uleb128 0x13
 1644 0163 01       		.uleb128 0x1
 1645 0164 13       		.uleb128 0x13
 1646 0165 00       		.byte	0
 1647 0166 00       		.byte	0
 1648 0167 1D       		.uleb128 0x1d
 1649 0168 8A8201   		.uleb128 0x410a
 1650 016b 00       		.byte	0
 1651 016c 02       		.uleb128 0x2
 1652 016d 18       		.uleb128 0x18
 1653 016e 9142     		.uleb128 0x2111
ARM GAS  /tmp/cc2Q4My5.s 			page 30


 1654 0170 18       		.uleb128 0x18
 1655 0171 00       		.byte	0
 1656 0172 00       		.byte	0
 1657 0173 1E       		.uleb128 0x1e
 1658 0174 898201   		.uleb128 0x4109
 1659 0177 01       		.byte	0x1
 1660 0178 11       		.uleb128 0x11
 1661 0179 01       		.uleb128 0x1
 1662 017a 31       		.uleb128 0x31
 1663 017b 13       		.uleb128 0x13
 1664 017c 00       		.byte	0
 1665 017d 00       		.byte	0
 1666 017e 1F       		.uleb128 0x1f
 1667 017f 2E       		.uleb128 0x2e
 1668 0180 01       		.byte	0x1
 1669 0181 3F       		.uleb128 0x3f
 1670 0182 19       		.uleb128 0x19
 1671 0183 03       		.uleb128 0x3
 1672 0184 0E       		.uleb128 0xe
 1673 0185 3A       		.uleb128 0x3a
 1674 0186 0B       		.uleb128 0xb
 1675 0187 3B       		.uleb128 0x3b
 1676 0188 0B       		.uleb128 0xb
 1677 0189 27       		.uleb128 0x27
 1678 018a 19       		.uleb128 0x19
 1679 018b 11       		.uleb128 0x11
 1680 018c 01       		.uleb128 0x1
 1681 018d 12       		.uleb128 0x12
 1682 018e 06       		.uleb128 0x6
 1683 018f 40       		.uleb128 0x40
 1684 0190 18       		.uleb128 0x18
 1685 0191 9742     		.uleb128 0x2117
 1686 0193 19       		.uleb128 0x19
 1687 0194 01       		.uleb128 0x1
 1688 0195 13       		.uleb128 0x13
 1689 0196 00       		.byte	0
 1690 0197 00       		.byte	0
 1691 0198 20       		.uleb128 0x20
 1692 0199 34       		.uleb128 0x34
 1693 019a 00       		.byte	0
 1694 019b 03       		.uleb128 0x3
 1695 019c 0E       		.uleb128 0xe
 1696 019d 3A       		.uleb128 0x3a
 1697 019e 0B       		.uleb128 0xb
 1698 019f 3B       		.uleb128 0x3b
 1699 01a0 0B       		.uleb128 0xb
 1700 01a1 49       		.uleb128 0x49
 1701 01a2 13       		.uleb128 0x13
 1702 01a3 02       		.uleb128 0x2
 1703 01a4 17       		.uleb128 0x17
 1704 01a5 00       		.byte	0
 1705 01a6 00       		.byte	0
 1706 01a7 21       		.uleb128 0x21
 1707 01a8 898201   		.uleb128 0x4109
 1708 01ab 01       		.byte	0x1
 1709 01ac 11       		.uleb128 0x11
 1710 01ad 01       		.uleb128 0x1
ARM GAS  /tmp/cc2Q4My5.s 			page 31


 1711 01ae 9542     		.uleb128 0x2115
 1712 01b0 19       		.uleb128 0x19
 1713 01b1 31       		.uleb128 0x31
 1714 01b2 13       		.uleb128 0x13
 1715 01b3 00       		.byte	0
 1716 01b4 00       		.byte	0
 1717 01b5 22       		.uleb128 0x22
 1718 01b6 2E       		.uleb128 0x2e
 1719 01b7 00       		.byte	0
 1720 01b8 3F       		.uleb128 0x3f
 1721 01b9 19       		.uleb128 0x19
 1722 01ba 3C       		.uleb128 0x3c
 1723 01bb 19       		.uleb128 0x19
 1724 01bc 6E       		.uleb128 0x6e
 1725 01bd 0E       		.uleb128 0xe
 1726 01be 03       		.uleb128 0x3
 1727 01bf 0E       		.uleb128 0xe
 1728 01c0 3A       		.uleb128 0x3a
 1729 01c1 0B       		.uleb128 0xb
 1730 01c2 3B       		.uleb128 0x3b
 1731 01c3 0B       		.uleb128 0xb
 1732 01c4 00       		.byte	0
 1733 01c5 00       		.byte	0
 1734 01c6 23       		.uleb128 0x23
 1735 01c7 2E       		.uleb128 0x2e
 1736 01c8 00       		.byte	0
 1737 01c9 3F       		.uleb128 0x3f
 1738 01ca 19       		.uleb128 0x19
 1739 01cb 3C       		.uleb128 0x3c
 1740 01cc 19       		.uleb128 0x19
 1741 01cd 6E       		.uleb128 0x6e
 1742 01ce 0E       		.uleb128 0xe
 1743 01cf 03       		.uleb128 0x3
 1744 01d0 0E       		.uleb128 0xe
 1745 01d1 3A       		.uleb128 0x3a
 1746 01d2 0B       		.uleb128 0xb
 1747 01d3 3B       		.uleb128 0x3b
 1748 01d4 05       		.uleb128 0x5
 1749 01d5 00       		.byte	0
 1750 01d6 00       		.byte	0
 1751 01d7 00       		.byte	0
 1752              		.section	.debug_loc,"",%progbits
 1753              	.Ldebug_loc0:
 1754              	.LLST2:
 1755 0000 00000000 		.4byte	.LVL6
 1756 0004 17000000 		.4byte	.LVL7-1
 1757 0008 0100     		.2byte	0x1
 1758 000a 50       		.byte	0x50
 1759 000b 17000000 		.4byte	.LVL7-1
 1760 000f 60000000 		.4byte	.LFE9
 1761 0013 0400     		.2byte	0x4
 1762 0015 F3       		.byte	0xf3
 1763 0016 01       		.uleb128 0x1
 1764 0017 50       		.byte	0x50
 1765 0018 9F       		.byte	0x9f
 1766 0019 00000000 		.4byte	0
 1767 001d 00000000 		.4byte	0
ARM GAS  /tmp/cc2Q4My5.s 			page 32


 1768              	.LLST3:
 1769 0021 00000000 		.4byte	.LVL6
 1770 0025 17000000 		.4byte	.LVL7-1
 1771 0029 0100     		.2byte	0x1
 1772 002b 51       		.byte	0x51
 1773 002c 17000000 		.4byte	.LVL7-1
 1774 0030 60000000 		.4byte	.LFE9
 1775 0034 0100     		.2byte	0x1
 1776 0036 55       		.byte	0x55
 1777 0037 00000000 		.4byte	0
 1778 003b 00000000 		.4byte	0
 1779              	.LLST4:
 1780 003f 00000000 		.4byte	.LVL6
 1781 0043 17000000 		.4byte	.LVL7-1
 1782 0047 0100     		.2byte	0x1
 1783 0049 52       		.byte	0x52
 1784 004a 17000000 		.4byte	.LVL7-1
 1785 004e 60000000 		.4byte	.LFE9
 1786 0052 0100     		.2byte	0x1
 1787 0054 56       		.byte	0x56
 1788 0055 00000000 		.4byte	0
 1789 0059 00000000 		.4byte	0
 1790              	.LLST5:
 1791 005d 00000000 		.4byte	.LVL6
 1792 0061 17000000 		.4byte	.LVL7-1
 1793 0065 0100     		.2byte	0x1
 1794 0067 53       		.byte	0x53
 1795 0068 17000000 		.4byte	.LVL7-1
 1796 006c 60000000 		.4byte	.LFE9
 1797 0070 0100     		.2byte	0x1
 1798 0072 57       		.byte	0x57
 1799 0073 00000000 		.4byte	0
 1800 0077 00000000 		.4byte	0
 1801              	.LLST6:
 1802 007b 18000000 		.4byte	.LVL7
 1803 007f 3B000000 		.4byte	.LVL8-1
 1804 0083 0100     		.2byte	0x1
 1805 0085 50       		.byte	0x50
 1806 0086 3B000000 		.4byte	.LVL8-1
 1807 008a 4C000000 		.4byte	.LVL9
 1808 008e 0100     		.2byte	0x1
 1809 0090 54       		.byte	0x54
 1810 0091 00000000 		.4byte	0
 1811 0095 00000000 		.4byte	0
 1812              	.LLST7:
 1813 0099 4C000000 		.4byte	.LVL9
 1814 009d 4F000000 		.4byte	.LVL10-1
 1815 00a1 0100     		.2byte	0x1
 1816 00a3 50       		.byte	0x50
 1817 00a4 4F000000 		.4byte	.LVL10-1
 1818 00a8 54000000 		.4byte	.LVL11
 1819 00ac 0100     		.2byte	0x1
 1820 00ae 54       		.byte	0x54
 1821 00af 00000000 		.4byte	0
 1822 00b3 00000000 		.4byte	0
 1823              	.LLST0:
 1824 00b7 00000000 		.4byte	.LVL1
ARM GAS  /tmp/cc2Q4My5.s 			page 33


 1825 00bb 53000000 		.4byte	.LVL5-1
 1826 00bf 0100     		.2byte	0x1
 1827 00c1 50       		.byte	0x50
 1828 00c2 53000000 		.4byte	.LVL5-1
 1829 00c6 54000000 		.4byte	.LFE8
 1830 00ca 0400     		.2byte	0x4
 1831 00cc F3       		.byte	0xf3
 1832 00cd 01       		.uleb128 0x1
 1833 00ce 50       		.byte	0x50
 1834 00cf 9F       		.byte	0x9f
 1835 00d0 00000000 		.4byte	0
 1836 00d4 00000000 		.4byte	0
 1837              	.LLST1:
 1838 00d8 14000000 		.4byte	.LVL2
 1839 00dc 24000000 		.4byte	.LVL3
 1840 00e0 0100     		.2byte	0x1
 1841 00e2 53       		.byte	0x53
 1842 00e3 24000000 		.4byte	.LVL3
 1843 00e7 48000000 		.4byte	.LVL4
 1844 00eb 0200     		.2byte	0x2
 1845 00ed 70       		.byte	0x70
 1846 00ee 1E       		.sleb128 30
 1847 00ef 00000000 		.4byte	0
 1848 00f3 00000000 		.4byte	0
 1849              		.section	.debug_aranges,"",%progbits
 1850 0000 2C000000 		.4byte	0x2c
 1851 0004 0200     		.2byte	0x2
 1852 0006 00000000 		.4byte	.Ldebug_info0
 1853 000a 04       		.byte	0x4
 1854 000b 00       		.byte	0
 1855 000c 0000     		.2byte	0
 1856 000e 0000     		.2byte	0
 1857 0010 00000000 		.4byte	.LFB7
 1858 0014 18000000 		.4byte	.LFE7-.LFB7
 1859 0018 00000000 		.4byte	.LFB8
 1860 001c 54000000 		.4byte	.LFE8-.LFB8
 1861 0020 00000000 		.4byte	.LFB9
 1862 0024 60000000 		.4byte	.LFE9-.LFB9
 1863 0028 00000000 		.4byte	0
 1864 002c 00000000 		.4byte	0
 1865              		.section	.debug_ranges,"",%progbits
 1866              	.Ldebug_ranges0:
 1867 0000 00000000 		.4byte	.LFB7
 1868 0004 18000000 		.4byte	.LFE7
 1869 0008 00000000 		.4byte	.LFB8
 1870 000c 54000000 		.4byte	.LFE8
 1871 0010 00000000 		.4byte	.LFB9
 1872 0014 60000000 		.4byte	.LFE9
 1873 0018 00000000 		.4byte	0
 1874 001c 00000000 		.4byte	0
 1875              		.section	.debug_line,"",%progbits
 1876              	.Ldebug_line0:
 1877 0000 CD010000 		.section	.debug_str,"MS",%progbits,1
 1877      02007801 
 1877      00000201 
 1877      FB0E0D00 
 1877      01010101 
ARM GAS  /tmp/cc2Q4My5.s 			page 34


 1878              	.LASF88:
 1879 0000 7466756E 		.ascii	"tfunc_t\000"
 1879      635F7400 
 1880              	.LASF41:
 1881 0008 705F6D73 		.ascii	"p_msg\000"
 1881      6700
 1882              	.LASF121:
 1883 000e 2E2E2F2E 		.ascii	"../../os/kernel/src/chdynamic.c\000"
 1883      2E2F6F73 
 1883      2F6B6572 
 1883      6E656C2F 
 1883      7372632F 
 1884              	.LASF2:
 1885 002e 73697A65 		.ascii	"size_t\000"
 1885      5F7400
 1886              	.LASF112:
 1887 0035 7072696F 		.ascii	"prio\000"
 1887      00
 1888              	.LASF83:
 1889 003a 7264796D 		.ascii	"rdymsg\000"
 1889      736700
 1890              	.LASF3:
 1891 0041 5F5F7569 		.ascii	"__uint8_t\000"
 1891      6E74385F 
 1891      7400
 1892              	.LASF67:
 1893 004b 76746C69 		.ascii	"vtlist\000"
 1893      737400
 1894              	.LASF73:
 1895 0052 6D656D67 		.ascii	"memgetfunc_t\000"
 1895      65746675 
 1895      6E635F74 
 1895      00
 1896              	.LASF13:
 1897 005f 6C6F6E67 		.ascii	"long long unsigned int\000"
 1897      206C6F6E 
 1897      6720756E 
 1897      7369676E 
 1897      65642069 
 1898              	.LASF122:
 1899 0076 2F686F6D 		.ascii	"/home/lmr/Downloads/ChibiOS-RPi/ChibiOS-RPi/demos/P"
 1899      652F6C6D 
 1899      722F446F 
 1899      776E6C6F 
 1899      6164732F 
 1900 00a9 726F6A65 		.ascii	"roject\000"
 1900      637400
 1901              	.LASF95:
 1902 00b0 63685F74 		.ascii	"ch_threadsize\000"
 1902      68726561 
 1902      6473697A 
 1902      6500
 1903              	.LASF84:
 1904 00be 65786974 		.ascii	"exitcode\000"
 1904      636F6465 
 1904      00
 1905              	.LASF77:
ARM GAS  /tmp/cc2Q4My5.s 			page 35


 1906 00c7 685F6672 		.ascii	"h_free\000"
 1906      656500
 1907              	.LASF111:
 1908 00ce 68656170 		.ascii	"heapp\000"
 1908      7000
 1909              	.LASF79:
 1910 00d4 6E657874 		.ascii	"next\000"
 1910      00
 1911              	.LASF29:
 1912 00d9 705F7072 		.ascii	"p_prio\000"
 1912      696F00
 1913              	.LASF102:
 1914 00e0 63665F6F 		.ascii	"cf_off_state\000"
 1914      66665F73 
 1914      74617465 
 1914      00
 1915              	.LASF12:
 1916 00ed 6C6F6E67 		.ascii	"long long int\000"
 1916      206C6F6E 
 1916      6720696E 
 1916      7400
 1917              	.LASF1:
 1918 00fb 7369676E 		.ascii	"signed char\000"
 1918      65642063 
 1918      68617200 
 1919              	.LASF78:
 1920 0107 685F6D74 		.ascii	"h_mtx\000"
 1920      7800
 1921              	.LASF101:
 1922 010d 63665F6F 		.ascii	"cf_off_stklimit\000"
 1922      66665F73 
 1922      746B6C69 
 1922      6D697400 
 1923              	.LASF103:
 1924 011d 63665F6F 		.ascii	"cf_off_flags\000"
 1924      66665F66 
 1924      6C616773 
 1924      00
 1925              	.LASF70:
 1926 012a 6D5F7175 		.ascii	"m_queue\000"
 1926      65756500 
 1927              	.LASF119:
 1928 0132 63684865 		.ascii	"chHeapFree\000"
 1928      61704672 
 1928      656500
 1929              	.LASF21:
 1930 013d 74736C69 		.ascii	"tslices_t\000"
 1930      6365735F 
 1930      7400
 1931              	.LASF117:
 1932 0147 63685468 		.ascii	"chThdCreateI\000"
 1932      64437265 
 1932      61746549 
 1932      00
 1933              	.LASF9:
 1934 0154 6C6F6E67 		.ascii	"long int\000"
 1934      20696E74 
ARM GAS  /tmp/cc2Q4My5.s 			page 36


 1934      00
 1935              	.LASF114:
 1936 015d 63685468 		.ascii	"chThdCreateFromHeap\000"
 1936      64437265 
 1936      61746546 
 1936      726F6D48 
 1936      65617000 
 1937              	.LASF19:
 1938 0171 74737461 		.ascii	"tstate_t\000"
 1938      74655F74 
 1938      00
 1939              	.LASF15:
 1940 017a 75696E74 		.ascii	"uint16_t\000"
 1940      31365F74 
 1940      00
 1941              	.LASF108:
 1942 0183 63686465 		.ascii	"chdebug_t\000"
 1942      6275675F 
 1942      7400
 1943              	.LASF31:
 1944 018d 705F6E65 		.ascii	"p_newer\000"
 1944      77657200 
 1945              	.LASF110:
 1946 0195 5F69646C 		.ascii	"_idle_thread_wa\000"
 1946      655F7468 
 1946      72656164 
 1946      5F776100 
 1947              	.LASF10:
 1948 01a5 5F5F7569 		.ascii	"__uint32_t\000"
 1948      6E743332 
 1948      5F7400
 1949              	.LASF48:
 1950 01b0 72656761 		.ascii	"regarm_t\000"
 1950      726D5F74 
 1950      00
 1951              	.LASF54:
 1952 01b9 76745F70 		.ascii	"vt_prev\000"
 1952      72657600 
 1953              	.LASF81:
 1954 01c1 616C6967 		.ascii	"align\000"
 1954      6E00
 1955              	.LASF0:
 1956 01c7 756E7369 		.ascii	"unsigned int\000"
 1956      676E6564 
 1956      20696E74 
 1956      00
 1957              	.LASF53:
 1958 01d4 76745F6E 		.ascii	"vt_next\000"
 1958      65787400 
 1959              	.LASF99:
 1960 01dc 63665F6F 		.ascii	"cf_off_older\000"
 1960      66665F6F 
 1960      6C646572 
 1960      00
 1961              	.LASF11:
 1962 01e9 6C6F6E67 		.ascii	"long unsigned int\000"
 1962      20756E73 
ARM GAS  /tmp/cc2Q4My5.s 			page 37


 1962      69676E65 
 1962      6420696E 
 1962      7400
 1963              	.LASF109:
 1964 01fb 63685F64 		.ascii	"ch_debug\000"
 1964      65627567 
 1964      00
 1965              	.LASF51:
 1966 0204 76746675 		.ascii	"vtfunc_t\000"
 1966      6E635F74 
 1966      00
 1967              	.LASF89:
 1968 020d 63685F69 		.ascii	"ch_identifier\000"
 1968      64656E74 
 1968      69666965 
 1968      7200
 1969              	.LASF50:
 1970 021b 636F6E74 		.ascii	"context\000"
 1970      65787400 
 1971              	.LASF82:
 1972 0223 73697A65 		.ascii	"size\000"
 1972      00
 1973              	.LASF7:
 1974 0228 73686F72 		.ascii	"short unsigned int\000"
 1974      7420756E 
 1974      7369676E 
 1974      65642069 
 1974      6E7400
 1975              	.LASF118:
 1976 023b 63685363 		.ascii	"chSchWakeupS\000"
 1976      6857616B 
 1976      65757053 
 1976      00
 1977              	.LASF23:
 1978 0248 6D73675F 		.ascii	"msg_t\000"
 1978      7400
 1979              	.LASF63:
 1980 024e 725F6E65 		.ascii	"r_newer\000"
 1980      77657200 
 1981              	.LASF18:
 1982 0256 746D6F64 		.ascii	"tmode_t\000"
 1982      655F7400 
 1983              	.LASF46:
 1984 025e 54687265 		.ascii	"ThreadsList\000"
 1984      6164734C 
 1984      69737400 
 1985              	.LASF24:
 1986 026a 6576656E 		.ascii	"eventmask_t\000"
 1986      746D6173 
 1986      6B5F7400 
 1987              	.LASF69:
 1988 0276 4D757465 		.ascii	"Mutex\000"
 1988      7800
 1989              	.LASF115:
 1990 027c 63685468 		.ascii	"chThdAddRef\000"
 1990      64416464 
 1990      52656600 
ARM GAS  /tmp/cc2Q4My5.s 			page 38


 1991              	.LASF47:
 1992 0288 73746B61 		.ascii	"stkalign_t\000"
 1992      6C69676E 
 1992      5F7400
 1993              	.LASF90:
 1994 0293 63685F7A 		.ascii	"ch_zero\000"
 1994      65726F00 
 1995              	.LASF104:
 1996 029b 63665F6F 		.ascii	"cf_off_refs\000"
 1996      66665F72 
 1996      65667300 
 1997              	.LASF55:
 1998 02a7 76745F74 		.ascii	"vt_time\000"
 1998      696D6500 
 1999              	.LASF107:
 2000 02af 73697A65 		.ascii	"sizetype\000"
 2000      74797065 
 2000      00
 2001              	.LASF56:
 2002 02b8 76745F66 		.ascii	"vt_func\000"
 2002      756E6300 
 2003              	.LASF94:
 2004 02c0 63685F74 		.ascii	"ch_timesize\000"
 2004      696D6573 
 2004      697A6500 
 2005              	.LASF100:
 2006 02cc 63665F6F 		.ascii	"cf_off_name\000"
 2006      66665F6E 
 2006      616D6500 
 2007              	.LASF32:
 2008 02d8 705F6F6C 		.ascii	"p_older\000"
 2008      64657200 
 2009              	.LASF62:
 2010 02e0 725F6374 		.ascii	"r_ctx\000"
 2010      7800
 2011              	.LASF45:
 2012 02e6 54687265 		.ascii	"ThreadsQueue\000"
 2012      61647351 
 2012      75657565 
 2012      00
 2013              	.LASF91:
 2014 02f3 63685F73 		.ascii	"ch_size\000"
 2014      697A6500 
 2015              	.LASF65:
 2016 02fb 725F6375 		.ascii	"r_current\000"
 2016      7272656E 
 2016      7400
 2017              	.LASF64:
 2018 0305 725F6F6C 		.ascii	"r_older\000"
 2018      64657200 
 2019              	.LASF74:
 2020 030d 4D656D6F 		.ascii	"MemoryHeap\000"
 2020      72794865 
 2020      617000
 2021              	.LASF20:
 2022 0318 74726566 		.ascii	"trefs_t\000"
 2022      735F7400 
ARM GAS  /tmp/cc2Q4My5.s 			page 39


 2023              	.LASF93:
 2024 0320 63685F70 		.ascii	"ch_ptrsize\000"
 2024      74727369 
 2024      7A6500
 2025              	.LASF113:
 2026 032b 72656673 		.ascii	"refs\000"
 2026      00
 2027              	.LASF28:
 2028 0330 705F7072 		.ascii	"p_prev\000"
 2028      657600
 2029              	.LASF22:
 2030 0337 74707269 		.ascii	"tprio_t\000"
 2030      6F5F7400 
 2031              	.LASF16:
 2032 033f 696E7433 		.ascii	"int32_t\000"
 2032      325F7400 
 2033              	.LASF4:
 2034 0347 756E7369 		.ascii	"unsigned char\000"
 2034      676E6564 
 2034      20636861 
 2034      7200
 2035              	.LASF76:
 2036 0355 685F7072 		.ascii	"h_provider\000"
 2036      6F766964 
 2036      657200
 2037              	.LASF43:
 2038 0360 705F6D74 		.ascii	"p_mtxlist\000"
 2038      786C6973 
 2038      7400
 2039              	.LASF5:
 2040 036a 73686F72 		.ascii	"short int\000"
 2040      7420696E 
 2040      7400
 2041              	.LASF34:
 2042 0374 705F7374 		.ascii	"p_state\000"
 2042      61746500 
 2043              	.LASF37:
 2044 037c 705F7072 		.ascii	"p_preempt\000"
 2044      65656D70 
 2044      7400
 2045              	.LASF106:
 2046 0386 63665F6F 		.ascii	"cf_off_time\000"
 2046      66665F74 
 2046      696D6500 
 2047              	.LASF61:
 2048 0392 725F7072 		.ascii	"r_prio\000"
 2048      696F00
 2049              	.LASF123:
 2050 0399 68656170 		.ascii	"heap_header\000"
 2050      5F686561 
 2050      64657200 
 2051              	.LASF86:
 2052 03a5 65776D61 		.ascii	"ewmask\000"
 2052      736B00
 2053              	.LASF27:
 2054 03ac 705F6E65 		.ascii	"p_next\000"
 2054      787400
ARM GAS  /tmp/cc2Q4My5.s 			page 40


 2055              	.LASF105:
 2056 03b3 63665F6F 		.ascii	"cf_off_preempt\000"
 2056      66665F70 
 2056      7265656D 
 2056      707400
 2057              	.LASF35:
 2058 03c2 705F666C 		.ascii	"p_flags\000"
 2058      61677300 
 2059              	.LASF124:
 2060 03ca 63685468 		.ascii	"chThdRelease\000"
 2060      6452656C 
 2060      65617365 
 2060      00
 2061              	.LASF26:
 2062 03d7 54687265 		.ascii	"Thread\000"
 2062      616400
 2063              	.LASF116:
 2064 03de 63684865 		.ascii	"chHeapAlloc\000"
 2064      6170416C 
 2064      6C6F6300 
 2065              	.LASF98:
 2066 03ea 63665F6F 		.ascii	"cf_off_newer\000"
 2066      66665F6E 
 2066      65776572 
 2066      00
 2067              	.LASF42:
 2068 03f7 705F6570 		.ascii	"p_epending\000"
 2068      656E6469 
 2068      6E6700
 2069              	.LASF17:
 2070 0402 75696E74 		.ascii	"uint32_t\000"
 2070      33325F74 
 2070      00
 2071              	.LASF96:
 2072 040b 63665F6F 		.ascii	"cf_off_prio\000"
 2072      66665F70 
 2072      72696F00 
 2073              	.LASF60:
 2074 0417 725F7175 		.ascii	"r_queue\000"
 2074      65756500 
 2075              	.LASF52:
 2076 041f 56697274 		.ascii	"VirtualTimer\000"
 2076      75616C54 
 2076      696D6572 
 2076      00
 2077              	.LASF80:
 2078 042c 68656170 		.ascii	"heap\000"
 2078      00
 2079              	.LASF87:
 2080 0431 63686172 		.ascii	"char\000"
 2080      00
 2081              	.LASF6:
 2082 0436 5F5F7569 		.ascii	"__uint16_t\000"
 2082      6E743136 
 2082      5F7400
 2083              	.LASF72:
 2084 0441 6D5F6E65 		.ascii	"m_next\000"
ARM GAS  /tmp/cc2Q4My5.s 			page 41


 2084      787400
 2085              	.LASF25:
 2086 0448 73797374 		.ascii	"systime_t\000"
 2086      696D655F 
 2086      7400
 2087              	.LASF44:
 2088 0452 705F7265 		.ascii	"p_realprio\000"
 2088      616C7072 
 2088      696F00
 2089              	.LASF8:
 2090 045d 5F5F696E 		.ascii	"__int32_t\000"
 2090      7433325F 
 2090      7400
 2091              	.LASF38:
 2092 0467 705F7469 		.ascii	"p_time\000"
 2092      6D6500
 2093              	.LASF120:
 2094 046e 474E5520 		.ascii	"GNU C11 6.3.1 20170620 -mcpu=arm1176jz-s -mno-thumb"
 2094      43313120 
 2094      362E332E 
 2094      31203230 
 2094      31373036 
 2095 04a1 2D696E74 		.ascii	"-interwork -ggdb -O2 -fomit-frame-pointer -ffunctio"
 2095      6572776F 
 2095      726B202D 
 2095      67676462 
 2095      202D4F32 
 2096 04d4 6E2D7365 		.ascii	"n-sections -fdata-sections\000"
 2096      6374696F 
 2096      6E73202D 
 2096      66646174 
 2096      612D7365 
 2097              	.LASF49:
 2098 04ef 696E7463 		.ascii	"intctx\000"
 2098      747800
 2099              	.LASF40:
 2100 04f6 705F6D73 		.ascii	"p_msgqueue\000"
 2100      67717565 
 2100      756500
 2101              	.LASF57:
 2102 0501 76745F70 		.ascii	"vt_par\000"
 2102      617200
 2103              	.LASF97:
 2104 0508 63665F6F 		.ascii	"cf_off_ctx\000"
 2104      66665F63 
 2104      747800
 2105              	.LASF36:
 2106 0513 705F7265 		.ascii	"p_refs\000"
 2106      667300
 2107              	.LASF66:
 2108 051a 52656164 		.ascii	"ReadyList\000"
 2108      794C6973 
 2108      7400
 2109              	.LASF68:
 2110 0524 726C6973 		.ascii	"rlist\000"
 2110      7400
 2111              	.LASF14:
ARM GAS  /tmp/cc2Q4My5.s 			page 42


 2112 052a 75696E74 		.ascii	"uint8_t\000"
 2112      385F7400 
 2113              	.LASF85:
 2114 0532 77746F62 		.ascii	"wtobjp\000"
 2114      6A7000
 2115              	.LASF33:
 2116 0539 705F6E61 		.ascii	"p_name\000"
 2116      6D6500
 2117              	.LASF58:
 2118 0540 76745F73 		.ascii	"vt_systime\000"
 2118      79737469 
 2118      6D6500
 2119              	.LASF92:
 2120 054b 63685F76 		.ascii	"ch_version\000"
 2120      65727369 
 2120      6F6E00
 2121              	.LASF59:
 2122 0556 56544C69 		.ascii	"VTList\000"
 2122      737400
 2123              	.LASF71:
 2124 055d 6D5F6F77 		.ascii	"m_owner\000"
 2124      6E657200 
 2125              	.LASF30:
 2126 0565 705F6374 		.ascii	"p_ctx\000"
 2126      7800
 2127              	.LASF39:
 2128 056b 705F7761 		.ascii	"p_waiting\000"
 2128      6974696E 
 2128      6700
 2129              	.LASF75:
 2130 0575 6D656D6F 		.ascii	"memory_heap\000"
 2130      72795F68 
 2130      65617000 
 2131              		.ident	"GCC: (15:6.3.1+svn253039-1build1) 6.3.1 20170620"
ARM GAS  /tmp/cc2Q4My5.s 			page 43


DEFINED SYMBOLS
                            *ABS*:0000000000000000 chdynamic.c
     /tmp/cc2Q4My5.s:16     .text.chThdAddRef:0000000000000000 $a
     /tmp/cc2Q4My5.s:22     .text.chThdAddRef:0000000000000000 chThdAddRef
     /tmp/cc2Q4My5.s:55     .text.chThdRelease:0000000000000000 $a
     /tmp/cc2Q4My5.s:61     .text.chThdRelease:0000000000000000 chThdRelease
     /tmp/cc2Q4My5.s:116    .text.chThdCreateFromHeap:0000000000000000 $a
     /tmp/cc2Q4My5.s:122    .text.chThdCreateFromHeap:0000000000000000 chThdCreateFromHeap
                     .debug_frame:0000000000000010 $d

UNDEFINED SYMBOLS
chHeapFree
chHeapAlloc
chThdCreateI
chSchWakeupS
