ARM GAS  /tmp/ccyuAmjp.s 			page 1


   1              		.cpu arm1176jz-s
   2              		.eabi_attribute 20, 1
   3              		.eabi_attribute 21, 1
   4              		.eabi_attribute 23, 3
   5              		.eabi_attribute 24, 1
   6              		.eabi_attribute 25, 1
   7              		.eabi_attribute 26, 1
   8              		.eabi_attribute 30, 2
   9              		.eabi_attribute 34, 1
  10              		.eabi_attribute 18, 4
  11              		.file	"chevents.c"
  12              		.text
  13              	.Ltext0:
  14              		.cfi_sections	.debug_frame
  15              		.section	.text.chEvtRegisterMask,"ax",%progbits
  16              		.align	2
  17              		.global	chEvtRegisterMask
  18              		.syntax unified
  19              		.arm
  20              		.fpu softvfp
  21              		.type	chEvtRegisterMask, %function
  22              	chEvtRegisterMask:
  23              	.LFB7:
  24              		.file 1 "../../os/kernel/src/chevents.c"
  25              		.loc 1 78 0
  26              		.cfi_startproc
  27              		@ args = 0, pretend = 0, frame = 0
  28              		@ frame_needed = 0, uses_anonymous_args = 0
  29              	.LVL0:
  30 0000 04E02DE5 		str	lr, [sp, #-4]!
  31              		.cfi_def_cfa_offset 4
  32              		.cfi_offset 14, -4
  33              		.loc 1 82 0
  34              		.syntax divided
  35              	@ 82 "../../os/kernel/src/chevents.c" 1
  36 0004 9FF021E3 		msr     CPSR_c, #0x9F
  37              	@ 0 "" 2
  38              		.loc 1 87 0
  39              		.arm
  40              		.syntax unified
  41 0008 0030A0E3 		mov	r3, #0
  42              		.loc 1 85 0
  43 000c 20C09FE5 		ldr	ip, .L3
  44              		.loc 1 83 0
  45 0010 00E090E5 		ldr	lr, [r0]
  46              		.loc 1 85 0
  47 0014 18C09CE5 		ldr	ip, [ip, #24]
  48              		.loc 1 83 0
  49 0018 00E081E5 		str	lr, [r1]
  50              		.loc 1 84 0
  51 001c 001080E5 		str	r1, [r0]
  52              		.loc 1 85 0
  53 0020 04C081E5 		str	ip, [r1, #4]
  54              		.loc 1 86 0
  55 0024 082081E5 		str	r2, [r1, #8]
  56              		.loc 1 87 0
  57 0028 0C3081E5 		str	r3, [r1, #12]
ARM GAS  /tmp/ccyuAmjp.s 			page 2


  58              		.loc 1 88 0
  59              		.syntax divided
  60              	@ 88 "../../os/kernel/src/chevents.c" 1
  61 002c 1FF021E3 		msr     CPSR_c, #0x1F
  62              	@ 0 "" 2
  63              		.arm
  64              		.syntax unified
  65 0030 04F09DE4 		ldr	pc, [sp], #4
  66              	.L4:
  67              		.align	2
  68              	.L3:
  69 0034 00000000 		.word	rlist
  70              		.cfi_endproc
  71              	.LFE7:
  72              		.size	chEvtRegisterMask, .-chEvtRegisterMask
  73              		.section	.text.chEvtUnregister,"ax",%progbits
  74              		.align	2
  75              		.global	chEvtUnregister
  76              		.syntax unified
  77              		.arm
  78              		.fpu softvfp
  79              		.type	chEvtUnregister, %function
  80              	chEvtUnregister:
  81              	.LFB8:
  82              		.loc 1 104 0
  83              		.cfi_startproc
  84              		@ args = 0, pretend = 0, frame = 0
  85              		@ frame_needed = 0, uses_anonymous_args = 0
  86              		@ link register save eliminated.
  87              	.LVL1:
  88              		.loc 1 110 0
  89              		.syntax divided
  90              	@ 110 "../../os/kernel/src/chevents.c" 1
  91 0000 9FF021E3 		msr     CPSR_c, #0x9F
  92              	@ 0 "" 2
  93              		.loc 1 109 0
  94              		.arm
  95              		.syntax unified
  96 0004 0020A0E1 		mov	r2, r0
  97              		.loc 1 111 0
  98 0008 020000EA 		b	.L6
  99              	.LVL2:
 100              	.L8:
 101              		.loc 1 112 0
 102 000c 030051E1 		cmp	r1, r3
 103 0010 0500000A 		beq	.L11
 104 0014 0320A0E1 		mov	r2, r3
 105              	.LVL3:
 106              	.L6:
 107              		.loc 1 111 0
 108 0018 003092E5 		ldr	r3, [r2]
 109 001c 030050E1 		cmp	r0, r3
 110 0020 F9FFFF1A 		bne	.L8
 111              		.loc 1 118 0
 112              		.syntax divided
 113              	@ 118 "../../os/kernel/src/chevents.c" 1
 114 0024 1FF021E3 		msr     CPSR_c, #0x1F
ARM GAS  /tmp/ccyuAmjp.s 			page 3


 115              	@ 0 "" 2
 116              		.arm
 117              		.syntax unified
 118 0028 1EFF2FE1 		bx	lr
 119              	.L11:
 120              		.loc 1 113 0
 121 002c 003091E5 		ldr	r3, [r1]
 122 0030 003082E5 		str	r3, [r2]
 123              		.loc 1 118 0
 124              		.syntax divided
 125              	@ 118 "../../os/kernel/src/chevents.c" 1
 126 0034 1FF021E3 		msr     CPSR_c, #0x1F
 127              	@ 0 "" 2
 128              		.arm
 129              		.syntax unified
 130 0038 1EFF2FE1 		bx	lr
 131              		.cfi_endproc
 132              	.LFE8:
 133              		.size	chEvtUnregister, .-chEvtUnregister
 134              		.section	.text.chEvtGetAndClearEvents,"ax",%progbits
 135              		.align	2
 136              		.global	chEvtGetAndClearEvents
 137              		.syntax unified
 138              		.arm
 139              		.fpu softvfp
 140              		.type	chEvtGetAndClearEvents, %function
 141              	chEvtGetAndClearEvents:
 142              	.LFB9:
 143              		.loc 1 129 0
 144              		.cfi_startproc
 145              		@ args = 0, pretend = 0, frame = 0
 146              		@ frame_needed = 0, uses_anonymous_args = 0
 147              		@ link register save eliminated.
 148              	.LVL4:
 149              		.loc 1 132 0
 150              		.syntax divided
 151              	@ 132 "../../os/kernel/src/chevents.c" 1
 152 0000 9FF021E3 		msr     CPSR_c, #0x9F
 153              	@ 0 "" 2
 154              		.loc 1 134 0
 155              		.arm
 156              		.syntax unified
 157 0004 18309FE5 		ldr	r3, .L13
 158 0008 182093E5 		ldr	r2, [r3, #24]
 159 000c 383092E5 		ldr	r3, [r2, #56]
 160              	.LVL5:
 161              		.loc 1 135 0
 162 0010 0010C3E1 		bic	r1, r3, r0
 163 0014 381082E5 		str	r1, [r2, #56]
 164              		.loc 1 137 0
 165              		.syntax divided
 166              	@ 137 "../../os/kernel/src/chevents.c" 1
 167 0018 1FF021E3 		msr     CPSR_c, #0x1F
 168              	@ 0 "" 2
 169              		.loc 1 139 0
 170              		.arm
 171              		.syntax unified
ARM GAS  /tmp/ccyuAmjp.s 			page 4


 172 001c 030000E0 		and	r0, r0, r3
 173              	.LVL6:
 174 0020 1EFF2FE1 		bx	lr
 175              	.L14:
 176              		.align	2
 177              	.L13:
 178 0024 00000000 		.word	rlist
 179              		.cfi_endproc
 180              	.LFE9:
 181              		.size	chEvtGetAndClearEvents, .-chEvtGetAndClearEvents
 182              		.section	.text.chEvtAddEvents,"ax",%progbits
 183              		.align	2
 184              		.global	chEvtAddEvents
 185              		.syntax unified
 186              		.arm
 187              		.fpu softvfp
 188              		.type	chEvtAddEvents, %function
 189              	chEvtAddEvents:
 190              	.LFB10:
 191              		.loc 1 150 0
 192              		.cfi_startproc
 193              		@ args = 0, pretend = 0, frame = 0
 194              		@ frame_needed = 0, uses_anonymous_args = 0
 195              		@ link register save eliminated.
 196              	.LVL7:
 197              		.loc 1 152 0
 198              		.syntax divided
 199              	@ 152 "../../os/kernel/src/chevents.c" 1
 200 0000 9FF021E3 		msr     CPSR_c, #0x9F
 201              	@ 0 "" 2
 202              		.loc 1 154 0
 203              		.arm
 204              		.syntax unified
 205 0004 14309FE5 		ldr	r3, .L16
 206 0008 183093E5 		ldr	r3, [r3, #24]
 207 000c 382093E5 		ldr	r2, [r3, #56]
 208 0010 020080E1 		orr	r0, r0, r2
 209              	.LVL8:
 210 0014 380083E5 		str	r0, [r3, #56]
 211              	.LVL9:
 212              		.loc 1 156 0
 213              		.syntax divided
 214              	@ 156 "../../os/kernel/src/chevents.c" 1
 215 0018 1FF021E3 		msr     CPSR_c, #0x1F
 216              	@ 0 "" 2
 217              		.loc 1 158 0
 218              		.arm
 219              		.syntax unified
 220 001c 1EFF2FE1 		bx	lr
 221              	.L17:
 222              		.align	2
 223              	.L16:
 224 0020 00000000 		.word	rlist
 225              		.cfi_endproc
 226              	.LFE10:
 227              		.size	chEvtAddEvents, .-chEvtAddEvents
 228              		.section	.text.chEvtGetAndClearFlags,"ax",%progbits
ARM GAS  /tmp/ccyuAmjp.s 			page 5


 229              		.align	2
 230              		.global	chEvtGetAndClearFlags
 231              		.syntax unified
 232              		.arm
 233              		.fpu softvfp
 234              		.type	chEvtGetAndClearFlags, %function
 235              	chEvtGetAndClearFlags:
 236              	.LFB12:
 237              		.loc 1 202 0
 238              		.cfi_startproc
 239              		@ args = 0, pretend = 0, frame = 0
 240              		@ frame_needed = 0, uses_anonymous_args = 0
 241              		@ link register save eliminated.
 242              	.LVL10:
 243              		.loc 1 202 0
 244 0000 0030A0E1 		mov	r3, r0
 245              		.loc 1 205 0
 246              		.syntax divided
 247              	@ 205 "../../os/kernel/src/chevents.c" 1
 248 0004 9FF021E3 		msr     CPSR_c, #0x9F
 249              	@ 0 "" 2
 250              		.loc 1 208 0
 251              		.arm
 252              		.syntax unified
 253 0008 0020A0E3 		mov	r2, #0
 254              		.loc 1 207 0
 255 000c 0C0090E5 		ldr	r0, [r0, #12]
 256              	.LVL11:
 257              		.loc 1 208 0
 258 0010 0C2083E5 		str	r2, [r3, #12]
 259              		.loc 1 210 0
 260              		.syntax divided
 261              	@ 210 "../../os/kernel/src/chevents.c" 1
 262 0014 1FF021E3 		msr     CPSR_c, #0x1F
 263              	@ 0 "" 2
 264              		.loc 1 212 0
 265              		.arm
 266              		.syntax unified
 267 0018 1EFF2FE1 		bx	lr
 268              		.cfi_endproc
 269              	.LFE12:
 270              		.size	chEvtGetAndClearFlags, .-chEvtGetAndClearFlags
 271              		.section	.text.chEvtSignalI,"ax",%progbits
 272              		.align	2
 273              		.global	chEvtSignalI
 274              		.syntax unified
 275              		.arm
 276              		.fpu softvfp
 277              		.type	chEvtSignalI, %function
 278              	chEvtSignalI:
 279              	.LFB14:
 280              		.loc 1 244 0
 281              		.cfi_startproc
 282              		@ args = 0, pretend = 0, frame = 0
 283              		@ frame_needed = 0, uses_anonymous_args = 0
 284              	.LVL12:
 285              		.loc 1 249 0
ARM GAS  /tmp/ccyuAmjp.s 			page 6


 286 0000 383090E5 		ldr	r3, [r0, #56]
 287              		.loc 1 251 0
 288 0004 1C20D0E5 		ldrb	r2, [r0, #28]	@ zero_extendqisi2
 289              		.loc 1 249 0
 290 0008 031081E1 		orr	r1, r1, r3
 291              	.LVL13:
 292              		.loc 1 251 0
 293 000c 080052E3 		cmp	r2, #8
 294              		.loc 1 249 0
 295 0010 381080E5 		str	r1, [r0, #56]
 296              		.loc 1 251 0
 297 0014 0900000A 		beq	.L26
 298              		.loc 1 252 0
 299 0018 090052E3 		cmp	r2, #9
 300 001c 1EFF2F11 		bxne	lr
 301              		.loc 1 254 0
 302 0020 243090E5 		ldr	r3, [r0, #36]
 303              		.loc 1 253 0
 304 0024 0130D3E1 		bics	r3, r3, r1
 305 0028 1EFF2F11 		bxne	lr
 306              	.L21:
 307              	.LVL14:
 308              		.loc 1 244 0
 309 002c 10402DE9 		push	{r4, lr}
 310              		.cfi_def_cfa_offset 8
 311              		.cfi_offset 4, -8
 312              		.cfi_offset 14, -4
 313              	.LBB4:
 314              	.LBB5:
 315              		.loc 1 255 0
 316 0030 FEFFFFEB 		bl	chSchReadyI
 317              	.LVL15:
 318 0034 0030A0E3 		mov	r3, #0
 319 0038 243080E5 		str	r3, [r0, #36]
 320 003c 1080BDE8 		pop	{r4, pc}
 321              	.LVL16:
 322              	.L26:
 323              		.cfi_def_cfa_offset 0
 324              		.cfi_restore 4
 325              		.cfi_restore 14
 326              	.LBE5:
 327              	.LBE4:
 328              		.loc 1 252 0 discriminator 1
 329 0040 243090E5 		ldr	r3, [r0, #36]
 330              		.loc 1 251 0 discriminator 1
 331 0044 030011E1 		tst	r1, r3
 332 0048 F7FFFF1A 		bne	.L21
 333 004c 1EFF2FE1 		bx	lr
 334              		.cfi_endproc
 335              	.LFE14:
 336              		.size	chEvtSignalI, .-chEvtSignalI
 337              		.section	.text.chEvtBroadcastFlagsI,"ax",%progbits
 338              		.align	2
 339              		.global	chEvtBroadcastFlagsI
 340              		.syntax unified
 341              		.arm
 342              		.fpu softvfp
ARM GAS  /tmp/ccyuAmjp.s 			page 7


 343              		.type	chEvtBroadcastFlagsI, %function
 344              	chEvtBroadcastFlagsI:
 345              	.LFB11:
 346              		.loc 1 177 0
 347              		.cfi_startproc
 348              		@ args = 0, pretend = 0, frame = 0
 349              		@ frame_needed = 0, uses_anonymous_args = 0
 350              	.LVL17:
 351 0000 70402DE9 		push	{r4, r5, r6, lr}
 352              		.cfi_def_cfa_offset 16
 353              		.cfi_offset 4, -16
 354              		.cfi_offset 5, -12
 355              		.cfi_offset 6, -8
 356              		.cfi_offset 14, -4
 357              		.loc 1 183 0
 358 0004 004090E5 		ldr	r4, [r0]
 359              	.LVL18:
 360              		.loc 1 184 0
 361 0008 040050E1 		cmp	r0, r4
 362 000c 7080BD08 		popeq	{r4, r5, r6, pc}
 363 0010 0050A0E1 		mov	r5, r0
 364 0014 0160A0E1 		mov	r6, r1
 365              	.LVL19:
 366              	.L29:
 367              		.loc 1 185 0
 368 0018 0C3094E5 		ldr	r3, [r4, #12]
 369              		.loc 1 186 0
 370 001c 081094E5 		ldr	r1, [r4, #8]
 371              		.loc 1 185 0
 372 0020 063083E1 		orr	r3, r3, r6
 373 0024 0C3084E5 		str	r3, [r4, #12]
 374              		.loc 1 186 0
 375 0028 040094E5 		ldr	r0, [r4, #4]
 376 002c FEFFFFEB 		bl	chEvtSignalI
 377              	.LVL20:
 378              		.loc 1 187 0
 379 0030 004094E5 		ldr	r4, [r4]
 380              	.LVL21:
 381              		.loc 1 184 0
 382 0034 040055E1 		cmp	r5, r4
 383 0038 F6FFFF1A 		bne	.L29
 384 003c 7080BDE8 		pop	{r4, r5, r6, pc}
 385              		.cfi_endproc
 386              	.LFE11:
 387              		.size	chEvtBroadcastFlagsI, .-chEvtBroadcastFlagsI
 388              		.section	.text.chEvtSignal,"ax",%progbits
 389              		.align	2
 390              		.global	chEvtSignal
 391              		.syntax unified
 392              		.arm
 393              		.fpu softvfp
 394              		.type	chEvtSignal, %function
 395              	chEvtSignal:
 396              	.LFB13:
 397              		.loc 1 222 0
 398              		.cfi_startproc
 399              		@ args = 0, pretend = 0, frame = 0
ARM GAS  /tmp/ccyuAmjp.s 			page 8


 400              		@ frame_needed = 0, uses_anonymous_args = 0
 401              	.LVL22:
 402 0000 10402DE9 		push	{r4, lr}
 403              		.cfi_def_cfa_offset 8
 404              		.cfi_offset 4, -8
 405              		.cfi_offset 14, -4
 406              		.loc 1 226 0
 407              		.syntax divided
 408              	@ 226 "../../os/kernel/src/chevents.c" 1
 409 0004 9FF021E3 		msr     CPSR_c, #0x9F
 410              	@ 0 "" 2
 411              		.loc 1 227 0
 412              		.arm
 413              		.syntax unified
 414 0008 FEFFFFEB 		bl	chEvtSignalI
 415              	.LVL23:
 416              		.loc 1 228 0
 417 000c FEFFFFEB 		bl	chSchRescheduleS
 418              	.LVL24:
 419              		.loc 1 229 0
 420              		.syntax divided
 421              	@ 229 "../../os/kernel/src/chevents.c" 1
 422 0010 1FF021E3 		msr     CPSR_c, #0x1F
 423              	@ 0 "" 2
 424              		.arm
 425              		.syntax unified
 426 0014 1080BDE8 		pop	{r4, pc}
 427              		.cfi_endproc
 428              	.LFE13:
 429              		.size	chEvtSignal, .-chEvtSignal
 430              		.section	.text.chEvtBroadcastFlags,"ax",%progbits
 431              		.align	2
 432              		.global	chEvtBroadcastFlags
 433              		.syntax unified
 434              		.arm
 435              		.fpu softvfp
 436              		.type	chEvtBroadcastFlags, %function
 437              	chEvtBroadcastFlags:
 438              	.LFB15:
 439              		.loc 1 271 0
 440              		.cfi_startproc
 441              		@ args = 0, pretend = 0, frame = 0
 442              		@ frame_needed = 0, uses_anonymous_args = 0
 443              	.LVL25:
 444 0000 10402DE9 		push	{r4, lr}
 445              		.cfi_def_cfa_offset 8
 446              		.cfi_offset 4, -8
 447              		.cfi_offset 14, -4
 448              		.loc 1 273 0
 449              		.syntax divided
 450              	@ 273 "../../os/kernel/src/chevents.c" 1
 451 0004 9FF021E3 		msr     CPSR_c, #0x9F
 452              	@ 0 "" 2
 453              		.loc 1 274 0
 454              		.arm
 455              		.syntax unified
 456 0008 FEFFFFEB 		bl	chEvtBroadcastFlagsI
ARM GAS  /tmp/ccyuAmjp.s 			page 9


 457              	.LVL26:
 458              		.loc 1 275 0
 459 000c FEFFFFEB 		bl	chSchRescheduleS
 460              	.LVL27:
 461              		.loc 1 276 0
 462              		.syntax divided
 463              	@ 276 "../../os/kernel/src/chevents.c" 1
 464 0010 1FF021E3 		msr     CPSR_c, #0x1F
 465              	@ 0 "" 2
 466              		.arm
 467              		.syntax unified
 468 0014 1080BDE8 		pop	{r4, pc}
 469              		.cfi_endproc
 470              	.LFE15:
 471              		.size	chEvtBroadcastFlags, .-chEvtBroadcastFlags
 472              		.section	.text.chEvtGetAndClearFlagsI,"ax",%progbits
 473              		.align	2
 474              		.global	chEvtGetAndClearFlagsI
 475              		.syntax unified
 476              		.arm
 477              		.fpu softvfp
 478              		.type	chEvtGetAndClearFlagsI, %function
 479              	chEvtGetAndClearFlagsI:
 480              	.LFB16:
 481              		.loc 1 290 0
 482              		.cfi_startproc
 483              		@ args = 0, pretend = 0, frame = 0
 484              		@ frame_needed = 0, uses_anonymous_args = 0
 485              		@ link register save eliminated.
 486              	.LVL28:
 487              		.loc 1 290 0
 488 0000 0030A0E1 		mov	r3, r0
 489              		.loc 1 294 0
 490 0004 0020A0E3 		mov	r2, #0
 491              		.loc 1 293 0
 492 0008 0C0090E5 		ldr	r0, [r0, #12]
 493              	.LVL29:
 494              		.loc 1 294 0
 495 000c 0C2083E5 		str	r2, [r3, #12]
 496              		.loc 1 297 0
 497 0010 1EFF2FE1 		bx	lr
 498              		.cfi_endproc
 499              	.LFE16:
 500              		.size	chEvtGetAndClearFlagsI, .-chEvtGetAndClearFlagsI
 501              		.section	.text.chEvtDispatch,"ax",%progbits
 502              		.align	2
 503              		.global	chEvtDispatch
 504              		.syntax unified
 505              		.arm
 506              		.fpu softvfp
 507              		.type	chEvtDispatch, %function
 508              	chEvtDispatch:
 509              	.LFB17:
 510              		.loc 1 308 0
 511              		.cfi_startproc
 512              		@ args = 0, pretend = 0, frame = 0
 513              		@ frame_needed = 0, uses_anonymous_args = 0
ARM GAS  /tmp/ccyuAmjp.s 			page 10


 514              	.LVL30:
 515 0000 F0412DE9 		push	{r4, r5, r6, r7, r8, lr}
 516              		.cfi_def_cfa_offset 24
 517              		.cfi_offset 4, -24
 518              		.cfi_offset 5, -20
 519              		.cfi_offset 6, -16
 520              		.cfi_offset 7, -12
 521              		.cfi_offset 8, -8
 522              		.cfi_offset 14, -4
 523              		.loc 1 314 0
 524 0004 005051E2 		subs	r5, r1, #0
 525 0008 F081BD08 		popeq	{r4, r5, r6, r7, r8, pc}
 526 000c 0070A0E1 		mov	r7, r0
 527 0010 0040A0E3 		mov	r4, #0
 528              		.loc 1 315 0
 529 0014 0160A0E3 		mov	r6, #1
 530              	.LVL31:
 531              	.L40:
 532 0018 1634A0E1 		lsl	r3, r6, r4
 533 001c 050013E1 		tst	r3, r5
 534              		.loc 1 322 0
 535 0020 01408402 		addeq	r4, r4, #1
 536              	.LVL32:
 537              		.loc 1 315 0
 538 0024 FBFFFF0A 		beq	.L40
 539              		.loc 1 319 0
 540 0028 0350C5E1 		bic	r5, r5, r3
 541              	.LVL33:
 542              		.loc 1 320 0
 543 002c 0400A0E1 		mov	r0, r4
 544 0030 043197E7 		ldr	r3, [r7, r4, lsl #2]
 545 0034 33FF2FE1 		blx	r3
 546              	.LVL34:
 547              		.loc 1 314 0
 548 0038 000055E3 		cmp	r5, #0
 549              		.loc 1 322 0
 550 003c 014084E2 		add	r4, r4, #1
 551              	.LVL35:
 552              		.loc 1 314 0
 553 0040 F4FFFF1A 		bne	.L40
 554 0044 F081BDE8 		pop	{r4, r5, r6, r7, r8, pc}
 555              		.cfi_endproc
 556              	.LFE17:
 557              		.size	chEvtDispatch, .-chEvtDispatch
 558              		.section	.text.chEvtWaitOne,"ax",%progbits
 559              		.align	2
 560              		.global	chEvtWaitOne
 561              		.syntax unified
 562              		.arm
 563              		.fpu softvfp
 564              		.type	chEvtWaitOne, %function
 565              	chEvtWaitOne:
 566              	.LFB18:
 567              		.loc 1 343 0
 568              		.cfi_startproc
 569              		@ args = 0, pretend = 0, frame = 0
 570              		@ frame_needed = 0, uses_anonymous_args = 0
ARM GAS  /tmp/ccyuAmjp.s 			page 11


 571              	.LVL36:
 572              		.loc 1 344 0
 573 0000 44309FE5 		ldr	r3, .L50
 574              		.loc 1 343 0
 575 0004 70402DE9 		push	{r4, r5, r6, lr}
 576              		.cfi_def_cfa_offset 16
 577              		.cfi_offset 4, -16
 578              		.cfi_offset 5, -12
 579              		.cfi_offset 6, -8
 580              		.cfi_offset 14, -4
 581              		.loc 1 344 0
 582 0008 185093E5 		ldr	r5, [r3, #24]
 583              	.LVL37:
 584              		.loc 1 347 0
 585              		.syntax divided
 586              	@ 347 "../../os/kernel/src/chevents.c" 1
 587 000c 9FF021E3 		msr     CPSR_c, #0x9F
 588              	@ 0 "" 2
 589              		.loc 1 349 0
 590              		.arm
 591              		.syntax unified
 592 0010 383095E5 		ldr	r3, [r5, #56]
 593              	.LVL38:
 594 0014 002013E0 		ands	r2, r3, r0
 595              	.LVL39:
 596 0018 0500001A 		bne	.L48
 597 001c 0040A0E1 		mov	r4, r0
 598              		.loc 1 350 0
 599 0020 240085E5 		str	r0, [r5, #36]
 600              		.loc 1 351 0
 601 0024 0800A0E3 		mov	r0, #8
 602              	.LVL40:
 603 0028 FEFFFFEB 		bl	chSchGoSleepS
 604              	.LVL41:
 605              		.loc 1 352 0
 606 002c 383095E5 		ldr	r3, [r5, #56]
 607 0030 032004E0 		and	r2, r4, r3
 608              	.LVL42:
 609              	.L48:
 610              		.loc 1 354 0
 611 0034 000062E2 		rsb	r0, r2, #0
 612 0038 020000E0 		and	r0, r0, r2
 613              	.LVL43:
 614              		.loc 1 355 0
 615 003c 0030C3E1 		bic	r3, r3, r0
 616 0040 383085E5 		str	r3, [r5, #56]
 617              		.loc 1 357 0
 618              		.syntax divided
 619              	@ 357 "../../os/kernel/src/chevents.c" 1
 620 0044 1FF021E3 		msr     CPSR_c, #0x1F
 621              	@ 0 "" 2
 622              		.loc 1 359 0
 623              		.arm
 624              		.syntax unified
 625 0048 7080BDE8 		pop	{r4, r5, r6, pc}
 626              	.L51:
 627              		.align	2
ARM GAS  /tmp/ccyuAmjp.s 			page 12


 628              	.L50:
 629 004c 00000000 		.word	rlist
 630              		.cfi_endproc
 631              	.LFE18:
 632              		.size	chEvtWaitOne, .-chEvtWaitOne
 633              		.section	.text.chEvtWaitAny,"ax",%progbits
 634              		.align	2
 635              		.global	chEvtWaitAny
 636              		.syntax unified
 637              		.arm
 638              		.fpu softvfp
 639              		.type	chEvtWaitAny, %function
 640              	chEvtWaitAny:
 641              	.LFB19:
 642              		.loc 1 372 0
 643              		.cfi_startproc
 644              		@ args = 0, pretend = 0, frame = 0
 645              		@ frame_needed = 0, uses_anonymous_args = 0
 646              	.LVL44:
 647              		.loc 1 373 0
 648 0000 40309FE5 		ldr	r3, .L55
 649              		.loc 1 372 0
 650 0004 70402DE9 		push	{r4, r5, r6, lr}
 651              		.cfi_def_cfa_offset 16
 652              		.cfi_offset 4, -16
 653              		.cfi_offset 5, -12
 654              		.cfi_offset 6, -8
 655              		.cfi_offset 14, -4
 656              		.loc 1 373 0
 657 0008 185093E5 		ldr	r5, [r3, #24]
 658              	.LVL45:
 659              		.loc 1 376 0
 660              		.syntax divided
 661              	@ 376 "../../os/kernel/src/chevents.c" 1
 662 000c 9FF021E3 		msr     CPSR_c, #0x9F
 663              	@ 0 "" 2
 664              		.loc 1 378 0
 665              		.arm
 666              		.syntax unified
 667 0010 383095E5 		ldr	r3, [r5, #56]
 668              	.LVL46:
 669 0014 004013E0 		ands	r4, r3, r0
 670              	.LVL47:
 671 0018 0500001A 		bne	.L53
 672 001c 0040A0E1 		mov	r4, r0
 673              	.LVL48:
 674              		.loc 1 379 0
 675 0020 240085E5 		str	r0, [r5, #36]
 676              		.loc 1 380 0
 677 0024 0800A0E3 		mov	r0, #8
 678              	.LVL49:
 679 0028 FEFFFFEB 		bl	chSchGoSleepS
 680              	.LVL50:
 681              		.loc 1 381 0
 682 002c 383095E5 		ldr	r3, [r5, #56]
 683 0030 034004E0 		and	r4, r4, r3
 684              	.LVL51:
ARM GAS  /tmp/ccyuAmjp.s 			page 13


 685              	.L53:
 686              		.loc 1 383 0
 687 0034 0430C3E1 		bic	r3, r3, r4
 688 0038 383085E5 		str	r3, [r5, #56]
 689              		.loc 1 385 0
 690              		.syntax divided
 691              	@ 385 "../../os/kernel/src/chevents.c" 1
 692 003c 1FF021E3 		msr     CPSR_c, #0x1F
 693              	@ 0 "" 2
 694              		.loc 1 387 0
 695              		.arm
 696              		.syntax unified
 697 0040 0400A0E1 		mov	r0, r4
 698 0044 7080BDE8 		pop	{r4, r5, r6, pc}
 699              	.L56:
 700              		.align	2
 701              	.L55:
 702 0048 00000000 		.word	rlist
 703              		.cfi_endproc
 704              	.LFE19:
 705              		.size	chEvtWaitAny, .-chEvtWaitAny
 706              		.section	.text.chEvtWaitAll,"ax",%progbits
 707              		.align	2
 708              		.global	chEvtWaitAll
 709              		.syntax unified
 710              		.arm
 711              		.fpu softvfp
 712              		.type	chEvtWaitAll, %function
 713              	chEvtWaitAll:
 714              	.LFB20:
 715              		.loc 1 400 0
 716              		.cfi_startproc
 717              		@ args = 0, pretend = 0, frame = 0
 718              		@ frame_needed = 0, uses_anonymous_args = 0
 719              	.LVL52:
 720              		.loc 1 401 0
 721 0000 3C309FE5 		ldr	r3, .L60
 722              		.loc 1 400 0
 723 0004 70402DE9 		push	{r4, r5, r6, lr}
 724              		.cfi_def_cfa_offset 16
 725              		.cfi_offset 4, -16
 726              		.cfi_offset 5, -12
 727              		.cfi_offset 6, -8
 728              		.cfi_offset 14, -4
 729              		.loc 1 400 0
 730 0008 0040A0E1 		mov	r4, r0
 731              		.loc 1 401 0
 732 000c 185093E5 		ldr	r5, [r3, #24]
 733              	.LVL53:
 734              		.loc 1 403 0
 735              		.syntax divided
 736              	@ 403 "../../os/kernel/src/chevents.c" 1
 737 0010 9FF021E3 		msr     CPSR_c, #0x9F
 738              	@ 0 "" 2
 739              		.loc 1 405 0
 740              		.arm
 741              		.syntax unified
ARM GAS  /tmp/ccyuAmjp.s 			page 14


 742 0014 383095E5 		ldr	r3, [r5, #56]
 743 0018 0320D0E1 		bics	r2, r0, r3
 744 001c 0300000A 		beq	.L58
 745              		.loc 1 406 0
 746 0020 240085E5 		str	r0, [r5, #36]
 747              		.loc 1 407 0
 748 0024 0900A0E3 		mov	r0, #9
 749              	.LVL54:
 750 0028 FEFFFFEB 		bl	chSchGoSleepS
 751              	.LVL55:
 752 002c 383095E5 		ldr	r3, [r5, #56]
 753              	.L58:
 754              		.loc 1 409 0
 755 0030 0430C3E1 		bic	r3, r3, r4
 756 0034 383085E5 		str	r3, [r5, #56]
 757              		.loc 1 411 0
 758              		.syntax divided
 759              	@ 411 "../../os/kernel/src/chevents.c" 1
 760 0038 1FF021E3 		msr     CPSR_c, #0x1F
 761              	@ 0 "" 2
 762              		.loc 1 413 0
 763              		.arm
 764              		.syntax unified
 765 003c 0400A0E1 		mov	r0, r4
 766 0040 7080BDE8 		pop	{r4, r5, r6, pc}
 767              	.L61:
 768              		.align	2
 769              	.L60:
 770 0044 00000000 		.word	rlist
 771              		.cfi_endproc
 772              	.LFE20:
 773              		.size	chEvtWaitAll, .-chEvtWaitAll
 774              		.section	.text.chEvtWaitOneTimeout,"ax",%progbits
 775              		.align	2
 776              		.global	chEvtWaitOneTimeout
 777              		.syntax unified
 778              		.arm
 779              		.fpu softvfp
 780              		.type	chEvtWaitOneTimeout, %function
 781              	chEvtWaitOneTimeout:
 782              	.LFB21:
 783              		.loc 1 439 0
 784              		.cfi_startproc
 785              		@ args = 0, pretend = 0, frame = 0
 786              		@ frame_needed = 0, uses_anonymous_args = 0
 787              	.LVL56:
 788              		.loc 1 440 0
 789 0000 5C309FE5 		ldr	r3, .L70
 790              		.loc 1 439 0
 791 0004 70402DE9 		push	{r4, r5, r6, lr}
 792              		.cfi_def_cfa_offset 16
 793              		.cfi_offset 4, -16
 794              		.cfi_offset 5, -12
 795              		.cfi_offset 6, -8
 796              		.cfi_offset 14, -4
 797              		.loc 1 440 0
 798 0008 186093E5 		ldr	r6, [r3, #24]
ARM GAS  /tmp/ccyuAmjp.s 			page 15


 799              	.LVL57:
 800              		.loc 1 443 0
 801              		.syntax divided
 802              	@ 443 "../../os/kernel/src/chevents.c" 1
 803 000c 9FF021E3 		msr     CPSR_c, #0x9F
 804              	@ 0 "" 2
 805              		.loc 1 445 0
 806              		.arm
 807              		.syntax unified
 808 0010 383096E5 		ldr	r3, [r6, #56]
 809              	.LVL58:
 810 0014 004013E0 		ands	r4, r3, r0
 811              	.LVL59:
 812 0018 0C00001A 		bne	.L63
 813              		.loc 1 446 0
 814 001c 000051E3 		cmp	r1, #0
 815 0020 0200001A 		bne	.L69
 816              	.LVL60:
 817              	.L68:
 818              		.loc 1 460 0
 819              		.syntax divided
 820              	@ 460 "../../os/kernel/src/chevents.c" 1
 821 0024 1FF021E3 		msr     CPSR_c, #0x1F
 822              	@ 0 "" 2
 823              		.loc 1 462 0
 824              		.arm
 825              		.syntax unified
 826 0028 0400A0E1 		mov	r0, r4
 827 002c 7080BDE8 		pop	{r4, r5, r6, pc}
 828              	.LVL61:
 829              	.L69:
 830              		.loc 1 450 0
 831 0030 240086E5 		str	r0, [r6, #36]
 832 0034 0050A0E1 		mov	r5, r0
 833              		.loc 1 451 0
 834 0038 0800A0E3 		mov	r0, #8
 835              	.LVL62:
 836 003c FEFFFFEB 		bl	chSchGoSleepTimeoutS
 837              	.LVL63:
 838 0040 000050E3 		cmp	r0, #0
 839 0044 F6FFFFBA 		blt	.L68
 840              		.loc 1 455 0
 841 0048 383096E5 		ldr	r3, [r6, #56]
 842 004c 034005E0 		and	r4, r5, r3
 843              	.LVL64:
 844              	.L63:
 845              		.loc 1 457 0
 846 0050 002064E2 		rsb	r2, r4, #0
 847 0054 024004E0 		and	r4, r4, r2
 848              	.LVL65:
 849              		.loc 1 458 0
 850 0058 0430C3E1 		bic	r3, r3, r4
 851 005c 383086E5 		str	r3, [r6, #56]
 852 0060 EFFFFFEA 		b	.L68
 853              	.L71:
 854              		.align	2
 855              	.L70:
ARM GAS  /tmp/ccyuAmjp.s 			page 16


 856 0064 00000000 		.word	rlist
 857              		.cfi_endproc
 858              	.LFE21:
 859              		.size	chEvtWaitOneTimeout, .-chEvtWaitOneTimeout
 860              		.section	.text.chEvtWaitAnyTimeout,"ax",%progbits
 861              		.align	2
 862              		.global	chEvtWaitAnyTimeout
 863              		.syntax unified
 864              		.arm
 865              		.fpu softvfp
 866              		.type	chEvtWaitAnyTimeout, %function
 867              	chEvtWaitAnyTimeout:
 868              	.LFB22:
 869              		.loc 1 482 0
 870              		.cfi_startproc
 871              		@ args = 0, pretend = 0, frame = 0
 872              		@ frame_needed = 0, uses_anonymous_args = 0
 873              	.LVL66:
 874              		.loc 1 483 0
 875 0000 54309FE5 		ldr	r3, .L80
 876              		.loc 1 482 0
 877 0004 70402DE9 		push	{r4, r5, r6, lr}
 878              		.cfi_def_cfa_offset 16
 879              		.cfi_offset 4, -16
 880              		.cfi_offset 5, -12
 881              		.cfi_offset 6, -8
 882              		.cfi_offset 14, -4
 883              		.loc 1 483 0
 884 0008 185093E5 		ldr	r5, [r3, #24]
 885              	.LVL67:
 886              		.loc 1 486 0
 887              		.syntax divided
 888              	@ 486 "../../os/kernel/src/chevents.c" 1
 889 000c 9FF021E3 		msr     CPSR_c, #0x9F
 890              	@ 0 "" 2
 891              		.loc 1 488 0
 892              		.arm
 893              		.syntax unified
 894 0010 383095E5 		ldr	r3, [r5, #56]
 895              	.LVL68:
 896 0014 006013E0 		ands	r6, r3, r0
 897              	.LVL69:
 898 0018 0C00001A 		bne	.L73
 899              		.loc 1 489 0
 900 001c 000051E3 		cmp	r1, #0
 901 0020 0200001A 		bne	.L79
 902              	.LVL70:
 903              	.L78:
 904              		.loc 1 502 0
 905              		.syntax divided
 906              	@ 502 "../../os/kernel/src/chevents.c" 1
 907 0024 1FF021E3 		msr     CPSR_c, #0x1F
 908              	@ 0 "" 2
 909              		.loc 1 504 0
 910              		.arm
 911              		.syntax unified
 912 0028 0600A0E1 		mov	r0, r6
ARM GAS  /tmp/ccyuAmjp.s 			page 17


 913 002c 7080BDE8 		pop	{r4, r5, r6, pc}
 914              	.LVL71:
 915              	.L79:
 916              		.loc 1 493 0
 917 0030 240085E5 		str	r0, [r5, #36]
 918 0034 0040A0E1 		mov	r4, r0
 919              		.loc 1 494 0
 920 0038 0800A0E3 		mov	r0, #8
 921              	.LVL72:
 922 003c FEFFFFEB 		bl	chSchGoSleepTimeoutS
 923              	.LVL73:
 924 0040 000050E3 		cmp	r0, #0
 925 0044 F6FFFFBA 		blt	.L78
 926              		.loc 1 498 0
 927 0048 383095E5 		ldr	r3, [r5, #56]
 928 004c 036004E0 		and	r6, r4, r3
 929              	.LVL74:
 930              	.L73:
 931              		.loc 1 500 0
 932 0050 0630C3E1 		bic	r3, r3, r6
 933 0054 383085E5 		str	r3, [r5, #56]
 934 0058 F1FFFFEA 		b	.L78
 935              	.L81:
 936              		.align	2
 937              	.L80:
 938 005c 00000000 		.word	rlist
 939              		.cfi_endproc
 940              	.LFE22:
 941              		.size	chEvtWaitAnyTimeout, .-chEvtWaitAnyTimeout
 942              		.section	.text.chEvtWaitAllTimeout,"ax",%progbits
 943              		.align	2
 944              		.global	chEvtWaitAllTimeout
 945              		.syntax unified
 946              		.arm
 947              		.fpu softvfp
 948              		.type	chEvtWaitAllTimeout, %function
 949              	chEvtWaitAllTimeout:
 950              	.LFB23:
 951              		.loc 1 523 0
 952              		.cfi_startproc
 953              		@ args = 0, pretend = 0, frame = 0
 954              		@ frame_needed = 0, uses_anonymous_args = 0
 955              	.LVL75:
 956              		.loc 1 524 0
 957 0000 64309FE5 		ldr	r3, .L88
 958              		.loc 1 523 0
 959 0004 70402DE9 		push	{r4, r5, r6, lr}
 960              		.cfi_def_cfa_offset 16
 961              		.cfi_offset 4, -16
 962              		.cfi_offset 5, -12
 963              		.cfi_offset 6, -8
 964              		.cfi_offset 14, -4
 965              		.loc 1 523 0
 966 0008 0040A0E1 		mov	r4, r0
 967              		.loc 1 524 0
 968 000c 185093E5 		ldr	r5, [r3, #24]
 969              	.LVL76:
ARM GAS  /tmp/ccyuAmjp.s 			page 18


 970              		.loc 1 526 0
 971              		.syntax divided
 972              	@ 526 "../../os/kernel/src/chevents.c" 1
 973 0010 9FF021E3 		msr     CPSR_c, #0x9F
 974              	@ 0 "" 2
 975              		.loc 1 528 0
 976              		.arm
 977              		.syntax unified
 978 0014 383095E5 		ldr	r3, [r5, #56]
 979 0018 0320D0E1 		bics	r2, r0, r3
 980 001c 0A00000A 		beq	.L83
 981              		.loc 1 529 0
 982 0020 000051E3 		cmp	r1, #0
 983 0024 0100A0E1 		mov	r0, r1
 984              	.LVL77:
 985 0028 0100001A 		bne	.L84
 986              		.loc 1 530 0
 987              		.syntax divided
 988              	@ 530 "../../os/kernel/src/chevents.c" 1
 989 002c 1FF021E3 		msr     CPSR_c, #0x1F
 990              	@ 0 "" 2
 991              		.loc 1 531 0
 992              		.arm
 993              		.syntax unified
 994 0030 7080BDE8 		pop	{r4, r5, r6, pc}
 995              	.L84:
 996              		.loc 1 533 0
 997 0034 244085E5 		str	r4, [r5, #36]
 998              		.loc 1 534 0
 999 0038 0900A0E3 		mov	r0, #9
 1000 003c FEFFFFEB 		bl	chSchGoSleepTimeoutS
 1001              	.LVL78:
 1002 0040 000050E3 		cmp	r0, #0
 1003 0044 050000BA 		blt	.L86
 1004 0048 383095E5 		ldr	r3, [r5, #56]
 1005              	.L83:
 1006              		.loc 1 539 0
 1007 004c 0430C3E1 		bic	r3, r3, r4
 1008 0050 383085E5 		str	r3, [r5, #56]
 1009              		.loc 1 541 0
 1010              		.syntax divided
 1011              	@ 541 "../../os/kernel/src/chevents.c" 1
 1012 0054 1FF021E3 		msr     CPSR_c, #0x1F
 1013              	@ 0 "" 2
 1014              		.loc 1 542 0
 1015              		.arm
 1016              		.syntax unified
 1017 0058 0400A0E1 		mov	r0, r4
 1018              		.loc 1 543 0
 1019 005c 7080BDE8 		pop	{r4, r5, r6, pc}
 1020              	.L86:
 1021              		.loc 1 535 0
 1022              		.syntax divided
 1023              	@ 535 "../../os/kernel/src/chevents.c" 1
 1024 0060 1FF021E3 		msr     CPSR_c, #0x1F
 1025              	@ 0 "" 2
 1026              		.loc 1 536 0
ARM GAS  /tmp/ccyuAmjp.s 			page 19


 1027              		.arm
 1028              		.syntax unified
 1029 0064 0000A0E3 		mov	r0, #0
 1030 0068 7080BDE8 		pop	{r4, r5, r6, pc}
 1031              	.L89:
 1032              		.align	2
 1033              	.L88:
 1034 006c 00000000 		.word	rlist
 1035              		.cfi_endproc
 1036              	.LFE23:
 1037              		.size	chEvtWaitAllTimeout, .-chEvtWaitAllTimeout
 1038              		.text
 1039              	.Letext0:
 1040              		.file 2 "/usr/include/newlib/machine/_default_types.h"
 1041              		.file 3 "/usr/include/newlib/sys/_stdint.h"
 1042              		.file 4 "../../os/ports/GCC/ARM/chtypes.h"
 1043              		.file 5 "../../os/kernel/include/chlists.h"
 1044              		.file 6 "../../os/kernel/include/chthreads.h"
 1045              		.file 7 "../../os/ports/GCC/ARM/chcore.h"
 1046              		.file 8 "../../os/kernel/include/chvt.h"
 1047              		.file 9 "../../os/kernel/include/chschd.h"
 1048              		.file 10 "../../os/kernel/include/chmtx.h"
 1049              		.file 11 "../../os/kernel/include/chevents.h"
 1050              		.file 12 "../../os/kernel/include/chregistry.h"
 1051              		.file 13 "../../os/kernel/include/ch.h"