ARM GAS  /tmp/ccicEyhj.s 			page 1


   1              		.cpu arm1176jz-s
   2              		.eabi_attribute 20, 1
   3              		.eabi_attribute 21, 1
   4              		.eabi_attribute 23, 3
   5              		.eabi_attribute 24, 1
   6              		.eabi_attribute 25, 1
   7              		.eabi_attribute 26, 1
   8              		.eabi_attribute 30, 2
   9              		.eabi_attribute 34, 1
  10              		.eabi_attribute 18, 4
  11              		.file	"chmsg.c"
  12              		.text
  13              	.Ltext0:
  14              		.cfi_sections	.debug_frame
  15              		.section	.text.chMsgSend,"ax",%progbits
  16              		.align	2
  17              		.global	chMsgSend
  18              		.syntax unified
  19              		.arm
  20              		.fpu softvfp
  21              		.type	chMsgSend, %function
  22              	chMsgSend:
  23              	.LFB7:
  24              		.file 1 "../../os/kernel/src/chmsg.c"
  25              		.loc 1 68 0
  26              		.cfi_startproc
  27              		@ args = 0, pretend = 0, frame = 0
  28              		@ frame_needed = 0, uses_anonymous_args = 0
  29              	.LVL0:
  30              		.loc 1 69 0
  31 0000 50309FE5 		ldr	r3, .L6
  32              		.loc 1 68 0
  33 0004 10402DE9 		push	{r4, lr}
  34              		.cfi_def_cfa_offset 8
  35              		.cfi_offset 4, -8
  36              		.cfi_offset 14, -4
  37              		.loc 1 69 0
  38 0008 184093E5 		ldr	r4, [r3, #24]
  39              	.LVL1:
  40              		.loc 1 73 0
  41              		.syntax divided
  42              	@ 73 "../../os/kernel/src/chmsg.c" 1
  43 000c 9FF021E3 		msr     CPSR_c, #0x9F
  44              	@ 0 "" 2
  45              		.loc 1 75 0
  46              		.arm
  47              		.syntax unified
  48 0010 2CC080E2 		add	ip, r0, #44
  49 0014 24C084E5 		str	ip, [r4, #36]
  50              	.LVL2:
  51              	.LBB6:
  52              	.LBB7:
  53              		.file 2 "../../os/kernel/include/chinline.h"
  54              		.loc 2 48 0
  55 0018 302090E5 		ldr	r2, [r0, #48]
  56              	.LBE7:
  57              	.LBE6:
ARM GAS  /tmp/ccicEyhj.s 			page 2


  58              		.loc 1 74 0
  59 001c 341084E5 		str	r1, [r4, #52]
  60              	.LBB9:
  61              	.LBB8:
  62              		.loc 2 47 0
  63 0020 00C084E5 		str	ip, [r4]
  64              		.loc 2 48 0
  65 0024 042084E5 		str	r2, [r4, #4]
  66              		.loc 2 49 0
  67 0028 304080E5 		str	r4, [r0, #48]
  68 002c 004082E5 		str	r4, [r2]
  69              	.LVL3:
  70              	.LBE8:
  71              	.LBE9:
  72              		.loc 1 77 0
  73 0030 1C30D0E5 		ldrb	r3, [r0, #28]	@ zero_extendqisi2
  74 0034 0C0053E3 		cmp	r3, #12
  75 0038 0400000A 		beq	.L5
  76              	.LVL4:
  77              	.L2:
  78              		.loc 1 79 0
  79 003c 0A00A0E3 		mov	r0, #10
  80 0040 FEFFFFEB 		bl	chSchGoSleepS
  81              	.LVL5:
  82              		.loc 1 80 0
  83 0044 240094E5 		ldr	r0, [r4, #36]
  84              	.LVL6:
  85              		.loc 1 81 0
  86              		.syntax divided
  87              	@ 81 "../../os/kernel/src/chmsg.c" 1
  88 0048 1FF021E3 		msr     CPSR_c, #0x1F
  89              	@ 0 "" 2
  90              		.loc 1 83 0
  91              		.arm
  92              		.syntax unified
  93 004c 1080BDE8 		pop	{r4, pc}
  94              	.LVL7:
  95              	.L5:
  96              		.loc 1 78 0
  97 0050 FEFFFFEB 		bl	chSchReadyI
  98              	.LVL8:
  99 0054 F8FFFFEA 		b	.L2
 100              	.L7:
 101              		.align	2
 102              	.L6:
 103 0058 00000000 		.word	rlist
 104              		.cfi_endproc
 105              	.LFE7:
 106              		.size	chMsgSend, .-chMsgSend
 107              		.section	.text.chMsgWait,"ax",%progbits
 108              		.align	2
 109              		.global	chMsgWait
 110              		.syntax unified
 111              		.arm
 112              		.fpu softvfp
 113              		.type	chMsgWait, %function
 114              	chMsgWait:
ARM GAS  /tmp/ccicEyhj.s 			page 3


 115              	.LFB8:
 116              		.loc 1 99 0
 117              		.cfi_startproc
 118              		@ args = 0, pretend = 0, frame = 0
 119              		@ frame_needed = 0, uses_anonymous_args = 0
 120 0000 10402DE9 		push	{r4, lr}
 121              		.cfi_def_cfa_offset 8
 122              		.cfi_offset 4, -8
 123              		.cfi_offset 14, -4
 124              		.loc 1 102 0
 125              		.syntax divided
 126              	@ 102 "../../os/kernel/src/chmsg.c" 1
 127 0004 9FF021E3 		msr     CPSR_c, #0x9F
 128              	@ 0 "" 2
 129              		.loc 1 103 0
 130              		.arm
 131              		.syntax unified
 132 0008 44409FE5 		ldr	r4, .L12
 133 000c 182094E5 		ldr	r2, [r4, #24]
 134 0010 0230A0E1 		mov	r3, r2
 135 0014 2C00B3E5 		ldr	r0, [r3, #44]!
 136 0018 030050E1 		cmp	r0, r3
 137 001c 0600000A 		beq	.L11
 138              	.L9:
 139              	.LVL9:
 140              		.loc 1 106 0
 141 0020 0BC0A0E3 		mov	ip, #11
 142              	.LBB10:
 143              	.LBB11:
 144              		.loc 2 55 0
 145 0024 001090E5 		ldr	r1, [r0]
 146 0028 2C1082E5 		str	r1, [r2, #44]
 147              	.LVL10:
 148 002c 043081E5 		str	r3, [r1, #4]
 149              	.LVL11:
 150              	.LBE11:
 151              	.LBE10:
 152              		.loc 1 106 0
 153 0030 1CC0C0E5 		strb	ip, [r0, #28]
 154              		.loc 1 107 0
 155              		.syntax divided
 156              	@ 107 "../../os/kernel/src/chmsg.c" 1
 157 0034 1FF021E3 		msr     CPSR_c, #0x1F
 158              	@ 0 "" 2
 159              		.loc 1 109 0
 160              		.arm
 161              		.syntax unified
 162 0038 1080BDE8 		pop	{r4, pc}
 163              	.L11:
 164              		.loc 1 104 0
 165 003c 0C00A0E3 		mov	r0, #12
 166 0040 FEFFFFEB 		bl	chSchGoSleepS
 167              	.LVL12:
 168 0044 182094E5 		ldr	r2, [r4, #24]
 169 0048 2C0092E5 		ldr	r0, [r2, #44]
 170 004c 2C3082E2 		add	r3, r2, #44
 171 0050 F2FFFFEA 		b	.L9
ARM GAS  /tmp/ccicEyhj.s 			page 4


 172              	.L13:
 173              		.align	2
 174              	.L12:
 175 0054 00000000 		.word	rlist
 176              		.cfi_endproc
 177              	.LFE8:
 178              		.size	chMsgWait, .-chMsgWait
 179              		.section	.text.chMsgRelease,"ax",%progbits
 180              		.align	2
 181              		.global	chMsgRelease
 182              		.syntax unified
 183              		.arm
 184              		.fpu softvfp
 185              		.type	chMsgRelease, %function
 186              	chMsgRelease:
 187              	.LFB9:
 188              		.loc 1 121 0
 189              		.cfi_startproc
 190              		@ args = 0, pretend = 0, frame = 0
 191              		@ frame_needed = 0, uses_anonymous_args = 0
 192              	.LVL13:
 193 0000 10402DE9 		push	{r4, lr}
 194              		.cfi_def_cfa_offset 8
 195              		.cfi_offset 4, -8
 196              		.cfi_offset 14, -4
 197              		.loc 1 123 0
 198              		.syntax divided
 199              	@ 123 "../../os/kernel/src/chmsg.c" 1
 200 0004 9FF021E3 		msr     CPSR_c, #0x9F
 201              	@ 0 "" 2
 202              		.loc 1 126 0
 203              		.arm
 204              		.syntax unified
 205 0008 FEFFFFEB 		bl	chSchWakeupS
 206              	.LVL14:
 207              		.loc 1 127 0
 208              		.syntax divided
 209              	@ 127 "../../os/kernel/src/chmsg.c" 1
 210 000c 1FF021E3 		msr     CPSR_c, #0x1F
 211              	@ 0 "" 2
 212              		.arm
 213              		.syntax unified
 214 0010 1080BDE8 		pop	{r4, pc}
 215              		.cfi_endproc
 216              	.LFE9:
 217              		.size	chMsgRelease, .-chMsgRelease
 218              		.text
 219              	.Letext0:
 220              		.file 3 "/usr/include/newlib/machine/_default_types.h"
 221              		.file 4 "/usr/include/newlib/sys/_stdint.h"
 222              		.file 5 "../../os/ports/GCC/ARM/chtypes.h"
 223              		.file 6 "../../os/kernel/include/chlists.h"
 224              		.file 7 "../../os/kernel/include/chthreads.h"
 225              		.file 8 "../../os/ports/GCC/ARM/chcore.h"
 226              		.file 9 "../../os/kernel/include/chvt.h"
 227              		.file 10 "../../os/kernel/include/chschd.h"
 228              		.file 11 "../../os/kernel/include/chmtx.h"
ARM GAS  /tmp/ccicEyhj.s 			page 5


 229              		.file 12 "../../os/kernel/include/chregistry.h"
 230              		.file 13 "../../os/kernel/include/ch.h"