ARM GAS  /tmp/ccvI4bxf.s 			page 1


   1              		.cpu arm1176jz-s
   2              		.eabi_attribute 20, 1
   3              		.eabi_attribute 21, 1
   4              		.eabi_attribute 23, 3
   5              		.eabi_attribute 24, 1
   6              		.eabi_attribute 25, 1
   7              		.eabi_attribute 26, 1
   8              		.eabi_attribute 30, 2
   9              		.eabi_attribute 34, 1
  10              		.eabi_attribute 18, 4
  11              		.file	"chmtx.c"
  12              		.text
  13              	.Ltext0:
  14              		.cfi_sections	.debug_frame
  15              		.section	.text.chMtxInit,"ax",%progbits
  16              		.align	2
  17              		.global	chMtxInit
  18              		.syntax unified
  19              		.arm
  20              		.fpu softvfp
  21              		.type	chMtxInit, %function
  22              	chMtxInit:
  23              	.LFB7:
  24              		.file 1 "../../os/kernel/src/chmtx.c"
  25              		.loc 1 79 0
  26              		.cfi_startproc
  27              		@ args = 0, pretend = 0, frame = 0
  28              		@ frame_needed = 0, uses_anonymous_args = 0
  29              		@ link register save eliminated.
  30              	.LVL0:
  31              		.loc 1 84 0
  32 0000 0030A0E3 		mov	r3, #0
  33              		.loc 1 83 0
  34 0004 040080E5 		str	r0, [r0, #4]
  35 0008 000080E5 		str	r0, [r0]
  36              		.loc 1 84 0
  37 000c 083080E5 		str	r3, [r0, #8]
  38 0010 1EFF2FE1 		bx	lr
  39              		.cfi_endproc
  40              	.LFE7:
  41              		.size	chMtxInit, .-chMtxInit
  42              		.section	.text.chMtxLockS,"ax",%progbits
  43              		.align	2
  44              		.global	chMtxLockS
  45              		.syntax unified
  46              		.arm
  47              		.fpu softvfp
  48              		.type	chMtxLockS, %function
  49              	chMtxLockS:
  50              	.LFB9:
  51              		.loc 1 114 0
  52              		.cfi_startproc
  53              		@ args = 0, pretend = 0, frame = 0
  54              		@ frame_needed = 0, uses_anonymous_args = 0
  55              	.LVL1:
  56              		.loc 1 121 0
  57 0000 082090E5 		ldr	r2, [r0, #8]
ARM GAS  /tmp/ccvI4bxf.s 			page 2


  58              		.loc 1 115 0
  59 0004 68319FE5 		ldr	r3, .L28
  60              		.loc 1 121 0
  61 0008 000052E3 		cmp	r2, #0
  62              		.loc 1 114 0
  63 000c 70402DE9 		push	{r4, r5, r6, lr}
  64              		.cfi_def_cfa_offset 16
  65              		.cfi_offset 4, -16
  66              		.cfi_offset 5, -12
  67              		.cfi_offset 6, -8
  68              		.cfi_offset 14, -4
  69              		.loc 1 115 0
  70 0010 184093E5 		ldr	r4, [r3, #24]
  71              	.LVL2:
  72              		.loc 1 121 0
  73 0014 5100000A 		beq	.L3
  74              	.LBB27:
  75              		.loc 1 128 0
  76 0018 081094E5 		ldr	r1, [r4, #8]
  77 001c 083092E5 		ldr	r3, [r2, #8]
  78 0020 0050A0E1 		mov	r5, r0
  79              	.LVL3:
  80 0024 030051E1 		cmp	r1, r3
  81 0028 0700009A 		bls	.L5
  82              	.LVL4:
  83              	.L10:
  84              		.loc 1 132 0
  85 002c 1C30D2E5 		ldrb	r3, [r2, #28]	@ zero_extendqisi2
  86              		.loc 1 130 0
  87 0030 081082E5 		str	r1, [r2, #8]
  88              		.loc 1 132 0
  89 0034 040053E3 		cmp	r3, #4
  90 0038 2F00000A 		beq	.L6
  91 003c 050053E3 		cmp	r3, #5
  92 0040 1A00000A 		beq	.L7
  93 0044 000053E3 		cmp	r3, #0
  94 0048 1100000A 		beq	.L27
  95              	.LVL5:
  96              	.L5:
  97              		.loc 1 166 0
  98 004c 0530A0E1 		mov	r3, r5
  99 0050 030000EA 		b	.L18
 100              	.LVL6:
 101              	.L17:
 102              	.LBB28:
 103              	.LBB29:
 104              		.file 2 "../../os/kernel/include/chinline.h"
 105              		.loc 2 39 0
 106 0054 081093E5 		ldr	r1, [r3, #8]
 107 0058 082094E5 		ldr	r2, [r4, #8]
 108 005c 020051E1 		cmp	r1, r2
 109 0060 0200003A 		bcc	.L19
 110              	.L18:
 111              		.loc 2 38 0
 112 0064 003093E5 		ldr	r3, [r3]
 113              	.LVL7:
 114              		.loc 2 39 0
ARM GAS  /tmp/ccvI4bxf.s 			page 3


 115 0068 030055E1 		cmp	r5, r3
 116 006c F8FFFF1A 		bne	.L17
 117              	.L19:
 118              		.loc 2 41 0
 119 0070 042093E5 		ldr	r2, [r3, #4]
 120              		.loc 2 40 0
 121 0074 003084E5 		str	r3, [r4]
 122              		.loc 2 41 0
 123 0078 042084E5 		str	r2, [r4, #4]
 124              		.loc 2 42 0
 125 007c 044083E5 		str	r4, [r3, #4]
 126 0080 004082E5 		str	r4, [r2]
 127              	.LVL8:
 128              	.LBE29:
 129              	.LBE28:
 130              		.loc 1 167 0
 131 0084 245084E5 		str	r5, [r4, #36]
 132              		.loc 1 168 0
 133 0088 0400A0E3 		mov	r0, #4
 134              	.LBE27:
 135              		.loc 1 180 0
 136 008c 7040BDE8 		pop	{r4, r5, r6, lr}
 137              		.cfi_remember_state
 138              		.cfi_restore 14
 139              		.cfi_restore 6
 140              		.cfi_restore 5
 141              		.cfi_restore 4
 142              		.cfi_def_cfa_offset 0
 143              	.LVL9:
 144              	.LBB42:
 145              		.loc 1 168 0
 146 0090 FEFFFFEA 		b	chSchGoSleepS
 147              	.LVL10:
 148              	.L27:
 149              		.cfi_restore_state
 150              	.LBB30:
 151              	.LBB31:
 152              		.loc 2 68 0
 153 0094 0A0092E8 		ldm	r2, {r1, r3}
 154 0098 001083E5 		str	r1, [r3]
 155              	.LBE31:
 156              	.LBE30:
 157              		.loc 1 160 0
 158 009c 0200A0E1 		mov	r0, r2
 159              	.LBB33:
 160              	.LBB32:
 161              		.loc 2 69 0
 162 00a0 002092E5 		ldr	r2, [r2]
 163              	.LVL11:
 164 00a4 043082E5 		str	r3, [r2, #4]
 165              	.LVL12:
 166              	.LBE32:
 167              	.LBE33:
 168              		.loc 1 160 0
 169 00a8 FEFFFFEB 		bl	chSchReadyI
 170              	.LVL13:
 171              		.loc 1 161 0
ARM GAS  /tmp/ccvI4bxf.s 			page 4


 172 00ac E6FFFFEA 		b	.L5
 173              	.LVL14:
 174              	.L7:
 175              	.LBB34:
 176              	.LBB35:
 177              		.loc 2 68 0
 178 00b0 090092E8 		ldm	r2, {r0, r3}
 179 00b4 000083E5 		str	r0, [r3]
 180              		.loc 2 69 0
 181 00b8 000092E5 		ldr	r0, [r2]
 182 00bc 043080E5 		str	r3, [r0, #4]
 183              	.LVL15:
 184              	.LBE35:
 185              	.LBE34:
 186              		.loc 1 151 0
 187 00c0 24C092E5 		ldr	ip, [r2, #36]
 188              	.LVL16:
 189 00c4 0C30A0E1 		mov	r3, ip
 190 00c8 020000EA 		b	.L15
 191              	.LVL17:
 192              	.L14:
 193              	.LBB36:
 194              	.LBB37:
 195              		.loc 2 39 0
 196 00cc 080093E5 		ldr	r0, [r3, #8]
 197 00d0 010050E1 		cmp	r0, r1
 198 00d4 0200003A 		bcc	.L16
 199              	.LVL18:
 200              	.L15:
 201              		.loc 2 38 0
 202 00d8 003093E5 		ldr	r3, [r3]
 203              	.LVL19:
 204              		.loc 2 39 0
 205 00dc 03005CE1 		cmp	ip, r3
 206 00e0 F9FFFF1A 		bne	.L14
 207              	.L16:
 208              		.loc 2 41 0
 209 00e4 041093E5 		ldr	r1, [r3, #4]
 210              		.loc 2 40 0
 211 00e8 003082E5 		str	r3, [r2]
 212              		.loc 2 41 0
 213 00ec 041082E5 		str	r1, [r2, #4]
 214              		.loc 2 42 0
 215 00f0 042083E5 		str	r2, [r3, #4]
 216 00f4 002081E5 		str	r2, [r1]
 217 00f8 D3FFFFEA 		b	.L5
 218              	.LVL20:
 219              	.L6:
 220              	.LBE37:
 221              	.LBE36:
 222              	.LBB38:
 223              	.LBB39:
 224              		.loc 2 68 0
 225 00fc 090092E8 		ldm	r2, {r0, r3}
 226 0100 000083E5 		str	r0, [r3]
 227              		.loc 2 69 0
 228 0104 000092E5 		ldr	r0, [r2]
ARM GAS  /tmp/ccvI4bxf.s 			page 5


 229 0108 043080E5 		str	r3, [r0, #4]
 230              	.LVL21:
 231              	.LBE39:
 232              	.LBE38:
 233              		.loc 1 135 0
 234 010c 24C092E5 		ldr	ip, [r2, #36]
 235              	.LVL22:
 236 0110 0C30A0E1 		mov	r3, ip
 237 0114 020000EA 		b	.L12
 238              	.LVL23:
 239              	.L9:
 240              	.LBB40:
 241              	.LBB41:
 242              		.loc 2 39 0
 243 0118 080093E5 		ldr	r0, [r3, #8]
 244 011c 010050E1 		cmp	r0, r1
 245 0120 0300003A 		bcc	.L13
 246              	.LVL24:
 247              	.L12:
 248              		.loc 2 38 0
 249 0124 003093E5 		ldr	r3, [r3]
 250              	.LVL25:
 251              		.loc 2 39 0
 252 0128 03005CE1 		cmp	ip, r3
 253 012c F9FFFF1A 		bne	.L9
 254 0130 0C30A0E1 		mov	r3, ip
 255              	.LVL26:
 256              	.L13:
 257              		.loc 2 41 0
 258 0134 041093E5 		ldr	r1, [r3, #4]
 259              		.loc 2 40 0
 260 0138 003082E5 		str	r3, [r2]
 261              		.loc 2 41 0
 262 013c 041082E5 		str	r1, [r2, #4]
 263              		.loc 2 42 0
 264 0140 042083E5 		str	r2, [r3, #4]
 265 0144 002081E5 		str	r2, [r1]
 266              	.LVL27:
 267              	.LBE41:
 268              	.LBE40:
 269              		.loc 1 136 0
 270 0148 08209CE5 		ldr	r2, [ip, #8]
 271              	.LVL28:
 272              		.loc 1 128 0
 273 014c 081094E5 		ldr	r1, [r4, #8]
 274 0150 083092E5 		ldr	r3, [r2, #8]
 275 0154 010053E1 		cmp	r3, r1
 276 0158 B3FFFF3A 		bcc	.L10
 277 015c BAFFFFEA 		b	.L5
 278              	.LVL29:
 279              	.L3:
 280              	.LBE42:
 281              		.loc 1 177 0
 282 0160 3C3094E5 		ldr	r3, [r4, #60]
 283              		.loc 1 176 0
 284 0164 084080E5 		str	r4, [r0, #8]
 285              		.loc 1 177 0
ARM GAS  /tmp/ccvI4bxf.s 			page 6


 286 0168 0C3080E5 		str	r3, [r0, #12]
 287              		.loc 1 178 0
 288 016c 3C0084E5 		str	r0, [r4, #60]
 289 0170 7080BDE8 		pop	{r4, r5, r6, pc}
 290              	.L29:
 291              		.align	2
 292              	.L28:
 293 0174 00000000 		.word	rlist
 294              		.cfi_endproc
 295              	.LFE9:
 296              		.size	chMtxLockS, .-chMtxLockS
 297              		.section	.text.chMtxLock,"ax",%progbits
 298              		.align	2
 299              		.global	chMtxLock
 300              		.syntax unified
 301              		.arm
 302              		.fpu softvfp
 303              		.type	chMtxLock, %function
 304              	chMtxLock:
 305              	.LFB8:
 306              		.loc 1 96 0
 307              		.cfi_startproc
 308              		@ args = 0, pretend = 0, frame = 0
 309              		@ frame_needed = 0, uses_anonymous_args = 0
 310              	.LVL30:
 311 0000 10402DE9 		push	{r4, lr}
 312              		.cfi_def_cfa_offset 8
 313              		.cfi_offset 4, -8
 314              		.cfi_offset 14, -4
 315              		.loc 1 98 0
 316              		.syntax divided
 317              	@ 98 "../../os/kernel/src/chmtx.c" 1
 318 0004 9FF021E3 		msr     CPSR_c, #0x9F
 319              	@ 0 "" 2
 320              		.loc 1 100 0
 321              		.arm
 322              		.syntax unified
 323 0008 FEFFFFEB 		bl	chMtxLockS
 324              	.LVL31:
 325              		.loc 1 102 0
 326              		.syntax divided
 327              	@ 102 "../../os/kernel/src/chmtx.c" 1
 328 000c 1FF021E3 		msr     CPSR_c, #0x1F
 329              	@ 0 "" 2
 330              		.arm
 331              		.syntax unified
 332 0010 1080BDE8 		pop	{r4, pc}
 333              		.cfi_endproc
 334              	.LFE8:
 335              		.size	chMtxLock, .-chMtxLock
 336              		.section	.text.chMtxTryLock,"ax",%progbits
 337              		.align	2
 338              		.global	chMtxTryLock
 339              		.syntax unified
 340              		.arm
 341              		.fpu softvfp
 342              		.type	chMtxTryLock, %function
ARM GAS  /tmp/ccvI4bxf.s 			page 7


 343              	chMtxTryLock:
 344              	.LFB10:
 345              		.loc 1 199 0
 346              		.cfi_startproc
 347              		@ args = 0, pretend = 0, frame = 0
 348              		@ frame_needed = 0, uses_anonymous_args = 0
 349              		@ link register save eliminated.
 350              	.LVL32:
 351              		.loc 1 199 0
 352 0000 0030A0E1 		mov	r3, r0
 353              		.loc 1 202 0
 354              		.syntax divided
 355              	@ 202 "../../os/kernel/src/chmtx.c" 1
 356 0004 9FF021E3 		msr     CPSR_c, #0x9F
 357              	@ 0 "" 2
 358              	.LVL33:
 359              		.arm
 360              		.syntax unified
 361              	.LBB47:
 362              	.LBB48:
 363              		.loc 1 232 0
 364 0008 082090E5 		ldr	r2, [r0, #8]
 365 000c 000052E3 		cmp	r2, #0
 366              	.LVL34:
 367              	.LBB49:
 368              	.LBB50:
 369              		.loc 1 234 0
 370 0010 20209F05 		ldreq	r2, .L35
 371              		.loc 1 236 0
 372 0014 0100A003 		moveq	r0, #1
 373              	.LVL35:
 374              		.loc 1 234 0
 375 0018 18209205 		ldreq	r2, [r2, #24]
 376              	.LBE50:
 377              	.LBE49:
 378              		.loc 1 233 0
 379 001c 0000A013 		movne	r0, #0
 380              	.LBB52:
 381              	.LBB51:
 382              		.loc 1 235 0
 383 0020 3C109205 		ldreq	r1, [r2, #60]
 384              		.loc 1 234 0
 385 0024 08208305 		streq	r2, [r3, #8]
 386              		.loc 1 235 0
 387 0028 0C108305 		streq	r1, [r3, #12]
 388              		.loc 1 236 0
 389 002c 3C308205 		streq	r3, [r2, #60]
 390              	.LVL36:
 391              	.LBE51:
 392              	.LBE52:
 393              	.LBE48:
 394              	.LBE47:
 395              		.loc 1 206 0
 396              		.syntax divided
 397              	@ 206 "../../os/kernel/src/chmtx.c" 1
 398 0030 1FF021E3 		msr     CPSR_c, #0x1F
 399              	@ 0 "" 2
ARM GAS  /tmp/ccvI4bxf.s 			page 8


 400              		.loc 1 208 0
 401              		.arm
 402              		.syntax unified
 403 0034 1EFF2FE1 		bx	lr
 404              	.L36:
 405              		.align	2
 406              	.L35:
 407 0038 00000000 		.word	rlist
 408              		.cfi_endproc
 409              	.LFE10:
 410              		.size	chMtxTryLock, .-chMtxTryLock
 411              		.section	.text.chMtxTryLockS,"ax",%progbits
 412              		.align	2
 413              		.global	chMtxTryLockS
 414              		.syntax unified
 415              		.arm
 416              		.fpu softvfp
 417              		.type	chMtxTryLockS, %function
 418              	chMtxTryLockS:
 419              	.LFB11:
 420              		.loc 1 227 0
 421              		.cfi_startproc
 422              		@ args = 0, pretend = 0, frame = 0
 423              		@ frame_needed = 0, uses_anonymous_args = 0
 424              		@ link register save eliminated.
 425              	.LVL37:
 426              		.loc 1 227 0
 427 0000 0030A0E1 		mov	r3, r0
 428              		.loc 1 232 0
 429 0004 082090E5 		ldr	r2, [r0, #8]
 430 0008 000052E3 		cmp	r2, #0
 431              	.LVL38:
 432              	.LBB55:
 433              	.LBB56:
 434              		.loc 1 234 0
 435 000c 1C209F05 		ldreq	r2, .L40
 436              		.loc 1 236 0
 437 0010 0100A003 		moveq	r0, #1
 438              	.LVL39:
 439              		.loc 1 234 0
 440 0014 18209205 		ldreq	r2, [r2, #24]
 441              	.LBE56:
 442              	.LBE55:
 443              		.loc 1 233 0
 444 0018 0000A013 		movne	r0, #0
 445              	.LBB58:
 446              	.LBB57:
 447              		.loc 1 235 0
 448 001c 3C109205 		ldreq	r1, [r2, #60]
 449              		.loc 1 234 0
 450 0020 08208305 		streq	r2, [r3, #8]
 451              		.loc 1 235 0
 452 0024 0C108305 		streq	r1, [r3, #12]
 453              		.loc 1 236 0
 454 0028 3C308205 		streq	r3, [r2, #60]
 455              	.LVL40:
 456              	.LBE57:
ARM GAS  /tmp/ccvI4bxf.s 			page 9


 457              	.LBE58:
 458              		.loc 1 238 0
 459 002c 1EFF2FE1 		bx	lr
 460              	.L41:
 461              		.align	2
 462              	.L40:
 463 0030 00000000 		.word	rlist
 464              		.cfi_endproc
 465              	.LFE11:
 466              		.size	chMtxTryLockS, .-chMtxTryLockS
 467              		.section	.text.chMtxUnlock,"ax",%progbits
 468              		.align	2
 469              		.global	chMtxUnlock
 470              		.syntax unified
 471              		.arm
 472              		.fpu softvfp
 473              		.type	chMtxUnlock, %function
 474              	chMtxUnlock:
 475              	.LFB12:
 476              		.loc 1 250 0
 477              		.cfi_startproc
 478              		@ args = 0, pretend = 0, frame = 0
 479              		@ frame_needed = 0, uses_anonymous_args = 0
 480              		.loc 1 251 0
 481 0000 94309FE5 		ldr	r3, .L53
 482              		.loc 1 250 0
 483 0004 10402DE9 		push	{r4, lr}
 484              		.cfi_def_cfa_offset 8
 485              		.cfi_offset 4, -8
 486              		.cfi_offset 14, -4
 487              		.loc 1 251 0
 488 0008 180093E5 		ldr	r0, [r3, #24]
 489              	.LVL41:
 490              		.loc 1 254 0
 491              		.syntax divided
 492              	@ 254 "../../os/kernel/src/chmtx.c" 1
 493 000c 9FF021E3 		msr     CPSR_c, #0x9F
 494              	@ 0 "" 2
 495              		.loc 1 255 0
 496              		.arm
 497              		.syntax unified
 498 0010 3C4090E5 		ldr	r4, [r0, #60]
 499              	.LVL42:
 500              		.loc 1 266 0
 501 0014 00C094E5 		ldr	ip, [r4]
 502              		.loc 1 264 0
 503 0018 0C3094E5 		ldr	r3, [r4, #12]
 504              		.loc 1 266 0
 505 001c 04005CE1 		cmp	ip, r4
 506              		.loc 1 264 0
 507 0020 3C3080E5 		str	r3, [r0, #60]
 508              		.loc 1 266 0
 509 0024 1900000A 		beq	.L43
 510              	.LBB59:
 511              		.loc 1 273 0
 512 0028 000053E3 		cmp	r3, #0
 513              		.loc 1 271 0
ARM GAS  /tmp/ccvI4bxf.s 			page 10


 514 002c 401090E5 		ldr	r1, [r0, #64]
 515              	.LVL43:
 516              		.loc 1 273 0
 517 0030 0800000A 		beq	.L44
 518              	.L46:
 519              		.loc 1 277 0
 520 0034 002093E5 		ldr	r2, [r3]
 521 0038 030052E1 		cmp	r2, r3
 522 003c 0200000A 		beq	.L45
 523 0040 082092E5 		ldr	r2, [r2, #8]
 524 0044 020051E1 		cmp	r1, r2
 525 0048 0210A031 		movcc	r1, r2
 526              	.LVL44:
 527              	.L45:
 528              		.loc 1 279 0
 529 004c 0C3093E5 		ldr	r3, [r3, #12]
 530              	.LVL45:
 531              		.loc 1 273 0
 532 0050 000053E3 		cmp	r3, #0
 533 0054 F6FFFF1A 		bne	.L46
 534              	.L44:
 535              		.loc 1 288 0
 536 0058 3C209CE5 		ldr	r2, [ip, #60]
 537              	.LBB60:
 538              	.LBB61:
 539              		.loc 2 55 0
 540 005c 00309CE5 		ldr	r3, [ip]
 541              	.LVL46:
 542              	.LBE61:
 543              	.LBE60:
 544              		.loc 1 283 0
 545 0060 081080E5 		str	r1, [r0, #8]
 546              	.LVL47:
 547              	.LBB64:
 548              	.LBB62:
 549              		.loc 2 55 0
 550 0064 003084E5 		str	r3, [r4]
 551              	.LBE62:
 552              	.LBE64:
 553              		.loc 1 290 0
 554 0068 0C00A0E1 		mov	r0, ip
 555              	.LVL48:
 556              	.LBB65:
 557              	.LBB63:
 558              		.loc 2 55 0
 559 006c 044083E5 		str	r4, [r3, #4]
 560              	.LVL49:
 561              	.LBE63:
 562              	.LBE65:
 563              		.loc 1 290 0
 564 0070 0010A0E3 		mov	r1, #0
 565              	.LVL50:
 566              		.loc 1 287 0
 567 0074 08C084E5 		str	ip, [r4, #8]
 568              		.loc 1 288 0
 569 0078 0C2084E5 		str	r2, [r4, #12]
 570              		.loc 1 289 0
ARM GAS  /tmp/ccvI4bxf.s 			page 11


 571 007c 3C408CE5 		str	r4, [ip, #60]
 572              		.loc 1 290 0
 573 0080 FEFFFFEB 		bl	chSchWakeupS
 574              	.LVL51:
 575              	.L47:
 576              	.LBE59:
 577              		.loc 1 294 0
 578              		.syntax divided
 579              	@ 294 "../../os/kernel/src/chmtx.c" 1
 580 0084 1FF021E3 		msr     CPSR_c, #0x1F
 581              	@ 0 "" 2
 582              		.loc 1 296 0
 583              		.arm
 584              		.syntax unified
 585 0088 0400A0E1 		mov	r0, r4
 586 008c 1080BDE8 		pop	{r4, pc}
 587              	.LVL52:
 588              	.L43:
 589              		.loc 1 293 0
 590 0090 0030A0E3 		mov	r3, #0
 591 0094 083084E5 		str	r3, [r4, #8]
 592 0098 F9FFFFEA 		b	.L47
 593              	.L54:
 594              		.align	2
 595              	.L53:
 596 009c 00000000 		.word	rlist
 597              		.cfi_endproc
 598              	.LFE12:
 599              		.size	chMtxUnlock, .-chMtxUnlock
 600              		.section	.text.chMtxUnlockS,"ax",%progbits
 601              		.align	2
 602              		.global	chMtxUnlockS
 603              		.syntax unified
 604              		.arm
 605              		.fpu softvfp
 606              		.type	chMtxUnlockS, %function
 607              	chMtxUnlockS:
 608              	.LFB13:
 609              		.loc 1 310 0
 610              		.cfi_startproc
 611              		@ args = 0, pretend = 0, frame = 0
 612              		@ frame_needed = 0, uses_anonymous_args = 0
 613              		.loc 1 311 0
 614 0000 8C309FE5 		ldr	r3, .L66
 615              		.loc 1 310 0
 616 0004 10402DE9 		push	{r4, lr}
 617              		.cfi_def_cfa_offset 8
 618              		.cfi_offset 4, -8
 619              		.cfi_offset 14, -4
 620              		.loc 1 311 0
 621 0008 180093E5 		ldr	r0, [r3, #24]
 622              	.LVL53:
 623              		.loc 1 315 0
 624 000c 3C4090E5 		ldr	r4, [r0, #60]
 625              	.LVL54:
 626              		.loc 1 327 0
 627 0010 00C094E5 		ldr	ip, [r4]
ARM GAS  /tmp/ccvI4bxf.s 			page 12


 628              		.loc 1 325 0
 629 0014 0C3094E5 		ldr	r3, [r4, #12]
 630              		.loc 1 327 0
 631 0018 04005CE1 		cmp	ip, r4
 632              		.loc 1 325 0
 633 001c 3C3080E5 		str	r3, [r0, #60]
 634              		.loc 1 327 0
 635 0020 1700000A 		beq	.L56
 636              	.LBB66:
 637              		.loc 1 334 0
 638 0024 000053E3 		cmp	r3, #0
 639              		.loc 1 332 0
 640 0028 401090E5 		ldr	r1, [r0, #64]
 641              	.LVL55:
 642              		.loc 1 334 0
 643 002c 0800000A 		beq	.L57
 644              	.L59:
 645              		.loc 1 338 0
 646 0030 002093E5 		ldr	r2, [r3]
 647 0034 030052E1 		cmp	r2, r3
 648 0038 0200000A 		beq	.L58
 649 003c 082092E5 		ldr	r2, [r2, #8]
 650 0040 020051E1 		cmp	r1, r2
 651 0044 0210A031 		movcc	r1, r2
 652              	.LVL56:
 653              	.L58:
 654              		.loc 1 340 0
 655 0048 0C3093E5 		ldr	r3, [r3, #12]
 656              	.LVL57:
 657              		.loc 1 334 0
 658 004c 000053E3 		cmp	r3, #0
 659 0050 F6FFFF1A 		bne	.L59
 660              	.L57:
 661              		.loc 1 347 0
 662 0054 3C209CE5 		ldr	r2, [ip, #60]
 663              	.LBB67:
 664              	.LBB68:
 665              		.loc 2 55 0
 666 0058 00309CE5 		ldr	r3, [ip]
 667              	.LVL58:
 668              	.LBE68:
 669              	.LBE67:
 670              		.loc 1 342 0
 671 005c 081080E5 		str	r1, [r0, #8]
 672              	.LVL59:
 673              	.LBB71:
 674              	.LBB69:
 675              		.loc 2 55 0
 676 0060 003084E5 		str	r3, [r4]
 677              	.LBE69:
 678              	.LBE71:
 679              		.loc 1 349 0
 680 0064 0C00A0E1 		mov	r0, ip
 681              	.LVL60:
 682              	.LBB72:
 683              	.LBB70:
 684              		.loc 2 55 0
ARM GAS  /tmp/ccvI4bxf.s 			page 13


 685 0068 044083E5 		str	r4, [r3, #4]
 686              	.LVL61:
 687              	.LBE70:
 688              	.LBE72:
 689              		.loc 1 346 0
 690 006c 08C084E5 		str	ip, [r4, #8]
 691              		.loc 1 347 0
 692 0070 0C2084E5 		str	r2, [r4, #12]
 693              		.loc 1 348 0
 694 0074 3C408CE5 		str	r4, [ip, #60]
 695              		.loc 1 349 0
 696 0078 FEFFFFEB 		bl	chSchReadyI
 697              	.LVL62:
 698              	.LBE66:
 699              		.loc 1 354 0
 700 007c 0400A0E1 		mov	r0, r4
 701 0080 1080BDE8 		pop	{r4, pc}
 702              	.LVL63:
 703              	.L56:
 704              		.loc 1 352 0
 705 0084 0030A0E3 		mov	r3, #0
 706              		.loc 1 354 0
 707 0088 0400A0E1 		mov	r0, r4
 708              	.LVL64:
 709              		.loc 1 352 0
 710 008c 083084E5 		str	r3, [r4, #8]
 711              		.loc 1 354 0
 712 0090 1080BDE8 		pop	{r4, pc}
 713              	.L67:
 714              		.align	2
 715              	.L66:
 716 0094 00000000 		.word	rlist
 717              		.cfi_endproc
 718              	.LFE13:
 719              		.size	chMtxUnlockS, .-chMtxUnlockS
 720              		.section	.text.chMtxUnlockAll,"ax",%progbits
 721              		.align	2
 722              		.global	chMtxUnlockAll
 723              		.syntax unified
 724              		.arm
 725              		.fpu softvfp
 726              		.type	chMtxUnlockAll, %function
 727              	chMtxUnlockAll:
 728              	.LFB14:
 729              		.loc 1 367 0
 730              		.cfi_startproc
 731              		@ args = 0, pretend = 0, frame = 0
 732              		@ frame_needed = 0, uses_anonymous_args = 0
 733              		.loc 1 368 0
 734 0000 84309FE5 		ldr	r3, .L80
 735              		.loc 1 367 0
 736 0004 70402DE9 		push	{r4, r5, r6, lr}
 737              		.cfi_def_cfa_offset 16
 738              		.cfi_offset 4, -16
 739              		.cfi_offset 5, -12
 740              		.cfi_offset 6, -8
 741              		.cfi_offset 14, -4
ARM GAS  /tmp/ccvI4bxf.s 			page 14


 742              		.loc 1 368 0
 743 0008 184093E5 		ldr	r4, [r3, #24]
 744              	.LVL65:
 745              		.loc 1 370 0
 746              		.syntax divided
 747              	@ 370 "../../os/kernel/src/chmtx.c" 1
 748 000c 9FF021E3 		msr     CPSR_c, #0x9F
 749              	@ 0 "" 2
 750              		.loc 1 371 0
 751              		.arm
 752              		.syntax unified
 753 0010 3C3094E5 		ldr	r3, [r4, #60]
 754 0014 000053E3 		cmp	r3, #0
 755 0018 1900000A 		beq	.L69
 756              	.LBB73:
 757              		.loc 1 383 0
 758 001c 0050A0E3 		mov	r5, #0
 759 0020 0B0000EA 		b	.L72
 760              	.LVL66:
 761              	.L79:
 762              	.LBB74:
 763              		.loc 1 378 0
 764 0024 3CC092E5 		ldr	ip, [r2, #60]
 765              	.LBB75:
 766              	.LBB76:
 767              		.loc 2 55 0
 768 0028 001092E5 		ldr	r1, [r2]
 769              	.LBE76:
 770              	.LBE75:
 771              		.loc 1 380 0
 772 002c 0200A0E1 		mov	r0, r2
 773              	.LBB78:
 774              	.LBB77:
 775              		.loc 2 55 0
 776 0030 001083E5 		str	r1, [r3]
 777 0034 043081E5 		str	r3, [r1, #4]
 778              	.LVL67:
 779              	.LBE77:
 780              	.LBE78:
 781              		.loc 1 377 0
 782 0038 082083E5 		str	r2, [r3, #8]
 783              		.loc 1 378 0
 784 003c 0CC083E5 		str	ip, [r3, #12]
 785              		.loc 1 379 0
 786 0040 3C3082E5 		str	r3, [r2, #60]
 787              		.loc 1 380 0
 788 0044 FEFFFFEB 		bl	chSchReadyI
 789              	.LVL68:
 790 0048 3C3094E5 		ldr	r3, [r4, #60]
 791              	.LBE74:
 792              	.LBE73:
 793              		.loc 1 384 0
 794 004c 000053E3 		cmp	r3, #0
 795 0050 0800000A 		beq	.L78
 796              	.L72:
 797              	.LVL69:
 798              	.LBB79:
ARM GAS  /tmp/ccvI4bxf.s 			page 15


 799              		.loc 1 375 0
 800 0054 002093E5 		ldr	r2, [r3]
 801              	.LVL70:
 802              		.loc 1 374 0
 803 0058 0C1093E5 		ldr	r1, [r3, #12]
 804              		.loc 1 375 0
 805 005c 030052E1 		cmp	r2, r3
 806              		.loc 1 374 0
 807 0060 3C1084E5 		str	r1, [r4, #60]
 808              	.LVL71:
 809              		.loc 1 375 0
 810 0064 EEFFFF1A 		bne	.L79
 811              		.loc 1 383 0
 812 0068 085083E5 		str	r5, [r3, #8]
 813 006c 0130A0E1 		mov	r3, r1
 814              	.LVL72:
 815              	.LBE79:
 816              		.loc 1 384 0
 817 0070 000053E3 		cmp	r3, #0
 818 0074 F6FFFF1A 		bne	.L72
 819              	.LVL73:
 820              	.L78:
 821              		.loc 1 385 0
 822 0078 403094E5 		ldr	r3, [r4, #64]
 823 007c 083084E5 		str	r3, [r4, #8]
 824              		.loc 1 386 0
 825 0080 FEFFFFEB 		bl	chSchRescheduleS
 826              	.LVL74:
 827              	.L69:
 828              		.loc 1 388 0
 829              		.syntax divided
 830              	@ 388 "../../os/kernel/src/chmtx.c" 1
 831 0084 1FF021E3 		msr     CPSR_c, #0x1F
 832              	@ 0 "" 2
 833              		.arm
 834              		.syntax unified
 835 0088 7080BDE8 		pop	{r4, r5, r6, pc}
 836              	.L81:
 837              		.align	2
 838              	.L80:
 839 008c 00000000 		.word	rlist
 840              		.cfi_endproc
 841              	.LFE14:
 842              		.size	chMtxUnlockAll, .-chMtxUnlockAll
 843              		.text
 844              	.Letext0:
 845              		.file 3 "/usr/include/newlib/machine/_default_types.h"
 846              		.file 4 "/usr/include/newlib/sys/_stdint.h"
 847              		.file 5 "../../os/ports/GCC/ARM/chtypes.h"
 848              		.file 6 "../../os/kernel/include/chlists.h"
 849              		.file 7 "../../os/kernel/include/chthreads.h"
 850              		.file 8 "../../os/ports/GCC/ARM/chcore.h"
 851              		.file 9 "../../os/kernel/include/chvt.h"
 852              		.file 10 "../../os/kernel/include/chschd.h"
 853              		.file 11 "../../os/kernel/include/chmtx.h"
 854              		.file 12 "../../os/kernel/include/chregistry.h"
 855              		.file 13 "../../os/kernel/include/ch.h"
ARM GAS  /tmp/ccvI4bxf.s 			page 16

