ARM GAS  /tmp/ccEnej6L.s 			page 1


   1              		.cpu arm1176jz-s
   2              		.eabi_attribute 20, 1
   3              		.eabi_attribute 21, 1
   4              		.eabi_attribute 23, 3
   5              		.eabi_attribute 24, 1
   6              		.eabi_attribute 25, 1
   7              		.eabi_attribute 26, 1
   8              		.eabi_attribute 30, 2
   9              		.eabi_attribute 34, 1
  10              		.eabi_attribute 18, 4
  11              		.file	"chprintf.c"
  12              		.text
  13              	.Ltext0:
  14              		.cfi_sections	.debug_frame
  15              		.global	__aeabi_d2f
  16              		.global	__aeabi_fcmplt
  17              		.global	__aeabi_f2d
  18              		.global	__aeabi_f2iz
  19              		.global	__aeabi_i2d
  20              		.global	__aeabi_dsub
  21              		.global	__aeabi_dmul
  22              		.global	__aeabi_d2iz
  23              		.global	__aeabi_uidivmod
  24              		.global	__aeabi_uidiv
  25              		.section	.text.chprintf,"ax",%progbits
  26              		.align	2
  27              		.global	chprintf
  28              		.syntax unified
  29              		.arm
  30              		.fpu softvfp
  31              		.type	chprintf, %function
  32              	chprintf:
  33              	.LFB10:
  34              		.file 1 "../../os/various/chprintf.c"
  35              		.loc 1 112 0
  36              		.cfi_startproc
  37              		@ args = 4, pretend = 12, frame = 48
  38              		@ frame_needed = 0, uses_anonymous_args = 1
  39              	.LVL0:
  40 0000 0E002DE9 		push	{r1, r2, r3}
  41              		.cfi_def_cfa_offset 12
  42              		.cfi_offset 1, -12
  43              		.cfi_offset 2, -8
  44              		.cfi_offset 3, -4
  45 0004 F04F2DE9 		push	{r4, r5, r6, r7, r8, r9, r10, fp, lr}
  46              		.cfi_def_cfa_offset 48
  47              		.cfi_offset 4, -48
  48              		.cfi_offset 5, -44
  49              		.cfi_offset 6, -40
  50              		.cfi_offset 7, -36
  51              		.cfi_offset 8, -32
  52              		.cfi_offset 9, -28
  53              		.cfi_offset 10, -24
  54              		.cfi_offset 11, -20
  55              		.cfi_offset 14, -16
  56 0008 0050A0E1 		mov	r5, r0
  57              		.loc 1 154 0
ARM GAS  /tmp/ccEnej6L.s 			page 2


  58 000c 0190A0E3 		mov	r9, #1
  59              		.loc 1 112 0
  60 0010 30D04DE2 		sub	sp, sp, #48
  61              		.cfi_def_cfa_offset 96
  62              		.loc 1 125 0
  63 0014 58308DE2 		add	r3, sp, #88
  64              		.loc 1 112 0
  65 0018 54A09DE5 		ldr	r10, [sp, #84]
  66              		.loc 1 125 0
  67 001c 14308DE5 		str	r3, [sp, #20]
  68              	.LVL1:
  69              	.L2:
  70              		.loc 1 127 0
  71 0020 0010DAE5 		ldrb	r1, [r10]	@ zero_extendqisi2
  72 0024 01308AE2 		add	r3, r10, #1
  73              	.LVL2:
  74              		.loc 1 128 0
  75 0028 000051E3 		cmp	r1, #0
  76 002c 0A00000A 		beq	.L109
  77              	.L123:
  78              		.loc 1 132 0
  79 0030 250051E3 		cmp	r1, #37
  80 0034 0C00000A 		beq	.L4
  81              		.loc 1 127 0
  82 0038 03A0A0E1 		mov	r10, r3
  83              		.loc 1 133 0
  84 003c 002095E5 		ldr	r2, [r5]
  85 0040 0500A0E1 		mov	r0, r5
  86 0044 082092E5 		ldr	r2, [r2, #8]
  87 0048 32FF2FE1 		blx	r2
  88              	.LVL3:
  89              		.loc 1 127 0
  90 004c 0010DAE5 		ldrb	r1, [r10]	@ zero_extendqisi2
  91 0050 01308AE2 		add	r3, r10, #1
  92              	.LVL4:
  93              		.loc 1 128 0
  94 0054 000051E3 		cmp	r1, #0
  95 0058 F4FFFF1A 		bne	.L123
  96              	.L109:
  97              		.loc 1 263 0
  98 005c 30D08DE2 		add	sp, sp, #48
  99              		.cfi_remember_state
 100              		.cfi_def_cfa_offset 48
 101              		@ sp needed
 102 0060 F04FBDE8 		pop	{r4, r5, r6, r7, r8, r9, r10, fp, lr}
 103              		.cfi_restore 14
 104              		.cfi_restore 11
 105              		.cfi_restore 10
 106              		.cfi_restore 9
 107              		.cfi_restore 8
 108              		.cfi_restore 7
 109              		.cfi_restore 6
 110              		.cfi_restore 5
 111              		.cfi_restore 4
 112              		.cfi_def_cfa_offset 12
 113              	.LVL5:
 114 0064 0CD08DE2 		add	sp, sp, #12
ARM GAS  /tmp/ccEnej6L.s 			page 3


 115              		.cfi_restore 3
 116              		.cfi_restore 2
 117              		.cfi_restore 1
 118              		.cfi_def_cfa_offset 0
 119 0068 1EFF2FE1 		bx	lr
 120              	.LVL6:
 121              	.L4:
 122              		.cfi_restore_state
 123              		.loc 1 139 0
 124 006c 0120DAE5 		ldrb	r2, [r10, #1]	@ zero_extendqisi2
 125              		.loc 1 146 0
 126 0070 00E0A0E3 		mov	lr, #0
 127              		.loc 1 139 0
 128 0074 2D0052E3 		cmp	r2, #45
 129              		.loc 1 138 0
 130 0078 0010A013 		movne	r1, #0
 131              	.LVL7:
 132 007c 0220DA05 		ldrbeq	r2, [r10, #2]	@ zero_extendqisi2
 133              		.loc 1 140 0
 134 0080 02308A02 		addeq	r3, r10, #2
 135              	.LVL8:
 136              		.loc 1 138 0
 137 0084 04108D15 		strne	r1, [sp, #4]
 138              	.LVL9:
 139              		.loc 1 141 0
 140 0088 04908D05 		streq	r9, [sp, #4]
 141              	.LVL10:
 142              		.loc 1 144 0
 143 008c 2E0052E3 		cmp	r2, #46
 144 0090 0120D305 		ldrbeq	r2, [r3, #1]	@ zero_extendqisi2
 145              		.loc 1 145 0
 146 0094 01308302 		addeq	r3, r3, #1
 147              	.LVL11:
 148              		.loc 1 146 0
 149 0098 3080A003 		moveq	r8, #48
 150              		.loc 1 143 0
 151 009c 2080A013 		movne	r8, #32
 152              	.LVL12:
 153              		.loc 1 148 0
 154 00a0 0E40A0E1 		mov	r4, lr
 155 00a4 14C09DE5 		ldr	ip, [sp, #20]
 156 00a8 011083E2 		add	r1, r3, #1
 157 00ac 040000EA 		b	.L10
 158              	.LVL13:
 159              	.L124:
 160              		.loc 1 154 0
 161 00b0 09E0A0E1 		mov	lr, r9
 162 00b4 0030DCE5 		ldrb	r3, [ip]	@ zero_extendqisi2
 163              	.LVL14:
 164 00b8 04C08CE2 		add	ip, ip, #4
 165              	.LVL15:
 166              	.L8:
 167 00bc 0120D1E4 		ldrb	r2, [r1], #1	@ zero_extendqisi2
 168              	.LVL16:
 169              		.loc 1 157 0
 170 00c0 804083E0 		add	r4, r3, r0, lsl #1
 171              	.LVL17:
ARM GAS  /tmp/ccEnej6L.s 			page 4


 172              	.L10:
 173              		.loc 1 151 0
 174 00c4 303042E2 		sub	r3, r2, #48
 175 00c8 7330EFE6 		uxtb	r3, r3
 176 00cc 090053E3 		cmp	r3, #9
 177              		.loc 1 157 0
 178 00d0 040184E0 		add	r0, r4, r4, lsl #2
 179              		.loc 1 150 0
 180 00d4 01A0A0E1 		mov	r10, r1
 181              	.LVL18:
 182              		.loc 1 151 0
 183 00d8 F7FFFF9A 		bls	.L8
 184              		.loc 1 153 0
 185 00dc 2A0052E3 		cmp	r2, #42
 186 00e0 F2FFFF0A 		beq	.L124
 187 00e4 00005EE3 		cmp	lr, #0
 188 00e8 14C08D15 		strne	ip, [sp, #20]
 189              	.LVL19:
 190              		.loc 1 160 0
 191 00ec 2E0052E3 		cmp	r2, #46
 192              		.loc 1 159 0
 193 00f0 0010A013 		movne	r1, #0
 194              	.LVL20:
 195              		.loc 1 160 0
 196 00f4 2B01000A 		beq	.L125
 197              	.LVL21:
 198              	.L12:
 199              		.loc 1 174 0
 200 00f8 DF3002E2 		and	r3, r2, #223
 201 00fc 4C0053E3 		cmp	r3, #76
 202 0100 ED00001A 		bne	.L17
 203              	.LVL22:
 204              		.loc 1 176 0
 205 0104 0030DAE5 		ldrb	r3, [r10]	@ zero_extendqisi2
 206 0108 000053E3 		cmp	r3, #0
 207              		.loc 1 177 0
 208 010c 0320A011 		movne	r2, r3
 209              	.LVL23:
 210              		.loc 1 183 0
 211 0110 443042E2 		sub	r3, r2, #68
 212              		.loc 1 177 0
 213 0114 01A08A12 		addne	r10, r10, #1
 214              	.LVL24:
 215              		.loc 1 183 0
 216 0118 340053E3 		cmp	r3, #52
 217 011c 03F19F97 		ldrls	pc, [pc, r3, asl #2]
 218 0120 DD0000EA 		b	.L19
 219              	.L68:
 220 0124 C0060000 		.word	.L35
 221 0128 9C040000 		.word	.L19
 222 012c 9C040000 		.word	.L19
 223 0130 9C040000 		.word	.L19
 224 0134 9C040000 		.word	.L19
 225 0138 9C040000 		.word	.L19
 226 013c 9C040000 		.word	.L19
 227 0140 9C040000 		.word	.L19
 228 0144 9C040000 		.word	.L19
ARM GAS  /tmp/ccEnej6L.s 			page 5


 229 0148 9C040000 		.word	.L19
 230 014c 9C040000 		.word	.L19
 231 0150 A0060000 		.word	.L85
 232 0154 9C040000 		.word	.L19
 233 0158 9C040000 		.word	.L19
 234 015c 9C040000 		.word	.L19
 235 0160 9C040000 		.word	.L19
 236 0164 9C040000 		.word	.L19
 237 0168 B8060000 		.word	.L69
 238 016c 9C040000 		.word	.L19
 239 0170 9C040000 		.word	.L19
 240 0174 70070000 		.word	.L70
 241 0178 9C040000 		.word	.L19
 242 017c 9C040000 		.word	.L19
 243 0180 9C040000 		.word	.L19
 244 0184 9C040000 		.word	.L19
 245 0188 9C040000 		.word	.L19
 246 018c 9C040000 		.word	.L19
 247 0190 9C040000 		.word	.L19
 248 0194 9C040000 		.word	.L19
 249 0198 9C040000 		.word	.L19
 250 019c 9C040000 		.word	.L19
 251 01a0 74040000 		.word	.L25
 252 01a4 C0060000 		.word	.L35
 253 01a8 9C040000 		.word	.L19
 254 01ac 74020000 		.word	.L26
 255 01b0 9C040000 		.word	.L19
 256 01b4 9C040000 		.word	.L19
 257 01b8 9C040000 		.word	.L19
 258 01bc 9C040000 		.word	.L19
 259 01c0 9C040000 		.word	.L19
 260 01c4 9C040000 		.word	.L19
 261 01c8 9C040000 		.word	.L19
 262 01cc 9C040000 		.word	.L19
 263 01d0 A0060000 		.word	.L85
 264 01d4 9C040000 		.word	.L19
 265 01d8 9C040000 		.word	.L19
 266 01dc 9C040000 		.word	.L19
 267 01e0 F8010000 		.word	.L27
 268 01e4 9C040000 		.word	.L19
 269 01e8 B8060000 		.word	.L69
 270 01ec 9C040000 		.word	.L19
 271 01f0 9C040000 		.word	.L19
 272 01f4 70070000 		.word	.L70
 273              	.LVL25:
 274              	.L27:
 275              		.loc 1 190 0
 276 01f8 14309DE5 		ldr	r3, [sp, #20]
 277 01fc 007093E5 		ldr	r7, [r3]
 278              	.LVL26:
 279 0200 043083E2 		add	r3, r3, #4
 280 0204 000057E3 		cmp	r7, #0
 281 0208 14308DE5 		str	r3, [sp, #20]
 282 020c 5F01000A 		beq	.L29
 283              	.LVL27:
 284              		.loc 1 192 0
 285 0210 000051E3 		cmp	r1, #0
ARM GAS  /tmp/ccEnej6L.s 			page 6


 286              		.loc 1 194 0
 287 0214 0030D7E5 		ldrb	r3, [r7]	@ zero_extendqisi2
 288              		.loc 1 192 0
 289 0218 5601000A 		beq	.L30
 290              	.LVL28:
 291              		.loc 1 194 0 discriminator 1
 292 021c 000053E3 		cmp	r3, #0
 293 0220 5701000A 		beq	.L75
 294              	.LVL29:
 295              	.L66:
 296              		.loc 1 194 0 is_stmt 0
 297 0224 011041E2 		sub	r1, r1, #1
 298              	.LVL30:
 299              	.L67:
 300              		.loc 1 194 0 discriminator 4
 301 0228 07B0A0E1 		mov	fp, r7
 302 022c 010000EA 		b	.L33
 303              	.LVL31:
 304              	.L126:
 305              		.loc 1 194 0 discriminator 3
 306 0230 011051E2 		subs	r1, r1, #1
 307              	.LVL32:
 308 0234 0200004A 		bmi	.L117
 309              	.LVL33:
 310              	.L33:
 311              		.loc 1 194 0 discriminator 4
 312 0238 0130FBE5 		ldrb	r3, [fp, #1]!	@ zero_extendqisi2
 313              	.LVL34:
 314 023c 000053E3 		cmp	r3, #0
 315 0240 FAFFFF1A 		bne	.L126
 316              	.LVL35:
 317              	.L117:
 318 0244 07004BE0 		sub	r0, fp, r7
 319              		.loc 1 242 0 is_stmt 1
 320 0248 004054E0 		subs	r4, r4, r0
 321              	.LVL36:
 322 024c 016040E2 		sub	r6, r0, #1
 323              		.loc 1 189 0
 324 0250 2080A0E3 		mov	r8, #32
 325              	.LVL37:
 326              		.loc 1 242 0
 327 0254 6100005A 		bpl	.L31
 328              	.LVL38:
 329              	.L129:
 330              		.loc 1 244 0
 331 0258 04309DE5 		ldr	r3, [sp, #4]
 332 025c 000053E3 		cmp	r3, #0
 333 0260 E300001A 		bne	.L127
 334              		.loc 1 255 0
 335 0264 000056E3 		cmp	r6, #0
 336 0268 04409DA5 		ldrge	r4, [sp, #4]
 337 026c 6E0000AA 		bge	.L64
 338 0270 6AFFFFEA 		b	.L2
 339              	.LVL39:
 340              	.L26:
 341              		.loc 1 211 0
 342 0274 14309DE5 		ldr	r3, [sp, #20]
ARM GAS  /tmp/ccEnej6L.s 			page 7


 343 0278 073083E2 		add	r3, r3, #7
 344 027c 0730C3E3 		bic	r3, r3, #7
 345 0280 082083E2 		add	r2, r3, #8
 346              	.LVL40:
 347 0284 D000C3E1 		ldrd	r0, [r3]
 348 0288 14208DE5 		str	r2, [sp, #20]
 349 028c FEFFFFEB 		bl	__aeabi_d2f
 350              	.LVL41:
 351              		.loc 1 212 0
 352 0290 0010A0E3 		mov	r1, #0
 353              		.loc 1 211 0
 354 0294 00B0A0E1 		mov	fp, r0
 355              	.LVL42:
 356              		.loc 1 212 0
 357 0298 FEFFFFEB 		bl	__aeabi_fcmplt
 358              	.LVL43:
 359 029c 000050E3 		cmp	r0, #0
 360              	.LVL44:
 361              		.loc 1 213 0
 362 02a0 2D30A013 		movne	r3, #45
 363              		.loc 1 214 0
 364 02a4 02B18B12 		addne	fp, fp, #-2147483648
 365              	.LVL45:
 366              		.loc 1 136 0
 367 02a8 18708D02 		addeq	r7, sp, #24
 368              		.loc 1 216 0
 369 02ac 0B00A0E1 		mov	r0, fp
 370              		.loc 1 213 0
 371 02b0 19608D12 		addne	r6, sp, #25
 372              		.loc 1 136 0
 373 02b4 0760A001 		moveq	r6, r7
 374              	.LVL46:
 375              		.loc 1 213 0
 376 02b8 1830CD15 		strbne	r3, [sp, #24]
 377 02bc 18708D12 		addne	r7, sp, #24
 378              		.loc 1 216 0
 379 02c0 FEFFFFEB 		bl	__aeabi_f2d
 380              	.LVL47:
 381 02c4 F800CDE1 		strd	r0, [sp, #8]
 382              	.LVL48:
 383              	.LBB26:
 384              	.LBB27:
 385              		.loc 1 83 0
 386 02c8 0B00A0E1 		mov	r0, fp
 387              	.LVL49:
 388 02cc FEFFFFEB 		bl	__aeabi_f2iz
 389              	.LVL50:
 390              	.LBB28:
 391              	.LBB29:
 392              		.loc 1 55 0
 393 02d0 0BC086E2 		add	ip, r6, #11
 394              	.LVL51:
 395              		.loc 1 48 0
 396 02d4 00E0A0E1 		mov	lr, r0
 397              		.loc 1 55 0
 398 02d8 0C10A0E1 		mov	r1, ip
 399              	.LVL52:
ARM GAS  /tmp/ccEnej6L.s 			page 8


 400              	.L43:
 401              		.loc 1 57 0
 402 02dc DC349FE5 		ldr	r3, .L133
 403 02e0 932E83E0 		umull	r2, r3, r3, lr
 404 02e4 A331A0E1 		lsr	r3, r3, #3
 405 02e8 0320A0E1 		mov	r2, r3
 406 02ec 033183E0 		add	r3, r3, r3, lsl #2
 407 02f0 83304EE0 		sub	r3, lr, r3, lsl #1
 408              	.LVL53:
 409              		.loc 1 58 0
 410 02f4 303083E2 		add	r3, r3, #48
 411              	.LVL54:
 412              		.loc 1 61 0
 413 02f8 7330EFE6 		uxtb	r3, r3
 414              	.LVL55:
 415              		.loc 1 63 0
 416 02fc 00E052E2 		subs	lr, r2, #0
 417              	.LVL56:
 418              		.loc 1 61 0
 419 0300 013061E5 		strb	r3, [r1, #-1]!
 420              	.LVL57:
 421              		.loc 1 63 0
 422 0304 F4FFFF1A 		bne	.L43
 423              		.loc 1 65 0
 424 0308 01C04CE0 		sub	ip, ip, r1
 425              	.LVL58:
 426 030c 01E0A0E1 		mov	lr, r1
 427 0310 0620A0E1 		mov	r2, r6
 428              	.LVL59:
 429 0314 0C1086E0 		add	r1, r6, ip
 430              	.LVL60:
 431 0318 000000EA 		b	.L45
 432              	.LVL61:
 433              	.L128:
 434 031c 0130FEE5 		ldrb	r3, [lr, #1]!	@ zero_extendqisi2
 435              	.LVL62:
 436              	.L45:
 437              		.loc 1 67 0
 438 0320 0130C2E4 		strb	r3, [r2], #1
 439              	.LVL63:
 440              		.loc 1 68 0
 441 0324 010052E1 		cmp	r2, r1
 442 0328 FBFFFF1A 		bne	.L128
 443              	.LBE29:
 444              	.LBE28:
 445              		.loc 1 85 0
 446 032c 2E30A0E3 		mov	r3, #46
 447 0330 01C04CE2 		sub	ip, ip, #1
 448 0334 0030C2E5 		strb	r3, [r2]
 449 0338 0C6086E0 		add	r6, r6, ip
 450              	.LVL64:
 451              		.loc 1 86 0
 452 033c FEFFFFEB 		bl	__aeabi_i2d
 453              	.LVL65:
 454 0340 0020A0E1 		mov	r2, r0
 455 0344 0130A0E1 		mov	r3, r1
 456 0348 D800CDE1 		ldrd	r0, [sp, #8]
ARM GAS  /tmp/ccEnej6L.s 			page 9


 457 034c FEFFFFEB 		bl	__aeabi_dsub
 458              	.LVL66:
 459 0350 0020A0E3 		mov	r2, #0
 460 0354 68349FE5 		ldr	r3, .L133+4
 461 0358 FEFFFFEB 		bl	__aeabi_dmul
 462              	.LVL67:
 463 035c FEFFFFEB 		bl	__aeabi_d2iz
 464              	.LVL68:
 465              	.LBB30:
 466              	.LBB31:
 467              		.loc 1 55 0
 468 0360 0DE086E2 		add	lr, r6, #13
 469              	.LBE31:
 470              	.LBE30:
 471              		.loc 1 85 0
 472 0364 02B086E2 		add	fp, r6, #2
 473              	.LVL69:
 474              	.LBB33:
 475              	.LBB32:
 476              		.loc 1 55 0
 477 0368 0E20A0E1 		mov	r2, lr
 478 036c 086086E2 		add	r6, r6, #8
 479 0370 000000EA 		b	.L46
 480              	.LVL70:
 481              	.L78:
 482              		.loc 1 63 0
 483 0374 0C20A0E1 		mov	r2, ip
 484              	.LVL71:
 485              	.L46:
 486              		.loc 1 57 0
 487 0378 40349FE5 		ldr	r3, .L133
 488              		.loc 1 61 0
 489 037c 01C042E2 		sub	ip, r2, #1
 490              		.loc 1 57 0
 491 0380 931083E0 		umull	r1, r3, r3, r0
 492 0384 A331A0E1 		lsr	r3, r3, #3
 493 0388 0310A0E1 		mov	r1, r3
 494 038c 033183E0 		add	r3, r3, r3, lsl #2
 495 0390 833040E0 		sub	r3, r0, r3, lsl #1
 496              	.LVL72:
 497              		.loc 1 58 0
 498 0394 303083E2 		add	r3, r3, #48
 499              	.LVL73:
 500              		.loc 1 61 0
 501 0398 7330EFE6 		uxtb	r3, r3
 502              	.LVL74:
 503              		.loc 1 63 0
 504 039c 06005CE1 		cmp	ip, r6
 505              		.loc 1 61 0
 506 03a0 013042E5 		strb	r3, [r2, #-1]
 507              		.loc 1 62 0
 508 03a4 0100A0E1 		mov	r0, r1
 509              	.LVL75:
 510              		.loc 1 63 0
 511 03a8 F1FFFF1A 		bne	.L78
 512              	.LVL76:
 513              		.loc 1 65 0
ARM GAS  /tmp/ccEnej6L.s 			page 10


 514 03ac 06E04EE0 		sub	lr, lr, r6
 515              	.LVL77:
 516 03b0 0B10A0E1 		mov	r1, fp
 517              	.LVL78:
 518 03b4 0E6086E0 		add	r6, r6, lr
 519              	.LVL79:
 520 03b8 000000EA 		b	.L48
 521              	.LVL80:
 522              	.L47:
 523 03bc 0130D2E4 		ldrb	r3, [r2], #1	@ zero_extendqisi2
 524              	.LVL81:
 525              	.L48:
 526              		.loc 1 68 0
 527 03c0 020056E1 		cmp	r6, r2
 528              		.loc 1 67 0
 529 03c4 0130C1E4 		strb	r3, [r1], #1
 530              	.LVL82:
 531              		.loc 1 68 0
 532 03c8 FBFFFF1A 		bne	.L47
 533 03cc 0EB08BE0 		add	fp, fp, lr
 534              	.LVL83:
 535              	.L118:
 536 03d0 07004BE0 		sub	r0, fp, r7
 537              	.LVL84:
 538              	.L119:
 539 03d4 016040E2 		sub	r6, r0, #1
 540              	.LVL85:
 541              	.L28:
 542              	.LBE32:
 543              	.LBE33:
 544              	.LBE27:
 545              	.LBE26:
 546              		.loc 1 242 0
 547 03d8 004054E0 		subs	r4, r4, r0
 548              	.LVL86:
 549 03dc 9DFFFF4A 		bmi	.L129
 550              	.LVL87:
 551              	.L31:
 552              		.loc 1 244 0
 553 03e0 04309DE5 		ldr	r3, [sp, #4]
 554 03e4 000053E3 		cmp	r3, #0
 555 03e8 3000001A 		bne	.L58
 556              		.loc 1 246 0
 557 03ec 000054E3 		cmp	r4, #0
 558 03f0 004064E2 		rsb	r4, r4, #0
 559              	.LVL88:
 560 03f4 2D00000A 		beq	.L58
 561              		.loc 1 247 0
 562 03f8 0030D7E5 		ldrb	r3, [r7]	@ zero_extendqisi2
 563 03fc 2D0053E3 		cmp	r3, #45
 564 0400 30005803 		cmpeq	r8, #48
 565 0404 E500000A 		beq	.L130
 566              	.LVL89:
 567              	.L60:
 568              		.loc 1 252 0 discriminator 1
 569 0408 003095E5 		ldr	r3, [r5]
 570 040c 0810A0E1 		mov	r1, r8
ARM GAS  /tmp/ccEnej6L.s 			page 11


 571 0410 083093E5 		ldr	r3, [r3, #8]
 572 0414 0500A0E1 		mov	r0, r5
 573 0418 33FF2FE1 		blx	r3
 574              	.LVL90:
 575              		.loc 1 253 0 discriminator 1
 576 041c 014094E2 		adds	r4, r4, #1
 577              	.LVL91:
 578 0420 F8FFFF1A 		bne	.L60
 579              	.LVL92:
 580              		.loc 1 255 0
 581 0424 000056E3 		cmp	r6, #0
 582 0428 FCFEFFBA 		blt	.L2
 583              	.LVL93:
 584              	.L64:
 585              		.loc 1 256 0
 586 042c 003095E5 		ldr	r3, [r5]
 587              		.loc 1 255 0
 588 0430 016046E2 		sub	r6, r6, #1
 589              	.LVL94:
 590              		.loc 1 256 0
 591 0434 083093E5 		ldr	r3, [r3, #8]
 592 0438 0110D7E4 		ldrb	r1, [r7], #1	@ zero_extendqisi2
 593              	.LVL95:
 594 043c 0500A0E1 		mov	r0, r5
 595 0440 33FF2FE1 		blx	r3
 596              	.LVL96:
 597              		.loc 1 255 0
 598 0444 010076E3 		cmn	r6, #1
 599 0448 F7FFFF1A 		bne	.L64
 600              	.LVL97:
 601              	.L63:
 602              		.loc 1 258 0
 603 044c 000054E3 		cmp	r4, #0
 604 0450 F2FEFF0A 		beq	.L2
 605              	.L65:
 606              		.loc 1 259 0
 607 0454 003095E5 		ldr	r3, [r5]
 608 0458 0810A0E1 		mov	r1, r8
 609 045c 083093E5 		ldr	r3, [r3, #8]
 610 0460 0500A0E1 		mov	r0, r5
 611 0464 33FF2FE1 		blx	r3
 612              	.LVL98:
 613              		.loc 1 258 0
 614 0468 014054E2 		subs	r4, r4, #1
 615              	.LVL99:
 616 046c F8FFFF1A 		bne	.L65
 617 0470 EAFEFFEA 		b	.L2
 618              	.LVL100:
 619              	.L25:
 620              		.loc 1 186 0
 621 0474 14309DE5 		ldr	r3, [sp, #20]
 622 0478 30708DE2 		add	r7, sp, #48
 623 047c 002093E5 		ldr	r2, [r3]
 624              	.LVL101:
 625 0480 043083E2 		add	r3, r3, #4
 626              		.loc 1 187 0
 627 0484 0900A0E1 		mov	r0, r9
ARM GAS  /tmp/ccEnej6L.s 			page 12


 628              		.loc 1 186 0
 629 0488 14308DE5 		str	r3, [sp, #20]
 630 048c 182067E5 		strb	r2, [r7, #-24]!
 631              		.loc 1 187 0
 632 0490 0060A0E3 		mov	r6, #0
 633              		.loc 1 185 0
 634 0494 2080A0E3 		mov	r8, #32
 635              		.loc 1 187 0
 636 0498 CEFFFFEA 		b	.L28
 637              	.LVL102:
 638              	.L19:
 639              		.loc 1 238 0
 640 049c 30708DE2 		add	r7, sp, #48
 641              		.loc 1 239 0
 642 04a0 0900A0E1 		mov	r0, r9
 643 04a4 0060A0E3 		mov	r6, #0
 644              		.loc 1 238 0
 645 04a8 182067E5 		strb	r2, [r7, #-24]!
 646              		.loc 1 239 0
 647 04ac C9FFFFEA 		b	.L28
 648              	.LVL103:
 649              	.L58:
 650              		.loc 1 255 0
 651 04b0 000056E3 		cmp	r6, #0
 652 04b4 DCFFFFAA 		bge	.L64
 653 04b8 E3FFFFEA 		b	.L63
 654              	.LVL104:
 655              	.L17:
 656              		.loc 1 180 0
 657 04bc 413042E2 		sub	r3, r2, #65
 658              		.loc 1 183 0
 659 04c0 440042E2 		sub	r0, r2, #68
 660              		.loc 1 180 0
 661 04c4 7330EFE6 		uxtb	r3, r3
 662              	.LVL105:
 663              		.loc 1 183 0
 664 04c8 340050E3 		cmp	r0, #52
 665 04cc 00F19F97 		ldrls	pc, [pc, r0, asl #2]
 666 04d0 F1FFFFEA 		b	.L19
 667              	.L21:
 668 04d4 54070000 		.word	.L20
 669 04d8 9C040000 		.word	.L19
 670 04dc 9C040000 		.word	.L19
 671 04e0 9C040000 		.word	.L19
 672 04e4 9C040000 		.word	.L19
 673 04e8 9C040000 		.word	.L19
 674 04ec 9C040000 		.word	.L19
 675 04f0 9C040000 		.word	.L19
 676 04f4 9C040000 		.word	.L19
 677 04f8 9C040000 		.word	.L19
 678 04fc 9C040000 		.word	.L19
 679 0500 4C070000 		.word	.L22
 680 0504 9C040000 		.word	.L19
 681 0508 9C040000 		.word	.L19
 682 050c 9C040000 		.word	.L19
 683 0510 9C040000 		.word	.L19
 684 0514 9C040000 		.word	.L19
ARM GAS  /tmp/ccEnej6L.s 			page 13


 685 0518 04060000 		.word	.L74
 686 051c 9C040000 		.word	.L19
 687 0520 9C040000 		.word	.L19
 688 0524 44070000 		.word	.L24
 689 0528 9C040000 		.word	.L19
 690 052c 9C040000 		.word	.L19
 691 0530 9C040000 		.word	.L19
 692 0534 9C040000 		.word	.L19
 693 0538 9C040000 		.word	.L19
 694 053c 9C040000 		.word	.L19
 695 0540 9C040000 		.word	.L19
 696 0544 9C040000 		.word	.L19
 697 0548 9C040000 		.word	.L19
 698 054c 9C040000 		.word	.L19
 699 0550 74040000 		.word	.L25
 700 0554 54070000 		.word	.L20
 701 0558 9C040000 		.word	.L19
 702 055c 74020000 		.word	.L26
 703 0560 9C040000 		.word	.L19
 704 0564 9C040000 		.word	.L19
 705 0568 9C040000 		.word	.L19
 706 056c 9C040000 		.word	.L19
 707 0570 9C040000 		.word	.L19
 708 0574 9C040000 		.word	.L19
 709 0578 9C040000 		.word	.L19
 710 057c 9C040000 		.word	.L19
 711 0580 4C070000 		.word	.L22
 712 0584 9C040000 		.word	.L19
 713 0588 9C040000 		.word	.L19
 714 058c 9C040000 		.word	.L19
 715 0590 F8010000 		.word	.L27
 716 0594 9C040000 		.word	.L19
 717 0598 04060000 		.word	.L74
 718 059c 9C040000 		.word	.L19
 719 05a0 9C040000 		.word	.L19
 720 05a4 44070000 		.word	.L24
 721              	.LVL106:
 722              	.L125:
 723              		.loc 1 160 0
 724 05a8 00E0A0E3 		mov	lr, #0
 725 05ac 14C09DE5 		ldr	ip, [sp, #20]
 726 05b0 0E10A0E1 		mov	r1, lr
 727 05b4 030000EA 		b	.L16
 728              	.LVL107:
 729              	.L14:
 730              		.loc 1 166 0
 731 05b8 09E0A0E1 		mov	lr, r9
 732 05bc 0030DCE5 		ldrb	r3, [ip]	@ zero_extendqisi2
 733              	.LVL108:
 734 05c0 04C08CE2 		add	ip, ip, #4
 735              	.LVL109:
 736              	.L13:
 737              		.loc 1 170 0
 738 05c4 801083E0 		add	r1, r3, r0, lsl #1
 739              	.LVL110:
 740              	.L16:
 741              		.loc 1 162 0
ARM GAS  /tmp/ccEnej6L.s 			page 14


 742 05c8 0120DAE4 		ldrb	r2, [r10], #1	@ zero_extendqisi2
 743              	.LVL111:
 744              		.loc 1 169 0
 745 05cc 010181E0 		add	r0, r1, r1, lsl #2
 746              		.loc 1 163 0
 747 05d0 303042E2 		sub	r3, r2, #48
 748 05d4 7330EFE6 		uxtb	r3, r3
 749 05d8 090053E3 		cmp	r3, #9
 750 05dc F8FFFF9A 		bls	.L13
 751              		.loc 1 165 0
 752 05e0 2A0052E3 		cmp	r2, #42
 753 05e4 F3FFFF0A 		beq	.L14
 754 05e8 00005EE3 		cmp	lr, #0
 755 05ec 14C08D15 		strne	ip, [sp, #20]
 756 05f0 C0FEFFEA 		b	.L12
 757              	.LVL112:
 758              	.L127:
 759              		.loc 1 255 0
 760 05f4 000056E3 		cmp	r6, #0
 761              		.loc 1 243 0
 762 05f8 0040A0A3 		movge	r4, #0
 763              		.loc 1 255 0
 764 05fc 8AFFFFAA 		bge	.L64
 765 0600 86FEFFEA 		b	.L2
 766              	.LVL113:
 767              	.L74:
 768              		.loc 1 183 0
 769 0604 0A70A0E3 		mov	r7, #10
 770              	.L23:
 771              	.LVL114:
 772              		.loc 1 231 0
 773 0608 190053E3 		cmp	r3, #25
 774 060c 2400009A 		bls	.L50
 775              		.loc 1 234 0
 776 0610 14309DE5 		ldr	r3, [sp, #20]
 777              	.LVL115:
 778 0614 041083E2 		add	r1, r3, #4
 779              	.LVL116:
 780 0618 002093E5 		ldr	r2, [r3]
 781              	.LVL117:
 782 061c 14108DE5 		str	r1, [sp, #20]
 783              	.LVL118:
 784              	.L51:
 785 0620 08408DE5 		str	r4, [sp, #8]
 786              	.LBB34:
 787              	.LBB35:
 788              	.LBB36:
 789              		.loc 1 55 0
 790 0624 23608DE2 		add	r6, sp, #35
 791              	.LVL119:
 792 0628 0240A0E1 		mov	r4, r2
 793              	.LVL120:
 794 062c 000000EA 		b	.L53
 795              	.LVL121:
 796              	.L79:
 797              		.loc 1 63 0
 798 0630 0160A0E1 		mov	r6, r1
ARM GAS  /tmp/ccEnej6L.s 			page 15


 799              	.LVL122:
 800              	.L53:
 801              		.loc 1 57 0
 802 0634 0400A0E1 		mov	r0, r4
 803 0638 0710A0E1 		mov	r1, r7
 804 063c FEFFFFEB 		bl	__aeabi_uidivmod
 805              	.LVL123:
 806 0640 01C0A0E1 		mov	ip, r1
 807              	.LVL124:
 808              		.loc 1 58 0
 809 0644 30308CE2 		add	r3, ip, #48
 810              	.LVL125:
 811              		.loc 1 59 0
 812 0648 390053E3 		cmp	r3, #57
 813              		.loc 1 60 0
 814 064c 37308CC2 		addgt	r3, ip, #55
 815              	.LVL126:
 816              		.loc 1 61 0
 817 0650 73B0EFE6 		uxtb	fp, r3
 818              		.loc 1 62 0
 819 0654 0400A0E1 		mov	r0, r4
 820 0658 0710A0E1 		mov	r1, r7
 821              		.loc 1 61 0
 822 065c 01B046E5 		strb	fp, [r6, #-1]
 823              		.loc 1 62 0
 824 0660 FEFFFFEB 		bl	__aeabi_uidiv
 825              	.LVL127:
 826              		.loc 1 63 0
 827 0664 004050E2 		subs	r4, r0, #0
 828              	.LVL128:
 829              		.loc 1 61 0
 830 0668 011046E2 		sub	r1, r6, #1
 831              	.LVL129:
 832              		.loc 1 63 0
 833 066c EFFFFF1A 		bne	.L79
 834              		.loc 1 65 0
 835 0670 23308DE2 		add	r3, sp, #35
 836 0674 18708DE2 		add	r7, sp, #24
 837              	.LVL130:
 838 0678 010043E0 		sub	r0, r3, r1
 839              	.LVL131:
 840 067c 08409DE5 		ldr	r4, [sp, #8]
 841              	.LVL132:
 842 0680 0720A0E1 		mov	r2, r7
 843 0684 001081E0 		add	r1, r1, r0
 844              	.LVL133:
 845 0688 000000EA 		b	.L55
 846              	.LVL134:
 847              	.L131:
 848 068c 01B0D6E4 		ldrb	fp, [r6], #1	@ zero_extendqisi2
 849              	.LVL135:
 850              	.L55:
 851              		.loc 1 68 0
 852 0690 060051E1 		cmp	r1, r6
 853              		.loc 1 67 0
 854 0694 01B0C2E4 		strb	fp, [r2], #1
 855              	.LVL136:
ARM GAS  /tmp/ccEnej6L.s 			page 16


 856              		.loc 1 68 0
 857 0698 FBFFFF1A 		bne	.L131
 858 069c 4CFFFFEA 		b	.L119
 859              	.LVL137:
 860              	.L85:
 861              	.LBE36:
 862              	.LBE35:
 863              	.LBE34:
 864              		.loc 1 183 0
 865 06a0 0870A0E3 		mov	r7, #8
 866              	.LVL138:
 867              	.L50:
 868              		.loc 1 232 0
 869 06a4 14309DE5 		ldr	r3, [sp, #20]
 870 06a8 042083E2 		add	r2, r3, #4
 871 06ac 14208DE5 		str	r2, [sp, #20]
 872 06b0 002093E5 		ldr	r2, [r3]
 873 06b4 D9FFFFEA 		b	.L51
 874              	.LVL139:
 875              	.L69:
 876              		.loc 1 183 0
 877 06b8 0A70A0E3 		mov	r7, #10
 878 06bc F8FFFFEA 		b	.L50
 879              	.LVL140:
 880              	.L35:
 881              		.loc 1 200 0
 882 06c0 14309DE5 		ldr	r3, [sp, #20]
 883 06c4 042083E2 		add	r2, r3, #4
 884              	.LVL141:
 885 06c8 00E093E5 		ldr	lr, [r3]
 886 06cc 14208DE5 		str	r2, [sp, #20]
 887              	.L36:
 888              	.LVL142:
 889              		.loc 1 203 0
 890 06d0 00005EE3 		cmp	lr, #0
 891              	.LVL143:
 892              		.loc 1 136 0
 893 06d4 18708DA2 		addge	r7, sp, #24
 894 06d8 07C0A0A1 		movge	ip, r7
 895              		.loc 1 204 0
 896 06dc 19C08DB2 		addlt	ip, sp, #25
 897 06e0 2D30A0B3 		movlt	r3, #45
 898              	.LBB37:
 899              	.LBB38:
 900              	.LBB39:
 901              		.loc 1 55 0
 902 06e4 0B208CE2 		add	r2, ip, #11
 903 06e8 0200A0E1 		mov	r0, r2
 904              	.LBE39:
 905              	.LBE38:
 906              	.LBE37:
 907              		.loc 1 205 0
 908 06ec 00E06EB2 		rsblt	lr, lr, #0
 909              	.LVL144:
 910              		.loc 1 204 0
 911 06f0 1830CDB5 		strblt	r3, [sp, #24]
 912 06f4 18708DB2 		addlt	r7, sp, #24
ARM GAS  /tmp/ccEnej6L.s 			page 17


 913              	.LVL145:
 914              	.L38:
 915              	.LBB42:
 916              	.LBB41:
 917              	.LBB40:
 918              		.loc 1 57 0
 919 06f8 C0309FE5 		ldr	r3, .L133
 920 06fc 931E83E0 		umull	r1, r3, r3, lr
 921 0700 A331A0E1 		lsr	r3, r3, #3
 922 0704 0310A0E1 		mov	r1, r3
 923 0708 033183E0 		add	r3, r3, r3, lsl #2
 924 070c 83304EE0 		sub	r3, lr, r3, lsl #1
 925              	.LVL146:
 926              		.loc 1 58 0
 927 0710 303083E2 		add	r3, r3, #48
 928              	.LVL147:
 929              		.loc 1 61 0
 930 0714 7330EFE6 		uxtb	r3, r3
 931              	.LVL148:
 932              		.loc 1 63 0
 933 0718 00E051E2 		subs	lr, r1, #0
 934              	.LVL149:
 935              		.loc 1 61 0
 936 071c 013060E5 		strb	r3, [r0, #-1]!
 937              	.LVL150:
 938              		.loc 1 63 0
 939 0720 F4FFFF1A 		bne	.L38
 940              	.LVL151:
 941              		.loc 1 65 0
 942 0724 00B042E0 		sub	fp, r2, r0
 943 0728 0BB08CE0 		add	fp, ip, fp
 944 072c 000000EA 		b	.L40
 945              	.LVL152:
 946              	.L132:
 947 0730 0130F0E5 		ldrb	r3, [r0, #1]!	@ zero_extendqisi2
 948              	.LVL153:
 949              	.L40:
 950              		.loc 1 67 0
 951 0734 0130CCE4 		strb	r3, [ip], #1
 952              	.LVL154:
 953              		.loc 1 68 0
 954 0738 0C005BE1 		cmp	fp, ip
 955 073c FBFFFF1A 		bne	.L132
 956 0740 22FFFFEA 		b	.L118
 957              	.LVL155:
 958              	.L24:
 959              	.LBE40:
 960              	.LBE41:
 961              	.LBE42:
 962              		.loc 1 183 0
 963 0744 1070A0E3 		mov	r7, #16
 964 0748 AEFFFFEA 		b	.L23
 965              	.L22:
 966 074c 0870A0E3 		mov	r7, #8
 967 0750 ACFFFFEA 		b	.L23
 968              	.L20:
 969              		.loc 1 199 0
ARM GAS  /tmp/ccEnej6L.s 			page 18


 970 0754 190053E3 		cmp	r3, #25
 971 0758 D8FFFF9A 		bls	.L35
 972              		.loc 1 202 0
 973 075c 14309DE5 		ldr	r3, [sp, #20]
 974              	.LVL156:
 975 0760 042083E2 		add	r2, r3, #4
 976              	.LVL157:
 977 0764 00E093E5 		ldr	lr, [r3]
 978 0768 14208DE5 		str	r2, [sp, #20]
 979 076c D7FFFFEA 		b	.L36
 980              	.LVL158:
 981              	.L70:
 982              		.loc 1 183 0
 983 0770 1070A0E3 		mov	r7, #16
 984 0774 CAFFFFEA 		b	.L50
 985              	.LVL159:
 986              	.L30:
 987              		.loc 1 194 0
 988 0778 000053E3 		cmp	r3, #0
 989 077c 44109F15 		ldrne	r1, .L133+8
 990 0780 A8FEFF1A 		bne	.L67
 991              	.LVL160:
 992              	.L75:
 993 0784 0060E0E3 		mvn	r6, #0
 994 0788 2080A0E3 		mov	r8, #32
 995 078c 13FFFFEA 		b	.L31
 996              	.LVL161:
 997              	.L29:
 998              		.loc 1 192 0
 999 0790 000051E3 		cmp	r1, #0
 1000              		.loc 1 193 0
 1001 0794 30109F05 		ldreq	r1, .L133+12
 1002              	.LVL162:
 1003              		.loc 1 191 0
 1004 0798 30709FE5 		ldr	r7, .L133+16
 1005 079c A0FEFFEA 		b	.L66
 1006              	.LVL163:
 1007              	.L130:
 1008              		.loc 1 248 0
 1009 07a0 003095E5 		ldr	r3, [r5]
 1010 07a4 2D10A0E3 		mov	r1, #45
 1011 07a8 083093E5 		ldr	r3, [r3, #8]
 1012 07ac 0500A0E1 		mov	r0, r5
 1013 07b0 33FF2FE1 		blx	r3
 1014              	.LVL164:
 1015 07b4 017087E2 		add	r7, r7, #1
 1016              	.LVL165:
 1017 07b8 016046E2 		sub	r6, r6, #1
 1018 07bc 11FFFFEA 		b	.L60
 1019              	.L134:
 1020              		.align	2
 1021              	.L133:
 1022 07c0 CDCCCCCC 		.word	-858993459
 1023 07c4 006AF840 		.word	1090021888
 1024 07c8 FE7F0000 		.word	32766
 1025 07cc FF7F0000 		.word	32767
 1026 07d0 00000000 		.word	.LC0
ARM GAS  /tmp/ccEnej6L.s 			page 19


 1027              		.cfi_endproc
 1028              	.LFE10:
 1029              		.size	chprintf, .-chprintf
 1030              		.section	.rodata.chprintf.str1.4,"aMS",%progbits,1
 1031              		.align	2
 1032              	.LC0:
 1033 0000 286E756C 		.ascii	"(null)\000"
 1033      6C2900
 1034              		.text
 1035              	.Letext0:
 1036              		.file 2 "/usr/lib/gcc/arm-none-eabi/6.3.1/include/stdarg.h"
 1037              		.file 3 "/usr/lib/gcc/arm-none-eabi/6.3.1/include/stddef.h"
 1038              		.file 4 "/usr/include/newlib/machine/_default_types.h"
 1039              		.file 5 "/usr/include/newlib/sys/_stdint.h"
 1040              		.file 6 "../../os/ports/GCC/ARM/chtypes.h"
 1041              		.file 7 "../../os/kernel/include/chlists.h"
 1042              		.file 8 "<built-in>"
 1043              		.file 9 "../../os/kernel/include/chthreads.h"
 1044              		.file 10 "../../os/ports/GCC/ARM/chcore.h"
 1045              		.file 11 "../../os/kernel/include/chvt.h"
 1046              		.file 12 "../../os/kernel/include/chschd.h"
 1047              		.file 13 "../../os/kernel/include/chmtx.h"
 1048              		.file 14 "../../os/kernel/include/chregistry.h"
 1049              		.file 15 "../../os/kernel/include/chstreams.h"
 1050              		.file 16 "../../os/kernel/include/ch.h"
 1051              		.section	.debug_info,"",%progbits
 1052              	.Ldebug_info0:
 1053 0000 850B0000 		.4byte	0xb85
 1054 0004 0400     		.2byte	0x4
 1055 0006 00000000 		.4byte	.Ldebug_abbrev0
 1056 000a 04       		.byte	0x4
 1057 000b 01       		.uleb128 0x1
 1058 000c 64040000 		.4byte	.LASF121
 1059 0010 0C       		.byte	0xc
 1060 0011 44010000 		.4byte	.LASF122
 1061 0015 5C000000 		.4byte	.LASF123
 1062 0019 30000000 		.4byte	.Ldebug_ranges0+0x30
 1063 001d 00000000 		.4byte	0
 1064 0021 00000000 		.4byte	.Ldebug_line0
 1065 0025 02       		.uleb128 0x2
 1066 0026 C0020000 		.4byte	.LASF0
 1067 002a 02       		.byte	0x2
 1068 002b 28       		.byte	0x28
 1069 002c 30000000 		.4byte	0x30
 1070 0030 03       		.uleb128 0x3
 1071 0031 2A010000 		.4byte	.LASF30
 1072 0035 04       		.byte	0x4
 1073 0036 08       		.byte	0x8
 1074 0037 00       		.byte	0
 1075 0038 47000000 		.4byte	0x47
 1076 003c 04       		.uleb128 0x4
 1077 003d 58040000 		.4byte	.LASF77
 1078 0041 47000000 		.4byte	0x47
 1079 0045 00       		.byte	0
 1080 0046 00       		.byte	0
 1081 0047 05       		.uleb128 0x5
 1082 0048 04       		.byte	0x4
ARM GAS  /tmp/ccEnej6L.s 			page 20


 1083 0049 02       		.uleb128 0x2
 1084 004a 31000000 		.4byte	.LASF1
 1085 004e 02       		.byte	0x2
 1086 004f 63       		.byte	0x63
 1087 0050 25000000 		.4byte	0x25
 1088 0054 06       		.uleb128 0x6
 1089 0055 04       		.byte	0x4
 1090 0056 05       		.byte	0x5
 1091 0057 696E7400 		.ascii	"int\000"
 1092 005b 02       		.uleb128 0x2
 1093 005c 13000000 		.4byte	.LASF2
 1094 0060 03       		.byte	0x3
 1095 0061 D8       		.byte	0xd8
 1096 0062 66000000 		.4byte	0x66
 1097 0066 07       		.uleb128 0x7
 1098 0067 04       		.byte	0x4
 1099 0068 07       		.byte	0x7
 1100 0069 C8010000 		.4byte	.LASF3
 1101 006d 07       		.uleb128 0x7
 1102 006e 01       		.byte	0x1
 1103 006f 06       		.byte	0x6
 1104 0070 CF000000 		.4byte	.LASF4
 1105 0074 02       		.uleb128 0x2
 1106 0075 27000000 		.4byte	.LASF5
 1107 0079 04       		.byte	0x4
 1108 007a 1D       		.byte	0x1d
 1109 007b 7F000000 		.4byte	0x7f
 1110 007f 07       		.uleb128 0x7
 1111 0080 01       		.byte	0x1
 1112 0081 08       		.byte	0x8
 1113 0082 40030000 		.4byte	.LASF6
 1114 0086 07       		.uleb128 0x7
 1115 0087 02       		.byte	0x2
 1116 0088 05       		.byte	0x5
 1117 0089 58030000 		.4byte	.LASF7
 1118 008d 02       		.uleb128 0x2
 1119 008e FF030000 		.4byte	.LASF8
 1120 0092 04       		.byte	0x4
 1121 0093 2B       		.byte	0x2b
 1122 0094 98000000 		.4byte	0x98
 1123 0098 07       		.uleb128 0x7
 1124 0099 02       		.byte	0x2
 1125 009a 07       		.byte	0x7
 1126 009b 28020000 		.4byte	.LASF9
 1127 009f 02       		.uleb128 0x2
 1128 00a0 48040000 		.4byte	.LASF10
 1129 00a4 04       		.byte	0x4
 1130 00a5 3F       		.byte	0x3f
 1131 00a6 AA000000 		.4byte	0xaa
 1132 00aa 07       		.uleb128 0x7
 1133 00ab 04       		.byte	0x4
 1134 00ac 05       		.byte	0x5
 1135 00ad 18010000 		.4byte	.LASF11
 1136 00b1 02       		.uleb128 0x2
 1137 00b2 88010000 		.4byte	.LASF12
 1138 00b6 04       		.byte	0x4
 1139 00b7 41       		.byte	0x41
ARM GAS  /tmp/ccEnej6L.s 			page 21


 1140 00b8 BC000000 		.4byte	0xbc
 1141 00bc 07       		.uleb128 0x7
 1142 00bd 04       		.byte	0x4
 1143 00be 07       		.byte	0x7
 1144 00bf DD010000 		.4byte	.LASF13
 1145 00c3 07       		.uleb128 0x7
 1146 00c4 08       		.byte	0x8
 1147 00c5 05       		.byte	0x5
 1148 00c6 C1000000 		.4byte	.LASF14
 1149 00ca 07       		.uleb128 0x7
 1150 00cb 08       		.byte	0x8
 1151 00cc 07       		.byte	0x7
 1152 00cd 45000000 		.4byte	.LASF15
 1153 00d1 02       		.uleb128 0x2
 1154 00d2 20050000 		.4byte	.LASF16
 1155 00d6 05       		.byte	0x5
 1156 00d7 18       		.byte	0x18
 1157 00d8 74000000 		.4byte	0x74
 1158 00dc 08       		.uleb128 0x8
 1159 00dd D1000000 		.4byte	0xd1
 1160 00e1 02       		.uleb128 0x2
 1161 00e2 34010000 		.4byte	.LASF17
 1162 00e6 05       		.byte	0x5
 1163 00e7 24       		.byte	0x24
 1164 00e8 8D000000 		.4byte	0x8d
 1165 00ec 02       		.uleb128 0x2
 1166 00ed 38030000 		.4byte	.LASF18
 1167 00f1 05       		.byte	0x5
 1168 00f2 2C       		.byte	0x2c
 1169 00f3 9F000000 		.4byte	0x9f
 1170 00f7 02       		.uleb128 0x2
 1171 00f8 CB030000 		.4byte	.LASF19
 1172 00fc 05       		.byte	0x5
 1173 00fd 30       		.byte	0x30
 1174 00fe B1000000 		.4byte	0xb1
 1175 0102 02       		.uleb128 0x2
 1176 0103 F8000000 		.4byte	.LASF20
 1177 0107 06       		.byte	0x6
 1178 0108 29       		.byte	0x29
 1179 0109 EC000000 		.4byte	0xec
 1180 010d 02       		.uleb128 0x2
 1181 010e 49020000 		.4byte	.LASF21
 1182 0112 06       		.byte	0x6
 1183 0113 2A       		.byte	0x2a
 1184 0114 D1000000 		.4byte	0xd1
 1185 0118 02       		.uleb128 0x2
 1186 0119 21010000 		.4byte	.LASF22
 1187 011d 06       		.byte	0x6
 1188 011e 2B       		.byte	0x2b
 1189 011f D1000000 		.4byte	0xd1
 1190 0123 02       		.uleb128 0x2
 1191 0124 16030000 		.4byte	.LASF23
 1192 0128 06       		.byte	0x6
 1193 0129 2C       		.byte	0x2c
 1194 012a D1000000 		.4byte	0xd1
 1195 012e 02       		.uleb128 0x2
 1196 012f 0E010000 		.4byte	.LASF24
ARM GAS  /tmp/ccEnej6L.s 			page 22


 1197 0133 06       		.byte	0x6
 1198 0134 2D       		.byte	0x2d
 1199 0135 D1000000 		.4byte	0xd1
 1200 0139 02       		.uleb128 0x2
 1201 013a 30030000 		.4byte	.LASF25
 1202 013e 06       		.byte	0x6
 1203 013f 2E       		.byte	0x2e
 1204 0140 F7000000 		.4byte	0xf7
 1205 0144 02       		.uleb128 0x2
 1206 0145 3B020000 		.4byte	.LASF26
 1207 0149 06       		.byte	0x6
 1208 014a 2F       		.byte	0x2f
 1209 014b EC000000 		.4byte	0xec
 1210 014f 02       		.uleb128 0x2
 1211 0150 5D020000 		.4byte	.LASF27
 1212 0154 06       		.byte	0x6
 1213 0155 31       		.byte	0x31
 1214 0156 F7000000 		.4byte	0xf7
 1215 015a 02       		.uleb128 0x2
 1216 015b 33040000 		.4byte	.LASF28
 1217 015f 06       		.byte	0x6
 1218 0160 33       		.byte	0x33
 1219 0161 F7000000 		.4byte	0xf7
 1220 0165 09       		.uleb128 0x9
 1221 0166 5A010000 		.4byte	0x15a
 1222 016a 02       		.uleb128 0x2
 1223 016b AC030000 		.4byte	.LASF29
 1224 016f 07       		.byte	0x7
 1225 0170 23       		.byte	0x23
 1226 0171 75010000 		.4byte	0x175
 1227 0175 03       		.uleb128 0x3
 1228 0176 AC030000 		.4byte	.LASF29
 1229 017a 44       		.byte	0x44
 1230 017b 09       		.byte	0x9
 1231 017c 57       		.byte	0x57
 1232 017d 66020000 		.4byte	0x266
 1233 0181 0A       		.uleb128 0xa
 1234 0182 8E030000 		.4byte	.LASF31
 1235 0186 09       		.byte	0x9
 1236 0187 58       		.byte	0x58
 1237 0188 87020000 		.4byte	0x287
 1238 018c 00       		.byte	0
 1239 018d 0A       		.uleb128 0xa
 1240 018e 29030000 		.4byte	.LASF32
 1241 0192 09       		.byte	0x9
 1242 0193 5A       		.byte	0x5a
 1243 0194 87020000 		.4byte	0x287
 1244 0198 04       		.byte	0x4
 1245 0199 0A       		.uleb128 0xa
 1246 019a AD000000 		.4byte	.LASF33
 1247 019e 09       		.byte	0x9
 1248 019f 5C       		.byte	0x5c
 1249 01a0 39010000 		.4byte	0x139
 1250 01a4 08       		.byte	0x8
 1251 01a5 0A       		.uleb128 0xa
 1252 01a6 81050000 		.4byte	.LASF34
 1253 01aa 09       		.byte	0x9
ARM GAS  /tmp/ccEnej6L.s 			page 23


 1254 01ab 5D       		.byte	0x5d
 1255 01ac 40030000 		.4byte	0x340
 1256 01b0 0C       		.byte	0xc
 1257 01b1 0A       		.uleb128 0xa
 1258 01b2 70010000 		.4byte	.LASF35
 1259 01b6 09       		.byte	0x9
 1260 01b7 5F       		.byte	0x5f
 1261 01b8 87020000 		.4byte	0x287
 1262 01bc 10       		.byte	0x10
 1263 01bd 0A       		.uleb128 0xa
 1264 01be DB020000 		.4byte	.LASF36
 1265 01c2 09       		.byte	0x9
 1266 01c3 60       		.byte	0x60
 1267 01c4 87020000 		.4byte	0x287
 1268 01c8 14       		.byte	0x14
 1269 01c9 0A       		.uleb128 0xa
 1270 01ca 2F050000 		.4byte	.LASF37
 1271 01ce 09       		.byte	0x9
 1272 01cf 67       		.byte	0x67
 1273 01d0 02050000 		.4byte	0x502
 1274 01d4 18       		.byte	0x18
 1275 01d5 0A       		.uleb128 0xa
 1276 01d6 62030000 		.4byte	.LASF38
 1277 01da 09       		.byte	0x9
 1278 01db 72       		.byte	0x72
 1279 01dc 18010000 		.4byte	0x118
 1280 01e0 1C       		.byte	0x1c
 1281 01e1 0A       		.uleb128 0xa
 1282 01e2 A4030000 		.4byte	.LASF39
 1283 01e6 09       		.byte	0x9
 1284 01e7 76       		.byte	0x76
 1285 01e8 0D010000 		.4byte	0x10d
 1286 01ec 1D       		.byte	0x1d
 1287 01ed 0A       		.uleb128 0xa
 1288 01ee 09050000 		.4byte	.LASF40
 1289 01f2 09       		.byte	0x9
 1290 01f3 7B       		.byte	0x7b
 1291 01f4 23010000 		.4byte	0x123
 1292 01f8 1E       		.byte	0x1e
 1293 01f9 0A       		.uleb128 0xa
 1294 01fa 6A030000 		.4byte	.LASF41
 1295 01fe 09       		.byte	0x9
 1296 01ff 81       		.byte	0x81
 1297 0200 2E010000 		.4byte	0x12e
 1298 0204 1F       		.byte	0x1f
 1299 0205 0A       		.uleb128 0xa
 1300 0206 5D040000 		.4byte	.LASF42
 1301 020a 09       		.byte	0x9
 1302 020b 88       		.byte	0x88
 1303 020c 65010000 		.4byte	0x165
 1304 0210 20       		.byte	0x20
 1305 0211 0B       		.uleb128 0xb
 1306 0212 705F7500 		.ascii	"p_u\000"
 1307 0216 09       		.byte	0x9
 1308 0217 AD       		.byte	0xad
 1309 0218 CD040000 		.4byte	0x4cd
 1310 021c 24       		.byte	0x24
ARM GAS  /tmp/ccEnej6L.s 			page 24


 1311 021d 0A       		.uleb128 0xa
 1312 021e 87050000 		.4byte	.LASF43
 1313 0222 09       		.byte	0x9
 1314 0223 B2       		.byte	0xb2
 1315 0224 AD020000 		.4byte	0x2ad
 1316 0228 28       		.byte	0x28
 1317 0229 0A       		.uleb128 0xa
 1318 022a EC040000 		.4byte	.LASF44
 1319 022e 09       		.byte	0x9
 1320 022f B8       		.byte	0xb8
 1321 0230 8D020000 		.4byte	0x28d
 1322 0234 2C       		.byte	0x2c
 1323 0235 0A       		.uleb128 0xa
 1324 0236 0D000000 		.4byte	.LASF45
 1325 023a 09       		.byte	0x9
 1326 023b BC       		.byte	0xbc
 1327 023c 44010000 		.4byte	0x144
 1328 0240 34       		.byte	0x34
 1329 0241 0A       		.uleb128 0xa
 1330 0242 C0030000 		.4byte	.LASF46
 1331 0246 09       		.byte	0x9
 1332 0247 C2       		.byte	0xc2
 1333 0248 4F010000 		.4byte	0x14f
 1334 024c 38       		.byte	0x38
 1335 024d 0A       		.uleb128 0xa
 1336 024e 4E030000 		.4byte	.LASF47
 1337 0252 09       		.byte	0x9
 1338 0253 C9       		.byte	0xc9
 1339 0254 14050000 		.4byte	0x514
 1340 0258 3C       		.byte	0x3c
 1341 0259 0A       		.uleb128 0xa
 1342 025a 3D040000 		.4byte	.LASF48
 1343 025e 09       		.byte	0x9
 1344 025f CD       		.byte	0xcd
 1345 0260 39010000 		.4byte	0x139
 1346 0264 40       		.byte	0x40
 1347 0265 00       		.byte	0
 1348 0266 0C       		.uleb128 0xc
 1349 0267 08       		.byte	0x8
 1350 0268 07       		.byte	0x7
 1351 0269 5A       		.byte	0x5a
 1352 026a 87020000 		.4byte	0x287
 1353 026e 0A       		.uleb128 0xa
 1354 026f 8E030000 		.4byte	.LASF31
 1355 0273 07       		.byte	0x7
 1356 0274 5B       		.byte	0x5b
 1357 0275 87020000 		.4byte	0x287
 1358 0279 00       		.byte	0
 1359 027a 0A       		.uleb128 0xa
 1360 027b 29030000 		.4byte	.LASF32
 1361 027f 07       		.byte	0x7
 1362 0280 5D       		.byte	0x5d
 1363 0281 87020000 		.4byte	0x287
 1364 0285 04       		.byte	0x4
 1365 0286 00       		.byte	0
 1366 0287 0D       		.uleb128 0xd
 1367 0288 04       		.byte	0x4
ARM GAS  /tmp/ccEnej6L.s 			page 25


 1368 0289 6A010000 		.4byte	0x16a
 1369 028d 02       		.uleb128 0x2
 1370 028e E9020000 		.4byte	.LASF49
 1371 0292 07       		.byte	0x7
 1372 0293 5F       		.byte	0x5f
 1373 0294 66020000 		.4byte	0x266
 1374 0298 0C       		.uleb128 0xc
 1375 0299 04       		.byte	0x4
 1376 029a 07       		.byte	0x7
 1377 029b 64       		.byte	0x64
 1378 029c AD020000 		.4byte	0x2ad
 1379 02a0 0A       		.uleb128 0xa
 1380 02a1 8E030000 		.4byte	.LASF31
 1381 02a5 07       		.byte	0x7
 1382 02a6 66       		.byte	0x66
 1383 02a7 87020000 		.4byte	0x287
 1384 02ab 00       		.byte	0
 1385 02ac 00       		.byte	0
 1386 02ad 02       		.uleb128 0x2
 1387 02ae 51020000 		.4byte	.LASF50
 1388 02b2 07       		.byte	0x7
 1389 02b3 69       		.byte	0x69
 1390 02b4 98020000 		.4byte	0x298
 1391 02b8 02       		.uleb128 0x2
 1392 02b9 74020000 		.4byte	.LASF51
 1393 02bd 0A       		.byte	0xa
 1394 02be 9D       		.byte	0x9d
 1395 02bf F7000000 		.4byte	0xf7
 1396 02c3 02       		.uleb128 0x2
 1397 02c4 93010000 		.4byte	.LASF52
 1398 02c8 0A       		.byte	0xa
 1399 02c9 A2       		.byte	0xa2
 1400 02ca 47000000 		.4byte	0x47
 1401 02ce 03       		.uleb128 0x3
 1402 02cf E5040000 		.4byte	.LASF53
 1403 02d3 24       		.byte	0x24
 1404 02d4 0A       		.byte	0xa
 1405 02d5 B9       		.byte	0xb9
 1406 02d6 40030000 		.4byte	0x340
 1407 02da 0B       		.uleb128 0xb
 1408 02db 723400   		.ascii	"r4\000"
 1409 02de 0A       		.byte	0xa
 1410 02df BA       		.byte	0xba
 1411 02e0 C3020000 		.4byte	0x2c3
 1412 02e4 00       		.byte	0
 1413 02e5 0B       		.uleb128 0xb
 1414 02e6 723500   		.ascii	"r5\000"
 1415 02e9 0A       		.byte	0xa
 1416 02ea BB       		.byte	0xbb
 1417 02eb C3020000 		.4byte	0x2c3
 1418 02ef 04       		.byte	0x4
 1419 02f0 0B       		.uleb128 0xb
 1420 02f1 723600   		.ascii	"r6\000"
 1421 02f4 0A       		.byte	0xa
 1422 02f5 BC       		.byte	0xbc
 1423 02f6 C3020000 		.4byte	0x2c3
 1424 02fa 08       		.byte	0x8
ARM GAS  /tmp/ccEnej6L.s 			page 26


 1425 02fb 0B       		.uleb128 0xb
 1426 02fc 723700   		.ascii	"r7\000"
 1427 02ff 0A       		.byte	0xa
 1428 0300 BD       		.byte	0xbd
 1429 0301 C3020000 		.4byte	0x2c3
 1430 0305 0C       		.byte	0xc
 1431 0306 0B       		.uleb128 0xb
 1432 0307 723800   		.ascii	"r8\000"
 1433 030a 0A       		.byte	0xa
 1434 030b BE       		.byte	0xbe
 1435 030c C3020000 		.4byte	0x2c3
 1436 0310 10       		.byte	0x10
 1437 0311 0B       		.uleb128 0xb
 1438 0312 723900   		.ascii	"r9\000"
 1439 0315 0A       		.byte	0xa
 1440 0316 BF       		.byte	0xbf
 1441 0317 C3020000 		.4byte	0x2c3
 1442 031b 14       		.byte	0x14
 1443 031c 0B       		.uleb128 0xb
 1444 031d 72313000 		.ascii	"r10\000"
 1445 0321 0A       		.byte	0xa
 1446 0322 C0       		.byte	0xc0
 1447 0323 C3020000 		.4byte	0x2c3
 1448 0327 18       		.byte	0x18
 1449 0328 0B       		.uleb128 0xb
 1450 0329 72313100 		.ascii	"r11\000"
 1451 032d 0A       		.byte	0xa
 1452 032e C1       		.byte	0xc1
 1453 032f C3020000 		.4byte	0x2c3
 1454 0333 1C       		.byte	0x1c
 1455 0334 0B       		.uleb128 0xb
 1456 0335 6C7200   		.ascii	"lr\000"
 1457 0338 0A       		.byte	0xa
 1458 0339 C2       		.byte	0xc2
 1459 033a C3020000 		.4byte	0x2c3
 1460 033e 20       		.byte	0x20
 1461 033f 00       		.byte	0
 1462 0340 03       		.uleb128 0x3
 1463 0341 20020000 		.4byte	.LASF54
 1464 0345 04       		.byte	0x4
 1465 0346 0A       		.byte	0xa
 1466 0347 CA       		.byte	0xca
 1467 0348 59030000 		.4byte	0x359
 1468 034c 0B       		.uleb128 0xb
 1469 034d 72313300 		.ascii	"r13\000"
 1470 0351 0A       		.byte	0xa
 1471 0352 CB       		.byte	0xcb
 1472 0353 59030000 		.4byte	0x359
 1473 0357 00       		.byte	0
 1474 0358 00       		.byte	0
 1475 0359 0D       		.uleb128 0xd
 1476 035a 04       		.byte	0x4
 1477 035b CE020000 		.4byte	0x2ce
 1478 035f 02       		.uleb128 0x2
 1479 0360 03020000 		.4byte	.LASF55
 1480 0364 0B       		.byte	0xb
 1481 0365 4E       		.byte	0x4e
ARM GAS  /tmp/ccEnej6L.s 			page 27


 1482 0366 6A030000 		.4byte	0x36a
 1483 036a 0D       		.uleb128 0xd
 1484 036b 04       		.byte	0x4
 1485 036c 70030000 		.4byte	0x370
 1486 0370 0E       		.uleb128 0xe
 1487 0371 7B030000 		.4byte	0x37b
 1488 0375 0F       		.uleb128 0xf
 1489 0376 47000000 		.4byte	0x47
 1490 037a 00       		.byte	0
 1491 037b 02       		.uleb128 0x2
 1492 037c E8030000 		.4byte	.LASF56
 1493 0380 0B       		.byte	0xb
 1494 0381 53       		.byte	0x53
 1495 0382 86030000 		.4byte	0x386
 1496 0386 03       		.uleb128 0x3
 1497 0387 E8030000 		.4byte	.LASF56
 1498 038b 14       		.byte	0x14
 1499 038c 0B       		.byte	0xb
 1500 038d 5A       		.byte	0x5a
 1501 038e CF030000 		.4byte	0x3cf
 1502 0392 0A       		.uleb128 0xa
 1503 0393 D5010000 		.4byte	.LASF57
 1504 0397 0B       		.byte	0xb
 1505 0398 5B       		.byte	0x5b
 1506 0399 CF030000 		.4byte	0x3cf
 1507 039d 00       		.byte	0
 1508 039e 0A       		.uleb128 0xa
 1509 039f 9C010000 		.4byte	.LASF58
 1510 03a3 0B       		.byte	0xb
 1511 03a4 5D       		.byte	0x5d
 1512 03a5 CF030000 		.4byte	0x3cf
 1513 03a9 04       		.byte	0x4
 1514 03aa 0A       		.uleb128 0xa
 1515 03ab 93020000 		.4byte	.LASF59
 1516 03af 0B       		.byte	0xb
 1517 03b0 5F       		.byte	0x5f
 1518 03b1 5A010000 		.4byte	0x15a
 1519 03b5 08       		.byte	0x8
 1520 03b6 0A       		.uleb128 0xa
 1521 03b7 A4020000 		.4byte	.LASF60
 1522 03bb 0B       		.byte	0xb
 1523 03bc 60       		.byte	0x60
 1524 03bd 5F030000 		.4byte	0x35f
 1525 03c1 0C       		.byte	0xc
 1526 03c2 0A       		.uleb128 0xa
 1527 03c3 F7040000 		.4byte	.LASF61
 1528 03c7 0B       		.byte	0xb
 1529 03c8 62       		.byte	0x62
 1530 03c9 47000000 		.4byte	0x47
 1531 03cd 10       		.byte	0x10
 1532 03ce 00       		.byte	0
 1533 03cf 0D       		.uleb128 0xd
 1534 03d0 04       		.byte	0x4
 1535 03d1 7B030000 		.4byte	0x37b
 1536 03d5 0C       		.uleb128 0xc
 1537 03d6 10       		.byte	0x10
 1538 03d7 0B       		.byte	0xb
ARM GAS  /tmp/ccEnej6L.s 			page 28


 1539 03d8 6C       		.byte	0x6c
 1540 03d9 0E040000 		.4byte	0x40e
 1541 03dd 0A       		.uleb128 0xa
 1542 03de D5010000 		.4byte	.LASF57
 1543 03e2 0B       		.byte	0xb
 1544 03e3 6D       		.byte	0x6d
 1545 03e4 CF030000 		.4byte	0x3cf
 1546 03e8 00       		.byte	0
 1547 03e9 0A       		.uleb128 0xa
 1548 03ea 9C010000 		.4byte	.LASF58
 1549 03ee 0B       		.byte	0xb
 1550 03ef 6F       		.byte	0x6f
 1551 03f0 CF030000 		.4byte	0x3cf
 1552 03f4 04       		.byte	0x4
 1553 03f5 0A       		.uleb128 0xa
 1554 03f6 93020000 		.4byte	.LASF59
 1555 03fa 0B       		.byte	0xb
 1556 03fb 71       		.byte	0x71
 1557 03fc 5A010000 		.4byte	0x15a
 1558 0400 08       		.byte	0x8
 1559 0401 0A       		.uleb128 0xa
 1560 0402 52050000 		.4byte	.LASF62
 1561 0406 0B       		.byte	0xb
 1562 0407 72       		.byte	0x72
 1563 0408 65010000 		.4byte	0x165
 1564 040c 0C       		.byte	0xc
 1565 040d 00       		.byte	0
 1566 040e 02       		.uleb128 0x2
 1567 040f 68050000 		.4byte	.LASF63
 1568 0413 0B       		.byte	0xb
 1569 0414 73       		.byte	0x73
 1570 0415 D5030000 		.4byte	0x3d5
 1571 0419 10       		.uleb128 0x10
 1572 041a 39000000 		.4byte	.LASF71
 1573 041e 0B       		.byte	0xb
 1574 041f D1       		.byte	0xd1
 1575 0420 0E040000 		.4byte	0x40e
 1576 0424 0C       		.uleb128 0xc
 1577 0425 1C       		.byte	0x1c
 1578 0426 0C       		.byte	0xc
 1579 0427 57       		.byte	0x57
 1580 0428 75040000 		.4byte	0x475
 1581 042c 0A       		.uleb128 0xa
 1582 042d E0030000 		.4byte	.LASF64
 1583 0431 0C       		.byte	0xc
 1584 0432 58       		.byte	0x58
 1585 0433 8D020000 		.4byte	0x28d
 1586 0437 00       		.byte	0
 1587 0438 0A       		.uleb128 0xa
 1588 0439 80030000 		.4byte	.LASF65
 1589 043d 0C       		.byte	0xc
 1590 043e 59       		.byte	0x59
 1591 043f 39010000 		.4byte	0x139
 1592 0443 08       		.byte	0x8
 1593 0444 0A       		.uleb128 0xa
 1594 0445 E3020000 		.4byte	.LASF66
 1595 0449 0C       		.byte	0xc
ARM GAS  /tmp/ccEnej6L.s 			page 29


 1596 044a 5B       		.byte	0x5b
 1597 044b 40030000 		.4byte	0x340
 1598 044f 0C       		.byte	0xc
 1599 0450 0A       		.uleb128 0xa
 1600 0451 41020000 		.4byte	.LASF67
 1601 0455 0C       		.byte	0xc
 1602 0456 5E       		.byte	0x5e
 1603 0457 87020000 		.4byte	0x287
 1604 045b 10       		.byte	0x10
 1605 045c 0A       		.uleb128 0xa
 1606 045d 08030000 		.4byte	.LASF68
 1607 0461 0C       		.byte	0xc
 1608 0462 5F       		.byte	0x5f
 1609 0463 87020000 		.4byte	0x287
 1610 0467 14       		.byte	0x14
 1611 0468 0A       		.uleb128 0xa
 1612 0469 FE020000 		.4byte	.LASF69
 1613 046d 0C       		.byte	0xc
 1614 046e 62       		.byte	0x62
 1615 046f 87020000 		.4byte	0x287
 1616 0473 18       		.byte	0x18
 1617 0474 00       		.byte	0
 1618 0475 02       		.uleb128 0x2
 1619 0476 10050000 		.4byte	.LASF70
 1620 047a 0C       		.byte	0xc
 1621 047b 64       		.byte	0x64
 1622 047c 24040000 		.4byte	0x424
 1623 0480 10       		.uleb128 0x10
 1624 0481 1A050000 		.4byte	.LASF72
 1625 0485 0C       		.byte	0xc
 1626 0486 68       		.byte	0x68
 1627 0487 75040000 		.4byte	0x475
 1628 048b 03       		.uleb128 0x3
 1629 048c 69020000 		.4byte	.LASF73
 1630 0490 10       		.byte	0x10
 1631 0491 0D       		.byte	0xd
 1632 0492 25       		.byte	0x25
 1633 0493 BC040000 		.4byte	0x4bc
 1634 0497 0A       		.uleb128 0xa
 1635 0498 FF000000 		.4byte	.LASF74
 1636 049c 0D       		.byte	0xd
 1637 049d 26       		.byte	0x26
 1638 049e 8D020000 		.4byte	0x28d
 1639 04a2 00       		.byte	0
 1640 04a3 0A       		.uleb128 0xa
 1641 04a4 6F050000 		.4byte	.LASF75
 1642 04a8 0D       		.byte	0xd
 1643 04a9 28       		.byte	0x28
 1644 04aa 87020000 		.4byte	0x287
 1645 04ae 08       		.byte	0x8
 1646 04af 0A       		.uleb128 0xa
 1647 04b0 2C040000 		.4byte	.LASF76
 1648 04b4 0D       		.byte	0xd
 1649 04b5 2A       		.byte	0x2a
 1650 04b6 BC040000 		.4byte	0x4bc
 1651 04ba 0C       		.byte	0xc
 1652 04bb 00       		.byte	0
ARM GAS  /tmp/ccEnej6L.s 			page 30


 1653 04bc 0D       		.uleb128 0xd
 1654 04bd 04       		.byte	0x4
 1655 04be 8B040000 		.4byte	0x48b
 1656 04c2 02       		.uleb128 0x2
 1657 04c3 69020000 		.4byte	.LASF73
 1658 04c7 0D       		.byte	0xd
 1659 04c8 2C       		.byte	0x2c
 1660 04c9 8B040000 		.4byte	0x48b
 1661 04cd 11       		.uleb128 0x11
 1662 04ce 04       		.byte	0x4
 1663 04cf 09       		.byte	0x9
 1664 04d0 8F       		.byte	0x8f
 1665 04d1 02050000 		.4byte	0x502
 1666 04d5 12       		.uleb128 0x12
 1667 04d6 1A000000 		.4byte	.LASF78
 1668 04da 09       		.byte	0x9
 1669 04db 96       		.byte	0x96
 1670 04dc 44010000 		.4byte	0x144
 1671 04e0 12       		.uleb128 0x12
 1672 04e1 A4000000 		.4byte	.LASF79
 1673 04e5 09       		.byte	0x9
 1674 04e6 9D       		.byte	0x9d
 1675 04e7 44010000 		.4byte	0x144
 1676 04eb 12       		.uleb128 0x12
 1677 04ec 28050000 		.4byte	.LASF80
 1678 04f0 09       		.byte	0x9
 1679 04f1 A4       		.byte	0xa4
 1680 04f2 47000000 		.4byte	0x47
 1681 04f6 12       		.uleb128 0x12
 1682 04f7 87030000 		.4byte	.LASF81
 1683 04fb 09       		.byte	0x9
 1684 04fc AB       		.byte	0xab
 1685 04fd 4F010000 		.4byte	0x14f
 1686 0501 00       		.byte	0
 1687 0502 0D       		.uleb128 0xd
 1688 0503 04       		.byte	0x4
 1689 0504 0F050000 		.4byte	0x50f
 1690 0508 07       		.uleb128 0x7
 1691 0509 01       		.byte	0x1
 1692 050a 08       		.byte	0x8
 1693 050b FA030000 		.4byte	.LASF82
 1694 050f 08       		.uleb128 0x8
 1695 0510 08050000 		.4byte	0x508
 1696 0514 0D       		.uleb128 0xd
 1697 0515 04       		.byte	0x4
 1698 0516 C2040000 		.4byte	0x4c2
 1699 051a 0D       		.uleb128 0xd
 1700 051b 04       		.byte	0x4
 1701 051c 20050000 		.4byte	0x520
 1702 0520 13       		.uleb128 0x13
 1703 0521 44010000 		.4byte	0x144
 1704 0525 2F050000 		.4byte	0x52f
 1705 0529 0F       		.uleb128 0xf
 1706 052a 47000000 		.4byte	0x47
 1707 052e 00       		.byte	0
 1708 052f 0C       		.uleb128 0xc
 1709 0530 16       		.byte	0x16
ARM GAS  /tmp/ccEnej6L.s 			page 31


 1710 0531 0E       		.byte	0xe
 1711 0532 25       		.byte	0x25
 1712 0533 10060000 		.4byte	0x610
 1713 0537 0A       		.uleb128 0xa
 1714 0538 0C020000 		.4byte	.LASF83
 1715 053c 0E       		.byte	0xe
 1716 053d 26       		.byte	0x26
 1717 053e 10060000 		.4byte	0x610
 1718 0542 00       		.byte	0
 1719 0543 0A       		.uleb128 0xa
 1720 0544 7F020000 		.4byte	.LASF84
 1721 0548 0E       		.byte	0xe
 1722 0549 27       		.byte	0x27
 1723 054a D1000000 		.4byte	0xd1
 1724 054e 04       		.byte	0x4
 1725 054f 0A       		.uleb128 0xa
 1726 0550 F6020000 		.4byte	.LASF85
 1727 0554 0E       		.byte	0xe
 1728 0555 28       		.byte	0x28
 1729 0556 D1000000 		.4byte	0xd1
 1730 055a 05       		.byte	0x5
 1731 055b 0A       		.uleb128 0xa
 1732 055c 5D050000 		.4byte	.LASF86
 1733 0560 0E       		.byte	0xe
 1734 0561 29       		.byte	0x29
 1735 0562 E1000000 		.4byte	0xe1
 1736 0566 06       		.byte	0x6
 1737 0567 0A       		.uleb128 0xa
 1738 0568 1E030000 		.4byte	.LASF87
 1739 056c 0E       		.byte	0xe
 1740 056d 2A       		.byte	0x2a
 1741 056e D1000000 		.4byte	0xd1
 1742 0572 08       		.byte	0x8
 1743 0573 0A       		.uleb128 0xa
 1744 0574 AC020000 		.4byte	.LASF88
 1745 0578 0E       		.byte	0xe
 1746 0579 2B       		.byte	0x2b
 1747 057a D1000000 		.4byte	0xd1
 1748 057e 09       		.byte	0x9
 1749 057f 0A       		.uleb128 0xa
 1750 0580 96000000 		.4byte	.LASF89
 1751 0584 0E       		.byte	0xe
 1752 0585 2C       		.byte	0x2c
 1753 0586 D1000000 		.4byte	0xd1
 1754 058a 0A       		.byte	0xa
 1755 058b 0A       		.uleb128 0xa
 1756 058c D4030000 		.4byte	.LASF90
 1757 0590 0E       		.byte	0xe
 1758 0591 2D       		.byte	0x2d
 1759 0592 D1000000 		.4byte	0xd1
 1760 0596 0B       		.byte	0xb
 1761 0597 0A       		.uleb128 0xa
 1762 0598 FE040000 		.4byte	.LASF91
 1763 059c 0E       		.byte	0xe
 1764 059d 2E       		.byte	0x2e
 1765 059e D1000000 		.4byte	0xd1
 1766 05a2 0C       		.byte	0xc
ARM GAS  /tmp/ccEnej6L.s 			page 32


 1767 05a3 0A       		.uleb128 0xa
 1768 05a4 B3030000 		.4byte	.LASF92
 1769 05a8 0E       		.byte	0xe
 1770 05a9 2F       		.byte	0x2f
 1771 05aa D1000000 		.4byte	0xd1
 1772 05ae 0D       		.byte	0xd
 1773 05af 0A       		.uleb128 0xa
 1774 05b0 00000000 		.4byte	.LASF93
 1775 05b4 0E       		.byte	0xe
 1776 05b5 30       		.byte	0x30
 1777 05b6 D1000000 		.4byte	0xd1
 1778 05ba 0E       		.byte	0xe
 1779 05bb 0A       		.uleb128 0xa
 1780 05bc CF020000 		.4byte	.LASF94
 1781 05c0 0E       		.byte	0xe
 1782 05c1 31       		.byte	0x31
 1783 05c2 D1000000 		.4byte	0xd1
 1784 05c6 0F       		.byte	0xf
 1785 05c7 0A       		.uleb128 0xa
 1786 05c8 DB000000 		.4byte	.LASF95
 1787 05cc 0E       		.byte	0xe
 1788 05cd 32       		.byte	0x32
 1789 05ce D1000000 		.4byte	0xd1
 1790 05d2 10       		.byte	0x10
 1791 05d3 0A       		.uleb128 0xa
 1792 05d4 B4000000 		.4byte	.LASF96
 1793 05d8 0E       		.byte	0xe
 1794 05d9 34       		.byte	0x34
 1795 05da D1000000 		.4byte	0xd1
 1796 05de 11       		.byte	0x11
 1797 05df 0A       		.uleb128 0xa
 1798 05e0 EB000000 		.4byte	.LASF97
 1799 05e4 0E       		.byte	0xe
 1800 05e5 35       		.byte	0x35
 1801 05e6 D1000000 		.4byte	0xd1
 1802 05ea 12       		.byte	0x12
 1803 05eb 0A       		.uleb128 0xa
 1804 05ec 87020000 		.4byte	.LASF98
 1805 05f0 0E       		.byte	0xe
 1806 05f1 36       		.byte	0x36
 1807 05f2 D1000000 		.4byte	0xd1
 1808 05f6 13       		.byte	0x13
 1809 05f7 0A       		.uleb128 0xa
 1810 05f8 95030000 		.4byte	.LASF99
 1811 05fc 0E       		.byte	0xe
 1812 05fd 37       		.byte	0x37
 1813 05fe D1000000 		.4byte	0xd1
 1814 0602 14       		.byte	0x14
 1815 0603 0A       		.uleb128 0xa
 1816 0604 74030000 		.4byte	.LASF100
 1817 0608 0E       		.byte	0xe
 1818 0609 39       		.byte	0x39
 1819 060a D1000000 		.4byte	0xd1
 1820 060e 15       		.byte	0x15
 1821 060f 00       		.byte	0
 1822 0610 14       		.uleb128 0x14
 1823 0611 08050000 		.4byte	0x508
ARM GAS  /tmp/ccEnej6L.s 			page 33


 1824 0615 20060000 		.4byte	0x620
 1825 0619 15       		.uleb128 0x15
 1826 061a 20060000 		.4byte	0x620
 1827 061e 03       		.byte	0x3
 1828 061f 00       		.byte	0
 1829 0620 07       		.uleb128 0x7
 1830 0621 04       		.byte	0x4
 1831 0622 07       		.byte	0x7
 1832 0623 9B020000 		.4byte	.LASF101
 1833 0627 02       		.uleb128 0x2
 1834 0628 77050000 		.4byte	.LASF102
 1835 062c 0E       		.byte	0xe
 1836 062d 3A       		.byte	0x3a
 1837 062e 2F050000 		.4byte	0x52f
 1838 0632 08       		.uleb128 0x8
 1839 0633 27060000 		.4byte	0x627
 1840 0637 10       		.uleb128 0x10
 1841 0638 EF010000 		.4byte	.LASF103
 1842 063c 0E       		.byte	0xe
 1843 063d 77       		.byte	0x77
 1844 063e 32060000 		.4byte	0x632
 1845 0642 0D       		.uleb128 0xd
 1846 0643 04       		.byte	0x4
 1847 0644 D1000000 		.4byte	0xd1
 1848 0648 03       		.uleb128 0x3
 1849 0649 14040000 		.4byte	.LASF104
 1850 064d 10       		.byte	0x10
 1851 064e 0F       		.byte	0xf
 1852 064f 41       		.byte	0x41
 1853 0650 85060000 		.4byte	0x685
 1854 0654 0A       		.uleb128 0xa
 1855 0655 21000000 		.4byte	.LASF105
 1856 0659 0F       		.byte	0xf
 1857 065a 42       		.byte	0x42
 1858 065b A9060000 		.4byte	0x6a9
 1859 065f 00       		.byte	0
 1860 0660 0A       		.uleb128 0xa
 1861 0661 F5030000 		.4byte	.LASF106
 1862 0665 0F       		.byte	0xf
 1863 0666 42       		.byte	0x42
 1864 0667 C8060000 		.4byte	0x6c8
 1865 066b 04       		.byte	0x4
 1866 066c 0B       		.uleb128 0xb
 1867 066d 70757400 		.ascii	"put\000"
 1868 0671 0F       		.byte	0xf
 1869 0672 42       		.byte	0x42
 1870 0673 E2060000 		.4byte	0x6e2
 1871 0677 08       		.byte	0x8
 1872 0678 0B       		.uleb128 0xb
 1873 0679 67657400 		.ascii	"get\000"
 1874 067d 0F       		.byte	0xf
 1875 067e 42       		.byte	0x42
 1876 067f 1A050000 		.4byte	0x51a
 1877 0683 0C       		.byte	0xc
 1878 0684 00       		.byte	0
 1879 0685 08       		.uleb128 0x8
 1880 0686 48060000 		.4byte	0x648
ARM GAS  /tmp/ccEnej6L.s 			page 34


 1881 068a 13       		.uleb128 0x13
 1882 068b 5B000000 		.4byte	0x5b
 1883 068f A3060000 		.4byte	0x6a3
 1884 0693 0F       		.uleb128 0xf
 1885 0694 47000000 		.4byte	0x47
 1886 0698 0F       		.uleb128 0xf
 1887 0699 A3060000 		.4byte	0x6a3
 1888 069d 0F       		.uleb128 0xf
 1889 069e 5B000000 		.4byte	0x5b
 1890 06a2 00       		.byte	0
 1891 06a3 0D       		.uleb128 0xd
 1892 06a4 04       		.byte	0x4
 1893 06a5 DC000000 		.4byte	0xdc
 1894 06a9 0D       		.uleb128 0xd
 1895 06aa 04       		.byte	0x4
 1896 06ab 8A060000 		.4byte	0x68a
 1897 06af 13       		.uleb128 0x13
 1898 06b0 5B000000 		.4byte	0x5b
 1899 06b4 C8060000 		.4byte	0x6c8
 1900 06b8 0F       		.uleb128 0xf
 1901 06b9 47000000 		.4byte	0x47
 1902 06bd 0F       		.uleb128 0xf
 1903 06be 42060000 		.4byte	0x642
 1904 06c2 0F       		.uleb128 0xf
 1905 06c3 5B000000 		.4byte	0x5b
 1906 06c7 00       		.byte	0
 1907 06c8 0D       		.uleb128 0xd
 1908 06c9 04       		.byte	0x4
 1909 06ca AF060000 		.4byte	0x6af
 1910 06ce 13       		.uleb128 0x13
 1911 06cf 44010000 		.4byte	0x144
 1912 06d3 E2060000 		.4byte	0x6e2
 1913 06d7 0F       		.uleb128 0xf
 1914 06d8 47000000 		.4byte	0x47
 1915 06dc 0F       		.uleb128 0xf
 1916 06dd D1000000 		.4byte	0xd1
 1917 06e1 00       		.byte	0
 1918 06e2 0D       		.uleb128 0xd
 1919 06e3 04       		.byte	0x4
 1920 06e4 CE060000 		.4byte	0x6ce
 1921 06e8 0C       		.uleb128 0xc
 1922 06e9 04       		.byte	0x4
 1923 06ea 0F       		.byte	0xf
 1924 06eb 4A       		.byte	0x4a
 1925 06ec FD060000 		.4byte	0x6fd
 1926 06f0 0B       		.uleb128 0xb
 1927 06f1 766D7400 		.ascii	"vmt\000"
 1928 06f5 0F       		.byte	0xf
 1929 06f6 4C       		.byte	0x4c
 1930 06f7 FD060000 		.4byte	0x6fd
 1931 06fb 00       		.byte	0
 1932 06fc 00       		.byte	0
 1933 06fd 0D       		.uleb128 0xd
 1934 06fe 04       		.byte	0x4
 1935 06ff 85060000 		.4byte	0x685
 1936 0703 02       		.uleb128 0x2
 1937 0704 B3010000 		.4byte	.LASF107
ARM GAS  /tmp/ccEnej6L.s 			page 35


 1938 0708 0F       		.byte	0xf
 1939 0709 4E       		.byte	0x4e
 1940 070a E8060000 		.4byte	0x6e8
 1941 070e 14       		.uleb128 0x14
 1942 070f B8020000 		.4byte	0x2b8
 1943 0713 1E070000 		.4byte	0x71e
 1944 0717 15       		.uleb128 0x15
 1945 0718 20060000 		.4byte	0x620
 1946 071c 26       		.byte	0x26
 1947 071d 00       		.byte	0
 1948 071e 10       		.uleb128 0x10
 1949 071f 78010000 		.4byte	.LASF108
 1950 0723 10       		.byte	0x10
 1951 0724 82       		.byte	0x82
 1952 0725 0E070000 		.4byte	0x70e
 1953 0729 16       		.uleb128 0x16
 1954 072a 91050000 		.4byte	.LASF124
 1955 072e 01       		.byte	0x1
 1956 072f 70       		.byte	0x70
 1957 0730 00000000 		.4byte	.LFB10
 1958 0734 D4070000 		.4byte	.LFE10-.LFB10
 1959 0738 01       		.uleb128 0x1
 1960 0739 9C       		.byte	0x9c
 1961 073a 990A0000 		.4byte	0xa99
 1962 073e 17       		.uleb128 0x17
 1963 073f 63687000 		.ascii	"chp\000"
 1964 0743 01       		.byte	0x1
 1965 0744 70       		.byte	0x70
 1966 0745 990A0000 		.4byte	0xa99
 1967 0749 00000000 		.4byte	.LLST0
 1968 074d 17       		.uleb128 0x17
 1969 074e 666D7400 		.ascii	"fmt\000"
 1970 0752 01       		.byte	0x1
 1971 0753 70       		.byte	0x70
 1972 0754 02050000 		.4byte	0x502
 1973 0758 37000000 		.4byte	.LLST1
 1974 075c 18       		.uleb128 0x18
 1975 075d 19       		.uleb128 0x19
 1976 075e 617000   		.ascii	"ap\000"
 1977 0761 01       		.byte	0x1
 1978 0762 71       		.byte	0x71
 1979 0763 49000000 		.4byte	0x49
 1980 0767 03       		.uleb128 0x3
 1981 0768 91       		.byte	0x91
 1982 0769 B47F     		.sleb128 -76
 1983 076b 1A       		.uleb128 0x1a
 1984 076c 7000     		.ascii	"p\000"
 1985 076e 01       		.byte	0x1
 1986 076f 72       		.byte	0x72
 1987 0770 9F0A0000 		.4byte	0xa9f
 1988 0774 F8000000 		.4byte	.LLST2
 1989 0778 1A       		.uleb128 0x1a
 1990 0779 7300     		.ascii	"s\000"
 1991 077b 01       		.byte	0x1
 1992 077c 72       		.byte	0x72
 1993 077d 9F0A0000 		.4byte	0xa9f
 1994 0781 F5010000 		.4byte	.LLST3
ARM GAS  /tmp/ccEnej6L.s 			page 36


 1995 0785 1A       		.uleb128 0x1a
 1996 0786 6300     		.ascii	"c\000"
 1997 0788 01       		.byte	0x1
 1998 0789 72       		.byte	0x72
 1999 078a 08050000 		.4byte	0x508
 2000 078e DC020000 		.4byte	.LLST4
 2001 0792 1B       		.uleb128 0x1b
 2002 0793 A4010000 		.4byte	.LASF109
 2003 0797 01       		.byte	0x1
 2004 0798 72       		.byte	0x72
 2005 0799 08050000 		.4byte	0x508
 2006 079d C5030000 		.4byte	.LLST5
 2007 07a1 1A       		.uleb128 0x1a
 2008 07a2 6900     		.ascii	"i\000"
 2009 07a4 01       		.byte	0x1
 2010 07a5 73       		.byte	0x73
 2011 07a6 54000000 		.4byte	0x54
 2012 07aa 2D040000 		.4byte	.LLST6
 2013 07ae 1B       		.uleb128 0x1b
 2014 07af 0A040000 		.4byte	.LASF110
 2015 07b3 01       		.byte	0x1
 2016 07b4 73       		.byte	0x73
 2017 07b5 54000000 		.4byte	0x54
 2018 07b9 58040000 		.4byte	.LLST7
 2019 07bd 1B       		.uleb128 0x1b
 2020 07be 1A020000 		.4byte	.LASF111
 2021 07c2 01       		.byte	0x1
 2022 07c3 73       		.byte	0x73
 2023 07c4 54000000 		.4byte	0x54
 2024 07c8 28050000 		.4byte	.LLST8
 2025 07cc 1B       		.uleb128 0x1b
 2026 07cd AB010000 		.4byte	.LASF112
 2027 07d1 01       		.byte	0x1
 2028 07d2 74       		.byte	0x74
 2029 07d3 02010000 		.4byte	0x102
 2030 07d7 EF050000 		.4byte	.LLST9
 2031 07db 1B       		.uleb128 0x1b
 2032 07dc F8010000 		.4byte	.LASF113
 2033 07e0 01       		.byte	0x1
 2034 07e1 74       		.byte	0x74
 2035 07e2 02010000 		.4byte	0x102
 2036 07e6 BC060000 		.4byte	.LLST10
 2037 07ea 1A       		.uleb128 0x1a
 2038 07eb 6C00     		.ascii	"l\000"
 2039 07ed 01       		.byte	0x1
 2040 07ee 75       		.byte	0x75
 2041 07ef AA000000 		.4byte	0xaa
 2042 07f3 E9060000 		.4byte	.LLST11
 2043 07f7 1A       		.uleb128 0x1a
 2044 07f8 6600     		.ascii	"f\000"
 2045 07fa 01       		.byte	0x1
 2046 07fb 77       		.byte	0x77
 2047 07fc A50A0000 		.4byte	0xaa5
 2048 0800 07070000 		.4byte	.LLST12
 2049 0804 1C       		.uleb128 0x1c
 2050 0805 07010000 		.4byte	.LASF114
 2051 0809 01       		.byte	0x1
ARM GAS  /tmp/ccEnej6L.s 			page 37


 2052 080a 78       		.byte	0x78
 2053 080b AC0A0000 		.4byte	0xaac
 2054 080f 03       		.uleb128 0x3
 2055 0810 91       		.byte	0x91
 2056 0811 B87F     		.sleb128 -72
 2057 0813 1D       		.uleb128 0x1d
 2058 0814 60010000 		.4byte	.LASF125
 2059 0818 01       		.byte	0x1
 2060 0819 E6       		.byte	0xe6
 2061 081a 08060000 		.4byte	.L23
 2062 081e 1E       		.uleb128 0x1e
 2063 081f BC0A0000 		.4byte	0xabc
 2064 0823 C8020000 		.4byte	.LBB26
 2065 0827 10010000 		.4byte	.LBE26-.LBB26
 2066 082b 01       		.byte	0x1
 2067 082c D8       		.byte	0xd8
 2068 082d 24090000 		.4byte	0x924
 2069 0831 1F       		.uleb128 0x1f
 2070 0832 D50A0000 		.4byte	0xad5
 2071 0836 25070000 		.4byte	.LLST13
 2072 083a 1F       		.uleb128 0x1f
 2073 083b CC0A0000 		.4byte	0xacc
 2074 083f 4A070000 		.4byte	.LLST14
 2075 0843 20       		.uleb128 0x20
 2076 0844 C8020000 		.4byte	.LBB27
 2077 0848 10010000 		.4byte	.LBE27-.LBB27
 2078 084c 21       		.uleb128 0x21
 2079 084d E00A0000 		.4byte	0xae0
 2080 0851 68070000 		.4byte	.LLST15
 2081 0855 21       		.uleb128 0x21
 2082 0856 E90A0000 		.4byte	0xae9
 2083 085a 86070000 		.4byte	.LLST16
 2084 085e 1E       		.uleb128 0x1e
 2085 085f 2C0B0000 		.4byte	0xb2c
 2086 0863 D0020000 		.4byte	.LBB28
 2087 0867 5C000000 		.4byte	.LBE28-.LBB28
 2088 086b 01       		.byte	0x1
 2089 086c 54       		.byte	0x54
 2090 086d C4080000 		.4byte	0x8c4
 2091 0871 1F       		.uleb128 0x1f
 2092 0872 570B0000 		.4byte	0xb57
 2093 0876 9E070000 		.4byte	.LLST17
 2094 087a 1F       		.uleb128 0x1f
 2095 087b 4C0B0000 		.4byte	0xb4c
 2096 087f B2070000 		.4byte	.LLST18
 2097 0883 1F       		.uleb128 0x1f
 2098 0884 410B0000 		.4byte	0xb41
 2099 0888 C6070000 		.4byte	.LLST19
 2100 088c 1F       		.uleb128 0x1f
 2101 088d 380B0000 		.4byte	0xb38
 2102 0891 D9070000 		.4byte	.LLST20
 2103 0895 20       		.uleb128 0x20
 2104 0896 D0020000 		.4byte	.LBB29
 2105 089a 5C000000 		.4byte	.LBE29-.LBB29
 2106 089e 21       		.uleb128 0x21
 2107 089f 620B0000 		.4byte	0xb62
 2108 08a3 11080000 		.4byte	.LLST21
ARM GAS  /tmp/ccEnej6L.s 			page 38


 2109 08a7 21       		.uleb128 0x21
 2110 08a8 6B0B0000 		.4byte	0xb6b
 2111 08ac 55080000 		.4byte	.LLST22
 2112 08b0 21       		.uleb128 0x21
 2113 08b1 740B0000 		.4byte	0xb74
 2114 08b5 96080000 		.4byte	.LLST23
 2115 08b9 21       		.uleb128 0x21
 2116 08ba 7D0B0000 		.4byte	0xb7d
 2117 08be 96080000 		.4byte	.LLST23
 2118 08c2 00       		.byte	0
 2119 08c3 00       		.byte	0
 2120 08c4 22       		.uleb128 0x22
 2121 08c5 2C0B0000 		.4byte	0xb2c
 2122 08c9 60030000 		.4byte	.LBB30
 2123 08cd 00000000 		.4byte	.Ldebug_ranges0+0
 2124 08d1 01       		.byte	0x1
 2125 08d2 57       		.byte	0x57
 2126 08d3 1F       		.uleb128 0x1f
 2127 08d4 4C0B0000 		.4byte	0xb4c
 2128 08d8 BF080000 		.4byte	.LLST25
 2129 08dc 1F       		.uleb128 0x1f
 2130 08dd 570B0000 		.4byte	0xb57
 2131 08e1 D3080000 		.4byte	.LLST26
 2132 08e5 1F       		.uleb128 0x1f
 2133 08e6 410B0000 		.4byte	0xb41
 2134 08ea E9080000 		.4byte	.LLST27
 2135 08ee 1F       		.uleb128 0x1f
 2136 08ef 380B0000 		.4byte	0xb38
 2137 08f3 FC080000 		.4byte	.LLST28
 2138 08f7 23       		.uleb128 0x23
 2139 08f8 00000000 		.4byte	.Ldebug_ranges0+0
 2140 08fc 21       		.uleb128 0x21
 2141 08fd 620B0000 		.4byte	0xb62
 2142 0901 34090000 		.4byte	.LLST29
 2143 0905 21       		.uleb128 0x21
 2144 0906 6B0B0000 		.4byte	0xb6b
 2145 090a B8090000 		.4byte	.LLST30
 2146 090e 21       		.uleb128 0x21
 2147 090f 740B0000 		.4byte	0xb74
 2148 0913 270A0000 		.4byte	.LLST31
 2149 0917 21       		.uleb128 0x21
 2150 0918 7D0B0000 		.4byte	0xb7d
 2151 091c 500A0000 		.4byte	.LLST32
 2152 0920 00       		.byte	0
 2153 0921 00       		.byte	0
 2154 0922 00       		.byte	0
 2155 0923 00       		.byte	0
 2156 0924 1E       		.uleb128 0x1e
 2157 0925 FC0A0000 		.4byte	0xafc
 2158 0929 24060000 		.4byte	.LBB34
 2159 092d 7C000000 		.4byte	.LBE34-.LBB34
 2160 0931 01       		.byte	0x1
 2161 0932 EB       		.byte	0xeb
 2162 0933 AD090000 		.4byte	0x9ad
 2163 0937 24       		.uleb128 0x24
 2164 0938 200B0000 		.4byte	0xb20
 2165 093c 1F       		.uleb128 0x1f
ARM GAS  /tmp/ccEnej6L.s 			page 39


 2166 093d 150B0000 		.4byte	0xb15
 2167 0941 660A0000 		.4byte	.LLST33
 2168 0945 1F       		.uleb128 0x1f
 2169 0946 0C0B0000 		.4byte	0xb0c
 2170 094a 790A0000 		.4byte	.LLST34
 2171 094e 25       		.uleb128 0x25
 2172 094f 2C0B0000 		.4byte	0xb2c
 2173 0953 24060000 		.4byte	.LBB35
 2174 0957 7C000000 		.4byte	.LBE35-.LBB35
 2175 095b 01       		.byte	0x1
 2176 095c 4B       		.byte	0x4b
 2177 095d 1F       		.uleb128 0x1f
 2178 095e 570B0000 		.4byte	0xb57
 2179 0962 9A0A0000 		.4byte	.LLST35
 2180 0966 24       		.uleb128 0x24
 2181 0967 4C0B0000 		.4byte	0xb4c
 2182 096b 1F       		.uleb128 0x1f
 2183 096c 410B0000 		.4byte	0xb41
 2184 0970 660A0000 		.4byte	.LLST33
 2185 0974 1F       		.uleb128 0x1f
 2186 0975 380B0000 		.4byte	0xb38
 2187 0979 AE0A0000 		.4byte	.LLST37
 2188 097d 20       		.uleb128 0x20
 2189 097e 24060000 		.4byte	.LBB36
 2190 0982 7C000000 		.4byte	.LBE36-.LBB36
 2191 0986 21       		.uleb128 0x21
 2192 0987 620B0000 		.4byte	0xb62
 2193 098b F40A0000 		.4byte	.LLST38
 2194 098f 21       		.uleb128 0x21
 2195 0990 6B0B0000 		.4byte	0xb6b
 2196 0994 1D0B0000 		.4byte	.LLST39
 2197 0998 21       		.uleb128 0x21
 2198 0999 740B0000 		.4byte	0xb74
 2199 099d 6C0B0000 		.4byte	.LLST40
 2200 09a1 21       		.uleb128 0x21
 2201 09a2 7D0B0000 		.4byte	0xb7d
 2202 09a6 6C0B0000 		.4byte	.LLST40
 2203 09aa 00       		.byte	0
 2204 09ab 00       		.byte	0
 2205 09ac 00       		.byte	0
 2206 09ad 26       		.uleb128 0x26
 2207 09ae FC0A0000 		.4byte	0xafc
 2208 09b2 E4060000 		.4byte	.LBB37
 2209 09b6 18000000 		.4byte	.Ldebug_ranges0+0x18
 2210 09ba 01       		.byte	0x1
 2211 09bb CF       		.byte	0xcf
 2212 09bc 3A0A0000 		.4byte	0xa3a
 2213 09c0 1F       		.uleb128 0x1f
 2214 09c1 200B0000 		.4byte	0xb20
 2215 09c5 AB0B0000 		.4byte	.LLST42
 2216 09c9 1F       		.uleb128 0x1f
 2217 09ca 150B0000 		.4byte	0xb15
 2218 09ce BF0B0000 		.4byte	.LLST43
 2219 09d2 1F       		.uleb128 0x1f
 2220 09d3 0C0B0000 		.4byte	0xb0c
 2221 09d7 D20B0000 		.4byte	.LLST44
 2222 09db 22       		.uleb128 0x22
ARM GAS  /tmp/ccEnej6L.s 			page 40


 2223 09dc 2C0B0000 		.4byte	0xb2c
 2224 09e0 E4060000 		.4byte	.LBB38
 2225 09e4 18000000 		.4byte	.Ldebug_ranges0+0x18
 2226 09e8 01       		.byte	0x1
 2227 09e9 4B       		.byte	0x4b
 2228 09ea 1F       		.uleb128 0x1f
 2229 09eb 570B0000 		.4byte	0xb57
 2230 09ef F20B0000 		.4byte	.LLST45
 2231 09f3 1F       		.uleb128 0x1f
 2232 09f4 4C0B0000 		.4byte	0xb4c
 2233 09f8 AB0B0000 		.4byte	.LLST42
 2234 09fc 1F       		.uleb128 0x1f
 2235 09fd 410B0000 		.4byte	0xb41
 2236 0a01 BF0B0000 		.4byte	.LLST43
 2237 0a05 1F       		.uleb128 0x1f
 2238 0a06 380B0000 		.4byte	0xb38
 2239 0a0a 060C0000 		.4byte	.LLST48
 2240 0a0e 23       		.uleb128 0x23
 2241 0a0f 18000000 		.4byte	.Ldebug_ranges0+0x18
 2242 0a13 21       		.uleb128 0x21
 2243 0a14 620B0000 		.4byte	0xb62
 2244 0a18 3E0C0000 		.4byte	.LLST49
 2245 0a1c 21       		.uleb128 0x21
 2246 0a1d 6B0B0000 		.4byte	0xb6b
 2247 0a21 870C0000 		.4byte	.LLST50
 2248 0a25 21       		.uleb128 0x21
 2249 0a26 740B0000 		.4byte	0xb74
 2250 0a2a B20C0000 		.4byte	.LLST51
 2251 0a2e 21       		.uleb128 0x21
 2252 0a2f 7D0B0000 		.4byte	0xb7d
 2253 0a33 B20C0000 		.4byte	.LLST51
 2254 0a37 00       		.byte	0
 2255 0a38 00       		.byte	0
 2256 0a39 00       		.byte	0
 2257 0a3a 27       		.uleb128 0x27
 2258 0a3b 4C000000 		.4byte	.LVL3
 2259 0a3f 4A0A0000 		.4byte	0xa4a
 2260 0a43 28       		.uleb128 0x28
 2261 0a44 01       		.uleb128 0x1
 2262 0a45 50       		.byte	0x50
 2263 0a46 02       		.uleb128 0x2
 2264 0a47 75       		.byte	0x75
 2265 0a48 00       		.sleb128 0
 2266 0a49 00       		.byte	0
 2267 0a4a 27       		.uleb128 0x27
 2268 0a4b 1C040000 		.4byte	.LVL90
 2269 0a4f 600A0000 		.4byte	0xa60
 2270 0a53 28       		.uleb128 0x28
 2271 0a54 01       		.uleb128 0x1
 2272 0a55 50       		.byte	0x50
 2273 0a56 02       		.uleb128 0x2
 2274 0a57 75       		.byte	0x75
 2275 0a58 00       		.sleb128 0
 2276 0a59 28       		.uleb128 0x28
 2277 0a5a 01       		.uleb128 0x1
 2278 0a5b 51       		.byte	0x51
 2279 0a5c 02       		.uleb128 0x2
ARM GAS  /tmp/ccEnej6L.s 			page 41


 2280 0a5d 78       		.byte	0x78
 2281 0a5e 00       		.sleb128 0
 2282 0a5f 00       		.byte	0
 2283 0a60 27       		.uleb128 0x27
 2284 0a61 44040000 		.4byte	.LVL96
 2285 0a65 700A0000 		.4byte	0xa70
 2286 0a69 28       		.uleb128 0x28
 2287 0a6a 01       		.uleb128 0x1
 2288 0a6b 50       		.byte	0x50
 2289 0a6c 02       		.uleb128 0x2
 2290 0a6d 75       		.byte	0x75
 2291 0a6e 00       		.sleb128 0
 2292 0a6f 00       		.byte	0
 2293 0a70 27       		.uleb128 0x27
 2294 0a71 68040000 		.4byte	.LVL98
 2295 0a75 860A0000 		.4byte	0xa86
 2296 0a79 28       		.uleb128 0x28
 2297 0a7a 01       		.uleb128 0x1
 2298 0a7b 50       		.byte	0x50
 2299 0a7c 02       		.uleb128 0x2
 2300 0a7d 75       		.byte	0x75
 2301 0a7e 00       		.sleb128 0
 2302 0a7f 28       		.uleb128 0x28
 2303 0a80 01       		.uleb128 0x1
 2304 0a81 51       		.byte	0x51
 2305 0a82 02       		.uleb128 0x2
 2306 0a83 78       		.byte	0x78
 2307 0a84 00       		.sleb128 0
 2308 0a85 00       		.byte	0
 2309 0a86 29       		.uleb128 0x29
 2310 0a87 B4070000 		.4byte	.LVL164
 2311 0a8b 28       		.uleb128 0x28
 2312 0a8c 01       		.uleb128 0x1
 2313 0a8d 50       		.byte	0x50
 2314 0a8e 02       		.uleb128 0x2
 2315 0a8f 75       		.byte	0x75
 2316 0a90 00       		.sleb128 0
 2317 0a91 28       		.uleb128 0x28
 2318 0a92 01       		.uleb128 0x1
 2319 0a93 51       		.byte	0x51
 2320 0a94 02       		.uleb128 0x2
 2321 0a95 08       		.byte	0x8
 2322 0a96 2D       		.byte	0x2d
 2323 0a97 00       		.byte	0
 2324 0a98 00       		.byte	0
 2325 0a99 0D       		.uleb128 0xd
 2326 0a9a 04       		.byte	0x4
 2327 0a9b 03070000 		.4byte	0x703
 2328 0a9f 0D       		.uleb128 0xd
 2329 0aa0 04       		.byte	0x4
 2330 0aa1 08050000 		.4byte	0x508
 2331 0aa5 07       		.uleb128 0x7
 2332 0aa6 04       		.byte	0x4
 2333 0aa7 04       		.byte	0x4
 2334 0aa8 10030000 		.4byte	.LASF115
 2335 0aac 14       		.uleb128 0x14
 2336 0aad 08050000 		.4byte	0x508
ARM GAS  /tmp/ccEnej6L.s 			page 42


 2337 0ab1 BC0A0000 		.4byte	0xabc
 2338 0ab5 15       		.uleb128 0x15
 2339 0ab6 20060000 		.4byte	0x620
 2340 0aba 16       		.byte	0x16
 2341 0abb 00       		.byte	0
 2342 0abc 2A       		.uleb128 0x2a
 2343 0abd 40000000 		.4byte	.LASF117
 2344 0ac1 01       		.byte	0x1
 2345 0ac2 4F       		.byte	0x4f
 2346 0ac3 9F0A0000 		.4byte	0xa9f
 2347 0ac7 01       		.byte	0x1
 2348 0ac8 F50A0000 		.4byte	0xaf5
 2349 0acc 2B       		.uleb128 0x2b
 2350 0acd 7000     		.ascii	"p\000"
 2351 0acf 01       		.byte	0x1
 2352 0ad0 4F       		.byte	0x4f
 2353 0ad1 9F0A0000 		.4byte	0xa9f
 2354 0ad5 2B       		.uleb128 0x2b
 2355 0ad6 6E756D00 		.ascii	"num\000"
 2356 0ada 01       		.byte	0x1
 2357 0adb 4F       		.byte	0x4f
 2358 0adc F50A0000 		.4byte	0xaf5
 2359 0ae0 2C       		.uleb128 0x2c
 2360 0ae1 6C00     		.ascii	"l\000"
 2361 0ae3 01       		.byte	0x1
 2362 0ae4 50       		.byte	0x50
 2363 0ae5 AA000000 		.4byte	0xaa
 2364 0ae9 2D       		.uleb128 0x2d
 2365 0aea 0A040000 		.4byte	.LASF110
 2366 0aee 01       		.byte	0x1
 2367 0aef 51       		.byte	0x51
 2368 0af0 BC000000 		.4byte	0xbc
 2369 0af4 00       		.byte	0
 2370 0af5 07       		.uleb128 0x7
 2371 0af6 08       		.byte	0x8
 2372 0af7 04       		.byte	0x4
 2373 0af8 3D010000 		.4byte	.LASF116
 2374 0afc 2A       		.uleb128 0x2a
 2375 0afd 6F020000 		.4byte	.LASF118
 2376 0b01 01       		.byte	0x1
 2377 0b02 49       		.byte	0x49
 2378 0b03 9F0A0000 		.4byte	0xa9f
 2379 0b07 01       		.byte	0x1
 2380 0b08 2C0B0000 		.4byte	0xb2c
 2381 0b0c 2B       		.uleb128 0x2b
 2382 0b0d 7000     		.ascii	"p\000"
 2383 0b0f 01       		.byte	0x1
 2384 0b10 49       		.byte	0x49
 2385 0b11 9F0A0000 		.4byte	0xa9f
 2386 0b15 2B       		.uleb128 0x2b
 2387 0b16 6E756D00 		.ascii	"num\000"
 2388 0b1a 01       		.byte	0x1
 2389 0b1b 49       		.byte	0x49
 2390 0b1c AA000000 		.4byte	0xaa
 2391 0b20 2E       		.uleb128 0x2e
 2392 0b21 52040000 		.4byte	.LASF119
 2393 0b25 01       		.byte	0x1
ARM GAS  /tmp/ccEnej6L.s 			page 43


 2394 0b26 49       		.byte	0x49
 2395 0b27 66000000 		.4byte	0x66
 2396 0b2b 00       		.byte	0
 2397 0b2c 2F       		.uleb128 0x2f
 2398 0b2d 36050000 		.4byte	.LASF126
 2399 0b31 01       		.byte	0x1
 2400 0b32 28       		.byte	0x28
 2401 0b33 9F0A0000 		.4byte	0xa9f
 2402 0b37 01       		.byte	0x1
 2403 0b38 2B       		.uleb128 0x2b
 2404 0b39 7000     		.ascii	"p\000"
 2405 0b3b 01       		.byte	0x1
 2406 0b3c 28       		.byte	0x28
 2407 0b3d 9F0A0000 		.4byte	0xa9f
 2408 0b41 2B       		.uleb128 0x2b
 2409 0b42 6E756D00 		.ascii	"num\000"
 2410 0b46 01       		.byte	0x1
 2411 0b47 29       		.byte	0x29
 2412 0b48 AA000000 		.4byte	0xaa
 2413 0b4c 2E       		.uleb128 0x2e
 2414 0b4d 52040000 		.4byte	.LASF119
 2415 0b51 01       		.byte	0x1
 2416 0b52 2A       		.byte	0x2a
 2417 0b53 66000000 		.4byte	0x66
 2418 0b57 2E       		.uleb128 0x2e
 2419 0b58 B8020000 		.4byte	.LASF120
 2420 0b5c 01       		.byte	0x1
 2421 0b5d 2B       		.byte	0x2b
 2422 0b5e AA000000 		.4byte	0xaa
 2423 0b62 2C       		.uleb128 0x2c
 2424 0b63 6900     		.ascii	"i\000"
 2425 0b65 01       		.byte	0x1
 2426 0b66 2C       		.byte	0x2c
 2427 0b67 54000000 		.4byte	0x54
 2428 0b6b 2C       		.uleb128 0x2c
 2429 0b6c 7100     		.ascii	"q\000"
 2430 0b6e 01       		.byte	0x1
 2431 0b6f 2D       		.byte	0x2d
 2432 0b70 9F0A0000 		.4byte	0xa9f
 2433 0b74 2C       		.uleb128 0x2c
 2434 0b75 6C00     		.ascii	"l\000"
 2435 0b77 01       		.byte	0x1
 2436 0b78 2E       		.byte	0x2e
 2437 0b79 AA000000 		.4byte	0xaa
 2438 0b7d 2C       		.uleb128 0x2c
 2439 0b7e 6C6C00   		.ascii	"ll\000"
 2440 0b81 01       		.byte	0x1
 2441 0b82 2E       		.byte	0x2e
 2442 0b83 AA000000 		.4byte	0xaa
 2443 0b87 00       		.byte	0
 2444 0b88 00       		.byte	0
 2445              		.section	.debug_abbrev,"",%progbits
 2446              	.Ldebug_abbrev0:
 2447 0000 01       		.uleb128 0x1
 2448 0001 11       		.uleb128 0x11
 2449 0002 01       		.byte	0x1
 2450 0003 25       		.uleb128 0x25
ARM GAS  /tmp/ccEnej6L.s 			page 44


 2451 0004 0E       		.uleb128 0xe
 2452 0005 13       		.uleb128 0x13
 2453 0006 0B       		.uleb128 0xb
 2454 0007 03       		.uleb128 0x3
 2455 0008 0E       		.uleb128 0xe
 2456 0009 1B       		.uleb128 0x1b
 2457 000a 0E       		.uleb128 0xe
 2458 000b 55       		.uleb128 0x55
 2459 000c 17       		.uleb128 0x17
 2460 000d 11       		.uleb128 0x11
 2461 000e 01       		.uleb128 0x1
 2462 000f 10       		.uleb128 0x10
 2463 0010 17       		.uleb128 0x17
 2464 0011 00       		.byte	0
 2465 0012 00       		.byte	0
 2466 0013 02       		.uleb128 0x2
 2467 0014 16       		.uleb128 0x16
 2468 0015 00       		.byte	0
 2469 0016 03       		.uleb128 0x3
 2470 0017 0E       		.uleb128 0xe
 2471 0018 3A       		.uleb128 0x3a
 2472 0019 0B       		.uleb128 0xb
 2473 001a 3B       		.uleb128 0x3b
 2474 001b 0B       		.uleb128 0xb
 2475 001c 49       		.uleb128 0x49
 2476 001d 13       		.uleb128 0x13
 2477 001e 00       		.byte	0
 2478 001f 00       		.byte	0
 2479 0020 03       		.uleb128 0x3
 2480 0021 13       		.uleb128 0x13
 2481 0022 01       		.byte	0x1
 2482 0023 03       		.uleb128 0x3
 2483 0024 0E       		.uleb128 0xe
 2484 0025 0B       		.uleb128 0xb
 2485 0026 0B       		.uleb128 0xb
 2486 0027 3A       		.uleb128 0x3a
 2487 0028 0B       		.uleb128 0xb
 2488 0029 3B       		.uleb128 0x3b
 2489 002a 0B       		.uleb128 0xb
 2490 002b 01       		.uleb128 0x1
 2491 002c 13       		.uleb128 0x13
 2492 002d 00       		.byte	0
 2493 002e 00       		.byte	0
 2494 002f 04       		.uleb128 0x4
 2495 0030 0D       		.uleb128 0xd
 2496 0031 00       		.byte	0
 2497 0032 03       		.uleb128 0x3
 2498 0033 0E       		.uleb128 0xe
 2499 0034 49       		.uleb128 0x49
 2500 0035 13       		.uleb128 0x13
 2501 0036 38       		.uleb128 0x38
 2502 0037 0B       		.uleb128 0xb
 2503 0038 34       		.uleb128 0x34
 2504 0039 19       		.uleb128 0x19
 2505 003a 00       		.byte	0
 2506 003b 00       		.byte	0
 2507 003c 05       		.uleb128 0x5
ARM GAS  /tmp/ccEnej6L.s 			page 45


 2508 003d 0F       		.uleb128 0xf
 2509 003e 00       		.byte	0
 2510 003f 0B       		.uleb128 0xb
 2511 0040 0B       		.uleb128 0xb
 2512 0041 00       		.byte	0
 2513 0042 00       		.byte	0
 2514 0043 06       		.uleb128 0x6
 2515 0044 24       		.uleb128 0x24
 2516 0045 00       		.byte	0
 2517 0046 0B       		.uleb128 0xb
 2518 0047 0B       		.uleb128 0xb
 2519 0048 3E       		.uleb128 0x3e
 2520 0049 0B       		.uleb128 0xb
 2521 004a 03       		.uleb128 0x3
 2522 004b 08       		.uleb128 0x8
 2523 004c 00       		.byte	0
 2524 004d 00       		.byte	0
 2525 004e 07       		.uleb128 0x7
 2526 004f 24       		.uleb128 0x24
 2527 0050 00       		.byte	0
 2528 0051 0B       		.uleb128 0xb
 2529 0052 0B       		.uleb128 0xb
 2530 0053 3E       		.uleb128 0x3e
 2531 0054 0B       		.uleb128 0xb
 2532 0055 03       		.uleb128 0x3
 2533 0056 0E       		.uleb128 0xe
 2534 0057 00       		.byte	0
 2535 0058 00       		.byte	0
 2536 0059 08       		.uleb128 0x8
 2537 005a 26       		.uleb128 0x26
 2538 005b 00       		.byte	0
 2539 005c 49       		.uleb128 0x49
 2540 005d 13       		.uleb128 0x13
 2541 005e 00       		.byte	0
 2542 005f 00       		.byte	0
 2543 0060 09       		.uleb128 0x9
 2544 0061 35       		.uleb128 0x35
 2545 0062 00       		.byte	0
 2546 0063 49       		.uleb128 0x49
 2547 0064 13       		.uleb128 0x13
 2548 0065 00       		.byte	0
 2549 0066 00       		.byte	0
 2550 0067 0A       		.uleb128 0xa
 2551 0068 0D       		.uleb128 0xd
 2552 0069 00       		.byte	0
 2553 006a 03       		.uleb128 0x3
 2554 006b 0E       		.uleb128 0xe
 2555 006c 3A       		.uleb128 0x3a
 2556 006d 0B       		.uleb128 0xb
 2557 006e 3B       		.uleb128 0x3b
 2558 006f 0B       		.uleb128 0xb
 2559 0070 49       		.uleb128 0x49
 2560 0071 13       		.uleb128 0x13
 2561 0072 38       		.uleb128 0x38
 2562 0073 0B       		.uleb128 0xb
 2563 0074 00       		.byte	0
 2564 0075 00       		.byte	0
ARM GAS  /tmp/ccEnej6L.s 			page 46


 2565 0076 0B       		.uleb128 0xb
 2566 0077 0D       		.uleb128 0xd
 2567 0078 00       		.byte	0
 2568 0079 03       		.uleb128 0x3
 2569 007a 08       		.uleb128 0x8
 2570 007b 3A       		.uleb128 0x3a
 2571 007c 0B       		.uleb128 0xb
 2572 007d 3B       		.uleb128 0x3b
 2573 007e 0B       		.uleb128 0xb
 2574 007f 49       		.uleb128 0x49
 2575 0080 13       		.uleb128 0x13
 2576 0081 38       		.uleb128 0x38
 2577 0082 0B       		.uleb128 0xb
 2578 0083 00       		.byte	0
 2579 0084 00       		.byte	0
 2580 0085 0C       		.uleb128 0xc
 2581 0086 13       		.uleb128 0x13
 2582 0087 01       		.byte	0x1
 2583 0088 0B       		.uleb128 0xb
 2584 0089 0B       		.uleb128 0xb
 2585 008a 3A       		.uleb128 0x3a
 2586 008b 0B       		.uleb128 0xb
 2587 008c 3B       		.uleb128 0x3b
 2588 008d 0B       		.uleb128 0xb
 2589 008e 01       		.uleb128 0x1
 2590 008f 13       		.uleb128 0x13
 2591 0090 00       		.byte	0
 2592 0091 00       		.byte	0
 2593 0092 0D       		.uleb128 0xd
 2594 0093 0F       		.uleb128 0xf
 2595 0094 00       		.byte	0
 2596 0095 0B       		.uleb128 0xb
 2597 0096 0B       		.uleb128 0xb
 2598 0097 49       		.uleb128 0x49
 2599 0098 13       		.uleb128 0x13
 2600 0099 00       		.byte	0
 2601 009a 00       		.byte	0
 2602 009b 0E       		.uleb128 0xe
 2603 009c 15       		.uleb128 0x15
 2604 009d 01       		.byte	0x1
 2605 009e 27       		.uleb128 0x27
 2606 009f 19       		.uleb128 0x19
 2607 00a0 01       		.uleb128 0x1
 2608 00a1 13       		.uleb128 0x13
 2609 00a2 00       		.byte	0
 2610 00a3 00       		.byte	0
 2611 00a4 0F       		.uleb128 0xf
 2612 00a5 05       		.uleb128 0x5
 2613 00a6 00       		.byte	0
 2614 00a7 49       		.uleb128 0x49
 2615 00a8 13       		.uleb128 0x13
 2616 00a9 00       		.byte	0
 2617 00aa 00       		.byte	0
 2618 00ab 10       		.uleb128 0x10
 2619 00ac 34       		.uleb128 0x34
 2620 00ad 00       		.byte	0
 2621 00ae 03       		.uleb128 0x3
ARM GAS  /tmp/ccEnej6L.s 			page 47


 2622 00af 0E       		.uleb128 0xe
 2623 00b0 3A       		.uleb128 0x3a
 2624 00b1 0B       		.uleb128 0xb
 2625 00b2 3B       		.uleb128 0x3b
 2626 00b3 0B       		.uleb128 0xb
 2627 00b4 49       		.uleb128 0x49
 2628 00b5 13       		.uleb128 0x13
 2629 00b6 3F       		.uleb128 0x3f
 2630 00b7 19       		.uleb128 0x19
 2631 00b8 3C       		.uleb128 0x3c
 2632 00b9 19       		.uleb128 0x19
 2633 00ba 00       		.byte	0
 2634 00bb 00       		.byte	0
 2635 00bc 11       		.uleb128 0x11
 2636 00bd 17       		.uleb128 0x17
 2637 00be 01       		.byte	0x1
 2638 00bf 0B       		.uleb128 0xb
 2639 00c0 0B       		.uleb128 0xb
 2640 00c1 3A       		.uleb128 0x3a
 2641 00c2 0B       		.uleb128 0xb
 2642 00c3 3B       		.uleb128 0x3b
 2643 00c4 0B       		.uleb128 0xb
 2644 00c5 01       		.uleb128 0x1
 2645 00c6 13       		.uleb128 0x13
 2646 00c7 00       		.byte	0
 2647 00c8 00       		.byte	0
 2648 00c9 12       		.uleb128 0x12
 2649 00ca 0D       		.uleb128 0xd
 2650 00cb 00       		.byte	0
 2651 00cc 03       		.uleb128 0x3
 2652 00cd 0E       		.uleb128 0xe
 2653 00ce 3A       		.uleb128 0x3a
 2654 00cf 0B       		.uleb128 0xb
 2655 00d0 3B       		.uleb128 0x3b
 2656 00d1 0B       		.uleb128 0xb
 2657 00d2 49       		.uleb128 0x49
 2658 00d3 13       		.uleb128 0x13
 2659 00d4 00       		.byte	0
 2660 00d5 00       		.byte	0
 2661 00d6 13       		.uleb128 0x13
 2662 00d7 15       		.uleb128 0x15
 2663 00d8 01       		.byte	0x1
 2664 00d9 27       		.uleb128 0x27
 2665 00da 19       		.uleb128 0x19
 2666 00db 49       		.uleb128 0x49
 2667 00dc 13       		.uleb128 0x13
 2668 00dd 01       		.uleb128 0x1
 2669 00de 13       		.uleb128 0x13
 2670 00df 00       		.byte	0
 2671 00e0 00       		.byte	0
 2672 00e1 14       		.uleb128 0x14
 2673 00e2 01       		.uleb128 0x1
 2674 00e3 01       		.byte	0x1
 2675 00e4 49       		.uleb128 0x49
 2676 00e5 13       		.uleb128 0x13
 2677 00e6 01       		.uleb128 0x1
 2678 00e7 13       		.uleb128 0x13
ARM GAS  /tmp/ccEnej6L.s 			page 48


 2679 00e8 00       		.byte	0
 2680 00e9 00       		.byte	0
 2681 00ea 15       		.uleb128 0x15
 2682 00eb 21       		.uleb128 0x21
 2683 00ec 00       		.byte	0
 2684 00ed 49       		.uleb128 0x49
 2685 00ee 13       		.uleb128 0x13
 2686 00ef 2F       		.uleb128 0x2f
 2687 00f0 0B       		.uleb128 0xb
 2688 00f1 00       		.byte	0
 2689 00f2 00       		.byte	0
 2690 00f3 16       		.uleb128 0x16
 2691 00f4 2E       		.uleb128 0x2e
 2692 00f5 01       		.byte	0x1
 2693 00f6 3F       		.uleb128 0x3f
 2694 00f7 19       		.uleb128 0x19
 2695 00f8 03       		.uleb128 0x3
 2696 00f9 0E       		.uleb128 0xe
 2697 00fa 3A       		.uleb128 0x3a
 2698 00fb 0B       		.uleb128 0xb
 2699 00fc 3B       		.uleb128 0x3b
 2700 00fd 0B       		.uleb128 0xb
 2701 00fe 27       		.uleb128 0x27
 2702 00ff 19       		.uleb128 0x19
 2703 0100 11       		.uleb128 0x11
 2704 0101 01       		.uleb128 0x1
 2705 0102 12       		.uleb128 0x12
 2706 0103 06       		.uleb128 0x6
 2707 0104 40       		.uleb128 0x40
 2708 0105 18       		.uleb128 0x18
 2709 0106 9642     		.uleb128 0x2116
 2710 0108 19       		.uleb128 0x19
 2711 0109 01       		.uleb128 0x1
 2712 010a 13       		.uleb128 0x13
 2713 010b 00       		.byte	0
 2714 010c 00       		.byte	0
 2715 010d 17       		.uleb128 0x17
 2716 010e 05       		.uleb128 0x5
 2717 010f 00       		.byte	0
 2718 0110 03       		.uleb128 0x3
 2719 0111 08       		.uleb128 0x8
 2720 0112 3A       		.uleb128 0x3a
 2721 0113 0B       		.uleb128 0xb
 2722 0114 3B       		.uleb128 0x3b
 2723 0115 0B       		.uleb128 0xb
 2724 0116 49       		.uleb128 0x49
 2725 0117 13       		.uleb128 0x13
 2726 0118 02       		.uleb128 0x2
 2727 0119 17       		.uleb128 0x17
 2728 011a 00       		.byte	0
 2729 011b 00       		.byte	0
 2730 011c 18       		.uleb128 0x18
 2731 011d 18       		.uleb128 0x18
 2732 011e 00       		.byte	0
 2733 011f 00       		.byte	0
 2734 0120 00       		.byte	0
 2735 0121 19       		.uleb128 0x19
ARM GAS  /tmp/ccEnej6L.s 			page 49


 2736 0122 34       		.uleb128 0x34
 2737 0123 00       		.byte	0
 2738 0124 03       		.uleb128 0x3
 2739 0125 08       		.uleb128 0x8
 2740 0126 3A       		.uleb128 0x3a
 2741 0127 0B       		.uleb128 0xb
 2742 0128 3B       		.uleb128 0x3b
 2743 0129 0B       		.uleb128 0xb
 2744 012a 49       		.uleb128 0x49
 2745 012b 13       		.uleb128 0x13
 2746 012c 02       		.uleb128 0x2
 2747 012d 18       		.uleb128 0x18
 2748 012e 00       		.byte	0
 2749 012f 00       		.byte	0
 2750 0130 1A       		.uleb128 0x1a
 2751 0131 34       		.uleb128 0x34
 2752 0132 00       		.byte	0
 2753 0133 03       		.uleb128 0x3
 2754 0134 08       		.uleb128 0x8
 2755 0135 3A       		.uleb128 0x3a
 2756 0136 0B       		.uleb128 0xb
 2757 0137 3B       		.uleb128 0x3b
 2758 0138 0B       		.uleb128 0xb
 2759 0139 49       		.uleb128 0x49
 2760 013a 13       		.uleb128 0x13
 2761 013b 02       		.uleb128 0x2
 2762 013c 17       		.uleb128 0x17
 2763 013d 00       		.byte	0
 2764 013e 00       		.byte	0
 2765 013f 1B       		.uleb128 0x1b
 2766 0140 34       		.uleb128 0x34
 2767 0141 00       		.byte	0
 2768 0142 03       		.uleb128 0x3
 2769 0143 0E       		.uleb128 0xe
 2770 0144 3A       		.uleb128 0x3a
 2771 0145 0B       		.uleb128 0xb
 2772 0146 3B       		.uleb128 0x3b
 2773 0147 0B       		.uleb128 0xb
 2774 0148 49       		.uleb128 0x49
 2775 0149 13       		.uleb128 0x13
 2776 014a 02       		.uleb128 0x2
 2777 014b 17       		.uleb128 0x17
 2778 014c 00       		.byte	0
 2779 014d 00       		.byte	0
 2780 014e 1C       		.uleb128 0x1c
 2781 014f 34       		.uleb128 0x34
 2782 0150 00       		.byte	0
 2783 0151 03       		.uleb128 0x3
 2784 0152 0E       		.uleb128 0xe
 2785 0153 3A       		.uleb128 0x3a
 2786 0154 0B       		.uleb128 0xb
 2787 0155 3B       		.uleb128 0x3b
 2788 0156 0B       		.uleb128 0xb
 2789 0157 49       		.uleb128 0x49
 2790 0158 13       		.uleb128 0x13
 2791 0159 02       		.uleb128 0x2
 2792 015a 18       		.uleb128 0x18
ARM GAS  /tmp/ccEnej6L.s 			page 50


 2793 015b 00       		.byte	0
 2794 015c 00       		.byte	0
 2795 015d 1D       		.uleb128 0x1d
 2796 015e 0A       		.uleb128 0xa
 2797 015f 00       		.byte	0
 2798 0160 03       		.uleb128 0x3
 2799 0161 0E       		.uleb128 0xe
 2800 0162 3A       		.uleb128 0x3a
 2801 0163 0B       		.uleb128 0xb
 2802 0164 3B       		.uleb128 0x3b
 2803 0165 0B       		.uleb128 0xb
 2804 0166 11       		.uleb128 0x11
 2805 0167 01       		.uleb128 0x1
 2806 0168 00       		.byte	0
 2807 0169 00       		.byte	0
 2808 016a 1E       		.uleb128 0x1e
 2809 016b 1D       		.uleb128 0x1d
 2810 016c 01       		.byte	0x1
 2811 016d 31       		.uleb128 0x31
 2812 016e 13       		.uleb128 0x13
 2813 016f 11       		.uleb128 0x11
 2814 0170 01       		.uleb128 0x1
 2815 0171 12       		.uleb128 0x12
 2816 0172 06       		.uleb128 0x6
 2817 0173 58       		.uleb128 0x58
 2818 0174 0B       		.uleb128 0xb
 2819 0175 59       		.uleb128 0x59
 2820 0176 0B       		.uleb128 0xb
 2821 0177 01       		.uleb128 0x1
 2822 0178 13       		.uleb128 0x13
 2823 0179 00       		.byte	0
 2824 017a 00       		.byte	0
 2825 017b 1F       		.uleb128 0x1f
 2826 017c 05       		.uleb128 0x5
 2827 017d 00       		.byte	0
 2828 017e 31       		.uleb128 0x31
 2829 017f 13       		.uleb128 0x13
 2830 0180 02       		.uleb128 0x2
 2831 0181 17       		.uleb128 0x17
 2832 0182 00       		.byte	0
 2833 0183 00       		.byte	0
 2834 0184 20       		.uleb128 0x20
 2835 0185 0B       		.uleb128 0xb
 2836 0186 01       		.byte	0x1
 2837 0187 11       		.uleb128 0x11
 2838 0188 01       		.uleb128 0x1
 2839 0189 12       		.uleb128 0x12
 2840 018a 06       		.uleb128 0x6
 2841 018b 00       		.byte	0
 2842 018c 00       		.byte	0
 2843 018d 21       		.uleb128 0x21
 2844 018e 34       		.uleb128 0x34
 2845 018f 00       		.byte	0
 2846 0190 31       		.uleb128 0x31
 2847 0191 13       		.uleb128 0x13
 2848 0192 02       		.uleb128 0x2
 2849 0193 17       		.uleb128 0x17
ARM GAS  /tmp/ccEnej6L.s 			page 51


 2850 0194 00       		.byte	0
 2851 0195 00       		.byte	0
 2852 0196 22       		.uleb128 0x22
 2853 0197 1D       		.uleb128 0x1d
 2854 0198 01       		.byte	0x1
 2855 0199 31       		.uleb128 0x31
 2856 019a 13       		.uleb128 0x13
 2857 019b 52       		.uleb128 0x52
 2858 019c 01       		.uleb128 0x1
 2859 019d 55       		.uleb128 0x55
 2860 019e 17       		.uleb128 0x17
 2861 019f 58       		.uleb128 0x58
 2862 01a0 0B       		.uleb128 0xb
 2863 01a1 59       		.uleb128 0x59
 2864 01a2 0B       		.uleb128 0xb
 2865 01a3 00       		.byte	0
 2866 01a4 00       		.byte	0
 2867 01a5 23       		.uleb128 0x23
 2868 01a6 0B       		.uleb128 0xb
 2869 01a7 01       		.byte	0x1
 2870 01a8 55       		.uleb128 0x55
 2871 01a9 17       		.uleb128 0x17
 2872 01aa 00       		.byte	0
 2873 01ab 00       		.byte	0
 2874 01ac 24       		.uleb128 0x24
 2875 01ad 05       		.uleb128 0x5
 2876 01ae 00       		.byte	0
 2877 01af 31       		.uleb128 0x31
 2878 01b0 13       		.uleb128 0x13
 2879 01b1 00       		.byte	0
 2880 01b2 00       		.byte	0
 2881 01b3 25       		.uleb128 0x25
 2882 01b4 1D       		.uleb128 0x1d
 2883 01b5 01       		.byte	0x1
 2884 01b6 31       		.uleb128 0x31
 2885 01b7 13       		.uleb128 0x13
 2886 01b8 11       		.uleb128 0x11
 2887 01b9 01       		.uleb128 0x1
 2888 01ba 12       		.uleb128 0x12
 2889 01bb 06       		.uleb128 0x6
 2890 01bc 58       		.uleb128 0x58
 2891 01bd 0B       		.uleb128 0xb
 2892 01be 59       		.uleb128 0x59
 2893 01bf 0B       		.uleb128 0xb
 2894 01c0 00       		.byte	0
 2895 01c1 00       		.byte	0
 2896 01c2 26       		.uleb128 0x26
 2897 01c3 1D       		.uleb128 0x1d
 2898 01c4 01       		.byte	0x1
 2899 01c5 31       		.uleb128 0x31
 2900 01c6 13       		.uleb128 0x13
 2901 01c7 52       		.uleb128 0x52
 2902 01c8 01       		.uleb128 0x1
 2903 01c9 55       		.uleb128 0x55
 2904 01ca 17       		.uleb128 0x17
 2905 01cb 58       		.uleb128 0x58
 2906 01cc 0B       		.uleb128 0xb
ARM GAS  /tmp/ccEnej6L.s 			page 52


 2907 01cd 59       		.uleb128 0x59
 2908 01ce 0B       		.uleb128 0xb
 2909 01cf 01       		.uleb128 0x1
 2910 01d0 13       		.uleb128 0x13
 2911 01d1 00       		.byte	0
 2912 01d2 00       		.byte	0
 2913 01d3 27       		.uleb128 0x27
 2914 01d4 898201   		.uleb128 0x4109
 2915 01d7 01       		.byte	0x1
 2916 01d8 11       		.uleb128 0x11
 2917 01d9 01       		.uleb128 0x1
 2918 01da 01       		.uleb128 0x1
 2919 01db 13       		.uleb128 0x13
 2920 01dc 00       		.byte	0
 2921 01dd 00       		.byte	0
 2922 01de 28       		.uleb128 0x28
 2923 01df 8A8201   		.uleb128 0x410a
 2924 01e2 00       		.byte	0
 2925 01e3 02       		.uleb128 0x2
 2926 01e4 18       		.uleb128 0x18
 2927 01e5 9142     		.uleb128 0x2111
 2928 01e7 18       		.uleb128 0x18
 2929 01e8 00       		.byte	0
 2930 01e9 00       		.byte	0
 2931 01ea 29       		.uleb128 0x29
 2932 01eb 898201   		.uleb128 0x4109
 2933 01ee 01       		.byte	0x1
 2934 01ef 11       		.uleb128 0x11
 2935 01f0 01       		.uleb128 0x1
 2936 01f1 00       		.byte	0
 2937 01f2 00       		.byte	0
 2938 01f3 2A       		.uleb128 0x2a
 2939 01f4 2E       		.uleb128 0x2e
 2940 01f5 01       		.byte	0x1
 2941 01f6 03       		.uleb128 0x3
 2942 01f7 0E       		.uleb128 0xe
 2943 01f8 3A       		.uleb128 0x3a
 2944 01f9 0B       		.uleb128 0xb
 2945 01fa 3B       		.uleb128 0x3b
 2946 01fb 0B       		.uleb128 0xb
 2947 01fc 27       		.uleb128 0x27
 2948 01fd 19       		.uleb128 0x19
 2949 01fe 49       		.uleb128 0x49
 2950 01ff 13       		.uleb128 0x13
 2951 0200 20       		.uleb128 0x20
 2952 0201 0B       		.uleb128 0xb
 2953 0202 01       		.uleb128 0x1
 2954 0203 13       		.uleb128 0x13
 2955 0204 00       		.byte	0
 2956 0205 00       		.byte	0
 2957 0206 2B       		.uleb128 0x2b
 2958 0207 05       		.uleb128 0x5
 2959 0208 00       		.byte	0
 2960 0209 03       		.uleb128 0x3
 2961 020a 08       		.uleb128 0x8
 2962 020b 3A       		.uleb128 0x3a
 2963 020c 0B       		.uleb128 0xb
ARM GAS  /tmp/ccEnej6L.s 			page 53


 2964 020d 3B       		.uleb128 0x3b
 2965 020e 0B       		.uleb128 0xb
 2966 020f 49       		.uleb128 0x49
 2967 0210 13       		.uleb128 0x13
 2968 0211 00       		.byte	0
 2969 0212 00       		.byte	0
 2970 0213 2C       		.uleb128 0x2c
 2971 0214 34       		.uleb128 0x34
 2972 0215 00       		.byte	0
 2973 0216 03       		.uleb128 0x3
 2974 0217 08       		.uleb128 0x8
 2975 0218 3A       		.uleb128 0x3a
 2976 0219 0B       		.uleb128 0xb
 2977 021a 3B       		.uleb128 0x3b
 2978 021b 0B       		.uleb128 0xb
 2979 021c 49       		.uleb128 0x49
 2980 021d 13       		.uleb128 0x13
 2981 021e 00       		.byte	0
 2982 021f 00       		.byte	0
 2983 0220 2D       		.uleb128 0x2d
 2984 0221 34       		.uleb128 0x34
 2985 0222 00       		.byte	0
 2986 0223 03       		.uleb128 0x3
 2987 0224 0E       		.uleb128 0xe
 2988 0225 3A       		.uleb128 0x3a
 2989 0226 0B       		.uleb128 0xb
 2990 0227 3B       		.uleb128 0x3b
 2991 0228 0B       		.uleb128 0xb
 2992 0229 49       		.uleb128 0x49
 2993 022a 13       		.uleb128 0x13
 2994 022b 00       		.byte	0
 2995 022c 00       		.byte	0
 2996 022d 2E       		.uleb128 0x2e
 2997 022e 05       		.uleb128 0x5
 2998 022f 00       		.byte	0
 2999 0230 03       		.uleb128 0x3
 3000 0231 0E       		.uleb128 0xe
 3001 0232 3A       		.uleb128 0x3a
 3002 0233 0B       		.uleb128 0xb
 3003 0234 3B       		.uleb128 0x3b
 3004 0235 0B       		.uleb128 0xb
 3005 0236 49       		.uleb128 0x49
 3006 0237 13       		.uleb128 0x13
 3007 0238 00       		.byte	0
 3008 0239 00       		.byte	0
 3009 023a 2F       		.uleb128 0x2f
 3010 023b 2E       		.uleb128 0x2e
 3011 023c 01       		.byte	0x1
 3012 023d 03       		.uleb128 0x3
 3013 023e 0E       		.uleb128 0xe
 3014 023f 3A       		.uleb128 0x3a
 3015 0240 0B       		.uleb128 0xb
 3016 0241 3B       		.uleb128 0x3b
 3017 0242 0B       		.uleb128 0xb
 3018 0243 27       		.uleb128 0x27
 3019 0244 19       		.uleb128 0x19
 3020 0245 49       		.uleb128 0x49
ARM GAS  /tmp/ccEnej6L.s 			page 54


 3021 0246 13       		.uleb128 0x13
 3022 0247 20       		.uleb128 0x20
 3023 0248 0B       		.uleb128 0xb
 3024 0249 00       		.byte	0
 3025 024a 00       		.byte	0
 3026 024b 00       		.byte	0
 3027              		.section	.debug_loc,"",%progbits
 3028              	.Ldebug_loc0:
 3029              	.LLST0:
 3030 0000 00000000 		.4byte	.LVL0
 3031 0004 20000000 		.4byte	.LVL1
 3032 0008 0100     		.2byte	0x1
 3033 000a 50       		.byte	0x50
 3034 000b 20000000 		.4byte	.LVL1
 3035 000f 64000000 		.4byte	.LVL5
 3036 0013 0100     		.2byte	0x1
 3037 0015 55       		.byte	0x55
 3038 0016 64000000 		.4byte	.LVL5
 3039 001a 6C000000 		.4byte	.LVL6
 3040 001e 0400     		.2byte	0x4
 3041 0020 F3       		.byte	0xf3
 3042 0021 01       		.uleb128 0x1
 3043 0022 50       		.byte	0x50
 3044 0023 9F       		.byte	0x9f
 3045 0024 6C000000 		.4byte	.LVL6
 3046 0028 D4070000 		.4byte	.LFE10
 3047 002c 0100     		.2byte	0x1
 3048 002e 55       		.byte	0x55
 3049 002f 00000000 		.4byte	0
 3050 0033 00000000 		.4byte	0
 3051              	.LLST1:
 3052 0037 00000000 		.4byte	.LVL0
 3053 003b 20000000 		.4byte	.LVL1
 3054 003f 0200     		.2byte	0x2
 3055 0041 91       		.byte	0x91
 3056 0042 74       		.sleb128 -12
 3057 0043 20000000 		.4byte	.LVL1
 3058 0047 28000000 		.4byte	.LVL2
 3059 004b 0100     		.2byte	0x1
 3060 004d 5A       		.byte	0x5a
 3061 004e 28000000 		.4byte	.LVL2
 3062 0052 4B000000 		.4byte	.LVL3-1
 3063 0056 0100     		.2byte	0x1
 3064 0058 53       		.byte	0x53
 3065 0059 4B000000 		.4byte	.LVL3-1
 3066 005d 54000000 		.4byte	.LVL4
 3067 0061 0100     		.2byte	0x1
 3068 0063 5A       		.byte	0x5a
 3069 0064 54000000 		.4byte	.LVL4
 3070 0068 88000000 		.4byte	.LVL9
 3071 006c 0100     		.2byte	0x1
 3072 006e 53       		.byte	0x53
 3073 006f 88000000 		.4byte	.LVL9
 3074 0073 98000000 		.4byte	.LVL11
 3075 0077 0300     		.2byte	0x3
 3076 0079 73       		.byte	0x73
 3077 007a 01       		.sleb128 1
ARM GAS  /tmp/ccEnej6L.s 			page 55


 3078 007b 9F       		.byte	0x9f
 3079 007c A0000000 		.4byte	.LVL12
 3080 0080 B0000000 		.4byte	.LVL13
 3081 0084 0100     		.2byte	0x1
 3082 0086 53       		.byte	0x53
 3083 0087 B0000000 		.4byte	.LVL13
 3084 008b C0000000 		.4byte	.LVL16
 3085 008f 0100     		.2byte	0x1
 3086 0091 51       		.byte	0x51
 3087 0092 C0000000 		.4byte	.LVL16
 3088 0096 C4000000 		.4byte	.LVL17
 3089 009a 0100     		.2byte	0x1
 3090 009c 5A       		.byte	0x5a
 3091 009d C4000000 		.4byte	.LVL17
 3092 00a1 D8000000 		.4byte	.LVL18
 3093 00a5 0300     		.2byte	0x3
 3094 00a7 71       		.byte	0x71
 3095 00a8 7F       		.sleb128 -1
 3096 00a9 9F       		.byte	0x9f
 3097 00aa D8000000 		.4byte	.LVL18
 3098 00ae F4000000 		.4byte	.LVL20
 3099 00b2 0100     		.2byte	0x1
 3100 00b4 51       		.byte	0x51
 3101 00b5 F4000000 		.4byte	.LVL20
 3102 00b9 B8050000 		.4byte	.LVL107
 3103 00bd 0100     		.2byte	0x1
 3104 00bf 5A       		.byte	0x5a
 3105 00c0 B8050000 		.4byte	.LVL107
 3106 00c4 C8050000 		.4byte	.LVL110
 3107 00c8 0300     		.2byte	0x3
 3108 00ca 7A       		.byte	0x7a
 3109 00cb 7F       		.sleb128 -1
 3110 00cc 9F       		.byte	0x9f
 3111 00cd C8050000 		.4byte	.LVL110
 3112 00d1 CC050000 		.4byte	.LVL111
 3113 00d5 0100     		.2byte	0x1
 3114 00d7 5A       		.byte	0x5a
 3115 00d8 CC050000 		.4byte	.LVL111
 3116 00dc F4050000 		.4byte	.LVL112
 3117 00e0 0300     		.2byte	0x3
 3118 00e2 7A       		.byte	0x7a
 3119 00e3 7F       		.sleb128 -1
 3120 00e4 9F       		.byte	0x9f
 3121 00e5 F4050000 		.4byte	.LVL112
 3122 00e9 D4070000 		.4byte	.LFE10
 3123 00ed 0100     		.2byte	0x1
 3124 00ef 5A       		.byte	0x5a
 3125 00f0 00000000 		.4byte	0
 3126 00f4 00000000 		.4byte	0
 3127              	.LLST2:
 3128 00f8 6C000000 		.4byte	.LVL6
 3129 00fc 1C020000 		.4byte	.LVL28
 3130 0100 0400     		.2byte	0x4
 3131 0102 91       		.byte	0x91
 3132 0103 987F     		.sleb128 -104
 3133 0105 9F       		.byte	0x9f
 3134 0106 1C020000 		.4byte	.LVL28
ARM GAS  /tmp/ccEnej6L.s 			page 56


 3135 010a 30020000 		.4byte	.LVL31
 3136 010e 0100     		.2byte	0x1
 3137 0110 57       		.byte	0x57
 3138 0111 30020000 		.4byte	.LVL31
 3139 0115 38020000 		.4byte	.LVL33
 3140 0119 0300     		.2byte	0x3
 3141 011b 7B       		.byte	0x7b
 3142 011c 7F       		.sleb128 -1
 3143 011d 9F       		.byte	0x9f
 3144 011e 38020000 		.4byte	.LVL33
 3145 0122 3C020000 		.4byte	.LVL34
 3146 0126 0100     		.2byte	0x1
 3147 0128 5B       		.byte	0x5b
 3148 0129 3C020000 		.4byte	.LVL34
 3149 012d 54020000 		.4byte	.LVL37
 3150 0131 0300     		.2byte	0x3
 3151 0133 7B       		.byte	0x7b
 3152 0134 7F       		.sleb128 -1
 3153 0135 9F       		.byte	0x9f
 3154 0136 74020000 		.4byte	.LVL39
 3155 013a A0020000 		.4byte	.LVL44
 3156 013e 0400     		.2byte	0x4
 3157 0140 91       		.byte	0x91
 3158 0141 987F     		.sleb128 -104
 3159 0143 9F       		.byte	0x9f
 3160 0144 A0020000 		.4byte	.LVL44
 3161 0148 B8020000 		.4byte	.LVL46
 3162 014c 0400     		.2byte	0x4
 3163 014e 91       		.byte	0x91
 3164 014f 997F     		.sleb128 -103
 3165 0151 9F       		.byte	0x9f
 3166 0152 B8020000 		.4byte	.LVL46
 3167 0156 3C030000 		.4byte	.LVL64
 3168 015a 0100     		.2byte	0x1
 3169 015c 56       		.byte	0x56
 3170 015d 74040000 		.4byte	.LVL100
 3171 0161 B0040000 		.4byte	.LVL103
 3172 0165 0400     		.2byte	0x4
 3173 0167 91       		.byte	0x91
 3174 0168 997F     		.sleb128 -103
 3175 016a 9F       		.byte	0x9f
 3176 016b BC040000 		.4byte	.LVL104
 3177 016f F4050000 		.4byte	.LVL112
 3178 0173 0400     		.2byte	0x4
 3179 0175 91       		.byte	0x91
 3180 0176 987F     		.sleb128 -104
 3181 0178 9F       		.byte	0x9f
 3182 0179 04060000 		.4byte	.LVL113
 3183 017d 78060000 		.4byte	.LVL130
 3184 0181 0400     		.2byte	0x4
 3185 0183 91       		.byte	0x91
 3186 0184 987F     		.sleb128 -104
 3187 0186 9F       		.byte	0x9f
 3188 0187 78060000 		.4byte	.LVL130
 3189 018b A0060000 		.4byte	.LVL137
 3190 018f 0100     		.2byte	0x1
 3191 0191 57       		.byte	0x57
ARM GAS  /tmp/ccEnej6L.s 			page 57


 3192 0192 A0060000 		.4byte	.LVL137
 3193 0196 D4060000 		.4byte	.LVL143
 3194 019a 0400     		.2byte	0x4
 3195 019c 91       		.byte	0x91
 3196 019d 987F     		.sleb128 -104
 3197 019f 9F       		.byte	0x9f
 3198 01a0 D4060000 		.4byte	.LVL143
 3199 01a4 F0060000 		.4byte	.LVL144
 3200 01a8 0400     		.2byte	0x4
 3201 01aa 91       		.byte	0x91
 3202 01ab 997F     		.sleb128 -103
 3203 01ad 9F       		.byte	0x9f
 3204 01ae F0060000 		.4byte	.LVL144
 3205 01b2 30070000 		.4byte	.LVL152
 3206 01b6 0100     		.2byte	0x1
 3207 01b8 5C       		.byte	0x5c
 3208 01b9 30070000 		.4byte	.LVL152
 3209 01bd 44070000 		.4byte	.LVL155
 3210 01c1 0300     		.2byte	0x3
 3211 01c3 72       		.byte	0x72
 3212 01c4 75       		.sleb128 -11
 3213 01c5 9F       		.byte	0x9f
 3214 01c6 44070000 		.4byte	.LVL155
 3215 01ca 78070000 		.4byte	.LVL159
 3216 01ce 0400     		.2byte	0x4
 3217 01d0 91       		.byte	0x91
 3218 01d1 987F     		.sleb128 -104
 3219 01d3 9F       		.byte	0x9f
 3220 01d4 78070000 		.4byte	.LVL159
 3221 01d8 90070000 		.4byte	.LVL161
 3222 01dc 0100     		.2byte	0x1
 3223 01de 57       		.byte	0x57
 3224 01df 90070000 		.4byte	.LVL161
 3225 01e3 A0070000 		.4byte	.LVL163
 3226 01e7 0400     		.2byte	0x4
 3227 01e9 91       		.byte	0x91
 3228 01ea 987F     		.sleb128 -104
 3229 01ec 9F       		.byte	0x9f
 3230 01ed 00000000 		.4byte	0
 3231 01f1 00000000 		.4byte	0
 3232              	.LLST3:
 3233 01f5 6C000000 		.4byte	.LVL6
 3234 01f9 00020000 		.4byte	.LVL26
 3235 01fd 0400     		.2byte	0x4
 3236 01ff 91       		.byte	0x91
 3237 0200 987F     		.sleb128 -104
 3238 0202 9F       		.byte	0x9f
 3239 0203 10020000 		.4byte	.LVL27
 3240 0207 24020000 		.4byte	.LVL29
 3241 020b 0100     		.2byte	0x1
 3242 020d 57       		.byte	0x57
 3243 020e 54020000 		.4byte	.LVL37
 3244 0212 74020000 		.4byte	.LVL39
 3245 0216 0100     		.2byte	0x1
 3246 0218 57       		.byte	0x57
 3247 0219 74020000 		.4byte	.LVL39
 3248 021d D8030000 		.4byte	.LVL85
ARM GAS  /tmp/ccEnej6L.s 			page 58


 3249 0221 0400     		.2byte	0x4
 3250 0223 91       		.byte	0x91
 3251 0224 987F     		.sleb128 -104
 3252 0226 9F       		.byte	0x9f
 3253 0227 D8030000 		.4byte	.LVL85
 3254 022b 08040000 		.4byte	.LVL89
 3255 022f 0100     		.2byte	0x1
 3256 0231 57       		.byte	0x57
 3257 0232 24040000 		.4byte	.LVL92
 3258 0236 3C040000 		.4byte	.LVL95
 3259 023a 0100     		.2byte	0x1
 3260 023c 57       		.byte	0x57
 3261 023d 3C040000 		.4byte	.LVL95
 3262 0241 44040000 		.4byte	.LVL96
 3263 0245 0300     		.2byte	0x3
 3264 0247 77       		.byte	0x77
 3265 0248 7F       		.sleb128 -1
 3266 0249 9F       		.byte	0x9f
 3267 024a 44040000 		.4byte	.LVL96
 3268 024e 74040000 		.4byte	.LVL100
 3269 0252 0100     		.2byte	0x1
 3270 0254 57       		.byte	0x57
 3271 0255 74040000 		.4byte	.LVL100
 3272 0259 B0040000 		.4byte	.LVL103
 3273 025d 0400     		.2byte	0x4
 3274 025f 91       		.byte	0x91
 3275 0260 987F     		.sleb128 -104
 3276 0262 9F       		.byte	0x9f
 3277 0263 B0040000 		.4byte	.LVL103
 3278 0267 BC040000 		.4byte	.LVL104
 3279 026b 0100     		.2byte	0x1
 3280 026d 57       		.byte	0x57
 3281 026e BC040000 		.4byte	.LVL104
 3282 0272 F4050000 		.4byte	.LVL112
 3283 0276 0400     		.2byte	0x4
 3284 0278 91       		.byte	0x91
 3285 0279 987F     		.sleb128 -104
 3286 027b 9F       		.byte	0x9f
 3287 027c F4050000 		.4byte	.LVL112
 3288 0280 04060000 		.4byte	.LVL113
 3289 0284 0100     		.2byte	0x1
 3290 0286 57       		.byte	0x57
 3291 0287 04060000 		.4byte	.LVL113
 3292 028b 78060000 		.4byte	.LVL130
 3293 028f 0400     		.2byte	0x4
 3294 0291 91       		.byte	0x91
 3295 0292 987F     		.sleb128 -104
 3296 0294 9F       		.byte	0x9f
 3297 0295 78060000 		.4byte	.LVL130
 3298 0299 A0060000 		.4byte	.LVL137
 3299 029d 0100     		.2byte	0x1
 3300 029f 57       		.byte	0x57
 3301 02a0 A0060000 		.4byte	.LVL137
 3302 02a4 78070000 		.4byte	.LVL159
 3303 02a8 0400     		.2byte	0x4
 3304 02aa 91       		.byte	0x91
 3305 02ab 987F     		.sleb128 -104
ARM GAS  /tmp/ccEnej6L.s 			page 59


 3306 02ad 9F       		.byte	0x9f
 3307 02ae 78070000 		.4byte	.LVL159
 3308 02b2 90070000 		.4byte	.LVL161
 3309 02b6 0100     		.2byte	0x1
 3310 02b8 57       		.byte	0x57
 3311 02b9 90070000 		.4byte	.LVL161
 3312 02bd A0070000 		.4byte	.LVL163
 3313 02c1 0600     		.2byte	0x6
 3314 02c3 03       		.byte	0x3
 3315 02c4 00000000 		.4byte	.LC0
 3316 02c8 9F       		.byte	0x9f
 3317 02c9 A0070000 		.4byte	.LVL163
 3318 02cd D4070000 		.4byte	.LFE10
 3319 02d1 0100     		.2byte	0x1
 3320 02d3 57       		.byte	0x57
 3321 02d4 00000000 		.4byte	0
 3322 02d8 00000000 		.4byte	0
 3323              	.LLST4:
 3324 02dc 28000000 		.4byte	.LVL2
 3325 02e0 4B000000 		.4byte	.LVL3-1
 3326 02e4 0100     		.2byte	0x1
 3327 02e6 51       		.byte	0x51
 3328 02e7 54000000 		.4byte	.LVL4
 3329 02eb 7C000000 		.4byte	.LVL7
 3330 02ef 0100     		.2byte	0x1
 3331 02f1 51       		.byte	0x51
 3332 02f2 B0000000 		.4byte	.LVL13
 3333 02f6 B8000000 		.4byte	.LVL14
 3334 02fa 0200     		.2byte	0x2
 3335 02fc 71       		.byte	0x71
 3336 02fd 7F       		.sleb128 -1
 3337 02fe B8000000 		.4byte	.LVL14
 3338 0302 C4000000 		.4byte	.LVL17
 3339 0306 0100     		.2byte	0x1
 3340 0308 53       		.byte	0x53
 3341 0309 D8000000 		.4byte	.LVL18
 3342 030d EC000000 		.4byte	.LVL19
 3343 0311 0200     		.2byte	0x2
 3344 0313 71       		.byte	0x71
 3345 0314 7F       		.sleb128 -1
 3346 0315 F8000000 		.4byte	.LVL21
 3347 0319 10010000 		.4byte	.LVL23
 3348 031d 0100     		.2byte	0x1
 3349 031f 52       		.byte	0x52
 3350 0320 18010000 		.4byte	.LVL24
 3351 0324 58020000 		.4byte	.LVL38
 3352 0328 0100     		.2byte	0x1
 3353 032a 52       		.byte	0x52
 3354 032b 74020000 		.4byte	.LVL39
 3355 032f 84020000 		.4byte	.LVL40
 3356 0333 0100     		.2byte	0x1
 3357 0335 52       		.byte	0x52
 3358 0336 74040000 		.4byte	.LVL100
 3359 033a 80040000 		.4byte	.LVL101
 3360 033e 0100     		.2byte	0x1
 3361 0340 52       		.byte	0x52
 3362 0341 9C040000 		.4byte	.LVL102
ARM GAS  /tmp/ccEnej6L.s 			page 60


 3363 0345 B0040000 		.4byte	.LVL103
 3364 0349 0100     		.2byte	0x1
 3365 034b 52       		.byte	0x52
 3366 034c BC040000 		.4byte	.LVL104
 3367 0350 A8050000 		.4byte	.LVL106
 3368 0354 0100     		.2byte	0x1
 3369 0356 52       		.byte	0x52
 3370 0357 B8050000 		.4byte	.LVL107
 3371 035b C0050000 		.4byte	.LVL108
 3372 035f 0100     		.2byte	0x1
 3373 0361 52       		.byte	0x52
 3374 0362 C0050000 		.4byte	.LVL108
 3375 0366 C8050000 		.4byte	.LVL110
 3376 036a 0100     		.2byte	0x1
 3377 036c 53       		.byte	0x53
 3378 036d CC050000 		.4byte	.LVL111
 3379 0371 F4050000 		.4byte	.LVL112
 3380 0375 0100     		.2byte	0x1
 3381 0377 52       		.byte	0x52
 3382 0378 04060000 		.4byte	.LVL113
 3383 037c 08060000 		.4byte	.LVL114
 3384 0380 0100     		.2byte	0x1
 3385 0382 52       		.byte	0x52
 3386 0383 A0060000 		.4byte	.LVL137
 3387 0387 A4060000 		.4byte	.LVL138
 3388 038b 0100     		.2byte	0x1
 3389 038d 52       		.byte	0x52
 3390 038e B8060000 		.4byte	.LVL139
 3391 0392 C8060000 		.4byte	.LVL141
 3392 0396 0100     		.2byte	0x1
 3393 0398 52       		.byte	0x52
 3394 0399 44070000 		.4byte	.LVL155
 3395 039d 64070000 		.4byte	.LVL157
 3396 03a1 0100     		.2byte	0x1
 3397 03a3 52       		.byte	0x52
 3398 03a4 64070000 		.4byte	.LVL157
 3399 03a8 70070000 		.4byte	.LVL158
 3400 03ac 0400     		.2byte	0x4
 3401 03ae 70       		.byte	0x70
 3402 03af C400     		.sleb128 68
 3403 03b1 9F       		.byte	0x9f
 3404 03b2 70070000 		.4byte	.LVL158
 3405 03b6 A0070000 		.4byte	.LVL163
 3406 03ba 0100     		.2byte	0x1
 3407 03bc 52       		.byte	0x52
 3408 03bd 00000000 		.4byte	0
 3409 03c1 00000000 		.4byte	0
 3410              	.LLST5:
 3411 03c5 88000000 		.4byte	.LVL9
 3412 03c9 A0000000 		.4byte	.LVL12
 3413 03cd 0300     		.2byte	0x3
 3414 03cf 08       		.byte	0x8
 3415 03d0 30       		.byte	0x30
 3416 03d1 9F       		.byte	0x9f
 3417 03d2 A0000000 		.4byte	.LVL12
 3418 03d6 F8010000 		.4byte	.LVL25
 3419 03da 0100     		.2byte	0x1
ARM GAS  /tmp/ccEnej6L.s 			page 61


 3420 03dc 58       		.byte	0x58
 3421 03dd F8010000 		.4byte	.LVL25
 3422 03e1 54020000 		.4byte	.LVL37
 3423 03e5 0300     		.2byte	0x3
 3424 03e7 08       		.byte	0x8
 3425 03e8 20       		.byte	0x20
 3426 03e9 9F       		.byte	0x9f
 3427 03ea 54020000 		.4byte	.LVL37
 3428 03ee 74040000 		.4byte	.LVL100
 3429 03f2 0100     		.2byte	0x1
 3430 03f4 58       		.byte	0x58
 3431 03f5 74040000 		.4byte	.LVL100
 3432 03f9 9C040000 		.4byte	.LVL102
 3433 03fd 0300     		.2byte	0x3
 3434 03ff 08       		.byte	0x8
 3435 0400 20       		.byte	0x20
 3436 0401 9F       		.byte	0x9f
 3437 0402 9C040000 		.4byte	.LVL102
 3438 0406 78070000 		.4byte	.LVL159
 3439 040a 0100     		.2byte	0x1
 3440 040c 58       		.byte	0x58
 3441 040d 78070000 		.4byte	.LVL159
 3442 0411 A0070000 		.4byte	.LVL163
 3443 0415 0300     		.2byte	0x3
 3444 0417 08       		.byte	0x8
 3445 0418 20       		.byte	0x20
 3446 0419 9F       		.byte	0x9f
 3447 041a A0070000 		.4byte	.LVL163
 3448 041e D4070000 		.4byte	.LFE10
 3449 0422 0100     		.2byte	0x1
 3450 0424 58       		.byte	0x58
 3451 0425 00000000 		.4byte	0
 3452 0429 00000000 		.4byte	0
 3453              	.LLST6:
 3454 042d 2C040000 		.4byte	.LVL93
 3455 0431 34040000 		.4byte	.LVL94
 3456 0435 0100     		.2byte	0x1
 3457 0437 56       		.byte	0x56
 3458 0438 34040000 		.4byte	.LVL94
 3459 043c 44040000 		.4byte	.LVL96
 3460 0440 0300     		.2byte	0x3
 3461 0442 76       		.byte	0x76
 3462 0443 01       		.sleb128 1
 3463 0444 9F       		.byte	0x9f
 3464 0445 44040000 		.4byte	.LVL96
 3465 0449 4C040000 		.4byte	.LVL97
 3466 044d 0100     		.2byte	0x1
 3467 044f 56       		.byte	0x56
 3468 0450 00000000 		.4byte	0
 3469 0454 00000000 		.4byte	0
 3470              	.LLST7:
 3471 0458 EC000000 		.4byte	.LVL19
 3472 045c F8000000 		.4byte	.LVL21
 3473 0460 0200     		.2byte	0x2
 3474 0462 30       		.byte	0x30
 3475 0463 9F       		.byte	0x9f
 3476 0464 F8000000 		.4byte	.LVL21
ARM GAS  /tmp/ccEnej6L.s 			page 62


 3477 0468 30020000 		.4byte	.LVL31
 3478 046c 0100     		.2byte	0x1
 3479 046e 51       		.byte	0x51
 3480 046f 30020000 		.4byte	.LVL31
 3481 0473 34020000 		.4byte	.LVL32
 3482 0477 0300     		.2byte	0x3
 3483 0479 71       		.byte	0x71
 3484 047a 7F       		.sleb128 -1
 3485 047b 9F       		.byte	0x9f
 3486 047c 34020000 		.4byte	.LVL32
 3487 0480 38020000 		.4byte	.LVL33
 3488 0484 0100     		.2byte	0x1
 3489 0486 51       		.byte	0x51
 3490 0487 38020000 		.4byte	.LVL33
 3491 048b 44020000 		.4byte	.LVL35
 3492 048f 0300     		.2byte	0x3
 3493 0491 71       		.byte	0x71
 3494 0492 7F       		.sleb128 -1
 3495 0493 9F       		.byte	0x9f
 3496 0494 74020000 		.4byte	.LVL39
 3497 0498 8F020000 		.4byte	.LVL41-1
 3498 049c 0100     		.2byte	0x1
 3499 049e 51       		.byte	0x51
 3500 049f 74040000 		.4byte	.LVL100
 3501 04a3 B0040000 		.4byte	.LVL103
 3502 04a7 0100     		.2byte	0x1
 3503 04a9 51       		.byte	0x51
 3504 04aa BC040000 		.4byte	.LVL104
 3505 04ae A8050000 		.4byte	.LVL106
 3506 04b2 0100     		.2byte	0x1
 3507 04b4 51       		.byte	0x51
 3508 04b5 A8050000 		.4byte	.LVL106
 3509 04b9 B8050000 		.4byte	.LVL107
 3510 04bd 0200     		.2byte	0x2
 3511 04bf 30       		.byte	0x30
 3512 04c0 9F       		.byte	0x9f
 3513 04c1 B8050000 		.4byte	.LVL107
 3514 04c5 C4050000 		.4byte	.LVL109
 3515 04c9 0100     		.2byte	0x1
 3516 04cb 51       		.byte	0x51
 3517 04cc C4050000 		.4byte	.LVL109
 3518 04d0 C8050000 		.4byte	.LVL110
 3519 04d4 0500     		.2byte	0x5
 3520 04d6 70       		.byte	0x70
 3521 04d7 00       		.sleb128 0
 3522 04d8 31       		.byte	0x31
 3523 04d9 24       		.byte	0x24
 3524 04da 9F       		.byte	0x9f
 3525 04db C8050000 		.4byte	.LVL110
 3526 04df F4050000 		.4byte	.LVL112
 3527 04e3 0100     		.2byte	0x1
 3528 04e5 51       		.byte	0x51
 3529 04e6 04060000 		.4byte	.LVL113
 3530 04ea 18060000 		.4byte	.LVL116
 3531 04ee 0100     		.2byte	0x1
 3532 04f0 51       		.byte	0x51
 3533 04f1 A0060000 		.4byte	.LVL137
ARM GAS  /tmp/ccEnej6L.s 			page 63


 3534 04f5 F8060000 		.4byte	.LVL145
 3535 04f9 0100     		.2byte	0x1
 3536 04fb 51       		.byte	0x51
 3537 04fc 44070000 		.4byte	.LVL155
 3538 0500 78070000 		.4byte	.LVL159
 3539 0504 0100     		.2byte	0x1
 3540 0506 51       		.byte	0x51
 3541 0507 78070000 		.4byte	.LVL159
 3542 050b 84070000 		.4byte	.LVL160
 3543 050f 0400     		.2byte	0x4
 3544 0511 0A       		.byte	0xa
 3545 0512 FF7F     		.2byte	0x7fff
 3546 0514 9F       		.byte	0x9f
 3547 0515 90070000 		.4byte	.LVL161
 3548 0519 98070000 		.4byte	.LVL162
 3549 051d 0100     		.2byte	0x1
 3550 051f 51       		.byte	0x51
 3551 0520 00000000 		.4byte	0
 3552 0524 00000000 		.4byte	0
 3553              	.LLST8:
 3554 0528 A0000000 		.4byte	.LVL12
 3555 052c B0000000 		.4byte	.LVL13
 3556 0530 0200     		.2byte	0x2
 3557 0532 30       		.byte	0x30
 3558 0533 9F       		.byte	0x9f
 3559 0534 B0000000 		.4byte	.LVL13
 3560 0538 4C020000 		.4byte	.LVL36
 3561 053c 0100     		.2byte	0x1
 3562 053e 54       		.byte	0x54
 3563 053f 58020000 		.4byte	.LVL38
 3564 0543 74020000 		.4byte	.LVL39
 3565 0547 0200     		.2byte	0x2
 3566 0549 30       		.byte	0x30
 3567 054a 9F       		.byte	0x9f
 3568 054b 74020000 		.4byte	.LVL39
 3569 054f D4030000 		.4byte	.LVL84
 3570 0553 0100     		.2byte	0x1
 3571 0555 54       		.byte	0x54
 3572 0556 D8030000 		.4byte	.LVL85
 3573 055a DC030000 		.4byte	.LVL86
 3574 055e 0600     		.2byte	0x6
 3575 0560 74       		.byte	0x74
 3576 0561 00       		.sleb128 0
 3577 0562 70       		.byte	0x70
 3578 0563 00       		.sleb128 0
 3579 0564 1C       		.byte	0x1c
 3580 0565 9F       		.byte	0x9f
 3581 0566 DC030000 		.4byte	.LVL86
 3582 056a 1C040000 		.4byte	.LVL90
 3583 056e 0100     		.2byte	0x1
 3584 0570 54       		.byte	0x54
 3585 0571 1C040000 		.4byte	.LVL90
 3586 0575 20040000 		.4byte	.LVL91
 3587 0579 0300     		.2byte	0x3
 3588 057b 74       		.byte	0x74
 3589 057c 01       		.sleb128 1
 3590 057d 9F       		.byte	0x9f
ARM GAS  /tmp/ccEnej6L.s 			page 64


 3591 057e 20040000 		.4byte	.LVL91
 3592 0582 24040000 		.4byte	.LVL92
 3593 0586 0100     		.2byte	0x1
 3594 0588 54       		.byte	0x54
 3595 0589 24040000 		.4byte	.LVL92
 3596 058d 2C040000 		.4byte	.LVL93
 3597 0591 0200     		.2byte	0x2
 3598 0593 30       		.byte	0x30
 3599 0594 9F       		.byte	0x9f
 3600 0595 4C040000 		.4byte	.LVL97
 3601 0599 68040000 		.4byte	.LVL98
 3602 059d 0100     		.2byte	0x1
 3603 059f 54       		.byte	0x54
 3604 05a0 68040000 		.4byte	.LVL98
 3605 05a4 6C040000 		.4byte	.LVL99
 3606 05a8 0300     		.2byte	0x3
 3607 05aa 74       		.byte	0x74
 3608 05ab 7F       		.sleb128 -1
 3609 05ac 9F       		.byte	0x9f
 3610 05ad 6C040000 		.4byte	.LVL99
 3611 05b1 F4050000 		.4byte	.LVL112
 3612 05b5 0100     		.2byte	0x1
 3613 05b7 54       		.byte	0x54
 3614 05b8 F4050000 		.4byte	.LVL112
 3615 05bc 04060000 		.4byte	.LVL113
 3616 05c0 0200     		.2byte	0x2
 3617 05c2 30       		.byte	0x30
 3618 05c3 9F       		.byte	0x9f
 3619 05c4 04060000 		.4byte	.LVL113
 3620 05c8 2C060000 		.4byte	.LVL120
 3621 05cc 0100     		.2byte	0x1
 3622 05ce 54       		.byte	0x54
 3623 05cf 2C060000 		.4byte	.LVL120
 3624 05d3 A0060000 		.4byte	.LVL137
 3625 05d7 0300     		.2byte	0x3
 3626 05d9 91       		.byte	0x91
 3627 05da 887F     		.sleb128 -120
 3628 05dc A0060000 		.4byte	.LVL137
 3629 05e0 D4070000 		.4byte	.LFE10
 3630 05e4 0100     		.2byte	0x1
 3631 05e6 54       		.byte	0x54
 3632 05e7 00000000 		.4byte	0
 3633 05eb 00000000 		.4byte	0
 3634              	.LLST9:
 3635 05ef 04010000 		.4byte	.LVL22
 3636 05f3 F8010000 		.4byte	.LVL25
 3637 05f7 0200     		.2byte	0x2
 3638 05f9 31       		.byte	0x31
 3639 05fa 9F       		.byte	0x9f
 3640 05fb C8040000 		.4byte	.LVL105
 3641 05ff A8050000 		.4byte	.LVL106
 3642 0603 0B00     		.2byte	0xb
 3643 0605 73       		.byte	0x73
 3644 0606 00       		.sleb128 0
 3645 0607 08       		.byte	0x8
 3646 0608 FF       		.byte	0xff
 3647 0609 1A       		.byte	0x1a
ARM GAS  /tmp/ccEnej6L.s 			page 65


 3648 060a 49       		.byte	0x49
 3649 060b 2C       		.byte	0x2c
 3650 060c 08       		.byte	0x8
 3651 060d FF       		.byte	0xff
 3652 060e 1A       		.byte	0x1a
 3653 060f 9F       		.byte	0x9f
 3654 0610 04060000 		.4byte	.LVL113
 3655 0614 14060000 		.4byte	.LVL115
 3656 0618 0B00     		.2byte	0xb
 3657 061a 73       		.byte	0x73
 3658 061b 00       		.sleb128 0
 3659 061c 08       		.byte	0x8
 3660 061d FF       		.byte	0xff
 3661 061e 1A       		.byte	0x1a
 3662 061f 49       		.byte	0x49
 3663 0620 2C       		.byte	0x2c
 3664 0621 08       		.byte	0x8
 3665 0622 FF       		.byte	0xff
 3666 0623 1A       		.byte	0x1a
 3667 0624 9F       		.byte	0x9f
 3668 0625 14060000 		.4byte	.LVL115
 3669 0629 1C060000 		.4byte	.LVL117
 3670 062d 0C00     		.2byte	0xc
 3671 062f 72       		.byte	0x72
 3672 0630 BF7F     		.sleb128 -65
 3673 0632 08       		.byte	0x8
 3674 0633 FF       		.byte	0xff
 3675 0634 1A       		.byte	0x1a
 3676 0635 49       		.byte	0x49
 3677 0636 2C       		.byte	0x2c
 3678 0637 08       		.byte	0x8
 3679 0638 FF       		.byte	0xff
 3680 0639 1A       		.byte	0x1a
 3681 063a 9F       		.byte	0x9f
 3682 063b 1C060000 		.4byte	.LVL117
 3683 063f 20060000 		.4byte	.LVL118
 3684 0643 0B00     		.2byte	0xb
 3685 0645 70       		.byte	0x70
 3686 0646 03       		.sleb128 3
 3687 0647 08       		.byte	0x8
 3688 0648 FF       		.byte	0xff
 3689 0649 1A       		.byte	0x1a
 3690 064a 49       		.byte	0x49
 3691 064b 2C       		.byte	0x2c
 3692 064c 08       		.byte	0x8
 3693 064d FF       		.byte	0xff
 3694 064e 1A       		.byte	0x1a
 3695 064f 9F       		.byte	0x9f
 3696 0650 A0060000 		.4byte	.LVL137
 3697 0654 A4060000 		.4byte	.LVL138
 3698 0658 0200     		.2byte	0x2
 3699 065a 31       		.byte	0x31
 3700 065b 9F       		.byte	0x9f
 3701 065c B8060000 		.4byte	.LVL139
 3702 0660 C0060000 		.4byte	.LVL140
 3703 0664 0200     		.2byte	0x2
 3704 0666 31       		.byte	0x31
ARM GAS  /tmp/ccEnej6L.s 			page 66


 3705 0667 9F       		.byte	0x9f
 3706 0668 44070000 		.4byte	.LVL155
 3707 066c 60070000 		.4byte	.LVL156
 3708 0670 0B00     		.2byte	0xb
 3709 0672 73       		.byte	0x73
 3710 0673 00       		.sleb128 0
 3711 0674 08       		.byte	0x8
 3712 0675 FF       		.byte	0xff
 3713 0676 1A       		.byte	0x1a
 3714 0677 49       		.byte	0x49
 3715 0678 2C       		.byte	0x2c
 3716 0679 08       		.byte	0x8
 3717 067a FF       		.byte	0xff
 3718 067b 1A       		.byte	0x1a
 3719 067c 9F       		.byte	0x9f
 3720 067d 60070000 		.4byte	.LVL156
 3721 0681 64070000 		.4byte	.LVL157
 3722 0685 0C00     		.2byte	0xc
 3723 0687 72       		.byte	0x72
 3724 0688 BF7F     		.sleb128 -65
 3725 068a 08       		.byte	0x8
 3726 068b FF       		.byte	0xff
 3727 068c 1A       		.byte	0x1a
 3728 068d 49       		.byte	0x49
 3729 068e 2C       		.byte	0x2c
 3730 068f 08       		.byte	0x8
 3731 0690 FF       		.byte	0xff
 3732 0691 1A       		.byte	0x1a
 3733 0692 9F       		.byte	0x9f
 3734 0693 64070000 		.4byte	.LVL157
 3735 0697 70070000 		.4byte	.LVL158
 3736 069b 0B00     		.2byte	0xb
 3737 069d 70       		.byte	0x70
 3738 069e 03       		.sleb128 3
 3739 069f 08       		.byte	0x8
 3740 06a0 FF       		.byte	0xff
 3741 06a1 1A       		.byte	0x1a
 3742 06a2 49       		.byte	0x49
 3743 06a3 2C       		.byte	0x2c
 3744 06a4 08       		.byte	0x8
 3745 06a5 FF       		.byte	0xff
 3746 06a6 1A       		.byte	0x1a
 3747 06a7 9F       		.byte	0x9f
 3748 06a8 70070000 		.4byte	.LVL158
 3749 06ac 78070000 		.4byte	.LVL159
 3750 06b0 0200     		.2byte	0x2
 3751 06b2 31       		.byte	0x31
 3752 06b3 9F       		.byte	0x9f
 3753 06b4 00000000 		.4byte	0
 3754 06b8 00000000 		.4byte	0
 3755              	.LLST10:
 3756 06bc 6C000000 		.4byte	.LVL6
 3757 06c0 84000000 		.4byte	.LVL8
 3758 06c4 0200     		.2byte	0x2
 3759 06c6 30       		.byte	0x30
 3760 06c7 9F       		.byte	0x9f
 3761 06c8 84000000 		.4byte	.LVL8
ARM GAS  /tmp/ccEnej6L.s 			page 67


 3762 06cc 88000000 		.4byte	.LVL9
 3763 06d0 0200     		.2byte	0x2
 3764 06d2 31       		.byte	0x31
 3765 06d3 9F       		.byte	0x9f
 3766 06d4 88000000 		.4byte	.LVL9
 3767 06d8 8C000000 		.4byte	.LVL10
 3768 06dc 0300     		.2byte	0x3
 3769 06de 91       		.byte	0x91
 3770 06df 847F     		.sleb128 -124
 3771 06e1 00000000 		.4byte	0
 3772 06e5 00000000 		.4byte	0
 3773              	.LLST11:
 3774 06e9 20060000 		.4byte	.LVL118
 3775 06ed 30060000 		.4byte	.LVL121
 3776 06f1 0100     		.2byte	0x1
 3777 06f3 52       		.byte	0x52
 3778 06f4 D0060000 		.4byte	.LVL142
 3779 06f8 F8060000 		.4byte	.LVL145
 3780 06fc 0100     		.2byte	0x1
 3781 06fe 5E       		.byte	0x5e
 3782 06ff 00000000 		.4byte	0
 3783 0703 00000000 		.4byte	0
 3784              	.LLST12:
 3785 0707 98020000 		.4byte	.LVL42
 3786 070b 9B020000 		.4byte	.LVL43-1
 3787 070f 0100     		.2byte	0x1
 3788 0711 50       		.byte	0x50
 3789 0712 9B020000 		.4byte	.LVL43-1
 3790 0716 68030000 		.4byte	.LVL69
 3791 071a 0100     		.2byte	0x1
 3792 071c 5B       		.byte	0x5b
 3793 071d 00000000 		.4byte	0
 3794 0721 00000000 		.4byte	0
 3795              	.LLST13:
 3796 0725 C8020000 		.4byte	.LVL48
 3797 0729 CC020000 		.4byte	.LVL49
 3798 072d 0600     		.2byte	0x6
 3799 072f 50       		.byte	0x50
 3800 0730 93       		.byte	0x93
 3801 0731 04       		.uleb128 0x4
 3802 0732 51       		.byte	0x51
 3803 0733 93       		.byte	0x93
 3804 0734 04       		.uleb128 0x4
 3805 0735 CC020000 		.4byte	.LVL49
 3806 0739 D0030000 		.4byte	.LVL83
 3807 073d 0300     		.2byte	0x3
 3808 073f 91       		.byte	0x91
 3809 0740 887F     		.sleb128 -120
 3810 0742 00000000 		.4byte	0
 3811 0746 00000000 		.4byte	0
 3812              	.LLST14:
 3813 074a C8020000 		.4byte	.LVL48
 3814 074e 3C030000 		.4byte	.LVL64
 3815 0752 0100     		.2byte	0x1
 3816 0754 56       		.byte	0x56
 3817 0755 68030000 		.4byte	.LVL69
 3818 0759 D0030000 		.4byte	.LVL83
ARM GAS  /tmp/ccEnej6L.s 			page 68


 3819 075d 0100     		.2byte	0x1
 3820 075f 5B       		.byte	0x5b
 3821 0760 00000000 		.4byte	0
 3822 0764 00000000 		.4byte	0
 3823              	.LLST15:
 3824 0768 D0020000 		.4byte	.LVL50
 3825 076c 3F030000 		.4byte	.LVL65-1
 3826 0770 0100     		.2byte	0x1
 3827 0772 50       		.byte	0x50
 3828 0773 68030000 		.4byte	.LVL69
 3829 0777 74030000 		.4byte	.LVL70
 3830 077b 0100     		.2byte	0x1
 3831 077d 50       		.byte	0x50
 3832 077e 00000000 		.4byte	0
 3833 0782 00000000 		.4byte	0
 3834              	.LLST16:
 3835 0786 C8020000 		.4byte	.LVL48
 3836 078a D0030000 		.4byte	.LVL83
 3837 078e 0600     		.2byte	0x6
 3838 0790 0C       		.byte	0xc
 3839 0791 A0860100 		.4byte	0x186a0
 3840 0795 9F       		.byte	0x9f
 3841 0796 00000000 		.4byte	0
 3842 079a 00000000 		.4byte	0
 3843              	.LLST17:
 3844 079e D0020000 		.4byte	.LVL50
 3845 07a2 3C030000 		.4byte	.LVL64
 3846 07a6 0200     		.2byte	0x2
 3847 07a8 30       		.byte	0x30
 3848 07a9 9F       		.byte	0x9f
 3849 07aa 00000000 		.4byte	0
 3850 07ae 00000000 		.4byte	0
 3851              	.LLST18:
 3852 07b2 D0020000 		.4byte	.LVL50
 3853 07b6 3C030000 		.4byte	.LVL64
 3854 07ba 0200     		.2byte	0x2
 3855 07bc 3A       		.byte	0x3a
 3856 07bd 9F       		.byte	0x9f
 3857 07be 00000000 		.4byte	0
 3858 07c2 00000000 		.4byte	0
 3859              	.LLST19:
 3860 07c6 D0020000 		.4byte	.LVL50
 3861 07ca 3C030000 		.4byte	.LVL64
 3862 07ce 0100     		.2byte	0x1
 3863 07d0 50       		.byte	0x50
 3864 07d1 00000000 		.4byte	0
 3865 07d5 00000000 		.4byte	0
 3866              	.LLST20:
 3867 07d9 D0020000 		.4byte	.LVL50
 3868 07dd 1C030000 		.4byte	.LVL61
 3869 07e1 0100     		.2byte	0x1
 3870 07e3 56       		.byte	0x56
 3871 07e4 1C030000 		.4byte	.LVL61
 3872 07e8 20030000 		.4byte	.LVL62
 3873 07ec 0300     		.2byte	0x3
 3874 07ee 72       		.byte	0x72
 3875 07ef 7F       		.sleb128 -1
ARM GAS  /tmp/ccEnej6L.s 			page 69


 3876 07f0 9F       		.byte	0x9f
 3877 07f1 20030000 		.4byte	.LVL62
 3878 07f5 24030000 		.4byte	.LVL63
 3879 07f9 0100     		.2byte	0x1
 3880 07fb 52       		.byte	0x52
 3881 07fc 24030000 		.4byte	.LVL63
 3882 0800 3C030000 		.4byte	.LVL64
 3883 0804 0300     		.2byte	0x3
 3884 0806 72       		.byte	0x72
 3885 0807 7F       		.sleb128 -1
 3886 0808 9F       		.byte	0x9f
 3887 0809 00000000 		.4byte	0
 3888 080d 00000000 		.4byte	0
 3889              	.LLST21:
 3890 0811 F4020000 		.4byte	.LVL53
 3891 0815 F8020000 		.4byte	.LVL54
 3892 0819 0300     		.2byte	0x3
 3893 081b 73       		.byte	0x73
 3894 081c 30       		.sleb128 48
 3895 081d 9F       		.byte	0x9f
 3896 081e F8020000 		.4byte	.LVL54
 3897 0822 FC020000 		.4byte	.LVL55
 3898 0826 0100     		.2byte	0x1
 3899 0828 53       		.byte	0x53
 3900 0829 FC020000 		.4byte	.LVL55
 3901 082d 00030000 		.4byte	.LVL56
 3902 0831 0F00     		.2byte	0xf
 3903 0833 7E       		.byte	0x7e
 3904 0834 00       		.sleb128 0
 3905 0835 72       		.byte	0x72
 3906 0836 00       		.sleb128 0
 3907 0837 32       		.byte	0x32
 3908 0838 24       		.byte	0x24
 3909 0839 72       		.byte	0x72
 3910 083a 00       		.sleb128 0
 3911 083b 22       		.byte	0x22
 3912 083c 31       		.byte	0x31
 3913 083d 24       		.byte	0x24
 3914 083e 1C       		.byte	0x1c
 3915 083f 23       		.byte	0x23
 3916 0840 30       		.uleb128 0x30
 3917 0841 9F       		.byte	0x9f
 3918 0842 0C030000 		.4byte	.LVL58
 3919 0846 1C030000 		.4byte	.LVL61
 3920 084a 0100     		.2byte	0x1
 3921 084c 5C       		.byte	0x5c
 3922 084d 00000000 		.4byte	0
 3923 0851 00000000 		.4byte	0
 3924              	.LLST22:
 3925 0855 D4020000 		.4byte	.LVL51
 3926 0859 DC020000 		.4byte	.LVL52
 3927 085d 0100     		.2byte	0x1
 3928 085f 5C       		.byte	0x5c
 3929 0860 DC020000 		.4byte	.LVL52
 3930 0864 F4020000 		.4byte	.LVL53
 3931 0868 0100     		.2byte	0x1
 3932 086a 51       		.byte	0x51
ARM GAS  /tmp/ccEnej6L.s 			page 70


 3933 086b F4020000 		.4byte	.LVL53
 3934 086f 04030000 		.4byte	.LVL57
 3935 0873 0300     		.2byte	0x3
 3936 0875 71       		.byte	0x71
 3937 0876 7F       		.sleb128 -1
 3938 0877 9F       		.byte	0x9f
 3939 0878 04030000 		.4byte	.LVL57
 3940 087c 18030000 		.4byte	.LVL60
 3941 0880 0100     		.2byte	0x1
 3942 0882 51       		.byte	0x51
 3943 0883 18030000 		.4byte	.LVL60
 3944 0887 1C030000 		.4byte	.LVL61
 3945 088b 0100     		.2byte	0x1
 3946 088d 5E       		.byte	0x5e
 3947 088e 00000000 		.4byte	0
 3948 0892 00000000 		.4byte	0
 3949              	.LLST23:
 3950 0896 D0020000 		.4byte	.LVL50
 3951 089a DC020000 		.4byte	.LVL52
 3952 089e 0100     		.2byte	0x1
 3953 08a0 50       		.byte	0x50
 3954 08a1 DC020000 		.4byte	.LVL52
 3955 08a5 F4020000 		.4byte	.LVL53
 3956 08a9 0100     		.2byte	0x1
 3957 08ab 5E       		.byte	0x5e
 3958 08ac F4020000 		.4byte	.LVL53
 3959 08b0 14030000 		.4byte	.LVL59
 3960 08b4 0100     		.2byte	0x1
 3961 08b6 52       		.byte	0x52
 3962 08b7 00000000 		.4byte	0
 3963 08bb 00000000 		.4byte	0
 3964              	.LLST25:
 3965 08bf 68030000 		.4byte	.LVL69
 3966 08c3 D0030000 		.4byte	.LVL83
 3967 08c7 0200     		.2byte	0x2
 3968 08c9 3A       		.byte	0x3a
 3969 08ca 9F       		.byte	0x9f
 3970 08cb 00000000 		.4byte	0
 3971 08cf 00000000 		.4byte	0
 3972              	.LLST26:
 3973 08d3 68030000 		.4byte	.LVL69
 3974 08d7 D0030000 		.4byte	.LVL83
 3975 08db 0400     		.2byte	0x4
 3976 08dd 0A       		.byte	0xa
 3977 08de 1027     		.2byte	0x2710
 3978 08e0 9F       		.byte	0x9f
 3979 08e1 00000000 		.4byte	0
 3980 08e5 00000000 		.4byte	0
 3981              	.LLST27:
 3982 08e9 68030000 		.4byte	.LVL69
 3983 08ed 74030000 		.4byte	.LVL70
 3984 08f1 0100     		.2byte	0x1
 3985 08f3 50       		.byte	0x50
 3986 08f4 00000000 		.4byte	0
 3987 08f8 00000000 		.4byte	0
 3988              	.LLST28:
 3989 08fc 68030000 		.4byte	.LVL69
ARM GAS  /tmp/ccEnej6L.s 			page 71


 3990 0900 BC030000 		.4byte	.LVL80
 3991 0904 0100     		.2byte	0x1
 3992 0906 5B       		.byte	0x5b
 3993 0907 BC030000 		.4byte	.LVL80
 3994 090b C0030000 		.4byte	.LVL81
 3995 090f 0300     		.2byte	0x3
 3996 0911 71       		.byte	0x71
 3997 0912 7F       		.sleb128 -1
 3998 0913 9F       		.byte	0x9f
 3999 0914 C0030000 		.4byte	.LVL81
 4000 0918 C8030000 		.4byte	.LVL82
 4001 091c 0100     		.2byte	0x1
 4002 091e 51       		.byte	0x51
 4003 091f C8030000 		.4byte	.LVL82
 4004 0923 D0030000 		.4byte	.LVL83
 4005 0927 0300     		.2byte	0x3
 4006 0929 71       		.byte	0x71
 4007 092a 7F       		.sleb128 -1
 4008 092b 9F       		.byte	0x9f
 4009 092c 00000000 		.4byte	0
 4010 0930 00000000 		.4byte	0
 4011              	.LLST29:
 4012 0934 94030000 		.4byte	.LVL72
 4013 0938 98030000 		.4byte	.LVL73
 4014 093c 0300     		.2byte	0x3
 4015 093e 73       		.byte	0x73
 4016 093f 30       		.sleb128 48
 4017 0940 9F       		.byte	0x9f
 4018 0941 98030000 		.4byte	.LVL73
 4019 0945 9C030000 		.4byte	.LVL74
 4020 0949 0100     		.2byte	0x1
 4021 094b 53       		.byte	0x53
 4022 094c 9C030000 		.4byte	.LVL74
 4023 0950 A8030000 		.4byte	.LVL75
 4024 0954 0F00     		.2byte	0xf
 4025 0956 70       		.byte	0x70
 4026 0957 00       		.sleb128 0
 4027 0958 71       		.byte	0x71
 4028 0959 00       		.sleb128 0
 4029 095a 32       		.byte	0x32
 4030 095b 24       		.byte	0x24
 4031 095c 71       		.byte	0x71
 4032 095d 00       		.sleb128 0
 4033 095e 22       		.byte	0x22
 4034 095f 31       		.byte	0x31
 4035 0960 24       		.byte	0x24
 4036 0961 1C       		.byte	0x1c
 4037 0962 23       		.byte	0x23
 4038 0963 30       		.uleb128 0x30
 4039 0964 9F       		.byte	0x9f
 4040 0965 AC030000 		.4byte	.LVL76
 4041 0969 B0030000 		.4byte	.LVL77
 4042 096d 0600     		.2byte	0x6
 4043 096f 7E       		.byte	0x7e
 4044 0970 00       		.sleb128 0
 4045 0971 7C       		.byte	0x7c
 4046 0972 00       		.sleb128 0
ARM GAS  /tmp/ccEnej6L.s 			page 72


 4047 0973 1C       		.byte	0x1c
 4048 0974 9F       		.byte	0x9f
 4049 0975 B0030000 		.4byte	.LVL77
 4050 0979 B8030000 		.4byte	.LVL79
 4051 097d 0800     		.2byte	0x8
 4052 097f 76       		.byte	0x76
 4053 0980 00       		.sleb128 0
 4054 0981 7C       		.byte	0x7c
 4055 0982 00       		.sleb128 0
 4056 0983 1C       		.byte	0x1c
 4057 0984 23       		.byte	0x23
 4058 0985 05       		.uleb128 0x5
 4059 0986 9F       		.byte	0x9f
 4060 0987 B8030000 		.4byte	.LVL79
 4061 098b BC030000 		.4byte	.LVL80
 4062 098f 0800     		.2byte	0x8
 4063 0991 7B       		.byte	0x7b
 4064 0992 00       		.sleb128 0
 4065 0993 7C       		.byte	0x7c
 4066 0994 00       		.sleb128 0
 4067 0995 1C       		.byte	0x1c
 4068 0996 23       		.byte	0x23
 4069 0997 0B       		.uleb128 0xb
 4070 0998 9F       		.byte	0x9f
 4071 0999 BC030000 		.4byte	.LVL80
 4072 099d D0030000 		.4byte	.LVL83
 4073 09a1 0D00     		.2byte	0xd
 4074 09a3 7B       		.byte	0x7b
 4075 09a4 00       		.sleb128 0
 4076 09a5 31       		.byte	0x31
 4077 09a6 24       		.byte	0x24
 4078 09a7 71       		.byte	0x71
 4079 09a8 00       		.sleb128 0
 4080 09a9 1C       		.byte	0x1c
 4081 09aa 7C       		.byte	0x7c
 4082 09ab 00       		.sleb128 0
 4083 09ac 1C       		.byte	0x1c
 4084 09ad 23       		.byte	0x23
 4085 09ae 0B       		.uleb128 0xb
 4086 09af 9F       		.byte	0x9f
 4087 09b0 00000000 		.4byte	0
 4088 09b4 00000000 		.4byte	0
 4089              	.LLST30:
 4090 09b8 68030000 		.4byte	.LVL69
 4091 09bc 74030000 		.4byte	.LVL70
 4092 09c0 0100     		.2byte	0x1
 4093 09c2 5E       		.byte	0x5e
 4094 09c3 74030000 		.4byte	.LVL70
 4095 09c7 78030000 		.4byte	.LVL71
 4096 09cb 0100     		.2byte	0x1
 4097 09cd 5C       		.byte	0x5c
 4098 09ce 78030000 		.4byte	.LVL71
 4099 09d2 94030000 		.4byte	.LVL72
 4100 09d6 0100     		.2byte	0x1
 4101 09d8 52       		.byte	0x52
 4102 09d9 94030000 		.4byte	.LVL72
 4103 09dd BC030000 		.4byte	.LVL80
ARM GAS  /tmp/ccEnej6L.s 			page 73


 4104 09e1 0100     		.2byte	0x1
 4105 09e3 5C       		.byte	0x5c
 4106 09e4 BC030000 		.4byte	.LVL80
 4107 09e8 C0030000 		.4byte	.LVL81
 4108 09ec 0A00     		.2byte	0xa
 4109 09ee 7B       		.byte	0x7b
 4110 09ef 00       		.sleb128 0
 4111 09f0 20       		.byte	0x20
 4112 09f1 71       		.byte	0x71
 4113 09f2 00       		.sleb128 0
 4114 09f3 22       		.byte	0x22
 4115 09f4 7C       		.byte	0x7c
 4116 09f5 00       		.sleb128 0
 4117 09f6 22       		.byte	0x22
 4118 09f7 9F       		.byte	0x9f
 4119 09f8 C0030000 		.4byte	.LVL81
 4120 09fc C8030000 		.4byte	.LVL82
 4121 0a00 0900     		.2byte	0x9
 4122 0a02 71       		.byte	0x71
 4123 0a03 00       		.sleb128 0
 4124 0a04 7B       		.byte	0x7b
 4125 0a05 00       		.sleb128 0
 4126 0a06 1C       		.byte	0x1c
 4127 0a07 7C       		.byte	0x7c
 4128 0a08 00       		.sleb128 0
 4129 0a09 22       		.byte	0x22
 4130 0a0a 9F       		.byte	0x9f
 4131 0a0b C8030000 		.4byte	.LVL82
 4132 0a0f D0030000 		.4byte	.LVL83
 4133 0a13 0A00     		.2byte	0xa
 4134 0a15 7B       		.byte	0x7b
 4135 0a16 00       		.sleb128 0
 4136 0a17 20       		.byte	0x20
 4137 0a18 71       		.byte	0x71
 4138 0a19 00       		.sleb128 0
 4139 0a1a 22       		.byte	0x22
 4140 0a1b 7C       		.byte	0x7c
 4141 0a1c 00       		.sleb128 0
 4142 0a1d 22       		.byte	0x22
 4143 0a1e 9F       		.byte	0x9f
 4144 0a1f 00000000 		.4byte	0
 4145 0a23 00000000 		.4byte	0
 4146              	.LLST31:
 4147 0a27 68030000 		.4byte	.LVL69
 4148 0a2b A8030000 		.4byte	.LVL75
 4149 0a2f 0100     		.2byte	0x1
 4150 0a31 50       		.byte	0x50
 4151 0a32 A8030000 		.4byte	.LVL75
 4152 0a36 B4030000 		.4byte	.LVL78
 4153 0a3a 0100     		.2byte	0x1
 4154 0a3c 51       		.byte	0x51
 4155 0a3d B4030000 		.4byte	.LVL78
 4156 0a41 D0030000 		.4byte	.LVL83
 4157 0a45 0100     		.2byte	0x1
 4158 0a47 50       		.byte	0x50
 4159 0a48 00000000 		.4byte	0
 4160 0a4c 00000000 		.4byte	0
ARM GAS  /tmp/ccEnej6L.s 			page 74


 4161              	.LLST32:
 4162 0a50 68030000 		.4byte	.LVL69
 4163 0a54 74030000 		.4byte	.LVL70
 4164 0a58 0400     		.2byte	0x4
 4165 0a5a 0A       		.byte	0xa
 4166 0a5b 1027     		.2byte	0x2710
 4167 0a5d 9F       		.byte	0x9f
 4168 0a5e 00000000 		.4byte	0
 4169 0a62 00000000 		.4byte	0
 4170              	.LLST33:
 4171 0a66 20060000 		.4byte	.LVL118
 4172 0a6a 30060000 		.4byte	.LVL121
 4173 0a6e 0100     		.2byte	0x1
 4174 0a70 52       		.byte	0x52
 4175 0a71 00000000 		.4byte	0
 4176 0a75 00000000 		.4byte	0
 4177              	.LLST34:
 4178 0a79 20060000 		.4byte	.LVL118
 4179 0a7d 78060000 		.4byte	.LVL130
 4180 0a81 0400     		.2byte	0x4
 4181 0a83 91       		.byte	0x91
 4182 0a84 987F     		.sleb128 -104
 4183 0a86 9F       		.byte	0x9f
 4184 0a87 78060000 		.4byte	.LVL130
 4185 0a8b A0060000 		.4byte	.LVL137
 4186 0a8f 0100     		.2byte	0x1
 4187 0a91 57       		.byte	0x57
 4188 0a92 00000000 		.4byte	0
 4189 0a96 00000000 		.4byte	0
 4190              	.LLST35:
 4191 0a9a 20060000 		.4byte	.LVL118
 4192 0a9e A0060000 		.4byte	.LVL137
 4193 0aa2 0200     		.2byte	0x2
 4194 0aa4 30       		.byte	0x30
 4195 0aa5 9F       		.byte	0x9f
 4196 0aa6 00000000 		.4byte	0
 4197 0aaa 00000000 		.4byte	0
 4198              	.LLST37:
 4199 0aae 20060000 		.4byte	.LVL118
 4200 0ab2 78060000 		.4byte	.LVL130
 4201 0ab6 0400     		.2byte	0x4
 4202 0ab8 91       		.byte	0x91
 4203 0ab9 987F     		.sleb128 -104
 4204 0abb 9F       		.byte	0x9f
 4205 0abc 78060000 		.4byte	.LVL130
 4206 0ac0 8C060000 		.4byte	.LVL134
 4207 0ac4 0100     		.2byte	0x1
 4208 0ac6 57       		.byte	0x57
 4209 0ac7 8C060000 		.4byte	.LVL134
 4210 0acb 90060000 		.4byte	.LVL135
 4211 0acf 0300     		.2byte	0x3
 4212 0ad1 72       		.byte	0x72
 4213 0ad2 7F       		.sleb128 -1
 4214 0ad3 9F       		.byte	0x9f
 4215 0ad4 90060000 		.4byte	.LVL135
 4216 0ad8 98060000 		.4byte	.LVL136
 4217 0adc 0100     		.2byte	0x1
ARM GAS  /tmp/ccEnej6L.s 			page 75


 4218 0ade 52       		.byte	0x52
 4219 0adf 98060000 		.4byte	.LVL136
 4220 0ae3 A0060000 		.4byte	.LVL137
 4221 0ae7 0300     		.2byte	0x3
 4222 0ae9 72       		.byte	0x72
 4223 0aea 7F       		.sleb128 -1
 4224 0aeb 9F       		.byte	0x9f
 4225 0aec 00000000 		.4byte	0
 4226 0af0 00000000 		.4byte	0
 4227              	.LLST38:
 4228 0af4 44060000 		.4byte	.LVL124
 4229 0af8 48060000 		.4byte	.LVL125
 4230 0afc 0100     		.2byte	0x1
 4231 0afe 51       		.byte	0x51
 4232 0aff 48060000 		.4byte	.LVL125
 4233 0b03 63060000 		.4byte	.LVL127-1
 4234 0b07 0100     		.2byte	0x1
 4235 0b09 53       		.byte	0x53
 4236 0b0a 7C060000 		.4byte	.LVL131
 4237 0b0e 8C060000 		.4byte	.LVL134
 4238 0b12 0100     		.2byte	0x1
 4239 0b14 50       		.byte	0x50
 4240 0b15 00000000 		.4byte	0
 4241 0b19 00000000 		.4byte	0
 4242              	.LLST39:
 4243 0b1d 20060000 		.4byte	.LVL118
 4244 0b21 28060000 		.4byte	.LVL119
 4245 0b25 0400     		.2byte	0x4
 4246 0b27 91       		.byte	0x91
 4247 0b28 A37F     		.sleb128 -93
 4248 0b2a 9F       		.byte	0x9f
 4249 0b2b 28060000 		.4byte	.LVL119
 4250 0b2f 30060000 		.4byte	.LVL121
 4251 0b33 0100     		.2byte	0x1
 4252 0b35 56       		.byte	0x56
 4253 0b36 30060000 		.4byte	.LVL121
 4254 0b3a 34060000 		.4byte	.LVL122
 4255 0b3e 0100     		.2byte	0x1
 4256 0b40 51       		.byte	0x51
 4257 0b41 34060000 		.4byte	.LVL122
 4258 0b45 6C060000 		.4byte	.LVL129
 4259 0b49 0100     		.2byte	0x1
 4260 0b4b 56       		.byte	0x56
 4261 0b4c 6C060000 		.4byte	.LVL129
 4262 0b50 88060000 		.4byte	.LVL133
 4263 0b54 0100     		.2byte	0x1
 4264 0b56 51       		.byte	0x51
 4265 0b57 88060000 		.4byte	.LVL133
 4266 0b5b 8C060000 		.4byte	.LVL134
 4267 0b5f 0300     		.2byte	0x3
 4268 0b61 76       		.byte	0x76
 4269 0b62 7F       		.sleb128 -1
 4270 0b63 9F       		.byte	0x9f
 4271 0b64 00000000 		.4byte	0
 4272 0b68 00000000 		.4byte	0
 4273              	.LLST40:
 4274 0b6c 20060000 		.4byte	.LVL118
ARM GAS  /tmp/ccEnej6L.s 			page 76


 4275 0b70 30060000 		.4byte	.LVL121
 4276 0b74 0100     		.2byte	0x1
 4277 0b76 52       		.byte	0x52
 4278 0b77 30060000 		.4byte	.LVL121
 4279 0b7b 34060000 		.4byte	.LVL122
 4280 0b7f 0100     		.2byte	0x1
 4281 0b81 50       		.byte	0x50
 4282 0b82 34060000 		.4byte	.LVL122
 4283 0b86 68060000 		.4byte	.LVL128
 4284 0b8a 0100     		.2byte	0x1
 4285 0b8c 54       		.byte	0x54
 4286 0b8d 6C060000 		.4byte	.LVL129
 4287 0b91 7C060000 		.4byte	.LVL131
 4288 0b95 0100     		.2byte	0x1
 4289 0b97 50       		.byte	0x50
 4290 0b98 7C060000 		.4byte	.LVL131
 4291 0b9c 80060000 		.4byte	.LVL132
 4292 0ba0 0100     		.2byte	0x1
 4293 0ba2 54       		.byte	0x54
 4294 0ba3 00000000 		.4byte	0
 4295 0ba7 00000000 		.4byte	0
 4296              	.LLST42:
 4297 0bab F0060000 		.4byte	.LVL144
 4298 0baf 44070000 		.4byte	.LVL155
 4299 0bb3 0200     		.2byte	0x2
 4300 0bb5 3A       		.byte	0x3a
 4301 0bb6 9F       		.byte	0x9f
 4302 0bb7 00000000 		.4byte	0
 4303 0bbb 00000000 		.4byte	0
 4304              	.LLST43:
 4305 0bbf F0060000 		.4byte	.LVL144
 4306 0bc3 F8060000 		.4byte	.LVL145
 4307 0bc7 0100     		.2byte	0x1
 4308 0bc9 5E       		.byte	0x5e
 4309 0bca 00000000 		.4byte	0
 4310 0bce 00000000 		.4byte	0
 4311              	.LLST44:
 4312 0bd2 F0060000 		.4byte	.LVL144
 4313 0bd6 30070000 		.4byte	.LVL152
 4314 0bda 0100     		.2byte	0x1
 4315 0bdc 5C       		.byte	0x5c
 4316 0bdd 30070000 		.4byte	.LVL152
 4317 0be1 44070000 		.4byte	.LVL155
 4318 0be5 0300     		.2byte	0x3
 4319 0be7 72       		.byte	0x72
 4320 0be8 75       		.sleb128 -11
 4321 0be9 9F       		.byte	0x9f
 4322 0bea 00000000 		.4byte	0
 4323 0bee 00000000 		.4byte	0
 4324              	.LLST45:
 4325 0bf2 F0060000 		.4byte	.LVL144
 4326 0bf6 44070000 		.4byte	.LVL155
 4327 0bfa 0200     		.2byte	0x2
 4328 0bfc 30       		.byte	0x30
 4329 0bfd 9F       		.byte	0x9f
 4330 0bfe 00000000 		.4byte	0
 4331 0c02 00000000 		.4byte	0
ARM GAS  /tmp/ccEnej6L.s 			page 77


 4332              	.LLST48:
 4333 0c06 F0060000 		.4byte	.LVL144
 4334 0c0a 30070000 		.4byte	.LVL152
 4335 0c0e 0100     		.2byte	0x1
 4336 0c10 5C       		.byte	0x5c
 4337 0c11 30070000 		.4byte	.LVL152
 4338 0c15 34070000 		.4byte	.LVL153
 4339 0c19 0300     		.2byte	0x3
 4340 0c1b 7C       		.byte	0x7c
 4341 0c1c 7F       		.sleb128 -1
 4342 0c1d 9F       		.byte	0x9f
 4343 0c1e 34070000 		.4byte	.LVL153
 4344 0c22 38070000 		.4byte	.LVL154
 4345 0c26 0100     		.2byte	0x1
 4346 0c28 5C       		.byte	0x5c
 4347 0c29 38070000 		.4byte	.LVL154
 4348 0c2d 44070000 		.4byte	.LVL155
 4349 0c31 0300     		.2byte	0x3
 4350 0c33 7C       		.byte	0x7c
 4351 0c34 7F       		.sleb128 -1
 4352 0c35 9F       		.byte	0x9f
 4353 0c36 00000000 		.4byte	0
 4354 0c3a 00000000 		.4byte	0
 4355              	.LLST49:
 4356 0c3e 10070000 		.4byte	.LVL146
 4357 0c42 14070000 		.4byte	.LVL147
 4358 0c46 0300     		.2byte	0x3
 4359 0c48 73       		.byte	0x73
 4360 0c49 30       		.sleb128 48
 4361 0c4a 9F       		.byte	0x9f
 4362 0c4b 14070000 		.4byte	.LVL147
 4363 0c4f 18070000 		.4byte	.LVL148
 4364 0c53 0100     		.2byte	0x1
 4365 0c55 53       		.byte	0x53
 4366 0c56 18070000 		.4byte	.LVL148
 4367 0c5a 1C070000 		.4byte	.LVL149
 4368 0c5e 0F00     		.2byte	0xf
 4369 0c60 7E       		.byte	0x7e
 4370 0c61 00       		.sleb128 0
 4371 0c62 71       		.byte	0x71
 4372 0c63 00       		.sleb128 0
 4373 0c64 32       		.byte	0x32
 4374 0c65 24       		.byte	0x24
 4375 0c66 71       		.byte	0x71
 4376 0c67 00       		.sleb128 0
 4377 0c68 22       		.byte	0x22
 4378 0c69 31       		.byte	0x31
 4379 0c6a 24       		.byte	0x24
 4380 0c6b 1C       		.byte	0x1c
 4381 0c6c 23       		.byte	0x23
 4382 0c6d 30       		.uleb128 0x30
 4383 0c6e 9F       		.byte	0x9f
 4384 0c6f 24070000 		.4byte	.LVL151
 4385 0c73 30070000 		.4byte	.LVL152
 4386 0c77 0600     		.2byte	0x6
 4387 0c79 72       		.byte	0x72
 4388 0c7a 00       		.sleb128 0
ARM GAS  /tmp/ccEnej6L.s 			page 78


 4389 0c7b 70       		.byte	0x70
 4390 0c7c 00       		.sleb128 0
 4391 0c7d 1C       		.byte	0x1c
 4392 0c7e 9F       		.byte	0x9f
 4393 0c7f 00000000 		.4byte	0
 4394 0c83 00000000 		.4byte	0
 4395              	.LLST50:
 4396 0c87 F0060000 		.4byte	.LVL144
 4397 0c8b 10070000 		.4byte	.LVL146
 4398 0c8f 0100     		.2byte	0x1
 4399 0c91 50       		.byte	0x50
 4400 0c92 10070000 		.4byte	.LVL146
 4401 0c96 20070000 		.4byte	.LVL150
 4402 0c9a 0300     		.2byte	0x3
 4403 0c9c 70       		.byte	0x70
 4404 0c9d 7F       		.sleb128 -1
 4405 0c9e 9F       		.byte	0x9f
 4406 0c9f 20070000 		.4byte	.LVL150
 4407 0ca3 30070000 		.4byte	.LVL152
 4408 0ca7 0100     		.2byte	0x1
 4409 0ca9 50       		.byte	0x50
 4410 0caa 00000000 		.4byte	0
 4411 0cae 00000000 		.4byte	0
 4412              	.LLST51:
 4413 0cb2 F0060000 		.4byte	.LVL144
 4414 0cb6 10070000 		.4byte	.LVL146
 4415 0cba 0100     		.2byte	0x1
 4416 0cbc 5E       		.byte	0x5e
 4417 0cbd 10070000 		.4byte	.LVL146
 4418 0cc1 44070000 		.4byte	.LVL155
 4419 0cc5 0100     		.2byte	0x1
 4420 0cc7 51       		.byte	0x51
 4421 0cc8 00000000 		.4byte	0
 4422 0ccc 00000000 		.4byte	0
 4423              		.section	.debug_aranges,"",%progbits
 4424 0000 1C000000 		.4byte	0x1c
 4425 0004 0200     		.2byte	0x2
 4426 0006 00000000 		.4byte	.Ldebug_info0
 4427 000a 04       		.byte	0x4
 4428 000b 00       		.byte	0
 4429 000c 0000     		.2byte	0
 4430 000e 0000     		.2byte	0
 4431 0010 00000000 		.4byte	.LFB10
 4432 0014 D4070000 		.4byte	.LFE10-.LFB10
 4433 0018 00000000 		.4byte	0
 4434 001c 00000000 		.4byte	0
 4435              		.section	.debug_ranges,"",%progbits
 4436              	.Ldebug_ranges0:
 4437 0000 60030000 		.4byte	.LBB30
 4438 0004 64030000 		.4byte	.LBE30
 4439 0008 68030000 		.4byte	.LBB33
 4440 000c D8030000 		.4byte	.LBE33
 4441 0010 00000000 		.4byte	0
 4442 0014 00000000 		.4byte	0
 4443 0018 E4060000 		.4byte	.LBB37
 4444 001c EC060000 		.4byte	.LBE37
 4445 0020 F8060000 		.4byte	.LBB42
ARM GAS  /tmp/ccEnej6L.s 			page 79


 4446 0024 44070000 		.4byte	.LBE42
 4447 0028 00000000 		.4byte	0
 4448 002c 00000000 		.4byte	0
 4449 0030 00000000 		.4byte	.LFB10
 4450 0034 D4070000 		.4byte	.LFE10
 4451 0038 00000000 		.4byte	0
 4452 003c 00000000 		.4byte	0
 4453              		.section	.debug_line,"",%progbits
 4454              	.Ldebug_line0:
 4455 0000 FB020000 		.section	.debug_str,"MS",%progbits,1
 4455      02008201 
 4455      00000201 
 4455      FB0E0D00 
 4455      01010101 
 4456              	.LASF93:
 4457 0000 63665F6F 		.ascii	"cf_off_older\000"
 4457      66665F6F 
 4457      6C646572 
 4457      00
 4458              	.LASF45:
 4459 000d 705F6D73 		.ascii	"p_msg\000"
 4459      6700
 4460              	.LASF2:
 4461 0013 73697A65 		.ascii	"size_t\000"
 4461      5F7400
 4462              	.LASF78:
 4463 001a 7264796D 		.ascii	"rdymsg\000"
 4463      736700
 4464              	.LASF105:
 4465 0021 77726974 		.ascii	"write\000"
 4465      6500
 4466              	.LASF5:
 4467 0027 5F5F7569 		.ascii	"__uint8_t\000"
 4467      6E74385F 
 4467      7400
 4468              	.LASF1:
 4469 0031 76615F6C 		.ascii	"va_list\000"
 4469      69737400 
 4470              	.LASF71:
 4471 0039 76746C69 		.ascii	"vtlist\000"
 4471      737400
 4472              	.LASF117:
 4473 0040 66746F61 		.ascii	"ftoa\000"
 4473      00
 4474              	.LASF15:
 4475 0045 6C6F6E67 		.ascii	"long long unsigned int\000"
 4475      206C6F6E 
 4475      6720756E 
 4475      7369676E 
 4475      65642069 
 4476              	.LASF123:
 4477 005c 2F686F6D 		.ascii	"/home/lmr/Downloads/ChibiOS-RPi/ChibiOS-RPi/demos/P"
 4477      652F6C6D 
 4477      722F446F 
 4477      776E6C6F 
 4477      6164732F 
 4478 008f 726F6A65 		.ascii	"roject\000"
ARM GAS  /tmp/ccEnej6L.s 			page 80


 4478      637400
 4479              	.LASF89:
 4480 0096 63685F74 		.ascii	"ch_threadsize\000"
 4480      68726561 
 4480      6473697A 
 4480      6500
 4481              	.LASF79:
 4482 00a4 65786974 		.ascii	"exitcode\000"
 4482      636F6465 
 4482      00
 4483              	.LASF33:
 4484 00ad 705F7072 		.ascii	"p_prio\000"
 4484      696F00
 4485              	.LASF96:
 4486 00b4 63665F6F 		.ascii	"cf_off_state\000"
 4486      66665F73 
 4486      74617465 
 4486      00
 4487              	.LASF14:
 4488 00c1 6C6F6E67 		.ascii	"long long int\000"
 4488      206C6F6E 
 4488      6720696E 
 4488      7400
 4489              	.LASF4:
 4490 00cf 7369676E 		.ascii	"signed char\000"
 4490      65642063 
 4490      68617200 
 4491              	.LASF95:
 4492 00db 63665F6F 		.ascii	"cf_off_stklimit\000"
 4492      66665F73 
 4492      746B6C69 
 4492      6D697400 
 4493              	.LASF97:
 4494 00eb 63665F6F 		.ascii	"cf_off_flags\000"
 4494      66665F66 
 4494      6C616773 
 4494      00
 4495              	.LASF20:
 4496 00f8 626F6F6C 		.ascii	"bool_t\000"
 4496      5F7400
 4497              	.LASF74:
 4498 00ff 6D5F7175 		.ascii	"m_queue\000"
 4498      65756500 
 4499              	.LASF114:
 4500 0107 746D7062 		.ascii	"tmpbuf\000"
 4500      756600
 4501              	.LASF24:
 4502 010e 74736C69 		.ascii	"tslices_t\000"
 4502      6365735F 
 4502      7400
 4503              	.LASF11:
 4504 0118 6C6F6E67 		.ascii	"long int\000"
 4504      20696E74 
 4504      00
 4505              	.LASF22:
 4506 0121 74737461 		.ascii	"tstate_t\000"
 4506      74655F74 
ARM GAS  /tmp/ccEnej6L.s 			page 81


 4506      00
 4507              	.LASF30:
 4508 012a 5F5F7661 		.ascii	"__va_list\000"
 4508      5F6C6973 
 4508      7400
 4509              	.LASF17:
 4510 0134 75696E74 		.ascii	"uint16_t\000"
 4510      31365F74 
 4510      00
 4511              	.LASF116:
 4512 013d 646F7562 		.ascii	"double\000"
 4512      6C6500
 4513              	.LASF122:
 4514 0144 2E2E2F2E 		.ascii	"../../os/various/chprintf.c\000"
 4514      2E2F6F73 
 4514      2F766172 
 4514      696F7573 
 4514      2F636870 
 4515              	.LASF125:
 4516 0160 756E7369 		.ascii	"unsigned_common\000"
 4516      676E6564 
 4516      5F636F6D 
 4516      6D6F6E00 
 4517              	.LASF35:
 4518 0170 705F6E65 		.ascii	"p_newer\000"
 4518      77657200 
 4519              	.LASF108:
 4520 0178 5F69646C 		.ascii	"_idle_thread_wa\000"
 4520      655F7468 
 4520      72656164 
 4520      5F776100 
 4521              	.LASF12:
 4522 0188 5F5F7569 		.ascii	"__uint32_t\000"
 4522      6E743332 
 4522      5F7400
 4523              	.LASF52:
 4524 0193 72656761 		.ascii	"regarm_t\000"
 4524      726D5F74 
 4524      00
 4525              	.LASF58:
 4526 019c 76745F70 		.ascii	"vt_prev\000"
 4526      72657600 
 4527              	.LASF109:
 4528 01a4 66696C6C 		.ascii	"filler\000"
 4528      657200
 4529              	.LASF112:
 4530 01ab 69735F6C 		.ascii	"is_long\000"
 4530      6F6E6700 
 4531              	.LASF107:
 4532 01b3 42617365 		.ascii	"BaseSequentialStream\000"
 4532      53657175 
 4532      656E7469 
 4532      616C5374 
 4532      7265616D 
 4533              	.LASF3:
 4534 01c8 756E7369 		.ascii	"unsigned int\000"
 4534      676E6564 
ARM GAS  /tmp/ccEnej6L.s 			page 82


 4534      20696E74 
 4534      00
 4535              	.LASF57:
 4536 01d5 76745F6E 		.ascii	"vt_next\000"
 4536      65787400 
 4537              	.LASF13:
 4538 01dd 6C6F6E67 		.ascii	"long unsigned int\000"
 4538      20756E73 
 4538      69676E65 
 4538      6420696E 
 4538      7400
 4539              	.LASF103:
 4540 01ef 63685F64 		.ascii	"ch_debug\000"
 4540      65627567 
 4540      00
 4541              	.LASF113:
 4542 01f8 6C656674 		.ascii	"left_align\000"
 4542      5F616C69 
 4542      676E00
 4543              	.LASF55:
 4544 0203 76746675 		.ascii	"vtfunc_t\000"
 4544      6E635F74 
 4544      00
 4545              	.LASF83:
 4546 020c 63685F69 		.ascii	"ch_identifier\000"
 4546      64656E74 
 4546      69666965 
 4546      7200
 4547              	.LASF111:
 4548 021a 77696474 		.ascii	"width\000"
 4548      6800
 4549              	.LASF54:
 4550 0220 636F6E74 		.ascii	"context\000"
 4550      65787400 
 4551              	.LASF9:
 4552 0228 73686F72 		.ascii	"short unsigned int\000"
 4552      7420756E 
 4552      7369676E 
 4552      65642069 
 4552      6E7400
 4553              	.LASF26:
 4554 023b 6D73675F 		.ascii	"msg_t\000"
 4554      7400
 4555              	.LASF67:
 4556 0241 725F6E65 		.ascii	"r_newer\000"
 4556      77657200 
 4557              	.LASF21:
 4558 0249 746D6F64 		.ascii	"tmode_t\000"
 4558      655F7400 
 4559              	.LASF50:
 4560 0251 54687265 		.ascii	"ThreadsList\000"
 4560      6164734C 
 4560      69737400 
 4561              	.LASF27:
 4562 025d 6576656E 		.ascii	"eventmask_t\000"
 4562      746D6173 
 4562      6B5F7400 
ARM GAS  /tmp/ccEnej6L.s 			page 83


 4563              	.LASF73:
 4564 0269 4D757465 		.ascii	"Mutex\000"
 4564      7800
 4565              	.LASF118:
 4566 026f 6C746F61 		.ascii	"ltoa\000"
 4566      00
 4567              	.LASF51:
 4568 0274 73746B61 		.ascii	"stkalign_t\000"
 4568      6C69676E 
 4568      5F7400
 4569              	.LASF84:
 4570 027f 63685F7A 		.ascii	"ch_zero\000"
 4570      65726F00 
 4571              	.LASF98:
 4572 0287 63665F6F 		.ascii	"cf_off_refs\000"
 4572      66665F72 
 4572      65667300 
 4573              	.LASF59:
 4574 0293 76745F74 		.ascii	"vt_time\000"
 4574      696D6500 
 4575              	.LASF101:
 4576 029b 73697A65 		.ascii	"sizetype\000"
 4576      74797065 
 4576      00
 4577              	.LASF60:
 4578 02a4 76745F66 		.ascii	"vt_func\000"
 4578      756E6300 
 4579              	.LASF88:
 4580 02ac 63685F74 		.ascii	"ch_timesize\000"
 4580      696D6573 
 4580      697A6500 
 4581              	.LASF120:
 4582 02b8 64697669 		.ascii	"divisor\000"
 4582      736F7200 
 4583              	.LASF0:
 4584 02c0 5F5F676E 		.ascii	"__gnuc_va_list\000"
 4584      75635F76 
 4584      615F6C69 
 4584      737400
 4585              	.LASF94:
 4586 02cf 63665F6F 		.ascii	"cf_off_name\000"
 4586      66665F6E 
 4586      616D6500 
 4587              	.LASF36:
 4588 02db 705F6F6C 		.ascii	"p_older\000"
 4588      64657200 
 4589              	.LASF66:
 4590 02e3 725F6374 		.ascii	"r_ctx\000"
 4590      7800
 4591              	.LASF49:
 4592 02e9 54687265 		.ascii	"ThreadsQueue\000"
 4592      61647351 
 4592      75657565 
 4592      00
 4593              	.LASF85:
 4594 02f6 63685F73 		.ascii	"ch_size\000"
 4594      697A6500 
ARM GAS  /tmp/ccEnej6L.s 			page 84


 4595              	.LASF69:
 4596 02fe 725F6375 		.ascii	"r_current\000"
 4596      7272656E 
 4596      7400
 4597              	.LASF68:
 4598 0308 725F6F6C 		.ascii	"r_older\000"
 4598      64657200 
 4599              	.LASF115:
 4600 0310 666C6F61 		.ascii	"float\000"
 4600      7400
 4601              	.LASF23:
 4602 0316 74726566 		.ascii	"trefs_t\000"
 4602      735F7400 
 4603              	.LASF87:
 4604 031e 63685F70 		.ascii	"ch_ptrsize\000"
 4604      74727369 
 4604      7A6500
 4605              	.LASF32:
 4606 0329 705F7072 		.ascii	"p_prev\000"
 4606      657600
 4607              	.LASF25:
 4608 0330 74707269 		.ascii	"tprio_t\000"
 4608      6F5F7400 
 4609              	.LASF18:
 4610 0338 696E7433 		.ascii	"int32_t\000"
 4610      325F7400 
 4611              	.LASF6:
 4612 0340 756E7369 		.ascii	"unsigned char\000"
 4612      676E6564 
 4612      20636861 
 4612      7200
 4613              	.LASF47:
 4614 034e 705F6D74 		.ascii	"p_mtxlist\000"
 4614      786C6973 
 4614      7400
 4615              	.LASF7:
 4616 0358 73686F72 		.ascii	"short int\000"
 4616      7420696E 
 4616      7400
 4617              	.LASF38:
 4618 0362 705F7374 		.ascii	"p_state\000"
 4618      61746500 
 4619              	.LASF41:
 4620 036a 705F7072 		.ascii	"p_preempt\000"
 4620      65656D70 
 4620      7400
 4621              	.LASF100:
 4622 0374 63665F6F 		.ascii	"cf_off_time\000"
 4622      66665F74 
 4622      696D6500 
 4623              	.LASF65:
 4624 0380 725F7072 		.ascii	"r_prio\000"
 4624      696F00
 4625              	.LASF81:
 4626 0387 65776D61 		.ascii	"ewmask\000"
 4626      736B00
 4627              	.LASF31:
ARM GAS  /tmp/ccEnej6L.s 			page 85


 4628 038e 705F6E65 		.ascii	"p_next\000"
 4628      787400
 4629              	.LASF99:
 4630 0395 63665F6F 		.ascii	"cf_off_preempt\000"
 4630      66665F70 
 4630      7265656D 
 4630      707400
 4631              	.LASF39:
 4632 03a4 705F666C 		.ascii	"p_flags\000"
 4632      61677300 
 4633              	.LASF29:
 4634 03ac 54687265 		.ascii	"Thread\000"
 4634      616400
 4635              	.LASF92:
 4636 03b3 63665F6F 		.ascii	"cf_off_newer\000"
 4636      66665F6E 
 4636      65776572 
 4636      00
 4637              	.LASF46:
 4638 03c0 705F6570 		.ascii	"p_epending\000"
 4638      656E6469 
 4638      6E6700
 4639              	.LASF19:
 4640 03cb 75696E74 		.ascii	"uint32_t\000"
 4640      33325F74 
 4640      00
 4641              	.LASF90:
 4642 03d4 63665F6F 		.ascii	"cf_off_prio\000"
 4642      66665F70 
 4642      72696F00 
 4643              	.LASF64:
 4644 03e0 725F7175 		.ascii	"r_queue\000"
 4644      65756500 
 4645              	.LASF56:
 4646 03e8 56697274 		.ascii	"VirtualTimer\000"
 4646      75616C54 
 4646      696D6572 
 4646      00
 4647              	.LASF106:
 4648 03f5 72656164 		.ascii	"read\000"
 4648      00
 4649              	.LASF82:
 4650 03fa 63686172 		.ascii	"char\000"
 4650      00
 4651              	.LASF8:
 4652 03ff 5F5F7569 		.ascii	"__uint16_t\000"
 4652      6E743136 
 4652      5F7400
 4653              	.LASF110:
 4654 040a 70726563 		.ascii	"precision\000"
 4654      6973696F 
 4654      6E00
 4655              	.LASF104:
 4656 0414 42617365 		.ascii	"BaseSequentialStreamVMT\000"
 4656      53657175 
 4656      656E7469 
 4656      616C5374 
ARM GAS  /tmp/ccEnej6L.s 			page 86


 4656      7265616D 
 4657              	.LASF76:
 4658 042c 6D5F6E65 		.ascii	"m_next\000"
 4658      787400
 4659              	.LASF28:
 4660 0433 73797374 		.ascii	"systime_t\000"
 4660      696D655F 
 4660      7400
 4661              	.LASF48:
 4662 043d 705F7265 		.ascii	"p_realprio\000"
 4662      616C7072 
 4662      696F00
 4663              	.LASF10:
 4664 0448 5F5F696E 		.ascii	"__int32_t\000"
 4664      7433325F 
 4664      7400
 4665              	.LASF119:
 4666 0452 72616469 		.ascii	"radix\000"
 4666      7800
 4667              	.LASF77:
 4668 0458 5F5F6170 		.ascii	"__ap\000"
 4668      00
 4669              	.LASF42:
 4670 045d 705F7469 		.ascii	"p_time\000"
 4670      6D6500
 4671              	.LASF121:
 4672 0464 474E5520 		.ascii	"GNU C11 6.3.1 20170620 -mcpu=arm1176jz-s -mno-thumb"
 4672      43313120 
 4672      362E332E 
 4672      31203230 
 4672      31373036 
 4673 0497 2D696E74 		.ascii	"-interwork -ggdb -O2 -fomit-frame-pointer -ffunctio"
 4673      6572776F 
 4673      726B202D 
 4673      67676462 
 4673      202D4F32 
 4674 04ca 6E2D7365 		.ascii	"n-sections -fdata-sections\000"
 4674      6374696F 
 4674      6E73202D 
 4674      66646174 
 4674      612D7365 
 4675              	.LASF53:
 4676 04e5 696E7463 		.ascii	"intctx\000"
 4676      747800
 4677              	.LASF44:
 4678 04ec 705F6D73 		.ascii	"p_msgqueue\000"
 4678      67717565 
 4678      756500
 4679              	.LASF61:
 4680 04f7 76745F70 		.ascii	"vt_par\000"
 4680      617200
 4681              	.LASF91:
 4682 04fe 63665F6F 		.ascii	"cf_off_ctx\000"
 4682      66665F63 
 4682      747800
 4683              	.LASF40:
 4684 0509 705F7265 		.ascii	"p_refs\000"
ARM GAS  /tmp/ccEnej6L.s 			page 87


 4684      667300
 4685              	.LASF70:
 4686 0510 52656164 		.ascii	"ReadyList\000"
 4686      794C6973 
 4686      7400
 4687              	.LASF72:
 4688 051a 726C6973 		.ascii	"rlist\000"
 4688      7400
 4689              	.LASF16:
 4690 0520 75696E74 		.ascii	"uint8_t\000"
 4690      385F7400 
 4691              	.LASF80:
 4692 0528 77746F62 		.ascii	"wtobjp\000"
 4692      6A7000
 4693              	.LASF37:
 4694 052f 705F6E61 		.ascii	"p_name\000"
 4694      6D6500
 4695              	.LASF126:
 4696 0536 6C6F6E67 		.ascii	"long_to_string_with_divisor\000"
 4696      5F746F5F 
 4696      73747269 
 4696      6E675F77 
 4696      6974685F 
 4697              	.LASF62:
 4698 0552 76745F73 		.ascii	"vt_systime\000"
 4698      79737469 
 4698      6D6500
 4699              	.LASF86:
 4700 055d 63685F76 		.ascii	"ch_version\000"
 4700      65727369 
 4700      6F6E00
 4701              	.LASF63:
 4702 0568 56544C69 		.ascii	"VTList\000"
 4702      737400
 4703              	.LASF75:
 4704 056f 6D5F6F77 		.ascii	"m_owner\000"
 4704      6E657200 
 4705              	.LASF102:
 4706 0577 63686465 		.ascii	"chdebug_t\000"
 4706      6275675F 
 4706      7400
 4707              	.LASF34:
 4708 0581 705F6374 		.ascii	"p_ctx\000"
 4708      7800
 4709              	.LASF43:
 4710 0587 705F7761 		.ascii	"p_waiting\000"
 4710      6974696E 
 4710      6700
 4711              	.LASF124:
 4712 0591 63687072 		.ascii	"chprintf\000"
 4712      696E7466 
 4712      00
 4713              		.ident	"GCC: (15:6.3.1+svn253039-1build1) 6.3.1 20170620"
ARM GAS  /tmp/ccEnej6L.s 			page 88


DEFINED SYMBOLS
                            *ABS*:0000000000000000 chprintf.c
     /tmp/ccEnej6L.s:26     .text.chprintf:0000000000000000 $a
     /tmp/ccEnej6L.s:32     .text.chprintf:0000000000000000 chprintf
     /tmp/ccEnej6L.s:220    .text.chprintf:0000000000000124 $d
     /tmp/ccEnej6L.s:276    .text.chprintf:00000000000001f8 $a
     /tmp/ccEnej6L.s:668    .text.chprintf:00000000000004d4 $d
     /tmp/ccEnej6L.s:724    .text.chprintf:00000000000005a8 $a
     /tmp/ccEnej6L.s:1022   .text.chprintf:00000000000007c0 $d
     /tmp/ccEnej6L.s:1031   .rodata.chprintf.str1.4:0000000000000000 $d
                     .debug_frame:0000000000000010 $d

UNDEFINED SYMBOLS
__aeabi_d2f
__aeabi_fcmplt
__aeabi_f2d
__aeabi_f2iz
__aeabi_i2d
__aeabi_dsub
__aeabi_dmul
__aeabi_d2iz
__aeabi_uidivmod
__aeabi_uidiv
