ARM GAS  /tmp/ccEnej6L.s 			page 1


   1              		.cpu arm1176jz-s
   2              		.eabi_attribute 20, 1
   3              		.eabi_attribute 21, 1
   4              		.eabi_attribute 23, 3
   5              		.eabi_attribute 24, 1
   6              		.eabi_attribute 25, 1
   7              		.eabi_attribute 26, 1
   8              		.eabi_attribute 30, 2
   9              		.eabi_attribute 34, 1
  10              		.eabi_attribute 18, 4
  11              		.file	"chprintf.c"
  12              		.text
  13              	.Ltext0:
  14              		.cfi_sections	.debug_frame
  15              		.global	__aeabi_d2f
  16              		.global	__aeabi_fcmplt
  17              		.global	__aeabi_f2d
  18              		.global	__aeabi_f2iz
  19              		.global	__aeabi_i2d
  20              		.global	__aeabi_dsub
  21              		.global	__aeabi_dmul
  22              		.global	__aeabi_d2iz
  23              		.global	__aeabi_uidivmod
  24              		.global	__aeabi_uidiv
  25              		.section	.text.chprintf,"ax",%progbits
  26              		.align	2
  27              		.global	chprintf
  28              		.syntax unified
  29              		.arm
  30              		.fpu softvfp
  31              		.type	chprintf, %function
  32              	chprintf:
  33              	.LFB10:
  34              		.file 1 "../../os/various/chprintf.c"
  35              		.loc 1 112 0
  36              		.cfi_startproc
  37              		@ args = 4, pretend = 12, frame = 48
  38              		@ frame_needed = 0, uses_anonymous_args = 1
  39              	.LVL0:
  40 0000 0E002DE9 		push	{r1, r2, r3}
  41              		.cfi_def_cfa_offset 12
  42              		.cfi_offset 1, -12
  43              		.cfi_offset 2, -8
  44              		.cfi_offset 3, -4
  45 0004 F04F2DE9 		push	{r4, r5, r6, r7, r8, r9, r10, fp, lr}
  46              		.cfi_def_cfa_offset 48
  47              		.cfi_offset 4, -48
  48              		.cfi_offset 5, -44
  49              		.cfi_offset 6, -40
  50              		.cfi_offset 7, -36
  51              		.cfi_offset 8, -32
  52              		.cfi_offset 9, -28
  53              		.cfi_offset 10, -24
  54              		.cfi_offset 11, -20
  55              		.cfi_offset 14, -16
  56 0008 0050A0E1 		mov	r5, r0
  57              		.loc 1 154 0
ARM GAS  /tmp/ccEnej6L.s 			page 2


  58 000c 0190A0E3 		mov	r9, #1
  59              		.loc 1 112 0
  60 0010 30D04DE2 		sub	sp, sp, #48
  61              		.cfi_def_cfa_offset 96
  62              		.loc 1 125 0
  63 0014 58308DE2 		add	r3, sp, #88
  64              		.loc 1 112 0
  65 0018 54A09DE5 		ldr	r10, [sp, #84]
  66              		.loc 1 125 0
  67 001c 14308DE5 		str	r3, [sp, #20]
  68              	.LVL1:
  69              	.L2:
  70              		.loc 1 127 0
  71 0020 0010DAE5 		ldrb	r1, [r10]	@ zero_extendqisi2
  72 0024 01308AE2 		add	r3, r10, #1
  73              	.LVL2:
  74              		.loc 1 128 0
  75 0028 000051E3 		cmp	r1, #0
  76 002c 0A00000A 		beq	.L109
  77              	.L123:
  78              		.loc 1 132 0
  79 0030 250051E3 		cmp	r1, #37
  80 0034 0C00000A 		beq	.L4
  81              		.loc 1 127 0
  82 0038 03A0A0E1 		mov	r10, r3
  83              		.loc 1 133 0
  84 003c 002095E5 		ldr	r2, [r5]
  85 0040 0500A0E1 		mov	r0, r5
  86 0044 082092E5 		ldr	r2, [r2, #8]
  87 0048 32FF2FE1 		blx	r2
  88              	.LVL3:
  89              		.loc 1 127 0
  90 004c 0010DAE5 		ldrb	r1, [r10]	@ zero_extendqisi2
  91 0050 01308AE2 		add	r3, r10, #1
  92              	.LVL4:
  93              		.loc 1 128 0
  94 0054 000051E3 		cmp	r1, #0
  95 0058 F4FFFF1A 		bne	.L123
  96              	.L109:
  97              		.loc 1 263 0
  98 005c 30D08DE2 		add	sp, sp, #48
  99              		.cfi_remember_state
 100              		.cfi_def_cfa_offset 48
 101              		@ sp needed
 102 0060 F04FBDE8 		pop	{r4, r5, r6, r7, r8, r9, r10, fp, lr}
 103              		.cfi_restore 14
 104              		.cfi_restore 11
 105              		.cfi_restore 10
 106              		.cfi_restore 9
 107              		.cfi_restore 8
 108              		.cfi_restore 7
 109              		.cfi_restore 6
 110              		.cfi_restore 5
 111              		.cfi_restore 4
 112              		.cfi_def_cfa_offset 12
 113              	.LVL5:
 114 0064 0CD08DE2 		add	sp, sp, #12
ARM GAS  /tmp/ccEnej6L.s 			page 3


 115              		.cfi_restore 3
 116              		.cfi_restore 2
 117              		.cfi_restore 1
 118              		.cfi_def_cfa_offset 0
 119 0068 1EFF2FE1 		bx	lr
 120              	.LVL6:
 121              	.L4:
 122              		.cfi_restore_state
 123              		.loc 1 139 0
 124 006c 0120DAE5 		ldrb	r2, [r10, #1]	@ zero_extendqisi2
 125              		.loc 1 146 0
 126 0070 00E0A0E3 		mov	lr, #0
 127              		.loc 1 139 0
 128 0074 2D0052E3 		cmp	r2, #45
 129              		.loc 1 138 0
 130 0078 0010A013 		movne	r1, #0
 131              	.LVL7:
 132 007c 0220DA05 		ldrbeq	r2, [r10, #2]	@ zero_extendqisi2
 133              		.loc 1 140 0
 134 0080 02308A02 		addeq	r3, r10, #2
 135              	.LVL8:
 136              		.loc 1 138 0
 137 0084 04108D15 		strne	r1, [sp, #4]
 138              	.LVL9:
 139              		.loc 1 141 0
 140 0088 04908D05 		streq	r9, [sp, #4]
 141              	.LVL10:
 142              		.loc 1 144 0
 143 008c 2E0052E3 		cmp	r2, #46
 144 0090 0120D305 		ldrbeq	r2, [r3, #1]	@ zero_extendqisi2
 145              		.loc 1 145 0
 146 0094 01308302 		addeq	r3, r3, #1
 147              	.LVL11:
 148              		.loc 1 146 0
 149 0098 3080A003 		moveq	r8, #48
 150              		.loc 1 143 0
 151 009c 2080A013 		movne	r8, #32
 152              	.LVL12:
 153              		.loc 1 148 0
 154 00a0 0E40A0E1 		mov	r4, lr
 155 00a4 14C09DE5 		ldr	ip, [sp, #20]
 156 00a8 011083E2 		add	r1, r3, #1
 157 00ac 040000EA 		b	.L10
 158              	.LVL13:
 159              	.L124:
 160              		.loc 1 154 0
 161 00b0 09E0A0E1 		mov	lr, r9
 162 00b4 0030DCE5 		ldrb	r3, [ip]	@ zero_extendqisi2
 163              	.LVL14:
 164 00b8 04C08CE2 		add	ip, ip, #4
 165              	.LVL15:
 166              	.L8:
 167 00bc 0120D1E4 		ldrb	r2, [r1], #1	@ zero_extendqisi2
 168              	.LVL16:
 169              		.loc 1 157 0
 170 00c0 804083E0 		add	r4, r3, r0, lsl #1
 171              	.LVL17:
ARM GAS  /tmp/ccEnej6L.s 			page 4


 172              	.L10:
 173              		.loc 1 151 0
 174 00c4 303042E2 		sub	r3, r2, #48
 175 00c8 7330EFE6 		uxtb	r3, r3
 176 00cc 090053E3 		cmp	r3, #9
 177              		.loc 1 157 0
 178 00d0 040184E0 		add	r0, r4, r4, lsl #2
 179              		.loc 1 150 0
 180 00d4 01A0A0E1 		mov	r10, r1
 181              	.LVL18:
 182              		.loc 1 151 0
 183 00d8 F7FFFF9A 		bls	.L8
 184              		.loc 1 153 0
 185 00dc 2A0052E3 		cmp	r2, #42
 186 00e0 F2FFFF0A 		beq	.L124
 187 00e4 00005EE3 		cmp	lr, #0
 188 00e8 14C08D15 		strne	ip, [sp, #20]
 189              	.LVL19:
 190              		.loc 1 160 0
 191 00ec 2E0052E3 		cmp	r2, #46
 192              		.loc 1 159 0
 193 00f0 0010A013 		movne	r1, #0
 194              	.LVL20:
 195              		.loc 1 160 0
 196 00f4 2B01000A 		beq	.L125
 197              	.LVL21:
 198              	.L12:
 199              		.loc 1 174 0
 200 00f8 DF3002E2 		and	r3, r2, #223
 201 00fc 4C0053E3 		cmp	r3, #76
 202 0100 ED00001A 		bne	.L17
 203              	.LVL22:
 204              		.loc 1 176 0
 205 0104 0030DAE5 		ldrb	r3, [r10]	@ zero_extendqisi2
 206 0108 000053E3 		cmp	r3, #0
 207              		.loc 1 177 0
 208 010c 0320A011 		movne	r2, r3
 209              	.LVL23:
 210              		.loc 1 183 0
 211 0110 443042E2 		sub	r3, r2, #68
 212              		.loc 1 177 0
 213 0114 01A08A12 		addne	r10, r10, #1
 214              	.LVL24:
 215              		.loc 1 183 0
 216 0118 340053E3 		cmp	r3, #52
 217 011c 03F19F97 		ldrls	pc, [pc, r3, asl #2]
 218 0120 DD0000EA 		b	.L19
 219              	.L68:
 220 0124 C0060000 		.word	.L35
 221 0128 9C040000 		.word	.L19
 222 012c 9C040000 		.word	.L19
 223 0130 9C040000 		.word	.L19
 224 0134 9C040000 		.word	.L19
 225 0138 9C040000 		.word	.L19
 226 013c 9C040000 		.word	.L19
 227 0140 9C040000 		.word	.L19
 228 0144 9C040000 		.word	.L19
ARM GAS  /tmp/ccEnej6L.s 			page 5


 229 0148 9C040000 		.word	.L19
 230 014c 9C040000 		.word	.L19
 231 0150 A0060000 		.word	.L85
 232 0154 9C040000 		.word	.L19
 233 0158 9C040000 		.word	.L19
 234 015c 9C040000 		.word	.L19
 235 0160 9C040000 		.word	.L19
 236 0164 9C040000 		.word	.L19
 237 0168 B8060000 		.word	.L69
 238 016c 9C040000 		.word	.L19
 239 0170 9C040000 		.word	.L19
 240 0174 70070000 		.word	.L70
 241 0178 9C040000 		.word	.L19
 242 017c 9C040000 		.word	.L19
 243 0180 9C040000 		.word	.L19
 244 0184 9C040000 		.word	.L19
 245 0188 9C040000 		.word	.L19
 246 018c 9C040000 		.word	.L19
 247 0190 9C040000 		.word	.L19
 248 0194 9C040000 		.word	.L19
 249 0198 9C040000 		.word	.L19
 250 019c 9C040000 		.word	.L19
 251 01a0 74040000 		.word	.L25
 252 01a4 C0060000 		.word	.L35
 253 01a8 9C040000 		.word	.L19
 254 01ac 74020000 		.word	.L26
 255 01b0 9C040000 		.word	.L19
 256 01b4 9C040000 		.word	.L19
 257 01b8 9C040000 		.word	.L19
 258 01bc 9C040000 		.word	.L19
 259 01c0 9C040000 		.word	.L19
 260 01c4 9C040000 		.word	.L19
 261 01c8 9C040000 		.word	.L19
 262 01cc 9C040000 		.word	.L19
 263 01d0 A0060000 		.word	.L85
 264 01d4 9C040000 		.word	.L19
 265 01d8 9C040000 		.word	.L19
 266 01dc 9C040000 		.word	.L19
 267 01e0 F8010000 		.word	.L27
 268 01e4 9C040000 		.word	.L19
 269 01e8 B8060000 		.word	.L69
 270 01ec 9C040000 		.word	.L19
 271 01f0 9C040000 		.word	.L19
 272 01f4 70070000 		.word	.L70
 273              	.LVL25:
 274              	.L27:
 275              		.loc 1 190 0
 276 01f8 14309DE5 		ldr	r3, [sp, #20]
 277 01fc 007093E5 		ldr	r7, [r3]
 278              	.LVL26:
 279 0200 043083E2 		add	r3, r3, #4
 280 0204 000057E3 		cmp	r7, #0
 281 0208 14308DE5 		str	r3, [sp, #20]
 282 020c 5F01000A 		beq	.L29
 283              	.LVL27:
 284              		.loc 1 192 0
 285 0210 000051E3 		cmp	r1, #0
ARM GAS  /tmp/ccEnej6L.s 			page 6


 286              		.loc 1 194 0
 287 0214 0030D7E5 		ldrb	r3, [r7]	@ zero_extendqisi2
 288              		.loc 1 192 0
 289 0218 5601000A 		beq	.L30
 290              	.LVL28:
 291              		.loc 1 194 0 discriminator 1
 292 021c 000053E3 		cmp	r3, #0
 293 0220 5701000A 		beq	.L75
 294              	.LVL29:
 295              	.L66:
 296              		.loc 1 194 0 is_stmt 0
 297 0224 011041E2 		sub	r1, r1, #1
 298              	.LVL30:
 299              	.L67:
 300              		.loc 1 194 0 discriminator 4
 301 0228 07B0A0E1 		mov	fp, r7
 302 022c 010000EA 		b	.L33
 303              	.LVL31:
 304              	.L126:
 305              		.loc 1 194 0 discriminator 3
 306 0230 011051E2 		subs	r1, r1, #1
 307              	.LVL32:
 308 0234 0200004A 		bmi	.L117
 309              	.LVL33:
 310              	.L33:
 311              		.loc 1 194 0 discriminator 4
 312 0238 0130FBE5 		ldrb	r3, [fp, #1]!	@ zero_extendqisi2
 313              	.LVL34:
 314 023c 000053E3 		cmp	r3, #0
 315 0240 FAFFFF1A 		bne	.L126
 316              	.LVL35:
 317              	.L117:
 318 0244 07004BE0 		sub	r0, fp, r7
 319              		.loc 1 242 0 is_stmt 1
 320 0248 004054E0 		subs	r4, r4, r0
 321              	.LVL36:
 322 024c 016040E2 		sub	r6, r0, #1
 323              		.loc 1 189 0
 324 0250 2080A0E3 		mov	r8, #32
 325              	.LVL37:
 326              		.loc 1 242 0
 327 0254 6100005A 		bpl	.L31
 328              	.LVL38:
 329              	.L129:
 330              		.loc 1 244 0
 331 0258 04309DE5 		ldr	r3, [sp, #4]
 332 025c 000053E3 		cmp	r3, #0
 333 0260 E300001A 		bne	.L127
 334              		.loc 1 255 0
 335 0264 000056E3 		cmp	r6, #0
 336 0268 04409DA5 		ldrge	r4, [sp, #4]
 337 026c 6E0000AA 		bge	.L64
 338 0270 6AFFFFEA 		b	.L2
 339              	.LVL39:
 340              	.L26:
 341              		.loc 1 211 0
 342 0274 14309DE5 		ldr	r3, [sp, #20]
ARM GAS  /tmp/ccEnej6L.s 			page 7


 343 0278 073083E2 		add	r3, r3, #7
 344 027c 0730C3E3 		bic	r3, r3, #7
 345 0280 082083E2 		add	r2, r3, #8
 346              	.LVL40:
 347 0284 D000C3E1 		ldrd	r0, [r3]
 348 0288 14208DE5 		str	r2, [sp, #20]
 349 028c FEFFFFEB 		bl	__aeabi_d2f
 350              	.LVL41:
 351              		.loc 1 212 0
 352 0290 0010A0E3 		mov	r1, #0
 353              		.loc 1 211 0
 354 0294 00B0A0E1 		mov	fp, r0
 355              	.LVL42:
 356              		.loc 1 212 0
 357 0298 FEFFFFEB 		bl	__aeabi_fcmplt
 358              	.LVL43:
 359 029c 000050E3 		cmp	r0, #0
 360              	.LVL44:
 361              		.loc 1 213 0
 362 02a0 2D30A013 		movne	r3, #45
 363              		.loc 1 214 0
 364 02a4 02B18B12 		addne	fp, fp, #-2147483648
 365              	.LVL45:
 366              		.loc 1 136 0
 367 02a8 18708D02 		addeq	r7, sp, #24
 368              		.loc 1 216 0
 369 02ac 0B00A0E1 		mov	r0, fp
 370              		.loc 1 213 0
 371 02b0 19608D12 		addne	r6, sp, #25
 372              		.loc 1 136 0
 373 02b4 0760A001 		moveq	r6, r7
 374              	.LVL46:
 375              		.loc 1 213 0
 376 02b8 1830CD15 		strbne	r3, [sp, #24]
 377 02bc 18708D12 		addne	r7, sp, #24
 378              		.loc 1 216 0
 379 02c0 FEFFFFEB 		bl	__aeabi_f2d
 380              	.LVL47:
 381 02c4 F800CDE1 		strd	r0, [sp, #8]
 382              	.LVL48:
 383              	.LBB26:
 384              	.LBB27:
 385              		.loc 1 83 0
 386 02c8 0B00A0E1 		mov	r0, fp
 387              	.LVL49:
 388 02cc FEFFFFEB 		bl	__aeabi_f2iz
 389              	.LVL50:
 390              	.LBB28:
 391              	.LBB29:
 392              		.loc 1 55 0
 393 02d0 0BC086E2 		add	ip, r6, #11
 394              	.LVL51:
 395              		.loc 1 48 0
 396 02d4 00E0A0E1 		mov	lr, r0
 397              		.loc 1 55 0
 398 02d8 0C10A0E1 		mov	r1, ip
 399              	.LVL52:
ARM GAS  /tmp/ccEnej6L.s 			page 8


 400              	.L43:
 401              		.loc 1 57 0
 402 02dc DC349FE5 		ldr	r3, .L133
 403 02e0 932E83E0 		umull	r2, r3, r3, lr
 404 02e4 A331A0E1 		lsr	r3, r3, #3
 405 02e8 0320A0E1 		mov	r2, r3
 406 02ec 033183E0 		add	r3, r3, r3, lsl #2
 407 02f0 83304EE0 		sub	r3, lr, r3, lsl #1
 408              	.LVL53:
 409              		.loc 1 58 0
 410 02f4 303083E2 		add	r3, r3, #48
 411              	.LVL54:
 412              		.loc 1 61 0
 413 02f8 7330EFE6 		uxtb	r3, r3
 414              	.LVL55:
 415              		.loc 1 63 0
 416 02fc 00E052E2 		subs	lr, r2, #0
 417              	.LVL56:
 418              		.loc 1 61 0
 419 0300 013061E5 		strb	r3, [r1, #-1]!
 420              	.LVL57:
 421              		.loc 1 63 0
 422 0304 F4FFFF1A 		bne	.L43
 423              		.loc 1 65 0
 424 0308 01C04CE0 		sub	ip, ip, r1
 425              	.LVL58:
 426 030c 01E0A0E1 		mov	lr, r1
 427 0310 0620A0E1 		mov	r2, r6
 428              	.LVL59:
 429 0314 0C1086E0 		add	r1, r6, ip
 430              	.LVL60:
 431 0318 000000EA 		b	.L45
 432              	.LVL61:
 433              	.L128:
 434 031c 0130FEE5 		ldrb	r3, [lr, #1]!	@ zero_extendqisi2
 435              	.LVL62:
 436              	.L45:
 437              		.loc 1 67 0
 438 0320 0130C2E4 		strb	r3, [r2], #1
 439              	.LVL63:
 440              		.loc 1 68 0
 441 0324 010052E1 		cmp	r2, r1
 442 0328 FBFFFF1A 		bne	.L128
 443              	.LBE29:
 444              	.LBE28:
 445              		.loc 1 85 0
 446 032c 2E30A0E3 		mov	r3, #46
 447 0330 01C04CE2 		sub	ip, ip, #1
 448 0334 0030C2E5 		strb	r3, [r2]
 449 0338 0C6086E0 		add	r6, r6, ip
 450              	.LVL64:
 451              		.loc 1 86 0
 452 033c FEFFFFEB 		bl	__aeabi_i2d
 453              	.LVL65:
 454 0340 0020A0E1 		mov	r2, r0
 455 0344 0130A0E1 		mov	r3, r1
 456 0348 D800CDE1 		ldrd	r0, [sp, #8]
ARM GAS  /tmp/ccEnej6L.s 			page 9


 457 034c FEFFFFEB 		bl	__aeabi_dsub
 458              	.LVL66:
 459 0350 0020A0E3 		mov	r2, #0
 460 0354 68349FE5 		ldr	r3, .L133+4
 461 0358 FEFFFFEB 		bl	__aeabi_dmul
 462              	.LVL67:
 463 035c FEFFFFEB 		bl	__aeabi_d2iz
 464              	.LVL68:
 465              	.LBB30:
 466              	.LBB31:
 467              		.loc 1 55 0
 468 0360 0DE086E2 		add	lr, r6, #13
 469              	.LBE31:
 470              	.LBE30:
 471              		.loc 1 85 0
 472 0364 02B086E2 		add	fp, r6, #2
 473              	.LVL69:
 474              	.LBB33:
 475              	.LBB32:
 476              		.loc 1 55 0
 477 0368 0E20A0E1 		mov	r2, lr
 478 036c 086086E2 		add	r6, r6, #8
 479 0370 000000EA 		b	.L46
 480              	.LVL70:
 481              	.L78:
 482              		.loc 1 63 0
 483 0374 0C20A0E1 		mov	r2, ip
 484              	.LVL71:
 485              	.L46:
 486              		.loc 1 57 0
 487 0378 40349FE5 		ldr	r3, .L133
 488              		.loc 1 61 0
 489 037c 01C042E2 		sub	ip, r2, #1
 490              		.loc 1 57 0
 491 0380 931083E0 		umull	r1, r3, r3, r0
 492 0384 A331A0E1 		lsr	r3, r3, #3
 493 0388 0310A0E1 		mov	r1, r3
 494 038c 033183E0 		add	r3, r3, r3, lsl #2
 495 0390 833040E0 		sub	r3, r0, r3, lsl #1
 496              	.LVL72:
 497              		.loc 1 58 0
 498 0394 303083E2 		add	r3, r3, #48
 499              	.LVL73:
 500              		.loc 1 61 0
 501 0398 7330EFE6 		uxtb	r3, r3
 502              	.LVL74:
 503              		.loc 1 63 0
 504 039c 06005CE1 		cmp	ip, r6
 505              		.loc 1 61 0
 506 03a0 013042E5 		strb	r3, [r2, #-1]
 507              		.loc 1 62 0
 508 03a4 0100A0E1 		mov	r0, r1
 509              	.LVL75:
 510              		.loc 1 63 0
 511 03a8 F1FFFF1A 		bne	.L78
 512              	.LVL76:
 513              		.loc 1 65 0
ARM GAS  /tmp/ccEnej6L.s 			page 10


 514 03ac 06E04EE0 		sub	lr, lr, r6
 515              	.LVL77:
 516 03b0 0B10A0E1 		mov	r1, fp
 517              	.LVL78:
 518 03b4 0E6086E0 		add	r6, r6, lr
 519              	.LVL79:
 520 03b8 000000EA 		b	.L48
 521              	.LVL80:
 522              	.L47:
 523 03bc 0130D2E4 		ldrb	r3, [r2], #1	@ zero_extendqisi2
 524              	.LVL81:
 525              	.L48:
 526              		.loc 1 68 0
 527 03c0 020056E1 		cmp	r6, r2
 528              		.loc 1 67 0
 529 03c4 0130C1E4 		strb	r3, [r1], #1
 530              	.LVL82:
 531              		.loc 1 68 0
 532 03c8 FBFFFF1A 		bne	.L47
 533 03cc 0EB08BE0 		add	fp, fp, lr
 534              	.LVL83:
 535              	.L118:
 536 03d0 07004BE0 		sub	r0, fp, r7
 537              	.LVL84:
 538              	.L119:
 539 03d4 016040E2 		sub	r6, r0, #1
 540              	.LVL85:
 541              	.L28:
 542              	.LBE32:
 543              	.LBE33:
 544              	.LBE27:
 545              	.LBE26:
 546              		.loc 1 242 0
 547 03d8 004054E0 		subs	r4, r4, r0
 548              	.LVL86:
 549 03dc 9DFFFF4A 		bmi	.L129
 550              	.LVL87:
 551              	.L31:
 552              		.loc 1 244 0
 553 03e0 04309DE5 		ldr	r3, [sp, #4]
 554 03e4 000053E3 		cmp	r3, #0
 555 03e8 3000001A 		bne	.L58
 556              		.loc 1 246 0
 557 03ec 000054E3 		cmp	r4, #0
 558 03f0 004064E2 		rsb	r4, r4, #0
 559              	.LVL88:
 560 03f4 2D00000A 		beq	.L58
 561              		.loc 1 247 0
 562 03f8 0030D7E5 		ldrb	r3, [r7]	@ zero_extendqisi2
 563 03fc 2D0053E3 		cmp	r3, #45
 564 0400 30005803 		cmpeq	r8, #48
 565 0404 E500000A 		beq	.L130
 566              	.LVL89:
 567              	.L60:
 568              		.loc 1 252 0 discriminator 1
 569 0408 003095E5 		ldr	r3, [r5]
 570 040c 0810A0E1 		mov	r1, r8
ARM GAS  /tmp/ccEnej6L.s 			page 11


 571 0410 083093E5 		ldr	r3, [r3, #8]
 572 0414 0500A0E1 		mov	r0, r5
 573 0418 33FF2FE1 		blx	r3
 574              	.LVL90:
 575              		.loc 1 253 0 discriminator 1
 576 041c 014094E2 		adds	r4, r4, #1
 577              	.LVL91:
 578 0420 F8FFFF1A 		bne	.L60
 579              	.LVL92:
 580              		.loc 1 255 0
 581 0424 000056E3 		cmp	r6, #0
 582 0428 FCFEFFBA 		blt	.L2
 583              	.LVL93:
 584              	.L64:
 585              		.loc 1 256 0
 586 042c 003095E5 		ldr	r3, [r5]
 587              		.loc 1 255 0
 588 0430 016046E2 		sub	r6, r6, #1
 589              	.LVL94:
 590              		.loc 1 256 0
 591 0434 083093E5 		ldr	r3, [r3, #8]
 592 0438 0110D7E4 		ldrb	r1, [r7], #1	@ zero_extendqisi2
 593              	.LVL95:
 594 043c 0500A0E1 		mov	r0, r5
 595 0440 33FF2FE1 		blx	r3
 596              	.LVL96:
 597              		.loc 1 255 0
 598 0444 010076E3 		cmn	r6, #1
 599 0448 F7FFFF1A 		bne	.L64
 600              	.LVL97:
 601              	.L63:
 602              		.loc 1 258 0
 603 044c 000054E3 		cmp	r4, #0
 604 0450 F2FEFF0A 		beq	.L2
 605              	.L65:
 606              		.loc 1 259 0
 607 0454 003095E5 		ldr	r3, [r5]
 608 0458 0810A0E1 		mov	r1, r8
 609 045c 083093E5 		ldr	r3, [r3, #8]
 610 0460 0500A0E1 		mov	r0, r5
 611 0464 33FF2FE1 		blx	r3
 612              	.LVL98:
 613              		.loc 1 258 0
 614 0468 014054E2 		subs	r4, r4, #1
 615              	.LVL99:
 616 046c F8FFFF1A 		bne	.L65
 617 0470 EAFEFFEA 		b	.L2
 618              	.LVL100:
 619              	.L25:
 620              		.loc 1 186 0
 621 0474 14309DE5 		ldr	r3, [sp, #20]
 622 0478 30708DE2 		add	r7, sp, #48
 623 047c 002093E5 		ldr	r2, [r3]
 624              	.LVL101:
 625 0480 043083E2 		add	r3, r3, #4
 626              		.loc 1 187 0
 627 0484 0900A0E1 		mov	r0, r9
ARM GAS  /tmp/ccEnej6L.s 			page 12


 628              		.loc 1 186 0
 629 0488 14308DE5 		str	r3, [sp, #20]
 630 048c 182067E5 		strb	r2, [r7, #-24]!
 631              		.loc 1 187 0
 632 0490 0060A0E3 		mov	r6, #0
 633              		.loc 1 185 0
 634 0494 2080A0E3 		mov	r8, #32
 635              		.loc 1 187 0
 636 0498 CEFFFFEA 		b	.L28
 637              	.LVL102:
 638              	.L19:
 639              		.loc 1 238 0
 640 049c 30708DE2 		add	r7, sp, #48
 641              		.loc 1 239 0
 642 04a0 0900A0E1 		mov	r0, r9
 643 04a4 0060A0E3 		mov	r6, #0
 644              		.loc 1 238 0
 645 04a8 182067E5 		strb	r2, [r7, #-24]!
 646              		.loc 1 239 0
 647 04ac C9FFFFEA 		b	.L28
 648              	.LVL103:
 649              	.L58:
 650              		.loc 1 255 0
 651 04b0 000056E3 		cmp	r6, #0
 652 04b4 DCFFFFAA 		bge	.L64
 653 04b8 E3FFFFEA 		b	.L63
 654              	.LVL104:
 655              	.L17:
 656              		.loc 1 180 0
 657 04bc 413042E2 		sub	r3, r2, #65
 658              		.loc 1 183 0
 659 04c0 440042E2 		sub	r0, r2, #68
 660              		.loc 1 180 0
 661 04c4 7330EFE6 		uxtb	r3, r3
 662              	.LVL105:
 663              		.loc 1 183 0
 664 04c8 340050E3 		cmp	r0, #52
 665 04cc 00F19F97 		ldrls	pc, [pc, r0, asl #2]
 666 04d0 F1FFFFEA 		b	.L19
 667              	.L21:
 668 04d4 54070000 		.word	.L20
 669 04d8 9C040000 		.word	.L19
 670 04dc 9C040000 		.word	.L19
 671 04e0 9C040000 		.word	.L19
 672 04e4 9C040000 		.word	.L19
 673 04e8 9C040000 		.word	.L19
 674 04ec 9C040000 		.word	.L19
 675 04f0 9C040000 		.word	.L19
 676 04f4 9C040000 		.word	.L19
 677 04f8 9C040000 		.word	.L19
 678 04fc 9C040000 		.word	.L19
 679 0500 4C070000 		.word	.L22
 680 0504 9C040000 		.word	.L19
 681 0508 9C040000 		.word	.L19
 682 050c 9C040000 		.word	.L19
 683 0510 9C040000 		.word	.L19
 684 0514 9C040000 		.word	.L19
ARM GAS  /tmp/ccEnej6L.s 			page 13


 685 0518 04060000 		.word	.L74
 686 051c 9C040000 		.word	.L19
 687 0520 9C040000 		.word	.L19
 688 0524 44070000 		.word	.L24
 689 0528 9C040000 		.word	.L19
 690 052c 9C040000 		.word	.L19
 691 0530 9C040000 		.word	.L19
 692 0534 9C040000 		.word	.L19
 693 0538 9C040000 		.word	.L19
 694 053c 9C040000 		.word	.L19
 695 0540 9C040000 		.word	.L19
 696 0544 9C040000 		.word	.L19
 697 0548 9C040000 		.word	.L19
 698 054c 9C040000 		.word	.L19
 699 0550 74040000 		.word	.L25
 700 0554 54070000 		.word	.L20
 701 0558 9C040000 		.word	.L19
 702 055c 74020000 		.word	.L26
 703 0560 9C040000 		.word	.L19
 704 0564 9C040000 		.word	.L19
 705 0568 9C040000 		.word	.L19
 706 056c 9C040000 		.word	.L19
 707 0570 9C040000 		.word	.L19
 708 0574 9C040000 		.word	.L19
 709 0578 9C040000 		.word	.L19
 710 057c 9C040000 		.word	.L19
 711 0580 4C070000 		.word	.L22
 712 0584 9C040000 		.word	.L19
 713 0588 9C040000 		.word	.L19
 714 058c 9C040000 		.word	.L19
 715 0590 F8010000 		.word	.L27
 716 0594 9C040000 		.word	.L19
 717 0598 04060000 		.word	.L74
 718 059c 9C040000 		.word	.L19
 719 05a0 9C040000 		.word	.L19
 720 05a4 44070000 		.word	.L24
 721              	.LVL106:
 722              	.L125:
 723              		.loc 1 160 0
 724 05a8 00E0A0E3 		mov	lr, #0
 725 05ac 14C09DE5 		ldr	ip, [sp, #20]
 726 05b0 0E10A0E1 		mov	r1, lr
 727 05b4 030000EA 		b	.L16
 728              	.LVL107:
 729              	.L14:
 730              		.loc 1 166 0
 731 05b8 09E0A0E1 		mov	lr, r9
 732 05bc 0030DCE5 		ldrb	r3, [ip]	@ zero_extendqisi2
 733              	.LVL108:
 734 05c0 04C08CE2 		add	ip, ip, #4
 735              	.LVL109:
 736              	.L13:
 737              		.loc 1 170 0
 738 05c4 801083E0 		add	r1, r3, r0, lsl #1
 739              	.LVL110:
 740              	.L16:
 741              		.loc 1 162 0
ARM GAS  /tmp/ccEnej6L.s 			page 14


 742 05c8 0120DAE4 		ldrb	r2, [r10], #1	@ zero_extendqisi2
 743              	.LVL111:
 744              		.loc 1 169 0
 745 05cc 010181E0 		add	r0, r1, r1, lsl #2
 746              		.loc 1 163 0
 747 05d0 303042E2 		sub	r3, r2, #48
 748 05d4 7330EFE6 		uxtb	r3, r3
 749 05d8 090053E3 		cmp	r3, #9
 750 05dc F8FFFF9A 		bls	.L13
 751              		.loc 1 165 0
 752 05e0 2A0052E3 		cmp	r2, #42
 753 05e4 F3FFFF0A 		beq	.L14
 754 05e8 00005EE3 		cmp	lr, #0
 755 05ec 14C08D15 		strne	ip, [sp, #20]
 756 05f0 C0FEFFEA 		b	.L12
 757              	.LVL112:
 758              	.L127:
 759              		.loc 1 255 0
 760 05f4 000056E3 		cmp	r6, #0
 761              		.loc 1 243 0
 762 05f8 0040A0A3 		movge	r4, #0
 763              		.loc 1 255 0
 764 05fc 8AFFFFAA 		bge	.L64
 765 0600 86FEFFEA 		b	.L2
 766              	.LVL113:
 767              	.L74:
 768              		.loc 1 183 0
 769 0604 0A70A0E3 		mov	r7, #10
 770              	.L23:
 771              	.LVL114:
 772              		.loc 1 231 0
 773 0608 190053E3 		cmp	r3, #25
 774 060c 2400009A 		bls	.L50
 775              		.loc 1 234 0
 776 0610 14309DE5 		ldr	r3, [sp, #20]
 777              	.LVL115:
 778 0614 041083E2 		add	r1, r3, #4
 779              	.LVL116:
 780 0618 002093E5 		ldr	r2, [r3]
 781              	.LVL117:
 782 061c 14108DE5 		str	r1, [sp, #20]
 783              	.LVL118:
 784              	.L51:
 785 0620 08408DE5 		str	r4, [sp, #8]
 786              	.LBB34:
 787              	.LBB35:
 788              	.LBB36:
 789              		.loc 1 55 0
 790 0624 23608DE2 		add	r6, sp, #35
 791              	.LVL119:
 792 0628 0240A0E1 		mov	r4, r2
 793              	.LVL120:
 794 062c 000000EA 		b	.L53
 795              	.LVL121:
 796              	.L79:
 797              		.loc 1 63 0
 798 0630 0160A0E1 		mov	r6, r1
ARM GAS  /tmp/ccEnej6L.s 			page 15


 799              	.LVL122:
 800              	.L53:
 801              		.loc 1 57 0
 802 0634 0400A0E1 		mov	r0, r4
 803 0638 0710A0E1 		mov	r1, r7
 804 063c FEFFFFEB 		bl	__aeabi_uidivmod
 805              	.LVL123:
 806 0640 01C0A0E1 		mov	ip, r1
 807              	.LVL124:
 808              		.loc 1 58 0
 809 0644 30308CE2 		add	r3, ip, #48
 810              	.LVL125:
 811              		.loc 1 59 0
 812 0648 390053E3 		cmp	r3, #57
 813              		.loc 1 60 0
 814 064c 37308CC2 		addgt	r3, ip, #55
 815              	.LVL126:
 816              		.loc 1 61 0
 817 0650 73B0EFE6 		uxtb	fp, r3
 818              		.loc 1 62 0
 819 0654 0400A0E1 		mov	r0, r4
 820 0658 0710A0E1 		mov	r1, r7
 821              		.loc 1 61 0
 822 065c 01B046E5 		strb	fp, [r6, #-1]
 823              		.loc 1 62 0
 824 0660 FEFFFFEB 		bl	__aeabi_uidiv
 825              	.LVL127:
 826              		.loc 1 63 0
 827 0664 004050E2 		subs	r4, r0, #0
 828              	.LVL128:
 829              		.loc 1 61 0
 830 0668 011046E2 		sub	r1, r6, #1
 831              	.LVL129:
 832              		.loc 1 63 0
 833 066c EFFFFF1A 		bne	.L79
 834              		.loc 1 65 0
 835 0670 23308DE2 		add	r3, sp, #35
 836 0674 18708DE2 		add	r7, sp, #24
 837              	.LVL130:
 838 0678 010043E0 		sub	r0, r3, r1
 839              	.LVL131:
 840 067c 08409DE5 		ldr	r4, [sp, #8]
 841              	.LVL132:
 842 0680 0720A0E1 		mov	r2, r7
 843 0684 001081E0 		add	r1, r1, r0
 844              	.LVL133:
 845 0688 000000EA 		b	.L55
 846              	.LVL134:
 847              	.L131:
 848 068c 01B0D6E4 		ldrb	fp, [r6], #1	@ zero_extendqisi2
 849              	.LVL135:
 850              	.L55:
 851              		.loc 1 68 0
 852 0690 060051E1 		cmp	r1, r6
 853              		.loc 1 67 0
 854 0694 01B0C2E4 		strb	fp, [r2], #1
 855              	.LVL136:
ARM GAS  /tmp/ccEnej6L.s 			page 16


 856              		.loc 1 68 0
 857 0698 FBFFFF1A 		bne	.L131
 858 069c 4CFFFFEA 		b	.L119
 859              	.LVL137:
 860              	.L85:
 861              	.LBE36:
 862              	.LBE35:
 863              	.LBE34:
 864              		.loc 1 183 0
 865 06a0 0870A0E3 		mov	r7, #8
 866              	.LVL138:
 867              	.L50:
 868              		.loc 1 232 0
 869 06a4 14309DE5 		ldr	r3, [sp, #20]
 870 06a8 042083E2 		add	r2, r3, #4
 871 06ac 14208DE5 		str	r2, [sp, #20]
 872 06b0 002093E5 		ldr	r2, [r3]
 873 06b4 D9FFFFEA 		b	.L51
 874              	.LVL139:
 875              	.L69:
 876              		.loc 1 183 0
 877 06b8 0A70A0E3 		mov	r7, #10
 878 06bc F8FFFFEA 		b	.L50
 879              	.LVL140:
 880              	.L35:
 881              		.loc 1 200 0
 882 06c0 14309DE5 		ldr	r3, [sp, #20]
 883 06c4 042083E2 		add	r2, r3, #4
 884              	.LVL141:
 885 06c8 00E093E5 		ldr	lr, [r3]
 886 06cc 14208DE5 		str	r2, [sp, #20]
 887              	.L36:
 888              	.LVL142:
 889              		.loc 1 203 0
 890 06d0 00005EE3 		cmp	lr, #0
 891              	.LVL143:
 892              		.loc 1 136 0
 893 06d4 18708DA2 		addge	r7, sp, #24
 894 06d8 07C0A0A1 		movge	ip, r7
 895              		.loc 1 204 0
 896 06dc 19C08DB2 		addlt	ip, sp, #25
 897 06e0 2D30A0B3 		movlt	r3, #45
 898              	.LBB37:
 899              	.LBB38:
 900              	.LBB39:
 901              		.loc 1 55 0
 902 06e4 0B208CE2 		add	r2, ip, #11
 903 06e8 0200A0E1 		mov	r0, r2
 904              	.LBE39:
 905              	.LBE38:
 906              	.LBE37:
 907              		.loc 1 205 0
 908 06ec 00E06EB2 		rsblt	lr, lr, #0
 909              	.LVL144:
 910              		.loc 1 204 0
 911 06f0 1830CDB5 		strblt	r3, [sp, #24]
 912 06f4 18708DB2 		addlt	r7, sp, #24
ARM GAS  /tmp/ccEnej6L.s 			page 17


 913              	.LVL145:
 914              	.L38:
 915              	.LBB42:
 916              	.LBB41:
 917              	.LBB40:
 918              		.loc 1 57 0
 919 06f8 C0309FE5 		ldr	r3, .L133
 920 06fc 931E83E0 		umull	r1, r3, r3, lr
 921 0700 A331A0E1 		lsr	r3, r3, #3
 922 0704 0310A0E1 		mov	r1, r3
 923 0708 033183E0 		add	r3, r3, r3, lsl #2
 924 070c 83304EE0 		sub	r3, lr, r3, lsl #1
 925              	.LVL146:
 926              		.loc 1 58 0
 927 0710 303083E2 		add	r3, r3, #48
 928              	.LVL147:
 929              		.loc 1 61 0
 930 0714 7330EFE6 		uxtb	r3, r3
 931              	.LVL148:
 932              		.loc 1 63 0
 933 0718 00E051E2 		subs	lr, r1, #0
 934              	.LVL149:
 935              		.loc 1 61 0
 936 071c 013060E5 		strb	r3, [r0, #-1]!
 937              	.LVL150:
 938              		.loc 1 63 0
 939 0720 F4FFFF1A 		bne	.L38
 940              	.LVL151:
 941              		.loc 1 65 0
 942 0724 00B042E0 		sub	fp, r2, r0
 943 0728 0BB08CE0 		add	fp, ip, fp
 944 072c 000000EA 		b	.L40
 945              	.LVL152:
 946              	.L132:
 947 0730 0130F0E5 		ldrb	r3, [r0, #1]!	@ zero_extendqisi2
 948              	.LVL153:
 949              	.L40:
 950              		.loc 1 67 0
 951 0734 0130CCE4 		strb	r3, [ip], #1
 952              	.LVL154:
 953              		.loc 1 68 0
 954 0738 0C005BE1 		cmp	fp, ip
 955 073c FBFFFF1A 		bne	.L132
 956 0740 22FFFFEA 		b	.L118
 957              	.LVL155:
 958              	.L24:
 959              	.LBE40:
 960              	.LBE41:
 961              	.LBE42:
 962              		.loc 1 183 0
 963 0744 1070A0E3 		mov	r7, #16
 964 0748 AEFFFFEA 		b	.L23
 965              	.L22:
 966 074c 0870A0E3 		mov	r7, #8
 967 0750 ACFFFFEA 		b	.L23
 968              	.L20:
 969              		.loc 1 199 0
ARM GAS  /tmp/ccEnej6L.s 			page 18


 970 0754 190053E3 		cmp	r3, #25
 971 0758 D8FFFF9A 		bls	.L35
 972              		.loc 1 202 0
 973 075c 14309DE5 		ldr	r3, [sp, #20]
 974              	.LVL156:
 975 0760 042083E2 		add	r2, r3, #4
 976              	.LVL157:
 977 0764 00E093E5 		ldr	lr, [r3]
 978 0768 14208DE5 		str	r2, [sp, #20]
 979 076c D7FFFFEA 		b	.L36
 980              	.LVL158:
 981              	.L70:
 982              		.loc 1 183 0
 983 0770 1070A0E3 		mov	r7, #16
 984 0774 CAFFFFEA 		b	.L50
 985              	.LVL159:
 986              	.L30:
 987              		.loc 1 194 0
 988 0778 000053E3 		cmp	r3, #0
 989 077c 44109F15 		ldrne	r1, .L133+8
 990 0780 A8FEFF1A 		bne	.L67
 991              	.LVL160:
 992              	.L75:
 993 0784 0060E0E3 		mvn	r6, #0
 994 0788 2080A0E3 		mov	r8, #32
 995 078c 13FFFFEA 		b	.L31
 996              	.LVL161:
 997              	.L29:
 998              		.loc 1 192 0
 999 0790 000051E3 		cmp	r1, #0
 1000              		.loc 1 193 0
 1001 0794 30109F05 		ldreq	r1, .L133+12
 1002              	.LVL162:
 1003              		.loc 1 191 0
 1004 0798 30709FE5 		ldr	r7, .L133+16
 1005 079c A0FEFFEA 		b	.L66
 1006              	.LVL163:
 1007              	.L130:
 1008              		.loc 1 248 0
 1009 07a0 003095E5 		ldr	r3, [r5]
 1010 07a4 2D10A0E3 		mov	r1, #45
 1011 07a8 083093E5 		ldr	r3, [r3, #8]
 1012 07ac 0500A0E1 		mov	r0, r5
 1013 07b0 33FF2FE1 		blx	r3
 1014              	.LVL164:
 1015 07b4 017087E2 		add	r7, r7, #1
 1016              	.LVL165:
 1017 07b8 016046E2 		sub	r6, r6, #1
 1018 07bc 11FFFFEA 		b	.L60
 1019              	.L134:
 1020              		.align	2
 1021              	.L133:
 1022 07c0 CDCCCCCC 		.word	-858993459
 1023 07c4 006AF840 		.word	1090021888
 1024 07c8 FE7F0000 		.word	32766
 1025 07cc FF7F0000 		.word	32767
 1026 07d0 00000000 		.word	.LC0
ARM GAS  /tmp/ccEnej6L.s 			page 19


 1027              		.cfi_endproc
 1028              	.LFE10:
 1029              		.size	chprintf, .-chprintf
 1030              		.section	.rodata.chprintf.str1.4,"aMS",%progbits,1
 1031              		.align	2
 1032              	.LC0:
 1033 0000 286E756C 		.ascii	"(null)\000"
 1033      6C2900
 1034              		.text
 1035              	.Letext0:
 1036              		.file 2 "/usr/lib/gcc/arm-none-eabi/6.3.1/include/stdarg.h"
 1037              		.file 3 "/usr/lib/gcc/arm-none-eabi/6.3.1/include/stddef.h"
 1038              		.file 4 "/usr/include/newlib/machine/_default_types.h"
 1039              		.file 5 "/usr/include/newlib/sys/_stdint.h"
 1040              		.file 6 "../../os/ports/GCC/ARM/chtypes.h"
 1041              		.file 7 "../../os/kernel/include/chlists.h"
 1042              		.file 8 "<built-in>"
 1043              		.file 9 "../../os/kernel/include/chthreads.h"
 1044              		.file 10 "../../os/ports/GCC/ARM/chcore.h"
 1045              		.file 11 "../../os/kernel/include/chvt.h"
 1046              		.file 12 "../../os/kernel/include/chschd.h"
 1047              		.file 13 "../../os/kernel/include/chmtx.h"
 1048              		.file 14 "../../os/kernel/include/chregistry.h"
 1049              		.file 15 "../../os/kernel/include/chstreams.h"
 1050              		.file 16 "../../os/kernel/include/ch.h"