ARM GAS  /tmp/ccGAxCBq.s 			page 1


   1              		.cpu arm1176jz-s
   2              		.eabi_attribute 20, 1
   3              		.eabi_attribute 21, 1
   4              		.eabi_attribute 23, 3
   5              		.eabi_attribute 24, 1
   6              		.eabi_attribute 25, 1
   7              		.eabi_attribute 26, 1
   8              		.eabi_attribute 30, 2
   9              		.eabi_attribute 34, 1
  10              		.eabi_attribute 18, 4
  11              		.file	"chqueues.c"
  12              		.text
  13              	.Ltext0:
  14              		.cfi_sections	.debug_frame
  15              		.section	.text.qwait,"ax",%progbits
  16              		.align	2
  17              		.syntax unified
  18              		.arm
  19              		.fpu softvfp
  20              		.type	qwait, %function
  21              	qwait:
  22              	.LFB7:
  23              		.file 1 "../../os/kernel/src/chqueues.c"
  24              		.loc 1 63 0
  25              		.cfi_startproc
  26              		@ args = 0, pretend = 0, frame = 0
  27              		@ frame_needed = 0, uses_anonymous_args = 0
  28              		@ link register save eliminated.
  29              	.LVL0:
  30              		.loc 1 65 0
  31 0000 000051E3 		cmp	r1, #0
  32              		.loc 1 63 0
  33 0004 0020A0E1 		mov	r2, r0
  34              		.loc 1 65 0
  35 0008 0800000A 		beq	.L2
  36              		.loc 1 67 0
  37 000c 24309FE5 		ldr	r3, .L4
  38              		.loc 1 69 0
  39 0010 0D00A0E3 		mov	r0, #13
  40              	.LVL1:
  41              		.loc 1 67 0
  42 0014 183093E5 		ldr	r3, [r3, #24]
  43 0018 242083E5 		str	r2, [r3, #36]
  44              	.LVL2:
  45              	.LBB12:
  46              	.LBB13:
  47              		.file 2 "../../os/kernel/include/chinline.h"
  48              		.loc 2 48 0
  49 001c 04C092E5 		ldr	ip, [r2, #4]
  50 0020 041083E8 		stm	r3, {r2, ip}
  51              		.loc 2 49 0
  52 0024 043082E5 		str	r3, [r2, #4]
  53 0028 00308CE5 		str	r3, [ip]
  54              	.LVL3:
  55              	.LBE13:
  56              	.LBE12:
  57              		.loc 1 69 0
ARM GAS  /tmp/ccGAxCBq.s 			page 2


  58 002c FEFFFFEA 		b	chSchGoSleepTimeoutS
  59              	.LVL4:
  60              	.L2:
  61              		.loc 1 70 0
  62 0030 0000E0E3 		mvn	r0, #0
  63              	.LVL5:
  64 0034 1EFF2FE1 		bx	lr
  65              	.L5:
  66              		.align	2
  67              	.L4:
  68 0038 00000000 		.word	rlist
  69              		.cfi_endproc
  70              	.LFE7:
  71              		.size	qwait, .-qwait
  72              		.section	.text.chIQInit,"ax",%progbits
  73              		.align	2
  74              		.global	chIQInit
  75              		.syntax unified
  76              		.arm
  77              		.fpu softvfp
  78              		.type	chIQInit, %function
  79              	chIQInit:
  80              	.LFB8:
  81              		.loc 1 89 0
  82              		.cfi_startproc
  83              		@ args = 4, pretend = 0, frame = 0
  84              		@ frame_needed = 0, uses_anonymous_args = 0
  85              	.LVL6:
  86 0000 04E02DE5 		str	lr, [sp, #-4]!
  87              		.cfi_def_cfa_offset 4
  88              		.cfi_offset 14, -4
  89              		.loc 1 92 0
  90 0004 00E0A0E3 		mov	lr, #0
  91              		.loc 1 89 0
  92 0008 04C09DE5 		ldr	ip, [sp, #4]
  93              		.loc 1 94 0
  94 000c 022081E0 		add	r2, r1, r2
  95              	.LVL7:
  96 0010 102080E5 		str	r2, [r0, #16]
  97              		.loc 1 91 0
  98 0014 040080E5 		str	r0, [r0, #4]
  99 0018 000080E5 		str	r0, [r0]
 100              		.loc 1 93 0
 101 001c 141080E5 		str	r1, [r0, #20]
 102 0020 181080E5 		str	r1, [r0, #24]
 103 0024 0C1080E5 		str	r1, [r0, #12]
 104              		.loc 1 95 0
 105 0028 1C3080E5 		str	r3, [r0, #28]
 106              		.loc 1 92 0
 107 002c 08E080E5 		str	lr, [r0, #8]
 108              		.loc 1 96 0
 109 0030 20C080E5 		str	ip, [r0, #32]
 110 0034 04F09DE4 		ldr	pc, [sp], #4
 111              		.cfi_endproc
 112              	.LFE8:
 113              		.size	chIQInit, .-chIQInit
 114              		.section	.text.chIQResetI,"ax",%progbits
ARM GAS  /tmp/ccGAxCBq.s 			page 3


 115              		.align	2
 116              		.global	chIQResetI
 117              		.syntax unified
 118              		.arm
 119              		.fpu softvfp
 120              		.type	chIQResetI, %function
 121              	chIQResetI:
 122              	.LFB9:
 123              		.loc 1 110 0
 124              		.cfi_startproc
 125              		@ args = 0, pretend = 0, frame = 0
 126              		@ frame_needed = 0, uses_anonymous_args = 0
 127              	.LVL8:
 128 0000 70402DE9 		push	{r4, r5, r6, lr}
 129              		.cfi_def_cfa_offset 16
 130              		.cfi_offset 4, -16
 131              		.cfi_offset 5, -12
 132              		.cfi_offset 6, -8
 133              		.cfi_offset 14, -4
 134              		.loc 1 110 0
 135 0004 0040A0E1 		mov	r4, r0
 136              		.loc 1 115 0
 137 0008 0020A0E3 		mov	r2, #0
 138              		.loc 1 116 0
 139 000c 000090E5 		ldr	r0, [r0]
 140              	.LVL9:
 141              		.loc 1 114 0
 142 0010 0C3094E5 		ldr	r3, [r4, #12]
 143              		.loc 1 116 0
 144 0014 000054E1 		cmp	r4, r0
 145              		.loc 1 115 0
 146 0018 082084E5 		str	r2, [r4, #8]
 147              		.loc 1 114 0
 148 001c 143084E5 		str	r3, [r4, #20]
 149 0020 183084E5 		str	r3, [r4, #24]
 150              		.loc 1 116 0
 151 0024 7080BD08 		popeq	{r4, r5, r6, pc}
 152              		.loc 1 117 0
 153 0028 0150E0E3 		mvn	r5, #1
 154              	.L10:
 155              	.LVL10:
 156              	.LBB14:
 157              	.LBB15:
 158              		.loc 2 55 0
 159 002c 003090E5 		ldr	r3, [r0]
 160 0030 003084E5 		str	r3, [r4]
 161 0034 044083E5 		str	r4, [r3, #4]
 162              	.LVL11:
 163              	.LBE15:
 164              	.LBE14:
 165              		.loc 1 117 0
 166 0038 FEFFFFEB 		bl	chSchReadyI
 167              	.LVL12:
 168 003c 245080E5 		str	r5, [r0, #36]
 169              		.loc 1 116 0
 170 0040 000094E5 		ldr	r0, [r4]
 171 0044 040050E1 		cmp	r0, r4
ARM GAS  /tmp/ccGAxCBq.s 			page 4


 172 0048 F7FFFF1A 		bne	.L10
 173 004c 7080BDE8 		pop	{r4, r5, r6, pc}
 174              		.cfi_endproc
 175              	.LFE9:
 176              		.size	chIQResetI, .-chIQResetI
 177              		.section	.text.chIQPutI,"ax",%progbits
 178              		.align	2
 179              		.global	chIQPutI
 180              		.syntax unified
 181              		.arm
 182              		.fpu softvfp
 183              		.type	chIQPutI, %function
 184              	chIQPutI:
 185              	.LFB10:
 186              		.loc 1 133 0
 187              		.cfi_startproc
 188              		@ args = 0, pretend = 0, frame = 0
 189              		@ frame_needed = 0, uses_anonymous_args = 0
 190              	.LVL13:
 191              		.loc 1 137 0
 192 0000 183090E5 		ldr	r3, [r0, #24]
 193 0004 142090E5 		ldr	r2, [r0, #20]
 194 0008 030052E1 		cmp	r2, r3
 195 000c 083090E5 		ldr	r3, [r0, #8]
 196 0010 1900000A 		beq	.L25
 197              	.L16:
 198              		.loc 1 140 0
 199 0014 013083E2 		add	r3, r3, #1
 200              		.loc 1 141 0
 201 0018 01C082E2 		add	ip, r2, #1
 202 001c 14C080E5 		str	ip, [r0, #20]
 203              		.loc 1 140 0
 204 0020 083080E5 		str	r3, [r0, #8]
 205              		.loc 1 141 0
 206 0024 0010C2E5 		strb	r1, [r2]
 207              		.loc 1 142 0
 208 0028 142090E5 		ldr	r2, [r0, #20]
 209 002c 103090E5 		ldr	r3, [r0, #16]
 210 0030 030052E1 		cmp	r2, r3
 211              		.loc 1 143 0
 212 0034 0C309025 		ldrcs	r3, [r0, #12]
 213              		.loc 1 145 0
 214 0038 002090E5 		ldr	r2, [r0]
 215              		.loc 1 143 0
 216 003c 14308025 		strcs	r3, [r0, #20]
 217              		.loc 1 145 0
 218 0040 000052E1 		cmp	r2, r0
 219 0044 0A00000A 		beq	.L20
 220 0048 0030A0E1 		mov	r3, r0
 221              	.LVL14:
 222              	.LBB16:
 223              	.LBB17:
 224              		.loc 2 55 0
 225 004c 001092E5 		ldr	r1, [r2]
 226              	.LVL15:
 227              	.LBE17:
 228              	.LBE16:
ARM GAS  /tmp/ccGAxCBq.s 			page 5


 229              		.loc 1 133 0
 230 0050 10402DE9 		push	{r4, lr}
 231              		.cfi_def_cfa_offset 8
 232              		.cfi_offset 4, -8
 233              		.cfi_offset 14, -4
 234              		.loc 1 146 0
 235 0054 0200A0E1 		mov	r0, r2
 236              	.LVL16:
 237              	.LBB19:
 238              	.LBB18:
 239              		.loc 2 55 0
 240 0058 001083E5 		str	r1, [r3]
 241 005c 043081E5 		str	r3, [r1, #4]
 242              	.LVL17:
 243              	.LBE18:
 244              	.LBE19:
 245              		.loc 1 146 0
 246 0060 FEFFFFEB 		bl	chSchReadyI
 247              	.LVL18:
 248 0064 0030A0E3 		mov	r3, #0
 249 0068 243080E5 		str	r3, [r0, #36]
 250              		.loc 1 148 0
 251 006c 0300A0E1 		mov	r0, r3
 252 0070 1080BDE8 		pop	{r4, pc}
 253              	.LVL19:
 254              	.L20:
 255              		.cfi_def_cfa_offset 0
 256              		.cfi_restore 4
 257              		.cfi_restore 14
 258 0074 0000A0E3 		mov	r0, #0
 259              	.LVL20:
 260 0078 1EFF2FE1 		bx	lr
 261              	.LVL21:
 262              	.L25:
 263              		.loc 1 137 0 discriminator 1
 264 007c 000053E3 		cmp	r3, #0
 265 0080 E3FFFF0A 		beq	.L16
 266              		.loc 1 138 0
 267 0084 0300E0E3 		mvn	r0, #3
 268              	.LVL22:
 269 0088 1EFF2FE1 		bx	lr
 270              		.cfi_endproc
 271              	.LFE10:
 272              		.size	chIQPutI, .-chIQPutI
 273              		.section	.text.chIQGetTimeout,"ax",%progbits
 274              		.align	2
 275              		.global	chIQGetTimeout
 276              		.syntax unified
 277              		.arm
 278              		.fpu softvfp
 279              		.type	chIQGetTimeout, %function
 280              	chIQGetTimeout:
 281              	.LFB11:
 282              		.loc 1 171 0
 283              		.cfi_startproc
 284              		@ args = 0, pretend = 0, frame = 0
 285              		@ frame_needed = 0, uses_anonymous_args = 0
ARM GAS  /tmp/ccGAxCBq.s 			page 6


 286              	.LVL23:
 287 0000 70402DE9 		push	{r4, r5, r6, lr}
 288              		.cfi_def_cfa_offset 16
 289              		.cfi_offset 4, -16
 290              		.cfi_offset 5, -12
 291              		.cfi_offset 6, -8
 292              		.cfi_offset 14, -4
 293              		.loc 1 171 0
 294 0004 0150A0E1 		mov	r5, r1
 295 0008 0040A0E1 		mov	r4, r0
 296              		.loc 1 174 0
 297              		.syntax divided
 298              	@ 174 "../../os/kernel/src/chqueues.c" 1
 299 000c 9FF021E3 		msr     CPSR_c, #0x9F
 300              	@ 0 "" 2
 301              		.loc 1 175 0
 302              		.arm
 303              		.syntax unified
 304 0010 1C3090E5 		ldr	r3, [r0, #28]
 305 0014 000053E3 		cmp	r3, #0
 306 0018 0600000A 		beq	.L28
 307              		.loc 1 176 0
 308 001c 33FF2FE1 		blx	r3
 309              	.LVL24:
 310 0020 040000EA 		b	.L28
 311              	.L30:
 312              	.LBB20:
 313              		.loc 1 180 0
 314 0024 0510A0E1 		mov	r1, r5
 315 0028 0400A0E1 		mov	r0, r4
 316 002c FEFFFFEB 		bl	qwait
 317              	.LVL25:
 318 0030 000050E3 		cmp	r0, #0
 319 0034 0C0000BA 		blt	.L31
 320              	.LVL26:
 321              	.L28:
 322              	.LBE20:
 323              		.loc 1 178 0
 324 0038 083094E5 		ldr	r3, [r4, #8]
 325 003c 000053E3 		cmp	r3, #0
 326 0040 F7FFFF0A 		beq	.L30
 327              		.loc 1 187 0
 328 0044 182094E5 		ldr	r2, [r4, #24]
 329              		.loc 1 188 0
 330 0048 100094E5 		ldr	r0, [r4, #16]
 331              		.loc 1 187 0
 332 004c 011082E2 		add	r1, r2, #1
 333              		.loc 1 186 0
 334 0050 013043E2 		sub	r3, r3, #1
 335              		.loc 1 188 0
 336 0054 000051E1 		cmp	r1, r0
 337              		.loc 1 186 0
 338 0058 083084E5 		str	r3, [r4, #8]
 339              		.loc 1 189 0
 340 005c 0C309425 		ldrcs	r3, [r4, #12]
 341              		.loc 1 187 0
 342 0060 181084E5 		str	r1, [r4, #24]
ARM GAS  /tmp/ccGAxCBq.s 			page 7


 343 0064 0000D2E5 		ldrb	r0, [r2]	@ zero_extendqisi2
 344              	.LVL27:
 345              		.loc 1 189 0
 346 0068 18308425 		strcs	r3, [r4, #24]
 347              	.LVL28:
 348              	.L31:
 349              		.loc 1 191 0
 350              		.syntax divided
 351              	@ 191 "../../os/kernel/src/chqueues.c" 1
 352 006c 1FF021E3 		msr     CPSR_c, #0x1F
 353              	@ 0 "" 2
 354              		.loc 1 193 0
 355              		.arm
 356              		.syntax unified
 357 0070 7080BDE8 		pop	{r4, r5, r6, pc}
 358              		.cfi_endproc
 359              	.LFE11:
 360              		.size	chIQGetTimeout, .-chIQGetTimeout
 361              		.section	.text.chIQReadTimeout,"ax",%progbits
 362              		.align	2
 363              		.global	chIQReadTimeout
 364              		.syntax unified
 365              		.arm
 366              		.fpu softvfp
 367              		.type	chIQReadTimeout, %function
 368              	chIQReadTimeout:
 369              	.LFB12:
 370              		.loc 1 220 0
 371              		.cfi_startproc
 372              		@ args = 0, pretend = 0, frame = 0
 373              		@ frame_needed = 0, uses_anonymous_args = 0
 374              	.LVL29:
 375 0000 F0472DE9 		push	{r4, r5, r6, r7, r8, r9, r10, lr}
 376              		.cfi_def_cfa_offset 32
 377              		.cfi_offset 4, -32
 378              		.cfi_offset 5, -28
 379              		.cfi_offset 6, -24
 380              		.cfi_offset 7, -20
 381              		.cfi_offset 8, -16
 382              		.cfi_offset 9, -12
 383              		.cfi_offset 10, -8
 384              		.cfi_offset 14, -4
 385              		.loc 1 220 0
 386 0004 0040A0E1 		mov	r4, r0
 387 0008 0180A0E1 		mov	r8, r1
 388 000c 0290A0E1 		mov	r9, r2
 389 0010 0350A0E1 		mov	r5, r3
 390              		.loc 1 221 0
 391 0014 1C7090E5 		ldr	r7, [r0, #28]
 392              	.LVL30:
 393              		.loc 1 226 0
 394              		.syntax divided
 395              	@ 226 "../../os/kernel/src/chqueues.c" 1
 396 0018 9FF021E3 		msr     CPSR_c, #0x9F
 397              	@ 0 "" 2
 398              		.loc 1 222 0
 399              		.arm
ARM GAS  /tmp/ccGAxCBq.s 			page 8


 400              		.syntax unified
 401 001c 0060A0E3 		mov	r6, #0
 402              	.LVL31:
 403              	.L43:
 404              		.loc 1 228 0
 405 0020 000057E3 		cmp	r7, #0
 406 0024 0700000A 		beq	.L39
 407              		.loc 1 229 0
 408 0028 0400A0E1 		mov	r0, r4
 409 002c 37FF2FE1 		blx	r7
 410              	.LVL32:
 411 0030 040000EA 		b	.L39
 412              	.L41:
 413              		.loc 1 232 0
 414 0034 0510A0E1 		mov	r1, r5
 415 0038 0400A0E1 		mov	r0, r4
 416 003c FEFFFFEB 		bl	qwait
 417              	.LVL33:
 418 0040 000050E3 		cmp	r0, #0
 419 0044 1400001A 		bne	.L50
 420              	.L39:
 421              		.loc 1 231 0
 422 0048 083094E5 		ldr	r3, [r4, #8]
 423 004c 000053E3 		cmp	r3, #0
 424 0050 F7FFFF0A 		beq	.L41
 425              		.loc 1 239 0
 426 0054 182094E5 		ldr	r2, [r4, #24]
 427              		.loc 1 238 0
 428 0058 013043E2 		sub	r3, r3, #1
 429              		.loc 1 239 0
 430 005c 011082E2 		add	r1, r2, #1
 431 0060 181084E5 		str	r1, [r4, #24]
 432              		.loc 1 238 0
 433 0064 083084E5 		str	r3, [r4, #8]
 434              		.loc 1 239 0
 435 0068 0030D2E5 		ldrb	r3, [r2]	@ zero_extendqisi2
 436 006c 0130C8E4 		strb	r3, [r8], #1
 437              	.LVL34:
 438              		.loc 1 240 0
 439 0070 103094E5 		ldr	r3, [r4, #16]
 440 0074 182094E5 		ldr	r2, [r4, #24]
 441 0078 030052E1 		cmp	r2, r3
 442              		.loc 1 241 0
 443 007c 0C309425 		ldrcs	r3, [r4, #12]
 444 0080 18308425 		strcs	r3, [r4, #24]
 445              		.loc 1 243 0
 446              		.syntax divided
 447              	@ 243 "../../os/kernel/src/chqueues.c" 1
 448 0084 1FF021E3 		msr     CPSR_c, #0x1F
 449              	@ 0 "" 2
 450              		.loc 1 244 0
 451              		.arm
 452              		.syntax unified
 453 0088 016086E2 		add	r6, r6, #1
 454              	.LVL35:
 455              		.loc 1 245 0
 456 008c 060059E1 		cmp	r9, r6
ARM GAS  /tmp/ccGAxCBq.s 			page 9


 457 0090 0200000A 		beq	.L37
 458              		.loc 1 248 0
 459              		.syntax divided
 460              	@ 248 "../../os/kernel/src/chqueues.c" 1
 461 0094 9FF021E3 		msr     CPSR_c, #0x9F
 462              	@ 0 "" 2
 463              		.loc 1 228 0
 464              		.arm
 465              		.syntax unified
 466 0098 E0FFFFEA 		b	.L43
 467              	.LVL36:
 468              	.L50:
 469              		.loc 1 233 0
 470              		.syntax divided
 471              	@ 233 "../../os/kernel/src/chqueues.c" 1
 472 009c 1FF021E3 		msr     CPSR_c, #0x1F
 473              	@ 0 "" 2
 474              	.LVL37:
 475              		.arm
 476              		.syntax unified
 477              	.L37:
 478              		.loc 1 250 0
 479 00a0 0600A0E1 		mov	r0, r6
 480 00a4 F087BDE8 		pop	{r4, r5, r6, r7, r8, r9, r10, pc}
 481              		.cfi_endproc
 482              	.LFE12:
 483              		.size	chIQReadTimeout, .-chIQReadTimeout
 484              		.section	.text.chOQInit,"ax",%progbits
 485              		.align	2
 486              		.global	chOQInit
 487              		.syntax unified
 488              		.arm
 489              		.fpu softvfp
 490              		.type	chOQInit, %function
 491              	chOQInit:
 492              	.LFB13:
 493              		.loc 1 269 0
 494              		.cfi_startproc
 495              		@ args = 4, pretend = 0, frame = 0
 496              		@ frame_needed = 0, uses_anonymous_args = 0
 497              	.LVL38:
 498 0000 04E02DE5 		str	lr, [sp, #-4]!
 499              		.cfi_def_cfa_offset 4
 500              		.cfi_offset 14, -4
 501              		.loc 1 269 0
 502 0004 04C09DE5 		ldr	ip, [sp, #4]
 503              		.loc 1 274 0
 504 0008 02E081E0 		add	lr, r1, r2
 505              		.loc 1 271 0
 506 000c 040080E5 		str	r0, [r0, #4]
 507 0010 000080E5 		str	r0, [r0]
 508              		.loc 1 272 0
 509 0014 082080E5 		str	r2, [r0, #8]
 510              		.loc 1 274 0
 511 0018 10E080E5 		str	lr, [r0, #16]
 512              		.loc 1 273 0
 513 001c 141080E5 		str	r1, [r0, #20]
ARM GAS  /tmp/ccGAxCBq.s 			page 10


 514 0020 181080E5 		str	r1, [r0, #24]
 515 0024 0C1080E5 		str	r1, [r0, #12]
 516              		.loc 1 275 0
 517 0028 1C3080E5 		str	r3, [r0, #28]
 518              		.loc 1 276 0
 519 002c 20C080E5 		str	ip, [r0, #32]
 520 0030 04F09DE4 		ldr	pc, [sp], #4
 521              		.cfi_endproc
 522              	.LFE13:
 523              		.size	chOQInit, .-chOQInit
 524              		.section	.text.chOQResetI,"ax",%progbits
 525              		.align	2
 526              		.global	chOQResetI
 527              		.syntax unified
 528              		.arm
 529              		.fpu softvfp
 530              		.type	chOQResetI, %function
 531              	chOQResetI:
 532              	.LFB14:
 533              		.loc 1 290 0
 534              		.cfi_startproc
 535              		@ args = 0, pretend = 0, frame = 0
 536              		@ frame_needed = 0, uses_anonymous_args = 0
 537              	.LVL39:
 538 0000 70402DE9 		push	{r4, r5, r6, lr}
 539              		.cfi_def_cfa_offset 16
 540              		.cfi_offset 4, -16
 541              		.cfi_offset 5, -12
 542              		.cfi_offset 6, -8
 543              		.cfi_offset 14, -4
 544              		.loc 1 290 0
 545 0004 0040A0E1 		mov	r4, r0
 546              		.loc 1 294 0
 547 0008 0C2090E5 		ldr	r2, [r0, #12]
 548              		.loc 1 295 0
 549 000c 103090E5 		ldr	r3, [r0, #16]
 550              		.loc 1 296 0
 551 0010 000090E5 		ldr	r0, [r0]
 552              	.LVL40:
 553              		.loc 1 295 0
 554 0014 023043E0 		sub	r3, r3, r2
 555              		.loc 1 296 0
 556 0018 000054E1 		cmp	r4, r0
 557              		.loc 1 294 0
 558 001c 142084E5 		str	r2, [r4, #20]
 559 0020 182084E5 		str	r2, [r4, #24]
 560              		.loc 1 295 0
 561 0024 083084E5 		str	r3, [r4, #8]
 562              		.loc 1 296 0
 563 0028 7080BD08 		popeq	{r4, r5, r6, pc}
 564              		.loc 1 297 0
 565 002c 0150E0E3 		mvn	r5, #1
 566              	.L55:
 567              	.LVL41:
 568              	.LBB21:
 569              	.LBB22:
 570              		.loc 2 55 0
ARM GAS  /tmp/ccGAxCBq.s 			page 11


 571 0030 003090E5 		ldr	r3, [r0]
 572 0034 003084E5 		str	r3, [r4]
 573 0038 044083E5 		str	r4, [r3, #4]
 574              	.LVL42:
 575              	.LBE22:
 576              	.LBE21:
 577              		.loc 1 297 0
 578 003c FEFFFFEB 		bl	chSchReadyI
 579              	.LVL43:
 580 0040 245080E5 		str	r5, [r0, #36]
 581              		.loc 1 296 0
 582 0044 000094E5 		ldr	r0, [r4]
 583 0048 040050E1 		cmp	r0, r4
 584 004c F7FFFF1A 		bne	.L55
 585 0050 7080BDE8 		pop	{r4, r5, r6, pc}
 586              		.cfi_endproc
 587              	.LFE14:
 588              		.size	chOQResetI, .-chOQResetI
 589              		.section	.text.chOQPutTimeout,"ax",%progbits
 590              		.align	2
 591              		.global	chOQPutTimeout
 592              		.syntax unified
 593              		.arm
 594              		.fpu softvfp
 595              		.type	chOQPutTimeout, %function
 596              	chOQPutTimeout:
 597              	.LFB15:
 598              		.loc 1 322 0
 599              		.cfi_startproc
 600              		@ args = 0, pretend = 0, frame = 0
 601              		@ frame_needed = 0, uses_anonymous_args = 0
 602              	.LVL44:
 603 0000 70402DE9 		push	{r4, r5, r6, lr}
 604              		.cfi_def_cfa_offset 16
 605              		.cfi_offset 4, -16
 606              		.cfi_offset 5, -12
 607              		.cfi_offset 6, -8
 608              		.cfi_offset 14, -4
 609              		.loc 1 322 0
 610 0004 0040A0E1 		mov	r4, r0
 611 0008 0160A0E1 		mov	r6, r1
 612 000c 0250A0E1 		mov	r5, r2
 613              		.loc 1 324 0
 614              		.syntax divided
 615              	@ 324 "../../os/kernel/src/chqueues.c" 1
 616 0010 9FF021E3 		msr     CPSR_c, #0x9F
 617              	@ 0 "" 2
 618              		.loc 1 325 0
 619              		.arm
 620              		.syntax unified
 621 0014 040000EA 		b	.L60
 622              	.LVL45:
 623              	.L62:
 624              	.LBB23:
 625              		.loc 1 328 0
 626 0018 0510A0E1 		mov	r1, r5
 627 001c 0400A0E1 		mov	r0, r4
ARM GAS  /tmp/ccGAxCBq.s 			page 12


 628 0020 FEFFFFEB 		bl	qwait
 629              	.LVL46:
 630 0024 000050E3 		cmp	r0, #0
 631 0028 150000BA 		blt	.L70
 632              	.LVL47:
 633              	.L60:
 634              	.LBE23:
 635              		.loc 1 325 0
 636 002c 083094E5 		ldr	r3, [r4, #8]
 637 0030 000053E3 		cmp	r3, #0
 638 0034 F7FFFF0A 		beq	.L62
 639              		.loc 1 335 0
 640 0038 142094E5 		ldr	r2, [r4, #20]
 641              		.loc 1 334 0
 642 003c 013043E2 		sub	r3, r3, #1
 643              		.loc 1 335 0
 644 0040 011082E2 		add	r1, r2, #1
 645 0044 141084E5 		str	r1, [r4, #20]
 646              		.loc 1 334 0
 647 0048 083084E5 		str	r3, [r4, #8]
 648              		.loc 1 335 0
 649 004c 0060C2E5 		strb	r6, [r2]
 650              		.loc 1 336 0
 651 0050 103094E5 		ldr	r3, [r4, #16]
 652 0054 142094E5 		ldr	r2, [r4, #20]
 653 0058 030052E1 		cmp	r2, r3
 654              		.loc 1 337 0
 655 005c 0C309425 		ldrcs	r3, [r4, #12]
 656 0060 14308425 		strcs	r3, [r4, #20]
 657              		.loc 1 339 0
 658 0064 1C3094E5 		ldr	r3, [r4, #28]
 659 0068 000053E3 		cmp	r3, #0
 660 006c 0100000A 		beq	.L64
 661              		.loc 1 340 0
 662 0070 0400A0E1 		mov	r0, r4
 663 0074 33FF2FE1 		blx	r3
 664              	.LVL48:
 665              	.L64:
 666              		.loc 1 342 0
 667              		.syntax divided
 668              	@ 342 "../../os/kernel/src/chqueues.c" 1
 669 0078 1FF021E3 		msr     CPSR_c, #0x1F
 670              	@ 0 "" 2
 671              		.loc 1 343 0
 672              		.arm
 673              		.syntax unified
 674 007c 0000A0E3 		mov	r0, #0
 675              		.loc 1 344 0
 676 0080 7080BDE8 		pop	{r4, r5, r6, pc}
 677              	.LVL49:
 678              	.L70:
 679              	.LBB24:
 680              		.loc 1 329 0
 681              		.syntax divided
 682              	@ 329 "../../os/kernel/src/chqueues.c" 1
 683 0084 1FF021E3 		msr     CPSR_c, #0x1F
 684              	@ 0 "" 2
ARM GAS  /tmp/ccGAxCBq.s 			page 13


 685              		.loc 1 330 0
 686              		.arm
 687              		.syntax unified
 688 0088 7080BDE8 		pop	{r4, r5, r6, pc}
 689              	.LBE24:
 690              		.cfi_endproc
 691              	.LFE15:
 692              		.size	chOQPutTimeout, .-chOQPutTimeout
 693              		.section	.text.chOQGetI,"ax",%progbits
 694              		.align	2
 695              		.global	chOQGetI
 696              		.syntax unified
 697              		.arm
 698              		.fpu softvfp
 699              		.type	chOQGetI, %function
 700              	chOQGetI:
 701              	.LFB16:
 702              		.loc 1 356 0
 703              		.cfi_startproc
 704              		@ args = 0, pretend = 0, frame = 0
 705              		@ frame_needed = 0, uses_anonymous_args = 0
 706              	.LVL50:
 707              		.loc 1 361 0
 708 0000 143090E5 		ldr	r3, [r0, #20]
 709 0004 182090E5 		ldr	r2, [r0, #24]
 710 0008 020053E1 		cmp	r3, r2
 711 000c 083090E5 		ldr	r3, [r0, #8]
 712 0010 1600000A 		beq	.L81
 713              	.L73:
 714              		.loc 1 356 0
 715 0014 10402DE9 		push	{r4, lr}
 716              		.cfi_def_cfa_offset 8
 717              		.cfi_offset 4, -8
 718              		.cfi_offset 14, -4
 719              		.loc 1 366 0
 720 0018 10C090E5 		ldr	ip, [r0, #16]
 721              		.loc 1 364 0
 722 001c 013083E2 		add	r3, r3, #1
 723              		.loc 1 365 0
 724 0020 011082E2 		add	r1, r2, #1
 725              		.loc 1 366 0
 726 0024 0C0051E1 		cmp	r1, ip
 727              		.loc 1 364 0
 728 0028 083080E5 		str	r3, [r0, #8]
 729              		.loc 1 365 0
 730 002c 181080E5 		str	r1, [r0, #24]
 731 0030 0040D2E5 		ldrb	r4, [r2]	@ zero_extendqisi2
 732              	.LVL51:
 733              		.loc 1 367 0
 734 0034 0C309025 		ldrcs	r3, [r0, #12]
 735              		.loc 1 369 0
 736 0038 002090E5 		ldr	r2, [r0]
 737              		.loc 1 367 0
 738 003c 18308025 		strcs	r3, [r0, #24]
 739              		.loc 1 369 0
 740 0040 000052E1 		cmp	r2, r0
 741 0044 0700000A 		beq	.L76
ARM GAS  /tmp/ccGAxCBq.s 			page 14


 742 0048 0030A0E1 		mov	r3, r0
 743              	.LVL52:
 744              	.LBB25:
 745              	.LBB26:
 746              		.loc 2 55 0
 747 004c 001092E5 		ldr	r1, [r2]
 748              	.LBE26:
 749              	.LBE25:
 750              		.loc 1 370 0
 751 0050 0200A0E1 		mov	r0, r2
 752              	.LVL53:
 753              	.LBB28:
 754              	.LBB27:
 755              		.loc 2 55 0
 756 0054 001083E5 		str	r1, [r3]
 757 0058 043081E5 		str	r3, [r1, #4]
 758              	.LVL54:
 759              	.LBE27:
 760              	.LBE28:
 761              		.loc 1 370 0
 762 005c FEFFFFEB 		bl	chSchReadyI
 763              	.LVL55:
 764 0060 0030A0E3 		mov	r3, #0
 765 0064 243080E5 		str	r3, [r0, #36]
 766              	.L76:
 767              		.loc 1 372 0
 768 0068 0400A0E1 		mov	r0, r4
 769 006c 1080BDE8 		pop	{r4, pc}
 770              	.LVL56:
 771              	.L81:
 772              		.cfi_def_cfa_offset 0
 773              		.cfi_restore 4
 774              		.cfi_restore 14
 775              		.loc 1 361 0 discriminator 1
 776 0070 000053E3 		cmp	r3, #0
 777 0074 E6FFFF0A 		beq	.L73
 778              		.loc 1 362 0
 779 0078 0200E0E3 		mvn	r0, #2
 780              	.LVL57:
 781 007c 1EFF2FE1 		bx	lr
 782              		.cfi_endproc
 783              	.LFE16:
 784              		.size	chOQGetI, .-chOQGetI
 785              		.section	.text.chOQWriteTimeout,"ax",%progbits
 786              		.align	2
 787              		.global	chOQWriteTimeout
 788              		.syntax unified
 789              		.arm
 790              		.fpu softvfp
 791              		.type	chOQWriteTimeout, %function
 792              	chOQWriteTimeout:
 793              	.LFB17:
 794              		.loc 1 400 0
 795              		.cfi_startproc
 796              		@ args = 0, pretend = 0, frame = 0
 797              		@ frame_needed = 0, uses_anonymous_args = 0
 798              	.LVL58:
ARM GAS  /tmp/ccGAxCBq.s 			page 15


 799 0000 F0472DE9 		push	{r4, r5, r6, r7, r8, r9, r10, lr}
 800              		.cfi_def_cfa_offset 32
 801              		.cfi_offset 4, -32
 802              		.cfi_offset 5, -28
 803              		.cfi_offset 6, -24
 804              		.cfi_offset 7, -20
 805              		.cfi_offset 8, -16
 806              		.cfi_offset 9, -12
 807              		.cfi_offset 10, -8
 808              		.cfi_offset 14, -4
 809              		.loc 1 400 0
 810 0004 0040A0E1 		mov	r4, r0
 811 0008 0150A0E1 		mov	r5, r1
 812 000c 0260A0E1 		mov	r6, r2
 813 0010 0390A0E1 		mov	r9, r3
 814              		.loc 1 401 0
 815 0014 1C8090E5 		ldr	r8, [r0, #28]
 816              	.LVL59:
 817              		.loc 1 406 0
 818              		.syntax divided
 819              	@ 406 "../../os/kernel/src/chqueues.c" 1
 820 0018 9FF021E3 		msr     CPSR_c, #0x9F
 821              	@ 0 "" 2
 822              		.loc 1 402 0
 823              		.arm
 824              		.syntax unified
 825 001c 0070A0E3 		mov	r7, #0
 826              	.LVL60:
 827              	.L83:
 828              		.loc 1 408 0
 829 0020 083094E5 		ldr	r3, [r4, #8]
 830              		.loc 1 415 0
 831 0024 01A085E2 		add	r10, r5, #1
 832              	.LVL61:
 833              		.loc 1 408 0
 834 0028 000053E3 		cmp	r3, #0
 835              		.loc 1 414 0
 836 002c 012043E2 		sub	r2, r3, #1
 837              		.loc 1 408 0
 838 0030 1500000A 		beq	.L86
 839              		.loc 1 415 0
 840 0034 143094E5 		ldr	r3, [r4, #20]
 841              		.loc 1 414 0
 842 0038 082084E5 		str	r2, [r4, #8]
 843              		.loc 1 415 0
 844 003c 012083E2 		add	r2, r3, #1
 845 0040 142084E5 		str	r2, [r4, #20]
 846 0044 0020D5E5 		ldrb	r2, [r5]	@ zero_extendqisi2
 847 0048 0020C3E5 		strb	r2, [r3]
 848              		.loc 1 416 0
 849 004c 103094E5 		ldr	r3, [r4, #16]
 850 0050 142094E5 		ldr	r2, [r4, #20]
 851 0054 030052E1 		cmp	r2, r3
 852              		.loc 1 417 0
 853 0058 0C309425 		ldrcs	r3, [r4, #12]
 854 005c 14308425 		strcs	r3, [r4, #20]
 855              		.loc 1 419 0
ARM GAS  /tmp/ccGAxCBq.s 			page 16


 856 0060 000058E3 		cmp	r8, #0
 857 0064 0100000A 		beq	.L88
 858              		.loc 1 420 0
 859 0068 0400A0E1 		mov	r0, r4
 860 006c 38FF2FE1 		blx	r8
 861              	.LVL62:
 862              	.L88:
 863              		.loc 1 422 0
 864              		.syntax divided
 865              	@ 422 "../../os/kernel/src/chqueues.c" 1
 866 0070 1FF021E3 		msr     CPSR_c, #0x1F
 867              	@ 0 "" 2
 868              		.loc 1 424 0
 869              		.arm
 870              		.syntax unified
 871 0074 016056E2 		subs	r6, r6, #1
 872              	.LVL63:
 873              		.loc 1 423 0
 874 0078 017087E2 		add	r7, r7, #1
 875              	.LVL64:
 876              		.loc 1 424 0
 877 007c 0800000A 		beq	.L82
 878              		.loc 1 426 0
 879              		.syntax divided
 880              	@ 426 "../../os/kernel/src/chqueues.c" 1
 881 0080 9FF021E3 		msr     CPSR_c, #0x9F
 882              	@ 0 "" 2
 883              		.loc 1 415 0
 884              		.arm
 885              		.syntax unified
 886 0084 0A50A0E1 		mov	r5, r10
 887              		.loc 1 408 0
 888 0088 E4FFFFEA 		b	.L83
 889              	.LVL65:
 890              	.L86:
 891              		.loc 1 409 0
 892 008c 0910A0E1 		mov	r1, r9
 893 0090 0400A0E1 		mov	r0, r4
 894 0094 FEFFFFEB 		bl	qwait
 895              	.LVL66:
 896 0098 000050E3 		cmp	r0, #0
 897 009c DFFFFF0A 		beq	.L83
 898              		.loc 1 410 0
 899              		.syntax divided
 900              	@ 410 "../../os/kernel/src/chqueues.c" 1
 901 00a0 1FF021E3 		msr     CPSR_c, #0x1F
 902              	@ 0 "" 2
 903              	.LVL67:
 904              		.arm
 905              		.syntax unified
 906              	.L82:
 907              		.loc 1 428 0
 908 00a4 0700A0E1 		mov	r0, r7
 909 00a8 F087BDE8 		pop	{r4, r5, r6, r7, r8, r9, r10, pc}
 910              		.cfi_endproc
 911              	.LFE17:
 912              		.size	chOQWriteTimeout, .-chOQWriteTimeout
ARM GAS  /tmp/ccGAxCBq.s 			page 17


 913              		.text
 914              	.Letext0:
 915              		.file 3 "/usr/lib/gcc/arm-none-eabi/6.3.1/include/stddef.h"
 916              		.file 4 "/usr/include/newlib/machine/_default_types.h"
 917              		.file 5 "/usr/include/newlib/sys/_stdint.h"
 918              		.file 6 "../../os/ports/GCC/ARM/chtypes.h"
 919              		.file 7 "../../os/kernel/include/chlists.h"
 920              		.file 8 "../../os/kernel/include/chthreads.h"
 921              		.file 9 "../../os/ports/GCC/ARM/chcore.h"
 922              		.file 10 "../../os/kernel/include/chvt.h"
 923              		.file 11 "../../os/kernel/include/chschd.h"
 924              		.file 12 "../../os/kernel/include/chmtx.h"
 925              		.file 13 "../../os/kernel/include/chregistry.h"
 926              		.file 14 "../../os/kernel/include/chqueues.h"
 927              		.file 15 "../../os/kernel/include/ch.h"