ARM GAS  /tmp/ccUUWYN3.s 			page 1


   1              		.cpu arm1176jz-s
   2              		.eabi_attribute 20, 1
   3              		.eabi_attribute 21, 1
   4              		.eabi_attribute 23, 3
   5              		.eabi_attribute 24, 1
   6              		.eabi_attribute 25, 1
   7              		.eabi_attribute 26, 1
   8              		.eabi_attribute 30, 2
   9              		.eabi_attribute 34, 1
  10              		.eabi_attribute 18, 4
  11              		.file	"chthreads.c"
  12              		.text
  13              	.Ltext0:
  14              		.cfi_sections	.debug_frame
  15              		.section	.text._thread_init,"ax",%progbits
  16              		.align	2
  17              		.global	_thread_init
  18              		.syntax unified
  19              		.arm
  20              		.fpu softvfp
  21              		.type	_thread_init, %function
  22              	_thread_init:
  23              	.LFB7:
  24              		.file 1 "../../os/kernel/src/chthreads.c"
  25              		.loc 1 69 0
  26              		.cfi_startproc
  27              		@ args = 0, pretend = 0, frame = 0
  28              		@ frame_needed = 0, uses_anonymous_args = 0
  29              	.LVL0:
  30 0000 70402DE9 		push	{r4, r5, r6, lr}
  31              		.cfi_def_cfa_offset 16
  32              		.cfi_offset 4, -16
  33              		.cfi_offset 5, -12
  34              		.cfi_offset 6, -8
  35              		.cfi_offset 14, -4
  36              		.loc 1 73 0
  37 0004 0020A0E3 		mov	r2, #0
  38              		.loc 1 72 0
  39 0008 0260A0E3 		mov	r6, #2
  40              		.loc 1 75 0
  41 000c 1450A0E3 		mov	r5, #20
  42              		.loc 1 88 0
  43 0010 0140A0E3 		mov	r4, #1
  44              		.loc 1 92 0
  45 0014 50C09FE5 		ldr	ip, .L3
  46              		.loc 1 71 0
  47 0018 081080E5 		str	r1, [r0, #8]
  48              		.loc 1 92 0
  49 001c 14E09CE5 		ldr	lr, [ip, #20]
  50              		.loc 1 78 0
  51 0020 401080E5 		str	r1, [r0, #64]
  52              		.loc 1 92 0
  53 0024 10C080E5 		str	ip, [r0, #16]
  54 0028 14E080E5 		str	lr, [r0, #20]
  55              		.loc 1 98 0
  56 002c 2C1080E2 		add	r1, r0, #44
  57              	.LVL1:
ARM GAS  /tmp/ccUUWYN3.s 			page 2


  58              		.loc 1 92 0
  59 0030 14008CE5 		str	r0, [ip, #20]
  60              		.loc 1 95 0
  61 0034 28C080E2 		add	ip, r0, #40
  62              		.loc 1 72 0
  63 0038 1C60C0E5 		strb	r6, [r0, #28]
  64              		.loc 1 75 0
  65 003c 1F50C0E5 		strb	r5, [r0, #31]
  66              		.loc 1 88 0
  67 0040 1E40C0E5 		strb	r4, [r0, #30]
  68              		.loc 1 73 0
  69 0044 1D20C0E5 		strb	r2, [r0, #29]
  70              		.loc 1 79 0
  71 0048 3C2080E5 		str	r2, [r0, #60]
  72              		.loc 1 82 0
  73 004c 382080E5 		str	r2, [r0, #56]
  74              		.loc 1 85 0
  75 0050 202080E5 		str	r2, [r0, #32]
  76              		.loc 1 91 0
  77 0054 182080E5 		str	r2, [r0, #24]
  78              		.loc 1 92 0
  79 0058 10008EE5 		str	r0, [lr, #16]
  80              		.loc 1 95 0
  81 005c 28C080E5 		str	ip, [r0, #40]
  82              		.loc 1 98 0
  83 0060 301080E5 		str	r1, [r0, #48]
  84 0064 2C1080E5 		str	r1, [r0, #44]
  85              		.loc 1 107 0
  86 0068 7080BDE8 		pop	{r4, r5, r6, pc}
  87              	.L4:
  88              		.align	2
  89              	.L3:
  90 006c 00000000 		.word	rlist
  91              		.cfi_endproc
  92              	.LFE7:
  93              		.size	_thread_init, .-_thread_init
  94              		.section	.text.chThdCreateI,"ax",%progbits
  95              		.align	2
  96              		.global	chThdCreateI
  97              		.syntax unified
  98              		.arm
  99              		.fpu softvfp
 100              		.type	chThdCreateI, %function
 101              	chThdCreateI:
 102              	.LFB8:
 103              		.loc 1 151 0
 104              		.cfi_startproc
 105              		@ args = 4, pretend = 0, frame = 0
 106              		@ frame_needed = 0, uses_anonymous_args = 0
 107              	.LVL2:
 108 0000 F0412DE9 		push	{r4, r5, r6, r7, r8, lr}
 109              		.cfi_def_cfa_offset 24
 110              		.cfi_offset 4, -24
 111              		.cfi_offset 5, -20
 112              		.cfi_offset 6, -16
 113              		.cfi_offset 7, -12
 114              		.cfi_offset 8, -8
ARM GAS  /tmp/ccUUWYN3.s 			page 3


 115              		.cfi_offset 14, -4
 116              	.LBB12:
 117              	.LBB13:
 118              		.loc 1 73 0
 119 0004 00E0A0E3 		mov	lr, #0
 120              		.loc 1 72 0
 121 0008 0280A0E3 		mov	r8, #2
 122              		.loc 1 75 0
 123 000c 1470A0E3 		mov	r7, #20
 124              		.loc 1 88 0
 125 0010 0160A0E3 		mov	r6, #1
 126              	.LBE13:
 127              	.LBE12:
 128              		.loc 1 160 0
 129 0014 241041E2 		sub	r1, r1, #36
 130              	.LVL3:
 131 0018 015080E0 		add	r5, r0, r1
 132 001c 0C5080E5 		str	r5, [r0, #12]
 133 0020 013080E7 		str	r3, [r0, r1]
 134              		.loc 1 151 0
 135 0024 18309DE5 		ldr	r3, [sp, #24]
 136              	.LVL4:
 137              	.LBB17:
 138              	.LBB14:
 139              		.loc 1 92 0
 140 0028 5C409FE5 		ldr	r4, .L7
 141              	.LBE14:
 142              	.LBE17:
 143              		.loc 1 160 0
 144 002c 043085E5 		str	r3, [r5, #4]
 145 0030 58309FE5 		ldr	r3, .L7+4
 146              	.LBB18:
 147              	.LBB15:
 148              		.loc 1 95 0
 149 0034 281080E2 		add	r1, r0, #40
 150              	.LVL5:
 151              	.LBE15:
 152              	.LBE18:
 153              		.loc 1 160 0
 154 0038 203085E5 		str	r3, [r5, #32]
 155              	.LVL6:
 156              	.LBB19:
 157              	.LBB16:
 158              		.loc 1 71 0
 159 003c 082080E5 		str	r2, [r0, #8]
 160              		.loc 1 78 0
 161 0040 402080E5 		str	r2, [r0, #64]
 162              		.loc 1 92 0
 163 0044 142094E5 		ldr	r2, [r4, #20]
 164              	.LVL7:
 165              		.loc 1 98 0
 166 0048 2C3080E2 		add	r3, r0, #44
 167              		.loc 1 92 0
 168 004c 104080E5 		str	r4, [r0, #16]
 169 0050 142080E5 		str	r2, [r0, #20]
 170              		.loc 1 72 0
 171 0054 1C80C0E5 		strb	r8, [r0, #28]
ARM GAS  /tmp/ccUUWYN3.s 			page 4


 172              	.LVL8:
 173              		.loc 1 75 0
 174 0058 1F70C0E5 		strb	r7, [r0, #31]
 175              		.loc 1 88 0
 176 005c 1E60C0E5 		strb	r6, [r0, #30]
 177              		.loc 1 73 0
 178 0060 1DE0C0E5 		strb	lr, [r0, #29]
 179              		.loc 1 92 0
 180 0064 140084E5 		str	r0, [r4, #20]
 181              		.loc 1 79 0
 182 0068 3CE080E5 		str	lr, [r0, #60]
 183              		.loc 1 82 0
 184 006c 38E080E5 		str	lr, [r0, #56]
 185              		.loc 1 85 0
 186 0070 20E080E5 		str	lr, [r0, #32]
 187              		.loc 1 91 0
 188 0074 18E080E5 		str	lr, [r0, #24]
 189              		.loc 1 92 0
 190 0078 100082E5 		str	r0, [r2, #16]
 191              		.loc 1 95 0
 192 007c 281080E5 		str	r1, [r0, #40]
 193              		.loc 1 98 0
 194 0080 303080E5 		str	r3, [r0, #48]
 195 0084 2C3080E5 		str	r3, [r0, #44]
 196              	.LVL9:
 197              	.LBE16:
 198              	.LBE19:
 199              		.loc 1 162 0
 200 0088 F081BDE8 		pop	{r4, r5, r6, r7, r8, pc}
 201              	.L8:
 202              		.align	2
 203              	.L7:
 204 008c 00000000 		.word	rlist
 205 0090 00000000 		.word	_port_thread_start
 206              		.cfi_endproc
 207              	.LFE8:
 208              		.size	chThdCreateI, .-chThdCreateI
 209              		.section	.text.chThdCreateStatic,"ax",%progbits
 210              		.align	2
 211              		.global	chThdCreateStatic
 212              		.syntax unified
 213              		.arm
 214              		.fpu softvfp
 215              		.type	chThdCreateStatic, %function
 216              	chThdCreateStatic:
 217              	.LFB9:
 218              		.loc 1 181 0
 219              		.cfi_startproc
 220              		@ args = 4, pretend = 0, frame = 0
 221              		@ frame_needed = 0, uses_anonymous_args = 0
 222              	.LVL10:
 223 0000 F0412DE9 		push	{r4, r5, r6, r7, r8, lr}
 224              		.cfi_def_cfa_offset 24
 225              		.cfi_offset 4, -24
 226              		.cfi_offset 5, -20
 227              		.cfi_offset 6, -16
 228              		.cfi_offset 7, -12
ARM GAS  /tmp/ccUUWYN3.s 			page 5


 229              		.cfi_offset 8, -8
 230              		.cfi_offset 14, -4
 231              		.loc 1 181 0
 232 0004 18809DE5 		ldr	r8, [sp, #24]
 233 0008 0040A0E1 		mov	r4, r0
 234              		.loc 1 192 0
 235              		.syntax divided
 236              	@ 192 "../../os/kernel/src/chthreads.c" 1
 237 000c 9FF021E3 		msr     CPSR_c, #0x9F
 238              	@ 0 "" 2
 239              	.LVL11:
 240              		.arm
 241              		.syntax unified
 242              	.LBB20:
 243              	.LBB21:
 244              	.LBB22:
 245              	.LBB23:
 246              		.loc 1 72 0
 247 0010 0250A0E3 		mov	r5, #2
 248              		.loc 1 73 0
 249 0014 00C0A0E3 		mov	ip, #0
 250              		.loc 1 75 0
 251 0018 1470A0E3 		mov	r7, #20
 252              		.loc 1 88 0
 253 001c 0160A0E3 		mov	r6, #1
 254              	.LBE23:
 255              	.LBE22:
 256              		.loc 1 160 0
 257 0020 241041E2 		sub	r1, r1, #36
 258              	.LVL12:
 259 0024 01E080E0 		add	lr, r0, r1
 260 0028 0CE080E5 		str	lr, [r0, #12]
 261 002c 013080E7 		str	r3, [r0, r1]
 262              	.LBB27:
 263              	.LBB24:
 264              		.loc 1 92 0
 265 0030 6C309FE5 		ldr	r3, .L11
 266              	.LVL13:
 267              	.LBE24:
 268              	.LBE27:
 269              		.loc 1 160 0
 270 0034 6C109FE5 		ldr	r1, .L11+4
 271              	.LVL14:
 272 0038 04808EE5 		str	r8, [lr, #4]
 273 003c 20108EE5 		str	r1, [lr, #32]
 274              	.LVL15:
 275              	.LBB28:
 276              	.LBB25:
 277              		.loc 1 92 0
 278 0040 14E093E5 		ldr	lr, [r3, #20]
 279              	.LVL16:
 280              		.loc 1 71 0
 281 0044 082080E5 		str	r2, [r0, #8]
 282              		.loc 1 78 0
 283 0048 402080E5 		str	r2, [r0, #64]
 284              		.loc 1 72 0
 285 004c 1C50C0E5 		strb	r5, [r0, #28]
ARM GAS  /tmp/ccUUWYN3.s 			page 6


 286              	.LVL17:
 287              		.loc 1 98 0
 288 0050 2C2080E2 		add	r2, r0, #44
 289              	.LVL18:
 290              		.loc 1 95 0
 291 0054 285080E2 		add	r5, r0, #40
 292              		.loc 1 92 0
 293 0058 103080E5 		str	r3, [r0, #16]
 294 005c 14E080E5 		str	lr, [r0, #20]
 295              		.loc 1 75 0
 296 0060 1F70C0E5 		strb	r7, [r0, #31]
 297              		.loc 1 88 0
 298 0064 1E60C0E5 		strb	r6, [r0, #30]
 299              		.loc 1 73 0
 300 0068 1DC0C0E5 		strb	ip, [r0, #29]
 301              		.loc 1 92 0
 302 006c 140083E5 		str	r0, [r3, #20]
 303              		.loc 1 79 0
 304 0070 3CC080E5 		str	ip, [r0, #60]
 305              		.loc 1 82 0
 306 0074 38C080E5 		str	ip, [r0, #56]
 307              		.loc 1 85 0
 308 0078 20C080E5 		str	ip, [r0, #32]
 309              		.loc 1 91 0
 310 007c 18C080E5 		str	ip, [r0, #24]
 311              	.LBE25:
 312              	.LBE28:
 313              	.LBE21:
 314              	.LBE20:
 315              		.loc 1 193 0
 316 0080 0C10A0E1 		mov	r1, ip
 317              	.LBB31:
 318              	.LBB30:
 319              	.LBB29:
 320              	.LBB26:
 321              		.loc 1 92 0
 322 0084 10008EE5 		str	r0, [lr, #16]
 323              		.loc 1 95 0
 324 0088 285080E5 		str	r5, [r0, #40]
 325              		.loc 1 98 0
 326 008c 302080E5 		str	r2, [r0, #48]
 327 0090 2C2080E5 		str	r2, [r0, #44]
 328              	.LVL19:
 329              	.LBE26:
 330              	.LBE29:
 331              	.LBE30:
 332              	.LBE31:
 333              		.loc 1 193 0
 334 0094 FEFFFFEB 		bl	chSchWakeupS
 335              	.LVL20:
 336              		.loc 1 194 0
 337              		.syntax divided
 338              	@ 194 "../../os/kernel/src/chthreads.c" 1
 339 0098 1FF021E3 		msr     CPSR_c, #0x1F
 340              	@ 0 "" 2
 341              		.loc 1 196 0
 342              		.arm
ARM GAS  /tmp/ccUUWYN3.s 			page 7


 343              		.syntax unified
 344 009c 0400A0E1 		mov	r0, r4
 345 00a0 F081BDE8 		pop	{r4, r5, r6, r7, r8, pc}
 346              	.L12:
 347              		.align	2
 348              	.L11:
 349 00a4 00000000 		.word	rlist
 350 00a8 00000000 		.word	_port_thread_start
 351              		.cfi_endproc
 352              	.LFE9:
 353              		.size	chThdCreateStatic, .-chThdCreateStatic
 354              		.section	.text.chThdSetPriority,"ax",%progbits
 355              		.align	2
 356              		.global	chThdSetPriority
 357              		.syntax unified
 358              		.arm
 359              		.fpu softvfp
 360              		.type	chThdSetPriority, %function
 361              	chThdSetPriority:
 362              	.LFB10:
 363              		.loc 1 210 0
 364              		.cfi_startproc
 365              		@ args = 0, pretend = 0, frame = 0
 366              		@ frame_needed = 0, uses_anonymous_args = 0
 367              	.LVL21:
 368 0000 10402DE9 		push	{r4, lr}
 369              		.cfi_def_cfa_offset 8
 370              		.cfi_offset 4, -8
 371              		.cfi_offset 14, -4
 372              		.loc 1 210 0
 373 0004 0010A0E1 		mov	r1, r0
 374              		.loc 1 215 0
 375              		.syntax divided
 376              	@ 215 "../../os/kernel/src/chthreads.c" 1
 377 0008 9FF021E3 		msr     CPSR_c, #0x9F
 378              	@ 0 "" 2
 379              		.loc 1 217 0
 380              		.arm
 381              		.syntax unified
 382 000c 38309FE5 		ldr	r3, .L20
 383 0010 183093E5 		ldr	r3, [r3, #24]
 384              		.loc 1 218 0
 385 0014 080093E5 		ldr	r0, [r3, #8]
 386              	.LVL22:
 387              		.loc 1 217 0
 388 0018 404093E5 		ldr	r4, [r3, #64]
 389              	.LVL23:
 390              		.loc 1 220 0
 391 001c 401083E5 		str	r1, [r3, #64]
 392              		.loc 1 218 0
 393 0020 002044E0 		sub	r2, r4, r0
 394 0024 122F6FE1 		clz	r2, r2
 395 0028 A222A0E1 		lsr	r2, r2, #5
 396 002c 010050E1 		cmp	r0, r1
 397 0030 01208233 		orrcc	r2, r2, #1
 398 0034 000052E3 		cmp	r2, #0
 399              		.loc 1 219 0
ARM GAS  /tmp/ccUUWYN3.s 			page 8


 400 0038 08108315 		strne	r1, [r3, #8]
 401              		.loc 1 225 0
 402 003c FEFFFFEB 		bl	chSchRescheduleS
 403              	.LVL24:
 404              		.loc 1 226 0
 405              		.syntax divided
 406              	@ 226 "../../os/kernel/src/chthreads.c" 1
 407 0040 1FF021E3 		msr     CPSR_c, #0x1F
 408              	@ 0 "" 2
 409              		.loc 1 228 0
 410              		.arm
 411              		.syntax unified
 412 0044 0400A0E1 		mov	r0, r4
 413 0048 1080BDE8 		pop	{r4, pc}
 414              	.L21:
 415              		.align	2
 416              	.L20:
 417 004c 00000000 		.word	rlist
 418              		.cfi_endproc
 419              	.LFE10:
 420              		.size	chThdSetPriority, .-chThdSetPriority
 421              		.section	.text.chThdResume,"ax",%progbits
 422              		.align	2
 423              		.global	chThdResume
 424              		.syntax unified
 425              		.arm
 426              		.fpu softvfp
 427              		.type	chThdResume, %function
 428              	chThdResume:
 429              	.LFB11:
 430              		.loc 1 243 0
 431              		.cfi_startproc
 432              		@ args = 0, pretend = 0, frame = 0
 433              		@ frame_needed = 0, uses_anonymous_args = 0
 434              	.LVL25:
 435 0000 10402DE9 		push	{r4, lr}
 436              		.cfi_def_cfa_offset 8
 437              		.cfi_offset 4, -8
 438              		.cfi_offset 14, -4
 439              		.loc 1 243 0
 440 0004 0040A0E1 		mov	r4, r0
 441              		.loc 1 245 0
 442              		.syntax divided
 443              	@ 245 "../../os/kernel/src/chthreads.c" 1
 444 0008 9FF021E3 		msr     CPSR_c, #0x9F
 445              	@ 0 "" 2
 446              		.loc 1 249 0
 447              		.arm
 448              		.syntax unified
 449 000c 0010A0E3 		mov	r1, #0
 450 0010 FEFFFFEB 		bl	chSchWakeupS
 451              	.LVL26:
 452              		.loc 1 250 0
 453              		.syntax divided
 454              	@ 250 "../../os/kernel/src/chthreads.c" 1
 455 0014 1FF021E3 		msr     CPSR_c, #0x1F
 456              	@ 0 "" 2
ARM GAS  /tmp/ccUUWYN3.s 			page 9


 457              		.loc 1 252 0
 458              		.arm
 459              		.syntax unified
 460 0018 0400A0E1 		mov	r0, r4
 461 001c 1080BDE8 		pop	{r4, pc}
 462              		.cfi_endproc
 463              	.LFE11:
 464              		.size	chThdResume, .-chThdResume
 465              		.section	.text.chThdTerminate,"ax",%progbits
 466              		.align	2
 467              		.global	chThdTerminate
 468              		.syntax unified
 469              		.arm
 470              		.fpu softvfp
 471              		.type	chThdTerminate, %function
 472              	chThdTerminate:
 473              	.LFB12:
 474              		.loc 1 266 0
 475              		.cfi_startproc
 476              		@ args = 0, pretend = 0, frame = 0
 477              		@ frame_needed = 0, uses_anonymous_args = 0
 478              		@ link register save eliminated.
 479              	.LVL27:
 480              		.loc 1 268 0
 481              		.syntax divided
 482              	@ 268 "../../os/kernel/src/chthreads.c" 1
 483 0000 9FF021E3 		msr     CPSR_c, #0x9F
 484              	@ 0 "" 2
 485              		.loc 1 269 0
 486              		.arm
 487              		.syntax unified
 488 0004 1D30D0E5 		ldrb	r3, [r0, #29]	@ zero_extendqisi2
 489 0008 043083E3 		orr	r3, r3, #4
 490 000c 1D30C0E5 		strb	r3, [r0, #29]
 491              		.loc 1 270 0
 492              		.syntax divided
 493              	@ 270 "../../os/kernel/src/chthreads.c" 1
 494 0010 1FF021E3 		msr     CPSR_c, #0x1F
 495              	@ 0 "" 2
 496              		.arm
 497              		.syntax unified
 498 0014 1EFF2FE1 		bx	lr
 499              		.cfi_endproc
 500              	.LFE12:
 501              		.size	chThdTerminate, .-chThdTerminate
 502              		.section	.text.chThdSleep,"ax",%progbits
 503              		.align	2
 504              		.global	chThdSleep
 505              		.syntax unified
 506              		.arm
 507              		.fpu softvfp
 508              		.type	chThdSleep, %function
 509              	chThdSleep:
 510              	.LFB13:
 511              		.loc 1 285 0
 512              		.cfi_startproc
 513              		@ args = 0, pretend = 0, frame = 0
ARM GAS  /tmp/ccUUWYN3.s 			page 10


 514              		@ frame_needed = 0, uses_anonymous_args = 0
 515              	.LVL28:
 516 0000 10402DE9 		push	{r4, lr}
 517              		.cfi_def_cfa_offset 8
 518              		.cfi_offset 4, -8
 519              		.cfi_offset 14, -4
 520              		.loc 1 285 0
 521 0004 0010A0E1 		mov	r1, r0
 522              		.loc 1 289 0
 523              		.syntax divided
 524              	@ 289 "../../os/kernel/src/chthreads.c" 1
 525 0008 9FF021E3 		msr     CPSR_c, #0x9F
 526              	@ 0 "" 2
 527              		.loc 1 290 0
 528              		.arm
 529              		.syntax unified
 530 000c 0600A0E3 		mov	r0, #6
 531              	.LVL29:
 532 0010 FEFFFFEB 		bl	chSchGoSleepTimeoutS
 533              	.LVL30:
 534              		.loc 1 291 0
 535              		.syntax divided
 536              	@ 291 "../../os/kernel/src/chthreads.c" 1
 537 0014 1FF021E3 		msr     CPSR_c, #0x1F
 538              	@ 0 "" 2
 539              		.arm
 540              		.syntax unified
 541 0018 1080BDE8 		pop	{r4, pc}
 542              		.cfi_endproc
 543              	.LFE13:
 544              		.size	chThdSleep, .-chThdSleep
 545              		.section	.text.chThdSleepUntil,"ax",%progbits
 546              		.align	2
 547              		.global	chThdSleepUntil
 548              		.syntax unified
 549              		.arm
 550              		.fpu softvfp
 551              		.type	chThdSleepUntil, %function
 552              	chThdSleepUntil:
 553              	.LFB14:
 554              		.loc 1 302 0
 555              		.cfi_startproc
 556              		@ args = 0, pretend = 0, frame = 0
 557              		@ frame_needed = 0, uses_anonymous_args = 0
 558              	.LVL31:
 559              		.loc 1 304 0
 560              		.syntax divided
 561              	@ 304 "../../os/kernel/src/chthreads.c" 1
 562 0000 9FF021E3 		msr     CPSR_c, #0x9F
 563              	@ 0 "" 2
 564              		.loc 1 305 0
 565              		.arm
 566              		.syntax unified
 567 0004 24309FE5 		ldr	r3, .L37
 568 0008 0C1093E5 		ldr	r1, [r3, #12]
 569              	.LVL32:
 570 000c 011050E0 		subs	r1, r0, r1
ARM GAS  /tmp/ccUUWYN3.s 			page 11


 571              	.LVL33:
 572 0010 0100001A 		bne	.L36
 573              		.loc 1 307 0
 574              		.syntax divided
 575              	@ 307 "../../os/kernel/src/chthreads.c" 1
 576 0014 1FF021E3 		msr     CPSR_c, #0x1F
 577              	@ 0 "" 2
 578              		.arm
 579              		.syntax unified
 580 0018 1EFF2FE1 		bx	lr
 581              	.L36:
 582              		.loc 1 302 0
 583 001c 10402DE9 		push	{r4, lr}
 584              		.cfi_def_cfa_offset 8
 585              		.cfi_offset 4, -8
 586              		.cfi_offset 14, -4
 587              		.loc 1 306 0
 588 0020 0600A0E3 		mov	r0, #6
 589 0024 FEFFFFEB 		bl	chSchGoSleepTimeoutS
 590              	.LVL34:
 591              		.loc 1 307 0
 592              		.syntax divided
 593              	@ 307 "../../os/kernel/src/chthreads.c" 1
 594 0028 1FF021E3 		msr     CPSR_c, #0x1F
 595              	@ 0 "" 2
 596              		.arm
 597              		.syntax unified
 598 002c 1080BDE8 		pop	{r4, pc}
 599              	.L38:
 600              		.align	2
 601              	.L37:
 602 0030 00000000 		.word	vtlist
 603              		.cfi_endproc
 604              	.LFE14:
 605              		.size	chThdSleepUntil, .-chThdSleepUntil
 606              		.section	.text.chThdYield,"ax",%progbits
 607              		.align	2
 608              		.global	chThdYield
 609              		.syntax unified
 610              		.arm
 611              		.fpu softvfp
 612              		.type	chThdYield, %function
 613              	chThdYield:
 614              	.LFB15:
 615              		.loc 1 317 0
 616              		.cfi_startproc
 617              		@ args = 0, pretend = 0, frame = 0
 618              		@ frame_needed = 0, uses_anonymous_args = 0
 619              		.loc 1 319 0
 620              		.syntax divided
 621              	@ 319 "../../os/kernel/src/chthreads.c" 1
 622 0000 9FF021E3 		msr     CPSR_c, #0x9F
 623              	@ 0 "" 2
 624              		.loc 1 320 0
 625              		.arm
 626              		.syntax unified
 627 0004 2C309FE5 		ldr	r3, .L46
ARM GAS  /tmp/ccUUWYN3.s 			page 12


 628 0008 002093E5 		ldr	r2, [r3]
 629 000c 183093E5 		ldr	r3, [r3, #24]
 630 0010 082092E5 		ldr	r2, [r2, #8]
 631 0014 083093E5 		ldr	r3, [r3, #8]
 632 0018 030052E1 		cmp	r2, r3
 633 001c 0100002A 		bcs	.L45
 634              		.loc 1 321 0
 635              		.syntax divided
 636              	@ 321 "../../os/kernel/src/chthreads.c" 1
 637 0020 1FF021E3 		msr     CPSR_c, #0x1F
 638              	@ 0 "" 2
 639              		.arm
 640              		.syntax unified
 641 0024 1EFF2FE1 		bx	lr
 642              	.L45:
 643              		.loc 1 317 0 discriminator 1
 644 0028 10402DE9 		push	{r4, lr}
 645              		.cfi_def_cfa_offset 8
 646              		.cfi_offset 4, -8
 647              		.cfi_offset 14, -4
 648              		.loc 1 320 0 discriminator 1
 649 002c FEFFFFEB 		bl	chSchDoRescheduleBehind
 650              	.LVL35:
 651              		.loc 1 321 0 discriminator 1
 652              		.syntax divided
 653              	@ 321 "../../os/kernel/src/chthreads.c" 1
 654 0030 1FF021E3 		msr     CPSR_c, #0x1F
 655              	@ 0 "" 2
 656              		.arm
 657              		.syntax unified
 658 0034 1080BDE8 		pop	{r4, pc}
 659              	.L47:
 660              		.align	2
 661              	.L46:
 662 0038 00000000 		.word	rlist
 663              		.cfi_endproc
 664              	.LFE15:
 665              		.size	chThdYield, .-chThdYield
 666              		.section	.text.chThdExitS,"ax",%progbits
 667              		.align	2
 668              		.global	chThdExitS
 669              		.syntax unified
 670              		.arm
 671              		.fpu softvfp
 672              		.type	chThdExitS, %function
 673              	chThdExitS:
 674              	.LFB17:
 675              		.loc 1 359 0
 676              		.cfi_startproc
 677              		@ args = 0, pretend = 0, frame = 0
 678              		@ frame_needed = 0, uses_anonymous_args = 0
 679              	.LVL36:
 680              		.loc 1 360 0
 681 0000 5C309FE5 		ldr	r3, .L56
 682              		.loc 1 359 0
 683 0004 70402DE9 		push	{r4, r5, r6, lr}
 684              		.cfi_def_cfa_offset 16
ARM GAS  /tmp/ccUUWYN3.s 			page 13


 685              		.cfi_offset 4, -16
 686              		.cfi_offset 5, -12
 687              		.cfi_offset 6, -8
 688              		.cfi_offset 14, -4
 689              		.loc 1 360 0
 690 0008 184093E5 		ldr	r4, [r3, #24]
 691              	.LVL37:
 692              		.loc 1 367 0
 693 000c 0450A0E1 		mov	r5, r4
 694              		.loc 1 362 0
 695 0010 240084E5 		str	r0, [r4, #36]
 696              		.loc 1 367 0
 697 0014 2800B5E5 		ldr	r0, [r5, #40]!
 698              	.LVL38:
 699 0018 050050E1 		cmp	r0, r5
 700 001c 0500000A 		beq	.L53
 701              	.LVL39:
 702              	.L52:
 703              	.LBB32:
 704              	.LBB33:
 705              		.file 2 "../../os/kernel/include/chinline.h"
 706              		.loc 2 82 0
 707 0020 003090E5 		ldr	r3, [r0]
 708 0024 283084E5 		str	r3, [r4, #40]
 709              	.LVL40:
 710              	.LBE33:
 711              	.LBE32:
 712              		.loc 1 368 0
 713 0028 FEFFFFEB 		bl	chSchReadyI
 714              	.LVL41:
 715              		.loc 1 367 0
 716 002c 280094E5 		ldr	r0, [r4, #40]
 717 0030 050050E1 		cmp	r0, r5
 718 0034 F9FFFF1A 		bne	.L52
 719              	.L53:
 720              		.loc 1 373 0
 721 0038 1D30D4E5 		ldrb	r3, [r4, #29]	@ zero_extendqisi2
 722 003c 030013E3 		tst	r3, #3
 723 0040 0400001A 		bne	.L51
 724              		.loc 1 374 0
 725 0044 102094E5 		ldr	r2, [r4, #16]
 726 0048 143094E5 		ldr	r3, [r4, #20]
 727 004c 102083E5 		str	r2, [r3, #16]
 728 0050 102094E5 		ldr	r2, [r4, #16]
 729 0054 143082E5 		str	r3, [r2, #20]
 730              	.L51:
 731              		.loc 1 376 0
 732 0058 0E00A0E3 		mov	r0, #14
 733              		.loc 1 379 0
 734 005c 7040BDE8 		pop	{r4, r5, r6, lr}
 735              		.cfi_restore 14
 736              		.cfi_restore 6
 737              		.cfi_restore 5
 738              		.cfi_restore 4
 739              		.cfi_def_cfa_offset 0
 740              	.LVL42:
 741              		.loc 1 376 0
ARM GAS  /tmp/ccUUWYN3.s 			page 14


 742 0060 FEFFFFEA 		b	chSchGoSleepS
 743              	.LVL43:
 744              	.L57:
 745              		.align	2
 746              	.L56:
 747 0064 00000000 		.word	rlist
 748              		.cfi_endproc
 749              	.LFE17:
 750              		.size	chThdExitS, .-chThdExitS
 751              		.section	.text.chThdExit,"ax",%progbits
 752              		.align	2
 753              		.global	chThdExit
 754              		.syntax unified
 755              		.arm
 756              		.fpu softvfp
 757              		.type	chThdExit, %function
 758              	chThdExit:
 759              	.LFB16:
 760              		.loc 1 338 0
 761              		.cfi_startproc
 762              		@ args = 0, pretend = 0, frame = 0
 763              		@ frame_needed = 0, uses_anonymous_args = 0
 764              		@ link register save eliminated.
 765              	.LVL44:
 766              		.loc 1 340 0
 767              		.syntax divided
 768              	@ 340 "../../os/kernel/src/chthreads.c" 1
 769 0000 9FF021E3 		msr     CPSR_c, #0x9F
 770              	@ 0 "" 2
 771              		.loc 1 341 0
 772              		.arm
 773              		.syntax unified
 774 0004 FEFFFFEA 		b	chThdExitS
 775              	.LVL45:
 776              		.cfi_endproc
 777              	.LFE16:
 778              		.size	chThdExit, .-chThdExit
 779              		.section	.text.chThdWait,"ax",%progbits
 780              		.align	2
 781              		.global	chThdWait
 782              		.syntax unified
 783              		.arm
 784              		.fpu softvfp
 785              		.type	chThdWait, %function
 786              	chThdWait:
 787              	.LFB18:
 788              		.loc 1 413 0
 789              		.cfi_startproc
 790              		@ args = 0, pretend = 0, frame = 0
 791              		@ frame_needed = 0, uses_anonymous_args = 0
 792              	.LVL46:
 793 0000 70402DE9 		push	{r4, r5, r6, lr}
 794              		.cfi_def_cfa_offset 16
 795              		.cfi_offset 4, -16
 796              		.cfi_offset 5, -12
 797              		.cfi_offset 6, -8
 798              		.cfi_offset 14, -4
ARM GAS  /tmp/ccUUWYN3.s 			page 15


 799              		.loc 1 413 0
 800 0004 0040A0E1 		mov	r4, r0
 801              		.loc 1 418 0
 802              		.syntax divided
 803              	@ 418 "../../os/kernel/src/chthreads.c" 1
 804 0008 9FF021E3 		msr     CPSR_c, #0x9F
 805              	@ 0 "" 2
 806              		.loc 1 423 0
 807              		.arm
 808              		.syntax unified
 809 000c 1C30D0E5 		ldrb	r3, [r0, #28]	@ zero_extendqisi2
 810 0010 0E0053E3 		cmp	r3, #14
 811 0014 0600000A 		beq	.L60
 812              		.loc 1 419 0
 813 0018 2C309FE5 		ldr	r3, .L65
 814              	.LBB34:
 815              	.LBB35:
 816              		.loc 2 75 0
 817 001c 282090E5 		ldr	r2, [r0, #40]
 818              	.LBE35:
 819              	.LBE34:
 820              		.loc 1 419 0
 821 0020 183093E5 		ldr	r3, [r3, #24]
 822              	.LVL47:
 823              		.loc 1 425 0
 824 0024 0700A0E3 		mov	r0, #7
 825              	.LVL48:
 826              	.LBB37:
 827              	.LBB36:
 828              		.loc 2 75 0
 829 0028 002083E5 		str	r2, [r3]
 830              		.loc 2 76 0
 831 002c 283084E5 		str	r3, [r4, #40]
 832              	.LVL49:
 833              	.LBE36:
 834              	.LBE37:
 835              		.loc 1 425 0
 836 0030 FEFFFFEB 		bl	chSchGoSleepS
 837              	.LVL50:
 838              	.L60:
 839              		.loc 1 427 0
 840 0034 245094E5 		ldr	r5, [r4, #36]
 841              	.LVL51:
 842              		.loc 1 428 0
 843              		.syntax divided
 844              	@ 428 "../../os/kernel/src/chthreads.c" 1
 845 0038 1FF021E3 		msr     CPSR_c, #0x1F
 846              	@ 0 "" 2
 847              		.loc 1 430 0
 848              		.arm
 849              		.syntax unified
 850 003c 0400A0E1 		mov	r0, r4
 851 0040 FEFFFFEB 		bl	chThdRelease
 852              	.LVL52:
 853              		.loc 1 433 0
 854 0044 0500A0E1 		mov	r0, r5
 855 0048 7080BDE8 		pop	{r4, r5, r6, pc}
ARM GAS  /tmp/ccUUWYN3.s 			page 16


 856              	.L66:
 857              		.align	2
 858              	.L65:
 859 004c 00000000 		.word	rlist
 860              		.cfi_endproc
 861              	.LFE18:
 862              		.size	chThdWait, .-chThdWait
 863              		.text
 864              	.Letext0:
 865              		.file 3 "/usr/lib/gcc/arm-none-eabi/6.3.1/include/stddef.h"
 866              		.file 4 "/usr/include/newlib/machine/_default_types.h"
 867              		.file 5 "/usr/include/newlib/sys/_stdint.h"
 868              		.file 6 "../../os/ports/GCC/ARM/chtypes.h"
 869              		.file 7 "../../os/kernel/include/chlists.h"
 870              		.file 8 "../../os/kernel/include/chthreads.h"
 871              		.file 9 "../../os/ports/GCC/ARM/chcore.h"
 872              		.file 10 "../../os/kernel/include/chvt.h"
 873              		.file 11 "../../os/kernel/include/chschd.h"
 874              		.file 12 "../../os/kernel/include/chmtx.h"
 875              		.file 13 "../../os/kernel/include/chregistry.h"
 876              		.file 14 "../../os/kernel/include/ch.h"
 877              		.file 15 "../../os/kernel/include/chdynamic.h"