ARM GAS  /tmp/ccKPFBSu.s 			page 1


   1              		.cpu arm1176jz-s
   2              		.eabi_attribute 20, 1
   3              		.eabi_attribute 21, 1
   4              		.eabi_attribute 23, 3
   5              		.eabi_attribute 24, 1
   6              		.eabi_attribute 25, 1
   7              		.eabi_attribute 26, 1
   8              		.eabi_attribute 30, 2
   9              		.eabi_attribute 34, 1
  10              		.eabi_attribute 18, 4
  11              		.file	"hal.c"
  12              		.text
  13              	.Ltext0:
  14              		.cfi_sections	.debug_frame
  15              		.section	.text.halInit,"ax",%progbits
  16              		.align	2
  17              		.global	halInit
  18              		.syntax unified
  19              		.arm
  20              		.fpu softvfp
  21              		.type	halInit, %function
  22              	halInit:
  23              	.LFB7:
  24              		.file 1 "../../os/hal/src/hal.c"
  25              		.loc 1 61 0
  26              		.cfi_startproc
  27              		@ args = 0, pretend = 0, frame = 0
  28              		@ frame_needed = 0, uses_anonymous_args = 0
  29 0000 10402DE9 		push	{r4, lr}
  30              		.cfi_def_cfa_offset 8
  31              		.cfi_offset 4, -8
  32              		.cfi_offset 14, -4
  33              		.loc 1 63 0
  34 0004 FEFFFFEB 		bl	hal_lld_init
  35              	.LVL0:
  36              		.loc 1 66 0
  37 0008 FEFFFFEB 		bl	tmInit
  38              	.LVL1:
  39              		.loc 1 69 0
  40 000c 14009FE5 		ldr	r0, .L3
  41 0010 FEFFFFEB 		bl	_pal_lld_init
  42              	.LVL2:
  43              		.loc 1 84 0
  44 0014 FEFFFFEB 		bl	i2cInit
  45              	.LVL3:
  46              		.loc 1 96 0
  47 0018 FEFFFFEB 		bl	sdInit
  48              	.LVL4:
  49              		.loc 1 102 0
  50 001c FEFFFFEB 		bl	spiInit
  51              	.LVL5:
  52              		.loc 1 121 0
  53 0020 1040BDE8 		pop	{r4, lr}
  54              		.cfi_restore 14
  55              		.cfi_restore 4
  56              		.cfi_def_cfa_offset 0
  57              		.loc 1 120 0
ARM GAS  /tmp/ccKPFBSu.s 			page 2


  58 0024 FEFFFFEA 		b	boardInit
  59              	.LVL6:
  60              	.L4:
  61              		.align	2
  62              	.L3:
  63 0028 00000000 		.word	pal_default_config
  64              		.cfi_endproc
  65              	.LFE7:
  66              		.size	halInit, .-halInit
  67              		.section	.text.halIsCounterWithin,"ax",%progbits
  68              		.align	2
  69              		.global	halIsCounterWithin
  70              		.syntax unified
  71              		.arm
  72              		.fpu softvfp
  73              		.type	halIsCounterWithin, %function
  74              	halIsCounterWithin:
  75              	.LFB8:
  76              		.loc 1 167 0
  77              		.cfi_startproc
  78              		@ args = 0, pretend = 0, frame = 0
  79              		@ frame_needed = 0, uses_anonymous_args = 0
  80              		@ link register save eliminated.
  81              	.LVL7:
  82              		.loc 1 168 0
  83 0000 3C309FE5 		ldr	r3, .L10
  84              		.loc 1 170 0
  85 0004 000051E1 		cmp	r1, r0
  86              		.loc 1 168 0
  87 0008 043093E5 		ldr	r3, [r3, #4]
  88              	.LVL8:
  89              		.loc 1 170 0
  90 000c 0600008A 		bhi	.L9
  91              		.loc 1 171 0 discriminator 2
  92 0010 010053E1 		cmp	r3, r1
  93 0014 0010A023 		movcs	r1, #0
  94              	.LVL9:
  95 0018 0110A033 		movcc	r1, #1
  96              		.loc 1 170 0 discriminator 2
  97 001c 000053E1 		cmp	r3, r0
  98 0020 0100A031 		movcc	r0, r1
  99 0024 01008123 		orrcs	r0, r1, #1
 100              	.LVL10:
 101              		.loc 1 172 0 discriminator 2
 102 0028 1EFF2FE1 		bx	lr
 103              	.LVL11:
 104              	.L9:
 105              		.loc 1 170 0 discriminator 1
 106 002c 000053E1 		cmp	r3, r0
 107 0030 0100A023 		movcs	r0, #1
 108              	.LVL12:
 109 0034 0000A033 		movcc	r0, #0
 110 0038 010053E1 		cmp	r3, r1
 111 003c 0000A023 		movcs	r0, #0
 112 0040 1EFF2FE1 		bx	lr
 113              	.L11:
 114              		.align	2
ARM GAS  /tmp/ccKPFBSu.s 			page 3


 115              	.L10:
 116 0044 00300020 		.word	536883200
 117              		.cfi_endproc
 118              	.LFE8:
 119              		.size	halIsCounterWithin, .-halIsCounterWithin
 120              		.section	.text.halPolledDelay,"ax",%progbits
 121              		.align	2
 122              		.global	halPolledDelay
 123              		.syntax unified
 124              		.arm
 125              		.fpu softvfp
 126              		.type	halPolledDelay, %function
 127              	halPolledDelay:
 128              	.LFB9:
 129              		.loc 1 186 0
 130              		.cfi_startproc
 131              		@ args = 0, pretend = 0, frame = 0
 132              		@ frame_needed = 0, uses_anonymous_args = 0
 133              		@ link register save eliminated.
 134              	.LVL13:
 135              		.loc 1 187 0
 136 0000 54309FE5 		ldr	r3, .L19
 137 0004 041093E5 		ldr	r1, [r3, #4]
 138              	.LVL14:
 139              	.LBB4:
 140              	.LBB5:
 141              		.loc 1 168 0
 142 0008 03C0A0E1 		mov	ip, r3
 143              	.LBE5:
 144              	.LBE4:
 145              		.loc 1 188 0
 146 000c 000081E0 		add	r0, r1, r0
 147              	.LVL15:
 148              		.loc 1 189 0
 149 0010 060000EA 		b	.L15
 150              	.LVL16:
 151              	.L18:
 152              	.LBB8:
 153              	.LBB6:
 154              		.loc 1 170 0
 155 0014 020051E1 		cmp	r1, r2
 156 0018 0130A093 		movls	r3, #1
 157 001c 0030A083 		movhi	r3, #0
 158 0020 020050E1 		cmp	r0, r2
 159 0024 0030A093 		movls	r3, #0
 160              	.LVL17:
 161              	.LBE6:
 162              	.LBE8:
 163              		.loc 1 189 0
 164 0028 000053E3 		cmp	r3, #0
 165 002c 0900000A 		beq	.L17
 166              	.L15:
 167              	.LVL18:
 168              	.LBB9:
 169              	.LBB7:
 170              		.loc 1 170 0 discriminator 1
 171 0030 000051E1 		cmp	r1, r0
ARM GAS  /tmp/ccKPFBSu.s 			page 4


 172              		.loc 1 168 0 discriminator 1
 173 0034 04209CE5 		ldr	r2, [ip, #4]
 174              	.LVL19:
 175              		.loc 1 170 0 discriminator 1
 176 0038 F5FFFF3A 		bcc	.L18
 177              		.loc 1 171 0
 178 003c 020050E1 		cmp	r0, r2
 179 0040 0030A093 		movls	r3, #0
 180 0044 0130A083 		movhi	r3, #1
 181              		.loc 1 170 0
 182 0048 020051E1 		cmp	r1, r2
 183 004c 01308393 		orrls	r3, r3, #1
 184              	.LVL20:
 185              	.LBE7:
 186              	.LBE9:
 187              		.loc 1 189 0
 188 0050 000053E3 		cmp	r3, #0
 189 0054 F5FFFF1A 		bne	.L15
 190              	.L17:
 191              		.loc 1 191 0
 192 0058 1EFF2FE1 		bx	lr
 193              	.L20:
 194              		.align	2
 195              	.L19:
 196 005c 00300020 		.word	536883200
 197              		.cfi_endproc
 198              	.LFE9:
 199              		.size	halPolledDelay, .-halPolledDelay
 200              		.text
 201              	.Letext0:
 202              		.file 2 "/usr/lib/gcc/arm-none-eabi/6.3.1/include/stddef.h"
 203              		.file 3 "/usr/include/newlib/machine/_default_types.h"
 204              		.file 4 "/usr/include/newlib/sys/_stdint.h"
 205              		.file 5 "../../os/ports/GCC/ARM/chtypes.h"
 206              		.file 6 "../../os/kernel/include/chlists.h"
 207              		.file 7 "../../os/kernel/include/chthreads.h"
 208              		.file 8 "../../os/ports/GCC/ARM/chcore.h"
 209              		.file 9 "../../os/kernel/include/chvt.h"
 210              		.file 10 "../../os/kernel/include/chschd.h"
 211              		.file 11 "../../os/kernel/include/chmtx.h"
 212              		.file 12 "../../os/kernel/include/chevents.h"
 213              		.file 13 "../../os/kernel/include/chregistry.h"
 214              		.file 14 "../../os/kernel/include/chqueues.h"
 215              		.file 15 "../../os/kernel/include/ch.h"
 216              		.file 16 "../../os/hal/platforms/BCM2835/bcm2835.h"
 217              		.file 17 "../../os/hal/platforms/BCM2835/hal_lld.h"
 218              		.file 18 "../../os/hal/platforms/BCM2835/pal_lld.h"
 219              		.file 19 "../../os/hal/include/i2c.h"
 220              		.file 20 "../../os/hal/platforms/BCM2835/i2c_lld.h"
 221              		.file 21 "../../os/hal/include/serial.h"
 222              		.file 22 "../../os/hal/include/spi.h"
 223              		.file 23 "../../os/hal/platforms/BCM2835/spi_lld.h"
 224              		.file 24 "../../os/hal/include/tm.h"
 225              		.file 25 "../../boards/RASPBERRYPI_MODB/board.h"
 226              		.file 26 "../../os/hal/platforms/BCM2835/serial_lld.h"