ARM GAS  /tmp/ccqiC8Gj.s 			page 1


   1              		.cpu arm1176jz-s
   2              		.eabi_attribute 20, 1
   3              		.eabi_attribute 21, 1
   4              		.eabi_attribute 23, 3
   5              		.eabi_attribute 24, 1
   6              		.eabi_attribute 25, 1
   7              		.eabi_attribute 26, 1
   8              		.eabi_attribute 30, 2
   9              		.eabi_attribute 34, 1
  10              		.eabi_attribute 18, 4
  11              		.file	"hal_lld.c"
  12              		.text
  13              	.Ltext0:
  14              		.cfi_sections	.debug_frame
  15              		.section	.text.IrqHandler,"ax",%progbits
  16              		.align	2
  17              		.global	IrqHandler
  18              		.syntax unified
  19              		.arm
  20              		.fpu softvfp
  21              		.type	IrqHandler, %function
  22              	IrqHandler:
  23              	.LFB9:
  24              		.file 1 "../../os/hal/platforms/BCM2835/hal_lld.c"
  25              		.loc 1 91 0
  26              		.cfi_startproc
  27              		@ Naked Function: prologue and epilogue provided by programmer.
  28              		@ args = 0, pretend = 0, frame = 0
  29              		@ frame_needed = 0, uses_anonymous_args = 0
  30              		.loc 1 92 0
  31              		.syntax divided
  32              	@ 92 "../../os/hal/platforms/BCM2835/hal_lld.c" 1
  33 0000 0F502DE9 		stmfd    sp!, {r0-r3, r12, lr}
  34              	@ 0 "" 2
  35              		.arm
  36              		.syntax unified
  37              	.LBB6:
  38              	.LBB7:
  39              		.loc 1 75 0
  40 0004 FEFFFFEB 		bl	chSysTimerHandlerI
  41              	.LVL0:
  42              		.loc 1 79 0
  43 0008 0020A0E3 		mov	r2, #0
  44 000c 1C309FE5 		ldr	r3, .L2
  45              	.LBE7:
  46              	.LBE6:
  47              		.loc 1 97 0
  48 0010 1C009FE5 		ldr	r0, .L2+4
  49              	.LBB9:
  50              	.LBB8:
  51              		.loc 1 79 0
  52 0014 0C2483E5 		str	r2, [r3, #1036]
  53              	.LBE8:
  54              	.LBE9:
  55              		.loc 1 97 0
  56 0018 FEFFFFEB 		bl	sd_lld_serve_interrupt
  57              	.LVL1:
ARM GAS  /tmp/ccqiC8Gj.s 			page 2


  58              		.loc 1 101 0
  59 001c 14009FE5 		ldr	r0, .L2+8
  60 0020 FEFFFFEB 		bl	i2c_lld_serve_interrupt
  61              	.LVL2:
  62              		.loc 1 105 0
  63 0024 10009FE5 		ldr	r0, .L2+12
  64 0028 FEFFFFEB 		bl	spi_lld_serve_interrupt
  65              	.LVL3:
  66              		.loc 1 112 0
  67              		.syntax divided
  68              	@ 112 "../../os/hal/platforms/BCM2835/hal_lld.c" 1
  69 002c FEFFFFEA 		b       _port_irq_common
  70              	@ 0 "" 2
  71              		.loc 1 113 0
  72              		.arm
  73              		.syntax unified
  74              	.L3:
  75              		.align	2
  76              	.L2:
  77 0030 00B00020 		.word	536915968
  78 0034 00000000 		.word	SD1
  79 0038 00000000 		.word	I2C0
  80 003c 00000000 		.word	SPI0
  81              		.cfi_endproc
  82              	.LFE9:
  83              		.size	IrqHandler, .-IrqHandler
  84              		.section	.text.delayMicroseconds,"ax",%progbits
  85              		.align	2
  86              		.global	delayMicroseconds
  87              		.syntax unified
  88              		.arm
  89              		.fpu softvfp
  90              		.type	delayMicroseconds, %function
  91              	delayMicroseconds:
  92              	.LFB10:
  93              		.loc 1 124 0
  94              		.cfi_startproc
  95              		@ args = 0, pretend = 0, frame = 0
  96              		@ frame_needed = 0, uses_anonymous_args = 0
  97              		@ link register save eliminated.
  98              	.LVL4:
  99              		.loc 1 125 0
 100 0000 18309FE5 		ldr	r3, .L8
 101              		.loc 1 126 0
 102 0004 0320A0E1 		mov	r2, r3
 103              		.loc 1 125 0
 104 0008 043093E5 		ldr	r3, [r3, #4]
 105 000c 000083E0 		add	r0, r3, r0
 106              	.LVL5:
 107              	.L5:
 108              		.loc 1 126 0 discriminator 1
 109 0010 043092E5 		ldr	r3, [r2, #4]
 110 0014 030050E1 		cmp	r0, r3
 111 0018 FCFFFF8A 		bhi	.L5
 112              		.loc 1 127 0
 113 001c 1EFF2FE1 		bx	lr
 114              	.L9:
ARM GAS  /tmp/ccqiC8Gj.s 			page 3


 115              		.align	2
 116              	.L8:
 117 0020 00300020 		.word	536883200
 118              		.cfi_endproc
 119              	.LFE10:
 120              		.size	delayMicroseconds, .-delayMicroseconds
 121              		.section	.text.hal_lld_init,"ax",%progbits
 122              		.align	2
 123              		.global	hal_lld_init
 124              		.syntax unified
 125              		.arm
 126              		.fpu softvfp
 127              		.type	hal_lld_init, %function
 128              	hal_lld_init:
 129              	.LFB11:
 130              		.loc 1 134 0
 131              		.cfi_startproc
 132              		@ args = 0, pretend = 0, frame = 0
 133              		@ frame_needed = 0, uses_anonymous_args = 0
 134 0000 04E02DE5 		str	lr, [sp, #-4]!
 135              		.cfi_def_cfa_offset 4
 136              		.cfi_offset 14, -4
 137              	.LBB10:
 138              	.LBB11:
 139              		.loc 1 59 0
 140 0004 F9C0A0E3 		mov	ip, #249
 141              		.loc 1 56 0
 142 0008 3EE8A0E3 		mov	lr, #4063232
 143              		.loc 1 60 0
 144 000c 0000A0E3 		mov	r0, #0
 145              		.loc 1 56 0
 146 0010 2C309FE5 		ldr	r3, .L12
 147              		.loc 1 57 0
 148 0014 2C209FE5 		ldr	r2, .L12+4
 149              		.loc 1 61 0
 150 0018 2C109FE5 		ldr	r1, .L12+8
 151              		.loc 1 56 0
 152 001c 08E483E5 		str	lr, [r3, #1032]
 153              		.loc 1 57 0
 154 0020 002483E5 		str	r2, [r3, #1024]
 155              		.loc 1 58 0
 156 0024 182483E5 		str	r2, [r3, #1048]
 157              		.loc 1 59 0
 158 0028 1CC483E5 		str	ip, [r3, #1052]
 159              		.loc 1 60 0
 160 002c 0C0483E5 		str	r0, [r3, #1036]
 161              		.loc 1 61 0
 162 0030 081483E5 		str	r1, [r3, #1032]
 163              		.loc 1 63 0
 164 0034 182293E5 		ldr	r2, [r3, #536]
 165 0038 012082E3 		orr	r2, r2, #1
 166 003c 182283E5 		str	r2, [r3, #536]
 167 0040 04F09DE4 		ldr	pc, [sp], #4
 168              	.L13:
 169              		.align	2
 170              	.L12:
 171 0044 00B00020 		.word	536915968
ARM GAS  /tmp/ccqiC8Gj.s 			page 4


 172 0048 E7030000 		.word	999
 173 004c A2003E00 		.word	4063394
 174              	.LBE11:
 175              	.LBE10:
 176              		.cfi_endproc
 177              	.LFE11:
 178              		.size	hal_lld_init, .-hal_lld_init
 179              		.section	.text.watchdog_start,"ax",%progbits
 180              		.align	2
 181              		.global	watchdog_start
 182              		.syntax unified
 183              		.arm
 184              		.fpu softvfp
 185              		.type	watchdog_start, %function
 186              	watchdog_start:
 187              	.LFB12:
 188              		.loc 1 142 0
 189              		.cfi_startproc
 190              		@ args = 0, pretend = 0, frame = 0
 191              		@ frame_needed = 0, uses_anonymous_args = 0
 192              		@ link register save eliminated.
 193              	.LVL6:
 194              		.loc 1 144 0
 195 0000 28209FE5 		ldr	r2, .L15
 196              		.loc 1 147 0
 197 0004 FF04C0E3 		bic	r0, r0, #-16777216
 198              	.LVL7:
 199              		.loc 1 144 0
 200 0008 1C3092E5 		ldr	r3, [r2, #28]
 201              	.LVL8:
 202              		.loc 1 147 0
 203 000c 0F06C0E3 		bic	r0, r0, #15728640
 204              		.loc 1 148 0
 205 0010 5A34C3E3 		bic	r3, r3, #1509949440
 206              	.LVL9:
 207 0014 3030C3E3 		bic	r3, r3, #48
 208 0018 5A3483E3 		orr	r3, r3, #1509949440
 209              		.loc 1 147 0
 210 001c 5A0480E3 		orr	r0, r0, #1509949440
 211              	.LVL10:
 212              		.loc 1 148 0
 213 0020 203083E3 		orr	r3, r3, #32
 214              	.LVL11:
 215              		.loc 1 149 0
 216 0024 240082E5 		str	r0, [r2, #36]
 217              		.loc 1 150 0
 218 0028 1C3082E5 		str	r3, [r2, #28]
 219 002c 1EFF2FE1 		bx	lr
 220              	.L16:
 221              		.align	2
 222              	.L15:
 223 0030 00001020 		.word	537919488
 224              		.cfi_endproc
 225              	.LFE12:
 226              		.size	watchdog_start, .-watchdog_start
 227              		.section	.text.watchdog_stop,"ax",%progbits
 228              		.align	2
ARM GAS  /tmp/ccqiC8Gj.s 			page 5


 229              		.global	watchdog_stop
 230              		.syntax unified
 231              		.arm
 232              		.fpu softvfp
 233              		.type	watchdog_stop, %function
 234              	watchdog_stop:
 235              	.LFB13:
 236              		.loc 1 157 0
 237              		.cfi_startproc
 238              		@ args = 0, pretend = 0, frame = 0
 239              		@ frame_needed = 0, uses_anonymous_args = 0
 240              		@ link register save eliminated.
 241              		.loc 1 158 0
 242 0000 08309FE5 		ldr	r3, .L18
 243 0004 08209FE5 		ldr	r2, .L18+4
 244 0008 1C2083E5 		str	r2, [r3, #28]
 245 000c 1EFF2FE1 		bx	lr
 246              	.L19:
 247              		.align	2
 248              	.L18:
 249 0010 00001020 		.word	537919488
 250 0014 0201005A 		.word	1509949698
 251              		.cfi_endproc
 252              	.LFE13:
 253              		.size	watchdog_stop, .-watchdog_stop
 254              		.section	.text.watchdog_get_remaining,"ax",%progbits
 255              		.align	2
 256              		.global	watchdog_get_remaining
 257              		.syntax unified
 258              		.arm
 259              		.fpu softvfp
 260              		.type	watchdog_get_remaining, %function
 261              	watchdog_get_remaining:
 262              	.LFB14:
 263              		.loc 1 165 0
 264              		.cfi_startproc
 265              		@ args = 0, pretend = 0, frame = 0
 266              		@ frame_needed = 0, uses_anonymous_args = 0
 267              		@ link register save eliminated.
 268              		.loc 1 166 0
 269 0000 0C309FE5 		ldr	r3, .L21
 270 0004 240093E5 		ldr	r0, [r3, #36]
 271              		.loc 1 167 0
 272 0008 FF04C0E3 		bic	r0, r0, #-16777216
 273 000c 0F06C0E3 		bic	r0, r0, #15728640
 274 0010 1EFF2FE1 		bx	lr
 275              	.L22:
 276              		.align	2
 277              	.L21:
 278 0014 00001020 		.word	537919488
 279              		.cfi_endproc
 280              	.LFE14:
 281              		.size	watchdog_get_remaining, .-watchdog_get_remaining
 282              		.text
 283              	.Letext0:
 284              		.file 2 "/usr/lib/gcc/arm-none-eabi/6.3.1/include/stddef.h"
 285              		.file 3 "/usr/include/newlib/machine/_default_types.h"
ARM GAS  /tmp/ccqiC8Gj.s 			page 6


 286              		.file 4 "/usr/include/newlib/sys/_stdint.h"
 287              		.file 5 "../../os/ports/GCC/ARM/chtypes.h"
 288              		.file 6 "../../os/kernel/include/chlists.h"
 289              		.file 7 "../../os/kernel/include/chthreads.h"
 290              		.file 8 "../../os/ports/GCC/ARM/chcore.h"
 291              		.file 9 "../../os/kernel/include/chvt.h"
 292              		.file 10 "../../os/kernel/include/chschd.h"
 293              		.file 11 "../../os/kernel/include/chmtx.h"
 294              		.file 12 "../../os/kernel/include/chevents.h"
 295              		.file 13 "../../os/kernel/include/chregistry.h"
 296              		.file 14 "../../os/kernel/include/chqueues.h"
 297              		.file 15 "../../os/kernel/include/ch.h"
 298              		.file 16 "../../os/hal/platforms/BCM2835/bcm2835.h"
 299              		.file 17 "../../os/hal/platforms/BCM2835/pal_lld.h"
 300              		.file 18 "../../os/hal/include/i2c.h"
 301              		.file 19 "../../os/hal/platforms/BCM2835/i2c_lld.h"
 302              		.file 20 "../../os/hal/include/serial.h"
 303              		.file 21 "../../os/hal/include/spi.h"
 304              		.file 22 "../../os/hal/platforms/BCM2835/spi_lld.h"
 305              		.file 23 "../../os/kernel/include/chsys.h"
 306              		.file 24 "../../os/hal/platforms/BCM2835/serial_lld.h"
 307              		.section	.debug_info,"",%progbits
 308              	.Ldebug_info0:
 309 0000 640E0000 		.4byte	0xe64
 310 0004 0400     		.2byte	0x4
 311 0006 00000000 		.4byte	.Ldebug_abbrev0
 312 000a 04       		.byte	0x4
 313 000b 01       		.uleb128 0x1
 314 000c 6E070000 		.4byte	.LASF215
 315 0010 0C       		.byte	0xc
 316 0011 D9040000 		.4byte	.LASF216
 317 0015 85000000 		.4byte	.LASF217
 318 0019 18000000 		.4byte	.Ldebug_ranges0+0x18
 319 001d 00000000 		.4byte	0
 320 0021 00000000 		.4byte	.Ldebug_line0
 321 0025 02       		.uleb128 0x2
 322 0026 04       		.byte	0x4
 323 0027 05       		.byte	0x5
 324 0028 696E7400 		.ascii	"int\000"
 325 002c 03       		.uleb128 0x3
 326 002d 20000000 		.4byte	.LASF2
 327 0031 02       		.byte	0x2
 328 0032 D8       		.byte	0xd8
 329 0033 37000000 		.4byte	0x37
 330 0037 04       		.uleb128 0x4
 331 0038 04       		.byte	0x4
 332 0039 07       		.byte	0x7
 333 003a E4020000 		.4byte	.LASF0
 334 003e 05       		.uleb128 0x5
 335 003f 37000000 		.4byte	0x37
 336 0043 04       		.uleb128 0x4
 337 0044 01       		.byte	0x1
 338 0045 06       		.byte	0x6
 339 0046 3B010000 		.4byte	.LASF1
 340 004a 03       		.uleb128 0x3
 341 004b 3A000000 		.4byte	.LASF3
 342 004f 03       		.byte	0x3
ARM GAS  /tmp/ccqiC8Gj.s 			page 7


 343 0050 1D       		.byte	0x1d
 344 0051 55000000 		.4byte	0x55
 345 0055 04       		.uleb128 0x4
 346 0056 01       		.byte	0x1
 347 0057 08       		.byte	0x8
 348 0058 AC050000 		.4byte	.LASF4
 349 005c 04       		.uleb128 0x4
 350 005d 02       		.byte	0x2
 351 005e 05       		.byte	0x5
 352 005f D9050000 		.4byte	.LASF5
 353 0063 03       		.uleb128 0x3
 354 0064 09070000 		.4byte	.LASF6
 355 0068 03       		.byte	0x3
 356 0069 2B       		.byte	0x2b
 357 006a 6E000000 		.4byte	0x6e
 358 006e 04       		.uleb128 0x4
 359 006f 02       		.byte	0x2
 360 0070 07       		.byte	0x7
 361 0071 92030000 		.4byte	.LASF7
 362 0075 03       		.uleb128 0x3
 363 0076 3B070000 		.4byte	.LASF8
 364 007a 03       		.byte	0x3
 365 007b 3F       		.byte	0x3f
 366 007c 80000000 		.4byte	0x80
 367 0080 04       		.uleb128 0x4
 368 0081 04       		.byte	0x4
 369 0082 05       		.byte	0x5
 370 0083 C5010000 		.4byte	.LASF9
 371 0087 03       		.uleb128 0x3
 372 0088 91020000 		.4byte	.LASF10
 373 008c 03       		.byte	0x3
 374 008d 41       		.byte	0x41
 375 008e 92000000 		.4byte	0x92
 376 0092 04       		.uleb128 0x4
 377 0093 04       		.byte	0x4
 378 0094 07       		.byte	0x7
 379 0095 30030000 		.4byte	.LASF11
 380 0099 04       		.uleb128 0x4
 381 009a 08       		.byte	0x8
 382 009b 05       		.byte	0x5
 383 009c 2D010000 		.4byte	.LASF12
 384 00a0 04       		.uleb128 0x4
 385 00a1 08       		.byte	0x8
 386 00a2 07       		.byte	0x7
 387 00a3 6E000000 		.4byte	.LASF13
 388 00a7 03       		.uleb128 0x3
 389 00a8 8B080000 		.4byte	.LASF14
 390 00ac 04       		.byte	0x4
 391 00ad 18       		.byte	0x18
 392 00ae 4A000000 		.4byte	0x4a
 393 00b2 06       		.uleb128 0x6
 394 00b3 A7000000 		.4byte	0xa7
 395 00b7 03       		.uleb128 0x3
 396 00b8 06020000 		.4byte	.LASF15
 397 00bc 04       		.byte	0x4
 398 00bd 24       		.byte	0x24
 399 00be 63000000 		.4byte	0x63
ARM GAS  /tmp/ccqiC8Gj.s 			page 8


 400 00c2 03       		.uleb128 0x3
 401 00c3 A4050000 		.4byte	.LASF16
 402 00c7 04       		.byte	0x4
 403 00c8 2C       		.byte	0x2c
 404 00c9 75000000 		.4byte	0x75
 405 00cd 03       		.uleb128 0x3
 406 00ce 97060000 		.4byte	.LASF17
 407 00d2 04       		.byte	0x4
 408 00d3 30       		.byte	0x30
 409 00d4 87000000 		.4byte	0x87
 410 00d8 05       		.uleb128 0x5
 411 00d9 CD000000 		.4byte	0xcd
 412 00dd 03       		.uleb128 0x3
 413 00de DB030000 		.4byte	.LASF18
 414 00e2 05       		.byte	0x5
 415 00e3 2A       		.byte	0x2a
 416 00e4 A7000000 		.4byte	0xa7
 417 00e8 03       		.uleb128 0x3
 418 00e9 CE010000 		.4byte	.LASF19
 419 00ed 05       		.byte	0x5
 420 00ee 2B       		.byte	0x2b
 421 00ef A7000000 		.4byte	0xa7
 422 00f3 03       		.uleb128 0x3
 423 00f4 54050000 		.4byte	.LASF20
 424 00f8 05       		.byte	0x5
 425 00f9 2C       		.byte	0x2c
 426 00fa A7000000 		.4byte	0xa7
 427 00fe 03       		.uleb128 0x3
 428 00ff A0010000 		.4byte	.LASF21
 429 0103 05       		.byte	0x5
 430 0104 2D       		.byte	0x2d
 431 0105 A7000000 		.4byte	0xa7
 432 0109 03       		.uleb128 0x3
 433 010a 83050000 		.4byte	.LASF22
 434 010e 05       		.byte	0x5
 435 010f 2E       		.byte	0x2e
 436 0110 CD000000 		.4byte	0xcd
 437 0114 03       		.uleb128 0x3
 438 0115 B7030000 		.4byte	.LASF23
 439 0119 05       		.byte	0x5
 440 011a 2F       		.byte	0x2f
 441 011b C2000000 		.4byte	0xc2
 442 011f 03       		.uleb128 0x3
 443 0120 EF030000 		.4byte	.LASF24
 444 0124 05       		.byte	0x5
 445 0125 31       		.byte	0x31
 446 0126 CD000000 		.4byte	0xcd
 447 012a 03       		.uleb128 0x3
 448 012b 33080000 		.4byte	.LASF25
 449 012f 05       		.byte	0x5
 450 0130 32       		.byte	0x32
 451 0131 CD000000 		.4byte	0xcd
 452 0135 03       		.uleb128 0x3
 453 0136 26070000 		.4byte	.LASF26
 454 013a 05       		.byte	0x5
 455 013b 33       		.byte	0x33
 456 013c CD000000 		.4byte	0xcd
ARM GAS  /tmp/ccqiC8Gj.s 			page 9


 457 0140 05       		.uleb128 0x5
 458 0141 35010000 		.4byte	0x135
 459 0145 03       		.uleb128 0x3
 460 0146 3E060000 		.4byte	.LASF27
 461 014a 06       		.byte	0x6
 462 014b 23       		.byte	0x23
 463 014c 50010000 		.4byte	0x150
 464 0150 07       		.uleb128 0x7
 465 0151 3E060000 		.4byte	.LASF27
 466 0155 44       		.byte	0x44
 467 0156 07       		.byte	0x7
 468 0157 57       		.byte	0x57
 469 0158 41020000 		.4byte	0x241
 470 015c 08       		.uleb128 0x8
 471 015d 18060000 		.4byte	.LASF28
 472 0161 07       		.byte	0x7
 473 0162 58       		.byte	0x58
 474 0163 62020000 		.4byte	0x262
 475 0167 00       		.byte	0
 476 0168 08       		.uleb128 0x8
 477 0169 7C050000 		.4byte	.LASF29
 478 016d 07       		.byte	0x7
 479 016e 5A       		.byte	0x5a
 480 016f 62020000 		.4byte	0x262
 481 0173 04       		.byte	0x4
 482 0174 08       		.uleb128 0x8
 483 0175 02010000 		.4byte	.LASF30
 484 0179 07       		.byte	0x7
 485 017a 5C       		.byte	0x5c
 486 017b 09010000 		.4byte	0x109
 487 017f 08       		.byte	0x8
 488 0180 08       		.uleb128 0x8
 489 0181 64090000 		.4byte	.LASF31
 490 0185 07       		.byte	0x7
 491 0186 5D       		.byte	0x5d
 492 0187 1D030000 		.4byte	0x31d
 493 018b 0C       		.byte	0xc
 494 018c 08       		.uleb128 0x8
 495 018d 38020000 		.4byte	.LASF32
 496 0191 07       		.byte	0x7
 497 0192 5F       		.byte	0x5f
 498 0193 62020000 		.4byte	0x262
 499 0197 10       		.byte	0x10
 500 0198 08       		.uleb128 0x8
 501 0199 BB040000 		.4byte	.LASF33
 502 019d 07       		.byte	0x7
 503 019e 60       		.byte	0x60
 504 019f 62020000 		.4byte	0x262
 505 01a3 14       		.byte	0x14
 506 01a4 08       		.uleb128 0x8
 507 01a5 C6080000 		.4byte	.LASF34
 508 01a9 07       		.byte	0x7
 509 01aa 67       		.byte	0x67
 510 01ab 51050000 		.4byte	0x551
 511 01af 18       		.byte	0x18
 512 01b0 08       		.uleb128 0x8
 513 01b1 E3050000 		.4byte	.LASF35
ARM GAS  /tmp/ccqiC8Gj.s 			page 10


 514 01b5 07       		.byte	0x7
 515 01b6 72       		.byte	0x72
 516 01b7 E8000000 		.4byte	0xe8
 517 01bb 1C       		.byte	0x1c
 518 01bc 08       		.uleb128 0x8
 519 01bd 36060000 		.4byte	.LASF36
 520 01c1 07       		.byte	0x7
 521 01c2 76       		.byte	0x76
 522 01c3 DD000000 		.4byte	0xdd
 523 01c7 1D       		.byte	0x1d
 524 01c8 08       		.uleb128 0x8
 525 01c9 64080000 		.4byte	.LASF37
 526 01cd 07       		.byte	0x7
 527 01ce 7B       		.byte	0x7b
 528 01cf F3000000 		.4byte	0xf3
 529 01d3 1E       		.byte	0x1e
 530 01d4 08       		.uleb128 0x8
 531 01d5 EB050000 		.4byte	.LASF38
 532 01d9 07       		.byte	0x7
 533 01da 81       		.byte	0x81
 534 01db FE000000 		.4byte	0xfe
 535 01df 1F       		.byte	0x1f
 536 01e0 08       		.uleb128 0x8
 537 01e1 67070000 		.4byte	.LASF39
 538 01e5 07       		.byte	0x7
 539 01e6 88       		.byte	0x88
 540 01e7 40010000 		.4byte	0x140
 541 01eb 20       		.byte	0x20
 542 01ec 09       		.uleb128 0x9
 543 01ed 705F7500 		.ascii	"p_u\000"
 544 01f1 07       		.byte	0x7
 545 01f2 AD       		.byte	0xad
 546 01f3 1C050000 		.4byte	0x51c
 547 01f7 24       		.byte	0x24
 548 01f8 08       		.uleb128 0x8
 549 01f9 6A090000 		.4byte	.LASF40
 550 01fd 07       		.byte	0x7
 551 01fe B2       		.byte	0xb2
 552 01ff 88020000 		.4byte	0x288
 553 0203 28       		.byte	0x28
 554 0204 08       		.uleb128 0x8
 555 0205 03080000 		.4byte	.LASF41
 556 0209 07       		.byte	0x7
 557 020a B8       		.byte	0xb8
 558 020b 68020000 		.4byte	0x268
 559 020f 2C       		.byte	0x2c
 560 0210 08       		.uleb128 0x8
 561 0211 1A000000 		.4byte	.LASF42
 562 0215 07       		.byte	0x7
 563 0216 BC       		.byte	0xbc
 564 0217 14010000 		.4byte	0x114
 565 021b 34       		.byte	0x34
 566 021c 08       		.uleb128 0x8
 567 021d 82060000 		.4byte	.LASF43
 568 0221 07       		.byte	0x7
 569 0222 C2       		.byte	0xc2
 570 0223 1F010000 		.4byte	0x11f
ARM GAS  /tmp/ccqiC8Gj.s 			page 11


 571 0227 38       		.byte	0x38
 572 0228 08       		.uleb128 0x8
 573 0229 CF050000 		.4byte	.LASF44
 574 022d 07       		.byte	0x7
 575 022e C9       		.byte	0xc9
 576 022f 63050000 		.4byte	0x563
 577 0233 3C       		.byte	0x3c
 578 0234 08       		.uleb128 0x8
 579 0235 30070000 		.4byte	.LASF45
 580 0239 07       		.byte	0x7
 581 023a CD       		.byte	0xcd
 582 023b 09010000 		.4byte	0x109
 583 023f 40       		.byte	0x40
 584 0240 00       		.byte	0
 585 0241 0A       		.uleb128 0xa
 586 0242 08       		.byte	0x8
 587 0243 06       		.byte	0x6
 588 0244 5A       		.byte	0x5a
 589 0245 62020000 		.4byte	0x262
 590 0249 08       		.uleb128 0x8
 591 024a 18060000 		.4byte	.LASF28
 592 024e 06       		.byte	0x6
 593 024f 5B       		.byte	0x5b
 594 0250 62020000 		.4byte	0x262
 595 0254 00       		.byte	0
 596 0255 08       		.uleb128 0x8
 597 0256 7C050000 		.4byte	.LASF29
 598 025a 06       		.byte	0x6
 599 025b 5D       		.byte	0x5d
 600 025c 62020000 		.4byte	0x262
 601 0260 04       		.byte	0x4
 602 0261 00       		.byte	0
 603 0262 0B       		.uleb128 0xb
 604 0263 04       		.byte	0x4
 605 0264 45010000 		.4byte	0x145
 606 0268 03       		.uleb128 0x3
 607 0269 0D000000 		.4byte	.LASF46
 608 026d 06       		.byte	0x6
 609 026e 5F       		.byte	0x5f
 610 026f 41020000 		.4byte	0x241
 611 0273 0A       		.uleb128 0xa
 612 0274 04       		.byte	0x4
 613 0275 06       		.byte	0x6
 614 0276 64       		.byte	0x64
 615 0277 88020000 		.4byte	0x288
 616 027b 08       		.uleb128 0x8
 617 027c 18060000 		.4byte	.LASF28
 618 0280 06       		.byte	0x6
 619 0281 66       		.byte	0x66
 620 0282 62020000 		.4byte	0x262
 621 0286 00       		.byte	0
 622 0287 00       		.byte	0
 623 0288 03       		.uleb128 0x3
 624 0289 E3030000 		.4byte	.LASF47
 625 028d 06       		.byte	0x6
 626 028e 69       		.byte	0x69
 627 028f 73020000 		.4byte	0x273
ARM GAS  /tmp/ccqiC8Gj.s 			page 12


 628 0293 03       		.uleb128 0x3
 629 0294 19040000 		.4byte	.LASF48
 630 0298 08       		.byte	0x8
 631 0299 9D       		.byte	0x9d
 632 029a CD000000 		.4byte	0xcd
 633 029e 03       		.uleb128 0x3
 634 029f 9C020000 		.4byte	.LASF49
 635 02a3 08       		.byte	0x8
 636 02a4 A2       		.byte	0xa2
 637 02a5 A9020000 		.4byte	0x2a9
 638 02a9 0C       		.uleb128 0xc
 639 02aa 04       		.byte	0x4
 640 02ab 07       		.uleb128 0x7
 641 02ac FC070000 		.4byte	.LASF50
 642 02b0 24       		.byte	0x24
 643 02b1 08       		.byte	0x8
 644 02b2 B9       		.byte	0xb9
 645 02b3 1D030000 		.4byte	0x31d
 646 02b7 09       		.uleb128 0x9
 647 02b8 723400   		.ascii	"r4\000"
 648 02bb 08       		.byte	0x8
 649 02bc BA       		.byte	0xba
 650 02bd 9E020000 		.4byte	0x29e
 651 02c1 00       		.byte	0
 652 02c2 09       		.uleb128 0x9
 653 02c3 723500   		.ascii	"r5\000"
 654 02c6 08       		.byte	0x8
 655 02c7 BB       		.byte	0xbb
 656 02c8 9E020000 		.4byte	0x29e
 657 02cc 04       		.byte	0x4
 658 02cd 09       		.uleb128 0x9
 659 02ce 723600   		.ascii	"r6\000"
 660 02d1 08       		.byte	0x8
 661 02d2 BC       		.byte	0xbc
 662 02d3 9E020000 		.4byte	0x29e
 663 02d7 08       		.byte	0x8
 664 02d8 09       		.uleb128 0x9
 665 02d9 723700   		.ascii	"r7\000"
 666 02dc 08       		.byte	0x8
 667 02dd BD       		.byte	0xbd
 668 02de 9E020000 		.4byte	0x29e
 669 02e2 0C       		.byte	0xc
 670 02e3 09       		.uleb128 0x9
 671 02e4 723800   		.ascii	"r8\000"
 672 02e7 08       		.byte	0x8
 673 02e8 BE       		.byte	0xbe
 674 02e9 9E020000 		.4byte	0x29e
 675 02ed 10       		.byte	0x10
 676 02ee 09       		.uleb128 0x9
 677 02ef 723900   		.ascii	"r9\000"
 678 02f2 08       		.byte	0x8
 679 02f3 BF       		.byte	0xbf
 680 02f4 9E020000 		.4byte	0x29e
 681 02f8 14       		.byte	0x14
 682 02f9 09       		.uleb128 0x9
 683 02fa 72313000 		.ascii	"r10\000"
 684 02fe 08       		.byte	0x8
ARM GAS  /tmp/ccqiC8Gj.s 			page 13


 685 02ff C0       		.byte	0xc0
 686 0300 9E020000 		.4byte	0x29e
 687 0304 18       		.byte	0x18
 688 0305 09       		.uleb128 0x9
 689 0306 72313100 		.ascii	"r11\000"
 690 030a 08       		.byte	0x8
 691 030b C1       		.byte	0xc1
 692 030c 9E020000 		.4byte	0x29e
 693 0310 1C       		.byte	0x1c
 694 0311 09       		.uleb128 0x9
 695 0312 6C7200   		.ascii	"lr\000"
 696 0315 08       		.byte	0x8
 697 0316 C2       		.byte	0xc2
 698 0317 9E020000 		.4byte	0x29e
 699 031b 20       		.byte	0x20
 700 031c 00       		.byte	0
 701 031d 07       		.uleb128 0x7
 702 031e 8A030000 		.4byte	.LASF51
 703 0322 04       		.byte	0x4
 704 0323 08       		.byte	0x8
 705 0324 CA       		.byte	0xca
 706 0325 36030000 		.4byte	0x336
 707 0329 09       		.uleb128 0x9
 708 032a 72313300 		.ascii	"r13\000"
 709 032e 08       		.byte	0x8
 710 032f CB       		.byte	0xcb
 711 0330 36030000 		.4byte	0x336
 712 0334 00       		.byte	0
 713 0335 00       		.byte	0
 714 0336 0B       		.uleb128 0xb
 715 0337 04       		.byte	0x4
 716 0338 AB020000 		.4byte	0x2ab
 717 033c 03       		.uleb128 0x3
 718 033d 58030000 		.4byte	.LASF52
 719 0341 09       		.byte	0x9
 720 0342 4E       		.byte	0x4e
 721 0343 47030000 		.4byte	0x347
 722 0347 0B       		.uleb128 0xb
 723 0348 04       		.byte	0x4
 724 0349 4D030000 		.4byte	0x34d
 725 034d 0D       		.uleb128 0xd
 726 034e 58030000 		.4byte	0x358
 727 0352 0E       		.uleb128 0xe
 728 0353 A9020000 		.4byte	0x2a9
 729 0357 00       		.byte	0
 730 0358 03       		.uleb128 0x3
 731 0359 B4060000 		.4byte	.LASF53
 732 035d 09       		.byte	0x9
 733 035e 53       		.byte	0x53
 734 035f 63030000 		.4byte	0x363
 735 0363 07       		.uleb128 0x7
 736 0364 B4060000 		.4byte	.LASF53
 737 0368 14       		.byte	0x14
 738 0369 09       		.byte	0x9
 739 036a 5A       		.byte	0x5a
 740 036b AC030000 		.4byte	0x3ac
 741 036f 08       		.uleb128 0x8
ARM GAS  /tmp/ccqiC8Gj.s 			page 14


 742 0370 F1020000 		.4byte	.LASF54
 743 0374 09       		.byte	0x9
 744 0375 5B       		.byte	0x5b
 745 0376 AC030000 		.4byte	0x3ac
 746 037a 00       		.byte	0
 747 037b 08       		.uleb128 0x8
 748 037c A5020000 		.4byte	.LASF55
 749 0380 09       		.byte	0x9
 750 0381 5D       		.byte	0x5d
 751 0382 AC030000 		.4byte	0x3ac
 752 0386 04       		.byte	0x4
 753 0387 08       		.uleb128 0x8
 754 0388 4B040000 		.4byte	.LASF56
 755 038c 09       		.byte	0x9
 756 038d 5F       		.byte	0x5f
 757 038e 35010000 		.4byte	0x135
 758 0392 08       		.byte	0x8
 759 0393 08       		.uleb128 0x8
 760 0394 7C040000 		.4byte	.LASF57
 761 0398 09       		.byte	0x9
 762 0399 60       		.byte	0x60
 763 039a 3C030000 		.4byte	0x33c
 764 039e 0C       		.byte	0xc
 765 039f 08       		.uleb128 0x8
 766 03a0 2C080000 		.4byte	.LASF58
 767 03a4 09       		.byte	0x9
 768 03a5 62       		.byte	0x62
 769 03a6 A9020000 		.4byte	0x2a9
 770 03aa 10       		.byte	0x10
 771 03ab 00       		.byte	0
 772 03ac 0B       		.uleb128 0xb
 773 03ad 04       		.byte	0x4
 774 03ae 58030000 		.4byte	0x358
 775 03b2 0A       		.uleb128 0xa
 776 03b3 10       		.byte	0x10
 777 03b4 09       		.byte	0x9
 778 03b5 6C       		.byte	0x6c
 779 03b6 EB030000 		.4byte	0x3eb
 780 03ba 08       		.uleb128 0x8
 781 03bb F1020000 		.4byte	.LASF54
 782 03bf 09       		.byte	0x9
 783 03c0 6D       		.byte	0x6d
 784 03c1 AC030000 		.4byte	0x3ac
 785 03c5 00       		.byte	0
 786 03c6 08       		.uleb128 0x8
 787 03c7 A5020000 		.4byte	.LASF55
 788 03cb 09       		.byte	0x9
 789 03cc 6F       		.byte	0x6f
 790 03cd AC030000 		.4byte	0x3ac
 791 03d1 04       		.byte	0x4
 792 03d2 08       		.uleb128 0x8
 793 03d3 4B040000 		.4byte	.LASF56
 794 03d7 09       		.byte	0x9
 795 03d8 71       		.byte	0x71
 796 03d9 35010000 		.4byte	0x135
 797 03dd 08       		.byte	0x8
 798 03de 08       		.uleb128 0x8
ARM GAS  /tmp/ccqiC8Gj.s 			page 15


 799 03df CD080000 		.4byte	.LASF59
 800 03e3 09       		.byte	0x9
 801 03e4 72       		.byte	0x72
 802 03e5 40010000 		.4byte	0x140
 803 03e9 0C       		.byte	0xc
 804 03ea 00       		.byte	0
 805 03eb 03       		.uleb128 0x3
 806 03ec 17090000 		.4byte	.LASF60
 807 03f0 09       		.byte	0x9
 808 03f1 73       		.byte	0x73
 809 03f2 B2030000 		.4byte	0x3b2
 810 03f6 0F       		.uleb128 0xf
 811 03f7 4F000000 		.4byte	.LASF68
 812 03fb 09       		.byte	0x9
 813 03fc D1       		.byte	0xd1
 814 03fd EB030000 		.4byte	0x3eb
 815 0401 0A       		.uleb128 0xa
 816 0402 1C       		.byte	0x1c
 817 0403 0A       		.byte	0xa
 818 0404 57       		.byte	0x57
 819 0405 52040000 		.4byte	0x452
 820 0409 08       		.uleb128 0x8
 821 040a AC060000 		.4byte	.LASF61
 822 040e 0A       		.byte	0xa
 823 040f 58       		.byte	0x58
 824 0410 68020000 		.4byte	0x268
 825 0414 00       		.byte	0
 826 0415 08       		.uleb128 0x8
 827 0416 01060000 		.4byte	.LASF62
 828 041a 0A       		.byte	0xa
 829 041b 59       		.byte	0x59
 830 041c 09010000 		.4byte	0x109
 831 0420 08       		.byte	0x8
 832 0421 08       		.uleb128 0x8
 833 0422 D3040000 		.4byte	.LASF63
 834 0426 0A       		.byte	0xa
 835 0427 5B       		.byte	0x5b
 836 0428 1D030000 		.4byte	0x31d
 837 042c 0C       		.byte	0xc
 838 042d 08       		.uleb128 0x8
 839 042e C4030000 		.4byte	.LASF64
 840 0432 0A       		.byte	0xa
 841 0433 5E       		.byte	0x5e
 842 0434 62020000 		.4byte	0x262
 843 0438 10       		.byte	0x10
 844 0439 08       		.uleb128 0x8
 845 043a 1C050000 		.4byte	.LASF65
 846 043e 0A       		.byte	0xa
 847 043f 5F       		.byte	0x5f
 848 0440 62020000 		.4byte	0x262
 849 0444 14       		.byte	0x14
 850 0445 08       		.uleb128 0x8
 851 0446 12050000 		.4byte	.LASF66
 852 044a 0A       		.byte	0xa
 853 044b 62       		.byte	0x62
 854 044c 62020000 		.4byte	0x262
 855 0450 18       		.byte	0x18
ARM GAS  /tmp/ccqiC8Gj.s 			page 16


 856 0451 00       		.byte	0
 857 0452 03       		.uleb128 0x3
 858 0453 72080000 		.4byte	.LASF67
 859 0457 0A       		.byte	0xa
 860 0458 64       		.byte	0x64
 861 0459 01040000 		.4byte	0x401
 862 045d 0F       		.uleb128 0xf
 863 045e 85080000 		.4byte	.LASF69
 864 0462 0A       		.byte	0xa
 865 0463 68       		.byte	0x68
 866 0464 52040000 		.4byte	0x452
 867 0468 07       		.uleb128 0x7
 868 0469 06040000 		.4byte	.LASF70
 869 046d 10       		.byte	0x10
 870 046e 0B       		.byte	0xb
 871 046f 25       		.byte	0x25
 872 0470 99040000 		.4byte	0x499
 873 0474 08       		.uleb128 0x8
 874 0475 75010000 		.4byte	.LASF71
 875 0479 0B       		.byte	0xb
 876 047a 26       		.byte	0x26
 877 047b 68020000 		.4byte	0x268
 878 047f 00       		.byte	0
 879 0480 08       		.uleb128 0x8
 880 0481 49090000 		.4byte	.LASF72
 881 0485 0B       		.byte	0xb
 882 0486 28       		.byte	0x28
 883 0487 62020000 		.4byte	0x262
 884 048b 08       		.byte	0x8
 885 048c 08       		.uleb128 0x8
 886 048d 1F070000 		.4byte	.LASF73
 887 0491 0B       		.byte	0xb
 888 0492 2A       		.byte	0x2a
 889 0493 99040000 		.4byte	0x499
 890 0497 0C       		.byte	0xc
 891 0498 00       		.byte	0
 892 0499 0B       		.uleb128 0xb
 893 049a 04       		.byte	0x4
 894 049b 68040000 		.4byte	0x468
 895 049f 03       		.uleb128 0x3
 896 04a0 06040000 		.4byte	.LASF70
 897 04a4 0B       		.byte	0xb
 898 04a5 2C       		.byte	0x2c
 899 04a6 68040000 		.4byte	0x468
 900 04aa 03       		.uleb128 0x3
 901 04ab B1080000 		.4byte	.LASF74
 902 04af 0C       		.byte	0xc
 903 04b0 25       		.byte	0x25
 904 04b1 B5040000 		.4byte	0x4b5
 905 04b5 07       		.uleb128 0x7
 906 04b6 B1080000 		.4byte	.LASF74
 907 04ba 10       		.byte	0x10
 908 04bb 0C       		.byte	0xc
 909 04bc 2A       		.byte	0x2a
 910 04bd F2040000 		.4byte	0x4f2
 911 04c1 08       		.uleb128 0x8
 912 04c2 CC030000 		.4byte	.LASF75
ARM GAS  /tmp/ccqiC8Gj.s 			page 17


 913 04c6 0C       		.byte	0xc
 914 04c7 2B       		.byte	0x2b
 915 04c8 F2040000 		.4byte	0x4f2
 916 04cc 00       		.byte	0
 917 04cd 08       		.uleb128 0x8
 918 04ce BA050000 		.4byte	.LASF76
 919 04d2 0C       		.byte	0xc
 920 04d3 2E       		.byte	0x2e
 921 04d4 62020000 		.4byte	0x262
 922 04d8 04       		.byte	0x4
 923 04d9 08       		.uleb128 0x8
 924 04da 24050000 		.4byte	.LASF77
 925 04de 0C       		.byte	0xc
 926 04df 30       		.byte	0x30
 927 04e0 1F010000 		.4byte	0x11f
 928 04e4 08       		.byte	0x8
 929 04e5 08       		.uleb128 0x8
 930 04e6 C6050000 		.4byte	.LASF78
 931 04ea 0C       		.byte	0xc
 932 04eb 33       		.byte	0x33
 933 04ec 2A010000 		.4byte	0x12a
 934 04f0 0C       		.byte	0xc
 935 04f1 00       		.byte	0
 936 04f2 0B       		.uleb128 0xb
 937 04f3 04       		.byte	0x4
 938 04f4 AA040000 		.4byte	0x4aa
 939 04f8 07       		.uleb128 0x7
 940 04f9 D8020000 		.4byte	.LASF79
 941 04fd 04       		.byte	0x4
 942 04fe 0C       		.byte	0xc
 943 04ff 3A       		.byte	0x3a
 944 0500 11050000 		.4byte	0x511
 945 0504 08       		.uleb128 0x8
 946 0505 D8080000 		.4byte	.LASF80
 947 0509 0C       		.byte	0xc
 948 050a 3B       		.byte	0x3b
 949 050b F2040000 		.4byte	0x4f2
 950 050f 00       		.byte	0
 951 0510 00       		.byte	0
 952 0511 03       		.uleb128 0x3
 953 0512 D8020000 		.4byte	.LASF79
 954 0516 0C       		.byte	0xc
 955 0517 3E       		.byte	0x3e
 956 0518 F8040000 		.4byte	0x4f8
 957 051c 10       		.uleb128 0x10
 958 051d 04       		.byte	0x4
 959 051e 07       		.byte	0x7
 960 051f 8F       		.byte	0x8f
 961 0520 51050000 		.4byte	0x551
 962 0524 11       		.uleb128 0x11
 963 0525 27000000 		.4byte	.LASF81
 964 0529 07       		.byte	0x7
 965 052a 96       		.byte	0x96
 966 052b 14010000 		.4byte	0x114
 967 052f 11       		.uleb128 0x11
 968 0530 CD000000 		.4byte	.LASF82
 969 0534 07       		.byte	0x7
ARM GAS  /tmp/ccqiC8Gj.s 			page 18


 970 0535 9D       		.byte	0x9d
 971 0536 14010000 		.4byte	0x114
 972 053a 11       		.uleb128 0x11
 973 053b BF080000 		.4byte	.LASF83
 974 053f 07       		.byte	0x7
 975 0540 A4       		.byte	0xa4
 976 0541 A9020000 		.4byte	0x2a9
 977 0545 11       		.uleb128 0x11
 978 0546 11060000 		.4byte	.LASF84
 979 054a 07       		.byte	0x7
 980 054b AB       		.byte	0xab
 981 054c 1F010000 		.4byte	0x11f
 982 0550 00       		.byte	0
 983 0551 0B       		.uleb128 0xb
 984 0552 04       		.byte	0x4
 985 0553 5E050000 		.4byte	0x55e
 986 0557 04       		.uleb128 0x4
 987 0558 01       		.byte	0x1
 988 0559 08       		.byte	0x8
 989 055a F0060000 		.4byte	.LASF85
 990 055e 06       		.uleb128 0x6
 991 055f 57050000 		.4byte	0x557
 992 0563 0B       		.uleb128 0xb
 993 0564 04       		.byte	0x4
 994 0565 9F040000 		.4byte	0x49f
 995 0569 0B       		.uleb128 0xb
 996 056a 04       		.byte	0x4
 997 056b 6F050000 		.4byte	0x56f
 998 056f 12       		.uleb128 0x12
 999 0570 14010000 		.4byte	0x114
 1000 0574 7E050000 		.4byte	0x57e
 1001 0578 0E       		.uleb128 0xe
 1002 0579 A9020000 		.4byte	0x2a9
 1003 057d 00       		.byte	0
 1004 057e 0A       		.uleb128 0xa
 1005 057f 16       		.byte	0x16
 1006 0580 0D       		.byte	0xd
 1007 0581 25       		.byte	0x25
 1008 0582 5F060000 		.4byte	0x65f
 1009 0586 08       		.uleb128 0x8
 1010 0587 61030000 		.4byte	.LASF86
 1011 058b 0D       		.byte	0xd
 1012 058c 26       		.byte	0x26
 1013 058d 5F060000 		.4byte	0x65f
 1014 0591 00       		.byte	0
 1015 0592 08       		.uleb128 0x8
 1016 0593 24040000 		.4byte	.LASF87
 1017 0597 0D       		.byte	0xd
 1018 0598 27       		.byte	0x27
 1019 0599 A7000000 		.4byte	0xa7
 1020 059d 04       		.byte	0x4
 1021 059e 08       		.uleb128 0x8
 1022 059f 02050000 		.4byte	.LASF88
 1023 05a3 0D       		.byte	0xd
 1024 05a4 28       		.byte	0x28
 1025 05a5 A7000000 		.4byte	0xa7
 1026 05a9 05       		.byte	0x5
ARM GAS  /tmp/ccqiC8Gj.s 			page 19


 1027 05aa 08       		.uleb128 0x8
 1028 05ab 01090000 		.4byte	.LASF89
 1029 05af 0D       		.byte	0xd
 1030 05b0 29       		.byte	0x29
 1031 05b1 B7000000 		.4byte	0xb7
 1032 05b5 06       		.byte	0x6
 1033 05b6 08       		.uleb128 0x8
 1034 05b7 67050000 		.4byte	.LASF90
 1035 05bb 0D       		.byte	0xd
 1036 05bc 2A       		.byte	0x2a
 1037 05bd A7000000 		.4byte	0xa7
 1038 05c1 08       		.byte	0x8
 1039 05c2 08       		.uleb128 0x8
 1040 05c3 84040000 		.4byte	.LASF91
 1041 05c7 0D       		.byte	0xd
 1042 05c8 2B       		.byte	0x2b
 1043 05c9 A7000000 		.4byte	0xa7
 1044 05cd 09       		.byte	0x9
 1045 05ce 08       		.uleb128 0x8
 1046 05cf BF000000 		.4byte	.LASF92
 1047 05d3 0D       		.byte	0xd
 1048 05d4 2C       		.byte	0x2c
 1049 05d5 A7000000 		.4byte	0xa7
 1050 05d9 0A       		.byte	0xa
 1051 05da 08       		.uleb128 0x8
 1052 05db A0060000 		.4byte	.LASF93
 1053 05df 0D       		.byte	0xd
 1054 05e0 2D       		.byte	0x2d
 1055 05e1 A7000000 		.4byte	0xa7
 1056 05e5 0B       		.byte	0xb
 1057 05e6 08       		.uleb128 0x8
 1058 05e7 59080000 		.4byte	.LASF94
 1059 05eb 0D       		.byte	0xd
 1060 05ec 2E       		.byte	0x2e
 1061 05ed A7000000 		.4byte	0xa7
 1062 05f1 0C       		.byte	0xc
 1063 05f2 08       		.uleb128 0x8
 1064 05f3 53060000 		.4byte	.LASF95
 1065 05f7 0D       		.byte	0xd
 1066 05f8 2F       		.byte	0x2f
 1067 05f9 A7000000 		.4byte	0xa7
 1068 05fd 0D       		.byte	0xd
 1069 05fe 08       		.uleb128 0x8
 1070 05ff 00000000 		.4byte	.LASF96
 1071 0603 0D       		.byte	0xd
 1072 0604 30       		.byte	0x30
 1073 0605 A7000000 		.4byte	0xa7
 1074 0609 0E       		.byte	0xe
 1075 060a 08       		.uleb128 0x8
 1076 060b A7040000 		.4byte	.LASF97
 1077 060f 0D       		.byte	0xd
 1078 0610 31       		.byte	0x31
 1079 0611 A7000000 		.4byte	0xa7
 1080 0615 0F       		.byte	0xf
 1081 0616 08       		.uleb128 0x8
 1082 0617 47010000 		.4byte	.LASF98
 1083 061b 0D       		.byte	0xd
ARM GAS  /tmp/ccqiC8Gj.s 			page 20


 1084 061c 32       		.byte	0x32
 1085 061d A7000000 		.4byte	0xa7
 1086 0621 10       		.byte	0x10
 1087 0622 08       		.uleb128 0x8
 1088 0623 09010000 		.4byte	.LASF99
 1089 0627 0D       		.byte	0xd
 1090 0628 34       		.byte	0x34
 1091 0629 A7000000 		.4byte	0xa7
 1092 062d 11       		.byte	0x11
 1093 062e 08       		.uleb128 0x8
 1094 062f 60010000 		.4byte	.LASF100
 1095 0633 0D       		.byte	0xd
 1096 0634 35       		.byte	0x35
 1097 0635 A7000000 		.4byte	0xa7
 1098 0639 12       		.byte	0x12
 1099 063a 08       		.uleb128 0x8
 1100 063b 2C040000 		.4byte	.LASF101
 1101 063f 0D       		.byte	0xd
 1102 0640 36       		.byte	0x36
 1103 0641 A7000000 		.4byte	0xa7
 1104 0645 13       		.byte	0x13
 1105 0646 08       		.uleb128 0x8
 1106 0647 27060000 		.4byte	.LASF102
 1107 064b 0D       		.byte	0xd
 1108 064c 37       		.byte	0x37
 1109 064d A7000000 		.4byte	0xa7
 1110 0651 14       		.byte	0x14
 1111 0652 08       		.uleb128 0x8
 1112 0653 F5050000 		.4byte	.LASF103
 1113 0657 0D       		.byte	0xd
 1114 0658 39       		.byte	0x39
 1115 0659 A7000000 		.4byte	0xa7
 1116 065d 15       		.byte	0x15
 1117 065e 00       		.byte	0
 1118 065f 13       		.uleb128 0x13
 1119 0660 57050000 		.4byte	0x557
 1120 0664 6F060000 		.4byte	0x66f
 1121 0668 14       		.uleb128 0x14
 1122 0669 6F060000 		.4byte	0x66f
 1123 066d 03       		.byte	0x3
 1124 066e 00       		.byte	0
 1125 066f 04       		.uleb128 0x4
 1126 0670 04       		.byte	0x4
 1127 0671 07       		.byte	0x7
 1128 0672 5C040000 		.4byte	.LASF104
 1129 0676 03       		.uleb128 0x3
 1130 0677 14020000 		.4byte	.LASF105
 1131 067b 0D       		.byte	0xd
 1132 067c 3A       		.byte	0x3a
 1133 067d 7E050000 		.4byte	0x57e
 1134 0681 06       		.uleb128 0x6
 1135 0682 76060000 		.4byte	0x676
 1136 0686 0F       		.uleb128 0xf
 1137 0687 42030000 		.4byte	.LASF106
 1138 068b 0D       		.byte	0xd
 1139 068c 77       		.byte	0x77
 1140 068d 81060000 		.4byte	0x681
ARM GAS  /tmp/ccqiC8Gj.s 			page 21


 1141 0691 03       		.uleb128 0x3
 1142 0692 0C040000 		.4byte	.LASF107
 1143 0696 0E       		.byte	0xe
 1144 0697 30       		.byte	0x30
 1145 0698 9C060000 		.4byte	0x69c
 1146 069c 07       		.uleb128 0x7
 1147 069d 0C040000 		.4byte	.LASF107
 1148 06a1 24       		.byte	0x24
 1149 06a2 0E       		.byte	0xe
 1150 06a3 3E       		.byte	0x3e
 1151 06a4 09070000 		.4byte	0x709
 1152 06a8 08       		.uleb128 0x8
 1153 06a9 23010000 		.4byte	.LASF108
 1154 06ad 0E       		.byte	0xe
 1155 06ae 3F       		.byte	0x3f
 1156 06af 68020000 		.4byte	0x268
 1157 06b3 00       		.byte	0
 1158 06b4 08       		.uleb128 0x8
 1159 06b5 72040000 		.4byte	.LASF109
 1160 06b9 0E       		.byte	0xe
 1161 06ba 40       		.byte	0x40
 1162 06bb 2C000000 		.4byte	0x2c
 1163 06bf 08       		.byte	0x8
 1164 06c0 08       		.uleb128 0x8
 1165 06c1 FD010000 		.4byte	.LASF110
 1166 06c5 0E       		.byte	0xe
 1167 06c6 41       		.byte	0x41
 1168 06c7 2B070000 		.4byte	0x72b
 1169 06cb 0C       		.byte	0xc
 1170 06cc 08       		.uleb128 0x8
 1171 06cd 68000000 		.4byte	.LASF111
 1172 06d1 0E       		.byte	0xe
 1173 06d2 42       		.byte	0x42
 1174 06d3 2B070000 		.4byte	0x72b
 1175 06d7 10       		.byte	0x10
 1176 06d8 08       		.uleb128 0x8
 1177 06d9 CB040000 		.4byte	.LASF112
 1178 06dd 0E       		.byte	0xe
 1179 06de 44       		.byte	0x44
 1180 06df 2B070000 		.4byte	0x72b
 1181 06e3 14       		.byte	0x14
 1182 06e4 08       		.uleb128 0x8
 1183 06e5 8B050000 		.4byte	.LASF113
 1184 06e9 0E       		.byte	0xe
 1185 06ea 45       		.byte	0x45
 1186 06eb 2B070000 		.4byte	0x72b
 1187 06ef 18       		.byte	0x18
 1188 06f0 08       		.uleb128 0x8
 1189 06f1 7C080000 		.4byte	.LASF114
 1190 06f5 0E       		.byte	0xe
 1191 06f6 46       		.byte	0x46
 1192 06f7 09070000 		.4byte	0x709
 1193 06fb 1C       		.byte	0x1c
 1194 06fc 08       		.uleb128 0x8
 1195 06fd 30090000 		.4byte	.LASF115
 1196 0701 0E       		.byte	0xe
 1197 0702 47       		.byte	0x47
ARM GAS  /tmp/ccqiC8Gj.s 			page 22


 1198 0703 A9020000 		.4byte	0x2a9
 1199 0707 20       		.byte	0x20
 1200 0708 00       		.byte	0
 1201 0709 03       		.uleb128 0x3
 1202 070a 72050000 		.4byte	.LASF116
 1203 070e 0E       		.byte	0xe
 1204 070f 33       		.byte	0x33
 1205 0710 14070000 		.4byte	0x714
 1206 0714 0B       		.uleb128 0xb
 1207 0715 04       		.byte	0x4
 1208 0716 1A070000 		.4byte	0x71a
 1209 071a 0D       		.uleb128 0xd
 1210 071b 25070000 		.4byte	0x725
 1211 071f 0E       		.uleb128 0xe
 1212 0720 25070000 		.4byte	0x725
 1213 0724 00       		.byte	0
 1214 0725 0B       		.uleb128 0xb
 1215 0726 04       		.byte	0x4
 1216 0727 91060000 		.4byte	0x691
 1217 072b 0B       		.uleb128 0xb
 1218 072c 04       		.byte	0x4
 1219 072d A7000000 		.4byte	0xa7
 1220 0731 03       		.uleb128 0x3
 1221 0732 FB030000 		.4byte	.LASF117
 1222 0736 0E       		.byte	0xe
 1223 0737 7B       		.byte	0x7b
 1224 0738 91060000 		.4byte	0x691
 1225 073c 03       		.uleb128 0x3
 1226 073d 2E000000 		.4byte	.LASF118
 1227 0741 0E       		.byte	0xe
 1228 0742 EE       		.byte	0xee
 1229 0743 91060000 		.4byte	0x691
 1230 0747 12       		.uleb128 0x12
 1231 0748 2C000000 		.4byte	0x2c
 1232 074c 60070000 		.4byte	0x760
 1233 0750 0E       		.uleb128 0xe
 1234 0751 A9020000 		.4byte	0x2a9
 1235 0755 0E       		.uleb128 0xe
 1236 0756 60070000 		.4byte	0x760
 1237 075a 0E       		.uleb128 0xe
 1238 075b 2C000000 		.4byte	0x2c
 1239 075f 00       		.byte	0
 1240 0760 0B       		.uleb128 0xb
 1241 0761 04       		.byte	0x4
 1242 0762 B2000000 		.4byte	0xb2
 1243 0766 0B       		.uleb128 0xb
 1244 0767 04       		.byte	0x4
 1245 0768 47070000 		.4byte	0x747
 1246 076c 12       		.uleb128 0x12
 1247 076d 2C000000 		.4byte	0x2c
 1248 0771 85070000 		.4byte	0x785
 1249 0775 0E       		.uleb128 0xe
 1250 0776 A9020000 		.4byte	0x2a9
 1251 077a 0E       		.uleb128 0xe
 1252 077b 2B070000 		.4byte	0x72b
 1253 077f 0E       		.uleb128 0xe
 1254 0780 2C000000 		.4byte	0x2c
ARM GAS  /tmp/ccqiC8Gj.s 			page 23


 1255 0784 00       		.byte	0
 1256 0785 0B       		.uleb128 0xb
 1257 0786 04       		.byte	0x4
 1258 0787 6C070000 		.4byte	0x76c
 1259 078b 12       		.uleb128 0x12
 1260 078c 14010000 		.4byte	0x114
 1261 0790 9F070000 		.4byte	0x79f
 1262 0794 0E       		.uleb128 0xe
 1263 0795 A9020000 		.4byte	0x2a9
 1264 0799 0E       		.uleb128 0xe
 1265 079a A7000000 		.4byte	0xa7
 1266 079e 00       		.byte	0
 1267 079f 0B       		.uleb128 0xb
 1268 07a0 04       		.byte	0x4
 1269 07a1 8B070000 		.4byte	0x78b
 1270 07a5 13       		.uleb128 0x13
 1271 07a6 93020000 		.4byte	0x293
 1272 07aa B5070000 		.4byte	0x7b5
 1273 07ae 14       		.uleb128 0x14
 1274 07af 6F060000 		.4byte	0x66f
 1275 07b3 26       		.byte	0x26
 1276 07b4 00       		.byte	0
 1277 07b5 0F       		.uleb128 0xf
 1278 07b6 40020000 		.4byte	.LASF119
 1279 07ba 0F       		.byte	0xf
 1280 07bb 82       		.byte	0x82
 1281 07bc A5070000 		.4byte	0x7a5
 1282 07c0 07       		.uleb128 0x7
 1283 07c1 56000000 		.4byte	.LASF120
 1284 07c5 20       		.byte	0x20
 1285 07c6 10       		.byte	0x10
 1286 07c7 FD       		.byte	0xfd
 1287 07c8 33080000 		.4byte	0x833
 1288 07cc 08       		.uleb128 0x8
 1289 07cd 89020000 		.4byte	.LASF121
 1290 07d1 10       		.byte	0x10
 1291 07d2 FE       		.byte	0xfe
 1292 07d3 3E000000 		.4byte	0x3e
 1293 07d7 00       		.byte	0
 1294 07d8 08       		.uleb128 0x8
 1295 07d9 6B080000 		.4byte	.LASF122
 1296 07dd 10       		.byte	0x10
 1297 07de FF       		.byte	0xff
 1298 07df 3E000000 		.4byte	0x3e
 1299 07e3 04       		.byte	0x4
 1300 07e4 15       		.uleb128 0x15
 1301 07e5 0C090000 		.4byte	.LASF123
 1302 07e9 10       		.byte	0x10
 1303 07ea 0001     		.2byte	0x100
 1304 07ec 3E000000 		.4byte	0x3e
 1305 07f0 08       		.byte	0x8
 1306 07f1 15       		.uleb128 0x15
 1307 07f2 AD020000 		.4byte	.LASF124
 1308 07f6 10       		.byte	0x10
 1309 07f7 0101     		.2byte	0x101
 1310 07f9 3E000000 		.4byte	0x3e
 1311 07fd 0C       		.byte	0xc
ARM GAS  /tmp/ccqiC8Gj.s 			page 24


 1312 07fe 15       		.uleb128 0x15
 1313 07ff F9000000 		.4byte	.LASF125
 1314 0803 10       		.byte	0x10
 1315 0804 0201     		.2byte	0x102
 1316 0806 3E000000 		.4byte	0x3e
 1317 080a 10       		.byte	0x10
 1318 080b 15       		.uleb128 0x15
 1319 080c 65040000 		.4byte	.LASF126
 1320 0810 10       		.byte	0x10
 1321 0811 0301     		.2byte	0x103
 1322 0813 3E000000 		.4byte	0x3e
 1323 0817 14       		.byte	0x14
 1324 0818 15       		.uleb128 0x15
 1325 0819 DE010000 		.4byte	.LASF127
 1326 081d 10       		.byte	0x10
 1327 081e 0401     		.2byte	0x104
 1328 0820 3E000000 		.4byte	0x3e
 1329 0824 18       		.byte	0x18
 1330 0825 15       		.uleb128 0x15
 1331 0826 7C090000 		.4byte	.LASF128
 1332 082a 10       		.byte	0x10
 1333 082b 0501     		.2byte	0x105
 1334 082d 3E000000 		.4byte	0x3e
 1335 0831 1C       		.byte	0x1c
 1336 0832 00       		.byte	0
 1337 0833 16       		.uleb128 0x16
 1338 0834 56000000 		.4byte	.LASF120
 1339 0838 10       		.byte	0x10
 1340 0839 0801     		.2byte	0x108
 1341 083b C0070000 		.4byte	0x7c0
 1342 083f 12       		.uleb128 0x12
 1343 0840 14010000 		.4byte	0x114
 1344 0844 58080000 		.4byte	0x858
 1345 0848 0E       		.uleb128 0xe
 1346 0849 A9020000 		.4byte	0x2a9
 1347 084d 0E       		.uleb128 0xe
 1348 084e A7000000 		.4byte	0xa7
 1349 0852 0E       		.uleb128 0xe
 1350 0853 35010000 		.4byte	0x135
 1351 0857 00       		.byte	0
 1352 0858 0B       		.uleb128 0xb
 1353 0859 04       		.byte	0x4
 1354 085a 3F080000 		.4byte	0x83f
 1355 085e 12       		.uleb128 0x12
 1356 085f 14010000 		.4byte	0x114
 1357 0863 72080000 		.4byte	0x872
 1358 0867 0E       		.uleb128 0xe
 1359 0868 A9020000 		.4byte	0x2a9
 1360 086c 0E       		.uleb128 0xe
 1361 086d 35010000 		.4byte	0x135
 1362 0871 00       		.byte	0
 1363 0872 0B       		.uleb128 0xb
 1364 0873 04       		.byte	0x4
 1365 0874 5E080000 		.4byte	0x85e
 1366 0878 12       		.uleb128 0x12
 1367 0879 2C000000 		.4byte	0x2c
 1368 087d 96080000 		.4byte	0x896
ARM GAS  /tmp/ccqiC8Gj.s 			page 25


 1369 0881 0E       		.uleb128 0xe
 1370 0882 A9020000 		.4byte	0x2a9
 1371 0886 0E       		.uleb128 0xe
 1372 0887 60070000 		.4byte	0x760
 1373 088b 0E       		.uleb128 0xe
 1374 088c 2C000000 		.4byte	0x2c
 1375 0890 0E       		.uleb128 0xe
 1376 0891 35010000 		.4byte	0x135
 1377 0895 00       		.byte	0
 1378 0896 0B       		.uleb128 0xb
 1379 0897 04       		.byte	0x4
 1380 0898 78080000 		.4byte	0x878
 1381 089c 12       		.uleb128 0x12
 1382 089d 2C000000 		.4byte	0x2c
 1383 08a1 BA080000 		.4byte	0x8ba
 1384 08a5 0E       		.uleb128 0xe
 1385 08a6 A9020000 		.4byte	0x2a9
 1386 08aa 0E       		.uleb128 0xe
 1387 08ab 2B070000 		.4byte	0x72b
 1388 08af 0E       		.uleb128 0xe
 1389 08b0 2C000000 		.4byte	0x2c
 1390 08b4 0E       		.uleb128 0xe
 1391 08b5 35010000 		.4byte	0x135
 1392 08b9 00       		.byte	0
 1393 08ba 0B       		.uleb128 0xb
 1394 08bb 04       		.byte	0x4
 1395 08bc 9C080000 		.4byte	0x89c
 1396 08c0 0A       		.uleb128 0xa
 1397 08c1 18       		.byte	0x18
 1398 08c2 11       		.byte	0x11
 1399 08c3 2A       		.byte	0x2a
 1400 08c4 11090000 		.4byte	0x911
 1401 08c8 08       		.uleb128 0x8
 1402 08c9 93080000 		.4byte	.LASF129
 1403 08cd 11       		.byte	0x11
 1404 08ce 2F       		.byte	0x2f
 1405 08cf CD000000 		.4byte	0xcd
 1406 08d3 00       		.byte	0
 1407 08d4 08       		.uleb128 0x8
 1408 08d5 2C050000 		.4byte	.LASF130
 1409 08d9 11       		.byte	0x11
 1410 08da 31       		.byte	0x31
 1411 08db 11090000 		.4byte	0x911
 1412 08df 04       		.byte	0x4
 1413 08e0 08       		.uleb128 0x8
 1414 08e1 B1030000 		.4byte	.LASF131
 1415 08e5 11       		.byte	0x11
 1416 08e6 32       		.byte	0x32
 1417 08e7 11090000 		.4byte	0x911
 1418 08eb 08       		.byte	0x8
 1419 08ec 08       		.uleb128 0x8
 1420 08ed 38040000 		.4byte	.LASF132
 1421 08f1 11       		.byte	0x11
 1422 08f2 33       		.byte	0x33
 1423 08f3 11090000 		.4byte	0x911
 1424 08f7 0C       		.byte	0xc
 1425 08f8 08       		.uleb128 0x8
ARM GAS  /tmp/ccqiC8Gj.s 			page 26


 1426 08f9 32050000 		.4byte	.LASF133
 1427 08fd 11       		.byte	0x11
 1428 08fe 34       		.byte	0x34
 1429 08ff 11090000 		.4byte	0x911
 1430 0903 10       		.byte	0x10
 1431 0904 08       		.uleb128 0x8
 1432 0905 08060000 		.4byte	.LASF134
 1433 0909 11       		.byte	0x11
 1434 090a 35       		.byte	0x35
 1435 090b 37000000 		.4byte	0x37
 1436 090f 14       		.byte	0x14
 1437 0910 00       		.byte	0
 1438 0911 0B       		.uleb128 0xb
 1439 0912 04       		.byte	0x4
 1440 0913 D8000000 		.4byte	0xd8
 1441 0917 03       		.uleb128 0x3
 1442 0918 A5030000 		.4byte	.LASF135
 1443 091c 11       		.byte	0x11
 1444 091d 37       		.byte	0x37
 1445 091e C0080000 		.4byte	0x8c0
 1446 0922 17       		.uleb128 0x17
 1447 0923 00       		.byte	0
 1448 0924 11       		.byte	0x11
 1449 0925 43       		.byte	0x43
 1450 0926 03       		.uleb128 0x3
 1451 0927 3F090000 		.4byte	.LASF136
 1452 092b 11       		.byte	0x11
 1453 092c 45       		.byte	0x45
 1454 092d 22090000 		.4byte	0x922
 1455 0931 06       		.uleb128 0x6
 1456 0932 26090000 		.4byte	0x926
 1457 0936 0F       		.uleb128 0xf
 1458 0937 0A050000 		.4byte	.LASF137
 1459 093b 11       		.byte	0x11
 1460 093c 6D       		.byte	0x6d
 1461 093d 17090000 		.4byte	0x917
 1462 0941 0F       		.uleb128 0xf
 1463 0942 1F060000 		.4byte	.LASF138
 1464 0946 11       		.byte	0x11
 1465 0947 6E       		.byte	0x6e
 1466 0948 17090000 		.4byte	0x917
 1467 094c 0F       		.uleb128 0xf
 1468 094d 51090000 		.4byte	.LASF139
 1469 0951 11       		.byte	0x11
 1470 0952 75       		.byte	0x75
 1471 0953 31090000 		.4byte	0x931
 1472 0957 18       		.uleb128 0x18
 1473 0958 01       		.byte	0x1
 1474 0959 55000000 		.4byte	0x55
 1475 095d 12       		.byte	0x12
 1476 095e 54       		.byte	0x54
 1477 095f 88090000 		.4byte	0x988
 1478 0963 19       		.uleb128 0x19
 1479 0964 AA010000 		.4byte	.LASF140
 1480 0968 00       		.byte	0
 1481 0969 19       		.uleb128 0x19
 1482 096a 53040000 		.4byte	.LASF141
ARM GAS  /tmp/ccqiC8Gj.s 			page 27


 1483 096e 01       		.byte	0x1
 1484 096f 19       		.uleb128 0x19
 1485 0970 45070000 		.4byte	.LASF142
 1486 0974 02       		.byte	0x2
 1487 0975 19       		.uleb128 0x19
 1488 0976 1E020000 		.4byte	.LASF143
 1489 097a 03       		.byte	0x3
 1490 097b 19       		.uleb128 0x19
 1491 097c DD060000 		.4byte	.LASF144
 1492 0980 04       		.byte	0x4
 1493 0981 19       		.uleb128 0x19
 1494 0982 60060000 		.4byte	.LASF145
 1495 0986 05       		.byte	0x5
 1496 0987 00       		.byte	0
 1497 0988 03       		.uleb128 0x3
 1498 0989 5C050000 		.4byte	.LASF146
 1499 098d 12       		.byte	0x12
 1500 098e 5B       		.byte	0x5b
 1501 098f 57090000 		.4byte	0x957
 1502 0993 03       		.uleb128 0x3
 1503 0994 4F070000 		.4byte	.LASF147
 1504 0998 13       		.byte	0x13
 1505 0999 38       		.byte	0x38
 1506 099a 9E090000 		.4byte	0x99e
 1507 099e 07       		.uleb128 0x7
 1508 099f 4F070000 		.4byte	.LASF147
 1509 09a3 40       		.byte	0x40
 1510 09a4 13       		.byte	0x13
 1511 09a5 62       		.byte	0x62
 1512 09a6 470A0000 		.4byte	0xa47
 1513 09aa 08       		.uleb128 0x8
 1514 09ab BF010000 		.4byte	.LASF148
 1515 09af 13       		.byte	0x13
 1516 09b0 64       		.byte	0x64
 1517 09b1 88090000 		.4byte	0x988
 1518 09b5 00       		.byte	0
 1519 09b6 08       		.uleb128 0x8
 1520 09b7 02070000 		.4byte	.LASF149
 1521 09bb 13       		.byte	0x13
 1522 09bc 66       		.byte	0x66
 1523 09bd 820A0000 		.4byte	0xa82
 1524 09c1 04       		.byte	0x4
 1525 09c2 08       		.uleb128 0x8
 1526 09c3 0F030000 		.4byte	.LASF150
 1527 09c7 13       		.byte	0x13
 1528 09c8 68       		.byte	0x68
 1529 09c9 470A0000 		.4byte	0xa47
 1530 09cd 08       		.byte	0x8
 1531 09ce 08       		.uleb128 0x8
 1532 09cf 1C010000 		.4byte	.LASF151
 1533 09d3 13       		.byte	0x13
 1534 09d4 6A       		.byte	0x6a
 1535 09d5 880A0000 		.4byte	0xa88
 1536 09d9 0C       		.byte	0xc
 1537 09da 08       		.uleb128 0x8
 1538 09db 9E050000 		.4byte	.LASF152
 1539 09df 13       		.byte	0x13
ARM GAS  /tmp/ccqiC8Gj.s 			page 28


 1540 09e0 6D       		.byte	0x6d
 1541 09e1 9F040000 		.4byte	0x49f
 1542 09e5 10       		.byte	0x10
 1543 09e6 08       		.uleb128 0x8
 1544 09e7 D7010000 		.4byte	.LASF153
 1545 09eb 13       		.byte	0x13
 1546 09ec 77       		.byte	0x77
 1547 09ed 62020000 		.4byte	0x262
 1548 09f1 20       		.byte	0x20
 1549 09f2 08       		.uleb128 0x8
 1550 09f3 95010000 		.4byte	.LASF154
 1551 09f7 13       		.byte	0x13
 1552 09f8 7B       		.byte	0x7b
 1553 09f9 520A0000 		.4byte	0xa52
 1554 09fd 24       		.byte	0x24
 1555 09fe 08       		.uleb128 0x8
 1556 09ff F9020000 		.4byte	.LASF155
 1557 0a03 13       		.byte	0x13
 1558 0a04 7F       		.byte	0x7f
 1559 0a05 60070000 		.4byte	0x760
 1560 0a09 28       		.byte	0x28
 1561 0a0a 08       		.uleb128 0x8
 1562 0a0b 74090000 		.4byte	.LASF156
 1563 0a0f 13       		.byte	0x13
 1564 0a10 83       		.byte	0x83
 1565 0a11 2C000000 		.4byte	0x2c
 1566 0a15 2C       		.byte	0x2c
 1567 0a16 08       		.uleb128 0x8
 1568 0a17 53080000 		.4byte	.LASF157
 1569 0a1b 13       		.byte	0x13
 1570 0a1c 87       		.byte	0x87
 1571 0a1d 2C000000 		.4byte	0x2c
 1572 0a21 30       		.byte	0x30
 1573 0a22 08       		.uleb128 0x8
 1574 0a23 62000000 		.4byte	.LASF158
 1575 0a27 13       		.byte	0x13
 1576 0a28 8B       		.byte	0x8b
 1577 0a29 2B070000 		.4byte	0x72b
 1578 0a2d 34       		.byte	0x34
 1579 0a2e 08       		.uleb128 0x8
 1580 0a2f C3040000 		.4byte	.LASF159
 1581 0a33 13       		.byte	0x13
 1582 0a34 8F       		.byte	0x8f
 1583 0a35 2C000000 		.4byte	0x2c
 1584 0a39 38       		.byte	0x38
 1585 0a3a 08       		.uleb128 0x8
 1586 0a3b F7010000 		.4byte	.LASF160
 1587 0a3f 13       		.byte	0x13
 1588 0a40 93       		.byte	0x93
 1589 0a41 2C000000 		.4byte	0x2c
 1590 0a45 3C       		.byte	0x3c
 1591 0a46 00       		.byte	0
 1592 0a47 03       		.uleb128 0x3
 1593 0a48 93050000 		.4byte	.LASF161
 1594 0a4c 13       		.byte	0x13
 1595 0a4d 42       		.byte	0x42
 1596 0a4e CD000000 		.4byte	0xcd
ARM GAS  /tmp/ccqiC8Gj.s 			page 29


 1597 0a52 03       		.uleb128 0x3
 1598 0a53 B5010000 		.4byte	.LASF162
 1599 0a57 13       		.byte	0x13
 1600 0a58 48       		.byte	0x48
 1601 0a59 B7000000 		.4byte	0xb7
 1602 0a5d 0A       		.uleb128 0xa
 1603 0a5e 04       		.byte	0x4
 1604 0a5f 13       		.byte	0x13
 1605 0a60 57       		.byte	0x57
 1606 0a61 720A0000 		.4byte	0xa72
 1607 0a65 08       		.uleb128 0x8
 1608 0a66 9E040000 		.4byte	.LASF163
 1609 0a6a 13       		.byte	0x13
 1610 0a6b 59       		.byte	0x59
 1611 0a6c CD000000 		.4byte	0xcd
 1612 0a70 00       		.byte	0
 1613 0a71 00       		.byte	0
 1614 0a72 03       		.uleb128 0x3
 1615 0a73 3F080000 		.4byte	.LASF164
 1616 0a77 13       		.byte	0x13
 1617 0a78 5B       		.byte	0x5b
 1618 0a79 5D0A0000 		.4byte	0xa5d
 1619 0a7d 06       		.uleb128 0x6
 1620 0a7e 720A0000 		.4byte	0xa72
 1621 0a82 0B       		.uleb128 0xb
 1622 0a83 04       		.byte	0x4
 1623 0a84 7D0A0000 		.4byte	0xa7d
 1624 0a88 0B       		.uleb128 0xb
 1625 0a89 04       		.byte	0x4
 1626 0a8a 33080000 		.4byte	0x833
 1627 0a8e 0F       		.uleb128 0xf
 1628 0a8f D3020000 		.4byte	.LASF165
 1629 0a93 13       		.byte	0x13
 1630 0a94 A6       		.byte	0xa6
 1631 0a95 93090000 		.4byte	0x993
 1632 0a99 18       		.uleb128 0x18
 1633 0a9a 01       		.byte	0x1
 1634 0a9b 55000000 		.4byte	0x55
 1635 0a9f 14       		.byte	0x14
 1636 0aa0 5D       		.byte	0x5d
 1637 0aa1 B80A0000 		.4byte	0xab8
 1638 0aa5 19       		.uleb128 0x19
 1639 0aa6 8D060000 		.4byte	.LASF166
 1640 0aaa 00       		.byte	0
 1641 0aab 19       		.uleb128 0x19
 1642 0aac 6D010000 		.4byte	.LASF167
 1643 0ab0 01       		.byte	0x1
 1644 0ab1 19       		.uleb128 0x19
 1645 0ab2 0E080000 		.4byte	.LASF168
 1646 0ab6 02       		.byte	0x2
 1647 0ab7 00       		.byte	0
 1648 0ab8 03       		.uleb128 0x3
 1649 0ab9 49080000 		.4byte	.LASF169
 1650 0abd 14       		.byte	0x14
 1651 0abe 61       		.byte	0x61
 1652 0abf 990A0000 		.4byte	0xa99
 1653 0ac3 03       		.uleb128 0x3
ARM GAS  /tmp/ccqiC8Gj.s 			page 30


 1654 0ac4 D0060000 		.4byte	.LASF170
 1655 0ac8 14       		.byte	0x14
 1656 0ac9 66       		.byte	0x66
 1657 0aca CE0A0000 		.4byte	0xace
 1658 0ace 07       		.uleb128 0x7
 1659 0acf D0060000 		.4byte	.LASF170
 1660 0ad3 74       		.byte	0x74
 1661 0ad4 14       		.byte	0x14
 1662 0ad5 80       		.byte	0x80
 1663 0ad6 2D0B0000 		.4byte	0xb2d
 1664 0ada 09       		.uleb128 0x9
 1665 0adb 766D7400 		.ascii	"vmt\000"
 1666 0adf 14       		.byte	0x14
 1667 0ae0 82       		.byte	0x82
 1668 0ae1 AA0B0000 		.4byte	0xbaa
 1669 0ae5 00       		.byte	0
 1670 0ae6 08       		.uleb128 0x8
 1671 0ae7 84030000 		.4byte	.LASF171
 1672 0aeb 14       		.byte	0x14
 1673 0aec 83       		.byte	0x83
 1674 0aed 11050000 		.4byte	0x511
 1675 0af1 04       		.byte	0x4
 1676 0af2 08       		.uleb128 0x8
 1677 0af3 BF010000 		.4byte	.LASF148
 1678 0af7 14       		.byte	0x14
 1679 0af8 83       		.byte	0x83
 1680 0af9 B80A0000 		.4byte	0xab8
 1681 0afd 08       		.byte	0x8
 1682 0afe 08       		.uleb128 0x8
 1683 0aff 29030000 		.4byte	.LASF172
 1684 0b03 14       		.byte	0x14
 1685 0b04 83       		.byte	0x83
 1686 0b05 31070000 		.4byte	0x731
 1687 0b09 0C       		.byte	0xc
 1688 0b0a 08       		.uleb128 0x8
 1689 0b0b BD030000 		.4byte	.LASF173
 1690 0b0f 14       		.byte	0x14
 1691 0b10 83       		.byte	0x83
 1692 0b11 3C070000 		.4byte	0x73c
 1693 0b15 30       		.byte	0x30
 1694 0b16 09       		.uleb128 0x9
 1695 0b17 696200   		.ascii	"ib\000"
 1696 0b1a 14       		.byte	0x14
 1697 0b1b 83       		.byte	0x83
 1698 0b1c B00B0000 		.4byte	0xbb0
 1699 0b20 54       		.byte	0x54
 1700 0b21 09       		.uleb128 0x9
 1701 0b22 6F6200   		.ascii	"ob\000"
 1702 0b25 14       		.byte	0x14
 1703 0b26 83       		.byte	0x83
 1704 0b27 B00B0000 		.4byte	0xbb0
 1705 0b2b 64       		.byte	0x64
 1706 0b2c 00       		.byte	0
 1707 0b2d 1A       		.uleb128 0x1a
 1708 0b2e 53443100 		.ascii	"SD1\000"
 1709 0b32 18       		.byte	0x18
 1710 0b33 62       		.byte	0x62
ARM GAS  /tmp/ccqiC8Gj.s 			page 31


 1711 0b34 C30A0000 		.4byte	0xac3
 1712 0b38 07       		.uleb128 0x7
 1713 0b39 FF020000 		.4byte	.LASF174
 1714 0b3d 20       		.byte	0x20
 1715 0b3e 14       		.byte	0x14
 1716 0b3f 75       		.byte	0x75
 1717 0b40 A50B0000 		.4byte	0xba5
 1718 0b44 08       		.uleb128 0x8
 1719 0b45 9A010000 		.4byte	.LASF175
 1720 0b49 14       		.byte	0x14
 1721 0b4a 76       		.byte	0x76
 1722 0b4b 66070000 		.4byte	0x766
 1723 0b4f 00       		.byte	0
 1724 0b50 08       		.uleb128 0x8
 1725 0b51 EB060000 		.4byte	.LASF176
 1726 0b55 14       		.byte	0x14
 1727 0b56 76       		.byte	0x76
 1728 0b57 85070000 		.4byte	0x785
 1729 0b5b 04       		.byte	0x4
 1730 0b5c 09       		.uleb128 0x9
 1731 0b5d 70757400 		.ascii	"put\000"
 1732 0b61 14       		.byte	0x14
 1733 0b62 76       		.byte	0x76
 1734 0b63 9F070000 		.4byte	0x79f
 1735 0b67 08       		.byte	0x8
 1736 0b68 09       		.uleb128 0x9
 1737 0b69 67657400 		.ascii	"get\000"
 1738 0b6d 14       		.byte	0x14
 1739 0b6e 76       		.byte	0x76
 1740 0b6f 69050000 		.4byte	0x569
 1741 0b73 0C       		.byte	0xc
 1742 0b74 08       		.uleb128 0x8
 1743 0b75 46040000 		.4byte	.LASF177
 1744 0b79 14       		.byte	0x14
 1745 0b7a 76       		.byte	0x76
 1746 0b7b 58080000 		.4byte	0x858
 1747 0b7f 10       		.byte	0x10
 1748 0b80 08       		.uleb128 0x8
 1749 0b81 53030000 		.4byte	.LASF178
 1750 0b85 14       		.byte	0x14
 1751 0b86 76       		.byte	0x76
 1752 0b87 72080000 		.4byte	0x872
 1753 0b8b 14       		.byte	0x14
 1754 0b8c 08       		.uleb128 0x8
 1755 0b8d D4030000 		.4byte	.LASF179
 1756 0b91 14       		.byte	0x14
 1757 0b92 76       		.byte	0x76
 1758 0b93 96080000 		.4byte	0x896
 1759 0b97 18       		.byte	0x18
 1760 0b98 08       		.uleb128 0x8
 1761 0b99 16010000 		.4byte	.LASF180
 1762 0b9d 14       		.byte	0x14
 1763 0b9e 76       		.byte	0x76
 1764 0b9f BA080000 		.4byte	0x8ba
 1765 0ba3 1C       		.byte	0x1c
 1766 0ba4 00       		.byte	0
 1767 0ba5 06       		.uleb128 0x6
ARM GAS  /tmp/ccqiC8Gj.s 			page 32


 1768 0ba6 380B0000 		.4byte	0xb38
 1769 0baa 0B       		.uleb128 0xb
 1770 0bab 04       		.byte	0x4
 1771 0bac A50B0000 		.4byte	0xba5
 1772 0bb0 13       		.uleb128 0x13
 1773 0bb1 A7000000 		.4byte	0xa7
 1774 0bb5 C00B0000 		.4byte	0xbc0
 1775 0bb9 14       		.uleb128 0x14
 1776 0bba 6F060000 		.4byte	0x66f
 1777 0bbe 0F       		.byte	0xf
 1778 0bbf 00       		.byte	0
 1779 0bc0 18       		.uleb128 0x18
 1780 0bc1 01       		.byte	0x1
 1781 0bc2 55000000 		.4byte	0x55
 1782 0bc6 15       		.byte	0x15
 1783 0bc7 4E       		.byte	0x4e
 1784 0bc8 EB0B0000 		.4byte	0xbeb
 1785 0bcc 19       		.uleb128 0x19
 1786 0bcd 21080000 		.4byte	.LASF181
 1787 0bd1 00       		.byte	0
 1788 0bd2 19       		.uleb128 0x19
 1789 0bd3 57010000 		.4byte	.LASF182
 1790 0bd7 01       		.byte	0x1
 1791 0bd8 19       		.uleb128 0x19
 1792 0bd9 17080000 		.4byte	.LASF183
 1793 0bdd 02       		.byte	0x2
 1794 0bde 19       		.uleb128 0x19
 1795 0bdf 44000000 		.4byte	.LASF184
 1796 0be3 03       		.byte	0x3
 1797 0be4 19       		.uleb128 0x19
 1798 0be5 F5060000 		.4byte	.LASF185
 1799 0be9 04       		.byte	0x4
 1800 0bea 00       		.byte	0
 1801 0beb 03       		.uleb128 0x3
 1802 0bec 14070000 		.4byte	.LASF186
 1803 0bf0 15       		.byte	0x15
 1804 0bf1 54       		.byte	0x54
 1805 0bf2 C00B0000 		.4byte	0xbc0
 1806 0bf6 03       		.uleb128 0x3
 1807 0bf7 EF000000 		.4byte	.LASF187
 1808 0bfb 16       		.byte	0x16
 1809 0bfc 35       		.byte	0x35
 1810 0bfd 010C0000 		.4byte	0xc01
 1811 0c01 07       		.uleb128 0x7
 1812 0c02 EF000000 		.4byte	.LASF187
 1813 0c06 28       		.byte	0x28
 1814 0c07 16       		.byte	0x16
 1815 0c08 7C       		.byte	0x7c
 1816 0c09 620C0000 		.4byte	0xc62
 1817 0c0d 08       		.uleb128 0x8
 1818 0c0e BF010000 		.4byte	.LASF148
 1819 0c12 16       		.byte	0x16
 1820 0c13 80       		.byte	0x80
 1821 0c14 EB0B0000 		.4byte	0xbeb
 1822 0c18 00       		.byte	0
 1823 0c19 08       		.uleb128 0x8
 1824 0c1a 02070000 		.4byte	.LASF149
ARM GAS  /tmp/ccqiC8Gj.s 			page 33


 1825 0c1e 16       		.byte	0x16
 1826 0c1f 84       		.byte	0x84
 1827 0c20 090D0000 		.4byte	0xd09
 1828 0c24 04       		.byte	0x4
 1829 0c25 08       		.uleb128 0x8
 1830 0c26 D7010000 		.4byte	.LASF153
 1831 0c2a 16       		.byte	0x16
 1832 0c2b 89       		.byte	0x89
 1833 0c2c 62020000 		.4byte	0x262
 1834 0c30 08       		.byte	0x8
 1835 0c31 08       		.uleb128 0x8
 1836 0c32 9E050000 		.4byte	.LASF152
 1837 0c36 16       		.byte	0x16
 1838 0c37 90       		.byte	0x90
 1839 0c38 9F040000 		.4byte	0x49f
 1840 0c3c 0C       		.byte	0xc
 1841 0c3d 08       		.uleb128 0x8
 1842 0c3e 62000000 		.4byte	.LASF158
 1843 0c42 16       		.byte	0x16
 1844 0c43 98       		.byte	0x98
 1845 0c44 A9020000 		.4byte	0x2a9
 1846 0c48 1C       		.byte	0x1c
 1847 0c49 08       		.uleb128 0x8
 1848 0c4a F9020000 		.4byte	.LASF155
 1849 0c4e 16       		.byte	0x16
 1850 0c4f 9D       		.byte	0x9d
 1851 0c50 0F0D0000 		.4byte	0xd0f
 1852 0c54 20       		.byte	0x20
 1853 0c55 08       		.uleb128 0x8
 1854 0c56 57020000 		.4byte	.LASF188
 1855 0c5a 16       		.byte	0x16
 1856 0c5b A2       		.byte	0xa2
 1857 0c5c 2C000000 		.4byte	0x2c
 1858 0c60 24       		.byte	0x24
 1859 0c61 00       		.byte	0
 1860 0c62 03       		.uleb128 0x3
 1861 0c63 C5020000 		.4byte	.LASF189
 1862 0c67 16       		.byte	0x16
 1863 0c68 3D       		.byte	0x3d
 1864 0c69 6D0C0000 		.4byte	0xc6d
 1865 0c6d 0B       		.uleb128 0xb
 1866 0c6e 04       		.byte	0x4
 1867 0c6f 730C0000 		.4byte	0xc73
 1868 0c73 0D       		.uleb128 0xd
 1869 0c74 7E0C0000 		.4byte	0xc7e
 1870 0c78 0E       		.uleb128 0xe
 1871 0c79 7E0C0000 		.4byte	0xc7e
 1872 0c7d 00       		.byte	0
 1873 0c7e 0B       		.uleb128 0xb
 1874 0c7f 04       		.byte	0x4
 1875 0c80 F60B0000 		.4byte	0xbf6
 1876 0c84 0A       		.uleb128 0xa
 1877 0c85 10       		.byte	0x10
 1878 0c86 16       		.byte	0x16
 1879 0c87 44       		.byte	0x44
 1880 0c88 F90C0000 		.4byte	0xcf9
 1881 0c8c 08       		.uleb128 0x8
ARM GAS  /tmp/ccqiC8Gj.s 			page 34


 1882 0c8d 50020000 		.4byte	.LASF190
 1883 0c91 16       		.byte	0x16
 1884 0c92 48       		.byte	0x48
 1885 0c93 620C0000 		.4byte	0xc62
 1886 0c97 00       		.byte	0
 1887 0c98 08       		.uleb128 0x8
 1888 0c99 3B050000 		.4byte	.LASF191
 1889 0c9d 16       		.byte	0x16
 1890 0c9e 4F       		.byte	0x4f
 1891 0c9f A7000000 		.4byte	0xa7
 1892 0ca3 04       		.byte	0x4
 1893 0ca4 08       		.uleb128 0x8
 1894 0ca5 48050000 		.4byte	.LASF192
 1895 0ca9 16       		.byte	0x16
 1896 0caa 52       		.byte	0x52
 1897 0cab A7000000 		.4byte	0xa7
 1898 0caf 05       		.byte	0x5
 1899 0cb0 08       		.uleb128 0x8
 1900 0cb1 6F030000 		.4byte	.LASF193
 1901 0cb5 16       		.byte	0x16
 1902 0cb6 58       		.byte	0x58
 1903 0cb7 A7000000 		.4byte	0xa7
 1904 0cbb 06       		.byte	0x6
 1905 0cbc 08       		.uleb128 0x8
 1906 0cbd 5D020000 		.4byte	.LASF194
 1907 0cc1 16       		.byte	0x16
 1908 0cc2 5E       		.byte	0x5e
 1909 0cc3 A7000000 		.4byte	0xa7
 1910 0cc7 07       		.byte	0x7
 1911 0cc8 08       		.uleb128 0x8
 1912 0cc9 73020000 		.4byte	.LASF195
 1913 0ccd 16       		.byte	0x16
 1914 0cce 64       		.byte	0x64
 1915 0ccf A7000000 		.4byte	0xa7
 1916 0cd3 08       		.byte	0x8
 1917 0cd4 08       		.uleb128 0x8
 1918 0cd5 E8010000 		.4byte	.LASF196
 1919 0cd9 16       		.byte	0x16
 1920 0cda 6A       		.byte	0x6a
 1921 0cdb A7000000 		.4byte	0xa7
 1922 0cdf 09       		.byte	0x9
 1923 0ce0 08       		.uleb128 0x8
 1924 0ce1 2C020000 		.4byte	.LASF197
 1925 0ce5 16       		.byte	0x16
 1926 0ce6 70       		.byte	0x70
 1927 0ce7 A7000000 		.4byte	0xa7
 1928 0ceb 0A       		.byte	0xa
 1929 0cec 08       		.uleb128 0x8
 1930 0ced 45060000 		.4byte	.LASF198
 1931 0cf1 16       		.byte	0x16
 1932 0cf2 73       		.byte	0x73
 1933 0cf3 CD000000 		.4byte	0xcd
 1934 0cf7 0C       		.byte	0xc
 1935 0cf8 00       		.byte	0
 1936 0cf9 03       		.uleb128 0x3
 1937 0cfa E0080000 		.4byte	.LASF199
 1938 0cfe 16       		.byte	0x16
ARM GAS  /tmp/ccqiC8Gj.s 			page 35


 1939 0cff 75       		.byte	0x75
 1940 0d00 840C0000 		.4byte	0xc84
 1941 0d04 06       		.uleb128 0x6
 1942 0d05 F90C0000 		.4byte	0xcf9
 1943 0d09 0B       		.uleb128 0xb
 1944 0d0a 04       		.byte	0x4
 1945 0d0b 040D0000 		.4byte	0xd04
 1946 0d0f 0B       		.uleb128 0xb
 1947 0d10 04       		.byte	0x4
 1948 0d11 150D0000 		.4byte	0xd15
 1949 0d15 1B       		.uleb128 0x1b
 1950 0d16 0F       		.uleb128 0xf
 1951 0d17 0F020000 		.4byte	.LASF200
 1952 0d1b 16       		.byte	0x16
 1953 0d1c B6       		.byte	0xb6
 1954 0d1d F60B0000 		.4byte	0xbf6
 1955 0d21 1C       		.uleb128 0x1c
 1956 0d22 6B060000 		.4byte	.LASF218
 1957 0d26 01       		.byte	0x1
 1958 0d27 A4       		.byte	0xa4
 1959 0d28 CD000000 		.4byte	0xcd
 1960 0d2c 00000000 		.4byte	.LFB14
 1961 0d30 18000000 		.4byte	.LFE14-.LFB14
 1962 0d34 01       		.uleb128 0x1
 1963 0d35 9C       		.byte	0x9c
 1964 0d36 1D       		.uleb128 0x1d
 1965 0d37 90040000 		.4byte	.LASF219
 1966 0d3b 01       		.byte	0x1
 1967 0d3c 9C       		.byte	0x9c
 1968 0d3d 00000000 		.4byte	.LFB13
 1969 0d41 18000000 		.4byte	.LFE13-.LFB13
 1970 0d45 01       		.uleb128 0x1
 1971 0d46 9C       		.byte	0x9c
 1972 0d47 1E       		.uleb128 0x1e
 1973 0d48 C1060000 		.4byte	.LASF203
 1974 0d4c 01       		.byte	0x1
 1975 0d4d 8D       		.byte	0x8d
 1976 0d4e 00000000 		.4byte	.LFB12
 1977 0d52 34000000 		.4byte	.LFE12-.LFB12
 1978 0d56 01       		.uleb128 0x1
 1979 0d57 9C       		.byte	0x9c
 1980 0d58 880D0000 		.4byte	0xd88
 1981 0d5c 1F       		.uleb128 0x1f
 1982 0d5d 4B030000 		.4byte	.LASF206
 1983 0d61 01       		.byte	0x1
 1984 0d62 8D       		.byte	0x8d
 1985 0d63 CD000000 		.4byte	0xcd
 1986 0d67 00000000 		.4byte	.LLST1
 1987 0d6b 20       		.uleb128 0x20
 1988 0d6c 37090000 		.4byte	.LASF201
 1989 0d70 01       		.byte	0x1
 1990 0d71 90       		.byte	0x90
 1991 0d72 CD000000 		.4byte	0xcd
 1992 0d76 21000000 		.4byte	.LLST2
 1993 0d7a 21       		.uleb128 0x21
 1994 0d7b 3E040000 		.4byte	.LASF202
 1995 0d7f 01       		.byte	0x1
ARM GAS  /tmp/ccqiC8Gj.s 			page 36


 1996 0d80 93       		.byte	0x93
 1997 0d81 CD000000 		.4byte	0xcd
 1998 0d85 01       		.uleb128 0x1
 1999 0d86 50       		.byte	0x50
 2000 0d87 00       		.byte	0
 2001 0d88 1E       		.uleb128 0x1e
 2002 0d89 EF070000 		.4byte	.LASF204
 2003 0d8d 01       		.byte	0x1
 2004 0d8e 86       		.byte	0x86
 2005 0d8f 00000000 		.4byte	.LFB11
 2006 0d93 50000000 		.4byte	.LFE11-.LFB11
 2007 0d97 01       		.uleb128 0x1
 2008 0d98 9C       		.byte	0x9c
 2009 0d99 AD0D0000 		.4byte	0xdad
 2010 0d9d 22       		.uleb128 0x22
 2011 0d9e 330E0000 		.4byte	0xe33
 2012 0da2 04000000 		.4byte	.LBB10
 2013 0da6 4C000000 		.4byte	.LBE10-.LBB10
 2014 0daa 01       		.byte	0x1
 2015 0dab 87       		.byte	0x87
 2016 0dac 00       		.byte	0
 2017 0dad 1E       		.uleb128 0x1e
 2018 0dae 1E090000 		.4byte	.LASF205
 2019 0db2 01       		.byte	0x1
 2020 0db3 7B       		.byte	0x7b
 2021 0db4 00000000 		.4byte	.LFB10
 2022 0db8 24000000 		.4byte	.LFE10-.LFB10
 2023 0dbc 01       		.uleb128 0x1
 2024 0dbd 9C       		.byte	0x9c
 2025 0dbe DD0D0000 		.4byte	0xddd
 2026 0dc2 23       		.uleb128 0x23
 2027 0dc3 6E00     		.ascii	"n\000"
 2028 0dc5 01       		.byte	0x1
 2029 0dc6 7B       		.byte	0x7b
 2030 0dc7 CD000000 		.4byte	0xcd
 2031 0dcb 3F000000 		.4byte	.LLST0
 2032 0dcf 21       		.uleb128 0x21
 2033 0dd0 B3040000 		.4byte	.LASF207
 2034 0dd4 01       		.byte	0x1
 2035 0dd5 7D       		.byte	0x7d
 2036 0dd6 CD000000 		.4byte	0xcd
 2037 0dda 01       		.uleb128 0x1
 2038 0ddb 50       		.byte	0x50
 2039 0ddc 00       		.byte	0
 2040 0ddd 1E       		.uleb128 0x1e
 2041 0dde BA020000 		.4byte	.LASF208
 2042 0de2 01       		.byte	0x1
 2043 0de3 5A       		.byte	0x5a
 2044 0de4 00000000 		.4byte	.LFB9
 2045 0de8 40000000 		.4byte	.LFE9-.LFB9
 2046 0dec 01       		.uleb128 0x1
 2047 0ded 9C       		.byte	0x9c
 2048 0dee 2B0E0000 		.4byte	0xe2b
 2049 0df2 24       		.uleb128 0x24
 2050 0df3 2B0E0000 		.4byte	0xe2b
 2051 0df7 04000000 		.4byte	.LBB6
 2052 0dfb 00000000 		.4byte	.Ldebug_ranges0+0
ARM GAS  /tmp/ccqiC8Gj.s 			page 37


 2053 0dff 01       		.byte	0x1
 2054 0e00 5E       		.byte	0x5e
 2055 0e01 0F0E0000 		.4byte	0xe0f
 2056 0e05 25       		.uleb128 0x25
 2057 0e06 08000000 		.4byte	.LVL0
 2058 0e0a 3B0E0000 		.4byte	0xe3b
 2059 0e0e 00       		.byte	0
 2060 0e0f 25       		.uleb128 0x25
 2061 0e10 1C000000 		.4byte	.LVL1
 2062 0e14 460E0000 		.4byte	0xe46
 2063 0e18 25       		.uleb128 0x25
 2064 0e19 24000000 		.4byte	.LVL2
 2065 0e1d 510E0000 		.4byte	0xe51
 2066 0e21 25       		.uleb128 0x25
 2067 0e22 2C000000 		.4byte	.LVL3
 2068 0e26 5C0E0000 		.4byte	0xe5c
 2069 0e2a 00       		.byte	0
 2070 0e2b 26       		.uleb128 0x26
 2071 0e2c D6000000 		.4byte	.LASF209
 2072 0e30 01       		.byte	0x1
 2073 0e31 47       		.byte	0x47
 2074 0e32 01       		.byte	0x1
 2075 0e33 26       		.uleb128 0x26
 2076 0e34 59070000 		.4byte	.LASF210
 2077 0e38 01       		.byte	0x1
 2078 0e39 35       		.byte	0x35
 2079 0e3a 01       		.byte	0x1
 2080 0e3b 27       		.uleb128 0x27
 2081 0e3c 16030000 		.4byte	.LASF211
 2082 0e40 16030000 		.4byte	.LASF211
 2083 0e44 17       		.byte	0x17
 2084 0e45 F0       		.byte	0xf0
 2085 0e46 27       		.uleb128 0x27
 2086 0e47 EA080000 		.4byte	.LASF212
 2087 0e4b EA080000 		.4byte	.LASF212
 2088 0e4f 18       		.byte	0x18
 2089 0e50 6B       		.byte	0x6b
 2090 0e51 27       		.uleb128 0x27
 2091 0e52 7D010000 		.4byte	.LASF213
 2092 0e56 7D010000 		.4byte	.LASF213
 2093 0e5a 13       		.byte	0x13
 2094 0e5b B8       		.byte	0xb8
 2095 0e5c 27       		.uleb128 0x27
 2096 0e5d 99080000 		.4byte	.LASF214
 2097 0e61 99080000 		.4byte	.LASF214
 2098 0e65 16       		.byte	0x16
 2099 0e66 C4       		.byte	0xc4
 2100 0e67 00       		.byte	0
 2101              		.section	.debug_abbrev,"",%progbits
 2102              	.Ldebug_abbrev0:
 2103 0000 01       		.uleb128 0x1
 2104 0001 11       		.uleb128 0x11
 2105 0002 01       		.byte	0x1
 2106 0003 25       		.uleb128 0x25
 2107 0004 0E       		.uleb128 0xe
 2108 0005 13       		.uleb128 0x13
 2109 0006 0B       		.uleb128 0xb
ARM GAS  /tmp/ccqiC8Gj.s 			page 38


 2110 0007 03       		.uleb128 0x3
 2111 0008 0E       		.uleb128 0xe
 2112 0009 1B       		.uleb128 0x1b
 2113 000a 0E       		.uleb128 0xe
 2114 000b 55       		.uleb128 0x55
 2115 000c 17       		.uleb128 0x17
 2116 000d 11       		.uleb128 0x11
 2117 000e 01       		.uleb128 0x1
 2118 000f 10       		.uleb128 0x10
 2119 0010 17       		.uleb128 0x17
 2120 0011 00       		.byte	0
 2121 0012 00       		.byte	0
 2122 0013 02       		.uleb128 0x2
 2123 0014 24       		.uleb128 0x24
 2124 0015 00       		.byte	0
 2125 0016 0B       		.uleb128 0xb
 2126 0017 0B       		.uleb128 0xb
 2127 0018 3E       		.uleb128 0x3e
 2128 0019 0B       		.uleb128 0xb
 2129 001a 03       		.uleb128 0x3
 2130 001b 08       		.uleb128 0x8
 2131 001c 00       		.byte	0
 2132 001d 00       		.byte	0
 2133 001e 03       		.uleb128 0x3
 2134 001f 16       		.uleb128 0x16
 2135 0020 00       		.byte	0
 2136 0021 03       		.uleb128 0x3
 2137 0022 0E       		.uleb128 0xe
 2138 0023 3A       		.uleb128 0x3a
 2139 0024 0B       		.uleb128 0xb
 2140 0025 3B       		.uleb128 0x3b
 2141 0026 0B       		.uleb128 0xb
 2142 0027 49       		.uleb128 0x49
 2143 0028 13       		.uleb128 0x13
 2144 0029 00       		.byte	0
 2145 002a 00       		.byte	0
 2146 002b 04       		.uleb128 0x4
 2147 002c 24       		.uleb128 0x24
 2148 002d 00       		.byte	0
 2149 002e 0B       		.uleb128 0xb
 2150 002f 0B       		.uleb128 0xb
 2151 0030 3E       		.uleb128 0x3e
 2152 0031 0B       		.uleb128 0xb
 2153 0032 03       		.uleb128 0x3
 2154 0033 0E       		.uleb128 0xe
 2155 0034 00       		.byte	0
 2156 0035 00       		.byte	0
 2157 0036 05       		.uleb128 0x5
 2158 0037 35       		.uleb128 0x35
 2159 0038 00       		.byte	0
 2160 0039 49       		.uleb128 0x49
 2161 003a 13       		.uleb128 0x13
 2162 003b 00       		.byte	0
 2163 003c 00       		.byte	0
 2164 003d 06       		.uleb128 0x6
 2165 003e 26       		.uleb128 0x26
 2166 003f 00       		.byte	0
ARM GAS  /tmp/ccqiC8Gj.s 			page 39


 2167 0040 49       		.uleb128 0x49
 2168 0041 13       		.uleb128 0x13
 2169 0042 00       		.byte	0
 2170 0043 00       		.byte	0
 2171 0044 07       		.uleb128 0x7
 2172 0045 13       		.uleb128 0x13
 2173 0046 01       		.byte	0x1
 2174 0047 03       		.uleb128 0x3
 2175 0048 0E       		.uleb128 0xe
 2176 0049 0B       		.uleb128 0xb
 2177 004a 0B       		.uleb128 0xb
 2178 004b 3A       		.uleb128 0x3a
 2179 004c 0B       		.uleb128 0xb
 2180 004d 3B       		.uleb128 0x3b
 2181 004e 0B       		.uleb128 0xb
 2182 004f 01       		.uleb128 0x1
 2183 0050 13       		.uleb128 0x13
 2184 0051 00       		.byte	0
 2185 0052 00       		.byte	0
 2186 0053 08       		.uleb128 0x8
 2187 0054 0D       		.uleb128 0xd
 2188 0055 00       		.byte	0
 2189 0056 03       		.uleb128 0x3
 2190 0057 0E       		.uleb128 0xe
 2191 0058 3A       		.uleb128 0x3a
 2192 0059 0B       		.uleb128 0xb
 2193 005a 3B       		.uleb128 0x3b
 2194 005b 0B       		.uleb128 0xb
 2195 005c 49       		.uleb128 0x49
 2196 005d 13       		.uleb128 0x13
 2197 005e 38       		.uleb128 0x38
 2198 005f 0B       		.uleb128 0xb
 2199 0060 00       		.byte	0
 2200 0061 00       		.byte	0
 2201 0062 09       		.uleb128 0x9
 2202 0063 0D       		.uleb128 0xd
 2203 0064 00       		.byte	0
 2204 0065 03       		.uleb128 0x3
 2205 0066 08       		.uleb128 0x8
 2206 0067 3A       		.uleb128 0x3a
 2207 0068 0B       		.uleb128 0xb
 2208 0069 3B       		.uleb128 0x3b
 2209 006a 0B       		.uleb128 0xb
 2210 006b 49       		.uleb128 0x49
 2211 006c 13       		.uleb128 0x13
 2212 006d 38       		.uleb128 0x38
 2213 006e 0B       		.uleb128 0xb
 2214 006f 00       		.byte	0
 2215 0070 00       		.byte	0
 2216 0071 0A       		.uleb128 0xa
 2217 0072 13       		.uleb128 0x13
 2218 0073 01       		.byte	0x1
 2219 0074 0B       		.uleb128 0xb
 2220 0075 0B       		.uleb128 0xb
 2221 0076 3A       		.uleb128 0x3a
 2222 0077 0B       		.uleb128 0xb
 2223 0078 3B       		.uleb128 0x3b
ARM GAS  /tmp/ccqiC8Gj.s 			page 40


 2224 0079 0B       		.uleb128 0xb
 2225 007a 01       		.uleb128 0x1
 2226 007b 13       		.uleb128 0x13
 2227 007c 00       		.byte	0
 2228 007d 00       		.byte	0
 2229 007e 0B       		.uleb128 0xb
 2230 007f 0F       		.uleb128 0xf
 2231 0080 00       		.byte	0
 2232 0081 0B       		.uleb128 0xb
 2233 0082 0B       		.uleb128 0xb
 2234 0083 49       		.uleb128 0x49
 2235 0084 13       		.uleb128 0x13
 2236 0085 00       		.byte	0
 2237 0086 00       		.byte	0
 2238 0087 0C       		.uleb128 0xc
 2239 0088 0F       		.uleb128 0xf
 2240 0089 00       		.byte	0
 2241 008a 0B       		.uleb128 0xb
 2242 008b 0B       		.uleb128 0xb
 2243 008c 00       		.byte	0
 2244 008d 00       		.byte	0
 2245 008e 0D       		.uleb128 0xd
 2246 008f 15       		.uleb128 0x15
 2247 0090 01       		.byte	0x1
 2248 0091 27       		.uleb128 0x27
 2249 0092 19       		.uleb128 0x19
 2250 0093 01       		.uleb128 0x1
 2251 0094 13       		.uleb128 0x13
 2252 0095 00       		.byte	0
 2253 0096 00       		.byte	0
 2254 0097 0E       		.uleb128 0xe
 2255 0098 05       		.uleb128 0x5
 2256 0099 00       		.byte	0
 2257 009a 49       		.uleb128 0x49
 2258 009b 13       		.uleb128 0x13
 2259 009c 00       		.byte	0
 2260 009d 00       		.byte	0
 2261 009e 0F       		.uleb128 0xf
 2262 009f 34       		.uleb128 0x34
 2263 00a0 00       		.byte	0
 2264 00a1 03       		.uleb128 0x3
 2265 00a2 0E       		.uleb128 0xe
 2266 00a3 3A       		.uleb128 0x3a
 2267 00a4 0B       		.uleb128 0xb
 2268 00a5 3B       		.uleb128 0x3b
 2269 00a6 0B       		.uleb128 0xb
 2270 00a7 49       		.uleb128 0x49
 2271 00a8 13       		.uleb128 0x13
 2272 00a9 3F       		.uleb128 0x3f
 2273 00aa 19       		.uleb128 0x19
 2274 00ab 3C       		.uleb128 0x3c
 2275 00ac 19       		.uleb128 0x19
 2276 00ad 00       		.byte	0
 2277 00ae 00       		.byte	0
 2278 00af 10       		.uleb128 0x10
 2279 00b0 17       		.uleb128 0x17
 2280 00b1 01       		.byte	0x1
ARM GAS  /tmp/ccqiC8Gj.s 			page 41


 2281 00b2 0B       		.uleb128 0xb
 2282 00b3 0B       		.uleb128 0xb
 2283 00b4 3A       		.uleb128 0x3a
 2284 00b5 0B       		.uleb128 0xb
 2285 00b6 3B       		.uleb128 0x3b
 2286 00b7 0B       		.uleb128 0xb
 2287 00b8 01       		.uleb128 0x1
 2288 00b9 13       		.uleb128 0x13
 2289 00ba 00       		.byte	0
 2290 00bb 00       		.byte	0
 2291 00bc 11       		.uleb128 0x11
 2292 00bd 0D       		.uleb128 0xd
 2293 00be 00       		.byte	0
 2294 00bf 03       		.uleb128 0x3
 2295 00c0 0E       		.uleb128 0xe
 2296 00c1 3A       		.uleb128 0x3a
 2297 00c2 0B       		.uleb128 0xb
 2298 00c3 3B       		.uleb128 0x3b
 2299 00c4 0B       		.uleb128 0xb
 2300 00c5 49       		.uleb128 0x49
 2301 00c6 13       		.uleb128 0x13
 2302 00c7 00       		.byte	0
 2303 00c8 00       		.byte	0
 2304 00c9 12       		.uleb128 0x12
 2305 00ca 15       		.uleb128 0x15
 2306 00cb 01       		.byte	0x1
 2307 00cc 27       		.uleb128 0x27
 2308 00cd 19       		.uleb128 0x19
 2309 00ce 49       		.uleb128 0x49
 2310 00cf 13       		.uleb128 0x13
 2311 00d0 01       		.uleb128 0x1
 2312 00d1 13       		.uleb128 0x13
 2313 00d2 00       		.byte	0
 2314 00d3 00       		.byte	0
 2315 00d4 13       		.uleb128 0x13
 2316 00d5 01       		.uleb128 0x1
 2317 00d6 01       		.byte	0x1
 2318 00d7 49       		.uleb128 0x49
 2319 00d8 13       		.uleb128 0x13
 2320 00d9 01       		.uleb128 0x1
 2321 00da 13       		.uleb128 0x13
 2322 00db 00       		.byte	0
 2323 00dc 00       		.byte	0
 2324 00dd 14       		.uleb128 0x14
 2325 00de 21       		.uleb128 0x21
 2326 00df 00       		.byte	0
 2327 00e0 49       		.uleb128 0x49
 2328 00e1 13       		.uleb128 0x13
 2329 00e2 2F       		.uleb128 0x2f
 2330 00e3 0B       		.uleb128 0xb
 2331 00e4 00       		.byte	0
 2332 00e5 00       		.byte	0
 2333 00e6 15       		.uleb128 0x15
 2334 00e7 0D       		.uleb128 0xd
 2335 00e8 00       		.byte	0
 2336 00e9 03       		.uleb128 0x3
 2337 00ea 0E       		.uleb128 0xe
ARM GAS  /tmp/ccqiC8Gj.s 			page 42


 2338 00eb 3A       		.uleb128 0x3a
 2339 00ec 0B       		.uleb128 0xb
 2340 00ed 3B       		.uleb128 0x3b
 2341 00ee 05       		.uleb128 0x5
 2342 00ef 49       		.uleb128 0x49
 2343 00f0 13       		.uleb128 0x13
 2344 00f1 38       		.uleb128 0x38
 2345 00f2 0B       		.uleb128 0xb
 2346 00f3 00       		.byte	0
 2347 00f4 00       		.byte	0
 2348 00f5 16       		.uleb128 0x16
 2349 00f6 16       		.uleb128 0x16
 2350 00f7 00       		.byte	0
 2351 00f8 03       		.uleb128 0x3
 2352 00f9 0E       		.uleb128 0xe
 2353 00fa 3A       		.uleb128 0x3a
 2354 00fb 0B       		.uleb128 0xb
 2355 00fc 3B       		.uleb128 0x3b
 2356 00fd 05       		.uleb128 0x5
 2357 00fe 49       		.uleb128 0x49
 2358 00ff 13       		.uleb128 0x13
 2359 0100 00       		.byte	0
 2360 0101 00       		.byte	0
 2361 0102 17       		.uleb128 0x17
 2362 0103 13       		.uleb128 0x13
 2363 0104 00       		.byte	0
 2364 0105 0B       		.uleb128 0xb
 2365 0106 0B       		.uleb128 0xb
 2366 0107 3A       		.uleb128 0x3a
 2367 0108 0B       		.uleb128 0xb
 2368 0109 3B       		.uleb128 0x3b
 2369 010a 0B       		.uleb128 0xb
 2370 010b 00       		.byte	0
 2371 010c 00       		.byte	0
 2372 010d 18       		.uleb128 0x18
 2373 010e 04       		.uleb128 0x4
 2374 010f 01       		.byte	0x1
 2375 0110 0B       		.uleb128 0xb
 2376 0111 0B       		.uleb128 0xb
 2377 0112 49       		.uleb128 0x49
 2378 0113 13       		.uleb128 0x13
 2379 0114 3A       		.uleb128 0x3a
 2380 0115 0B       		.uleb128 0xb
 2381 0116 3B       		.uleb128 0x3b
 2382 0117 0B       		.uleb128 0xb
 2383 0118 01       		.uleb128 0x1
 2384 0119 13       		.uleb128 0x13
 2385 011a 00       		.byte	0
 2386 011b 00       		.byte	0
 2387 011c 19       		.uleb128 0x19
 2388 011d 28       		.uleb128 0x28
 2389 011e 00       		.byte	0
 2390 011f 03       		.uleb128 0x3
 2391 0120 0E       		.uleb128 0xe
 2392 0121 1C       		.uleb128 0x1c
 2393 0122 0B       		.uleb128 0xb
 2394 0123 00       		.byte	0
ARM GAS  /tmp/ccqiC8Gj.s 			page 43


 2395 0124 00       		.byte	0
 2396 0125 1A       		.uleb128 0x1a
 2397 0126 34       		.uleb128 0x34
 2398 0127 00       		.byte	0
 2399 0128 03       		.uleb128 0x3
 2400 0129 08       		.uleb128 0x8
 2401 012a 3A       		.uleb128 0x3a
 2402 012b 0B       		.uleb128 0xb
 2403 012c 3B       		.uleb128 0x3b
 2404 012d 0B       		.uleb128 0xb
 2405 012e 49       		.uleb128 0x49
 2406 012f 13       		.uleb128 0x13
 2407 0130 3F       		.uleb128 0x3f
 2408 0131 19       		.uleb128 0x19
 2409 0132 3C       		.uleb128 0x3c
 2410 0133 19       		.uleb128 0x19
 2411 0134 00       		.byte	0
 2412 0135 00       		.byte	0
 2413 0136 1B       		.uleb128 0x1b
 2414 0137 26       		.uleb128 0x26
 2415 0138 00       		.byte	0
 2416 0139 00       		.byte	0
 2417 013a 00       		.byte	0
 2418 013b 1C       		.uleb128 0x1c
 2419 013c 2E       		.uleb128 0x2e
 2420 013d 00       		.byte	0
 2421 013e 3F       		.uleb128 0x3f
 2422 013f 19       		.uleb128 0x19
 2423 0140 03       		.uleb128 0x3
 2424 0141 0E       		.uleb128 0xe
 2425 0142 3A       		.uleb128 0x3a
 2426 0143 0B       		.uleb128 0xb
 2427 0144 3B       		.uleb128 0x3b
 2428 0145 0B       		.uleb128 0xb
 2429 0146 27       		.uleb128 0x27
 2430 0147 19       		.uleb128 0x19
 2431 0148 49       		.uleb128 0x49
 2432 0149 13       		.uleb128 0x13
 2433 014a 11       		.uleb128 0x11
 2434 014b 01       		.uleb128 0x1
 2435 014c 12       		.uleb128 0x12
 2436 014d 06       		.uleb128 0x6
 2437 014e 40       		.uleb128 0x40
 2438 014f 18       		.uleb128 0x18
 2439 0150 9742     		.uleb128 0x2117
 2440 0152 19       		.uleb128 0x19
 2441 0153 00       		.byte	0
 2442 0154 00       		.byte	0
 2443 0155 1D       		.uleb128 0x1d
 2444 0156 2E       		.uleb128 0x2e
 2445 0157 00       		.byte	0
 2446 0158 3F       		.uleb128 0x3f
 2447 0159 19       		.uleb128 0x19
 2448 015a 03       		.uleb128 0x3
 2449 015b 0E       		.uleb128 0xe
 2450 015c 3A       		.uleb128 0x3a
 2451 015d 0B       		.uleb128 0xb
ARM GAS  /tmp/ccqiC8Gj.s 			page 44


 2452 015e 3B       		.uleb128 0x3b
 2453 015f 0B       		.uleb128 0xb
 2454 0160 27       		.uleb128 0x27
 2455 0161 19       		.uleb128 0x19
 2456 0162 11       		.uleb128 0x11
 2457 0163 01       		.uleb128 0x1
 2458 0164 12       		.uleb128 0x12
 2459 0165 06       		.uleb128 0x6
 2460 0166 40       		.uleb128 0x40
 2461 0167 18       		.uleb128 0x18
 2462 0168 9742     		.uleb128 0x2117
 2463 016a 19       		.uleb128 0x19
 2464 016b 00       		.byte	0
 2465 016c 00       		.byte	0
 2466 016d 1E       		.uleb128 0x1e
 2467 016e 2E       		.uleb128 0x2e
 2468 016f 01       		.byte	0x1
 2469 0170 3F       		.uleb128 0x3f
 2470 0171 19       		.uleb128 0x19
 2471 0172 03       		.uleb128 0x3
 2472 0173 0E       		.uleb128 0xe
 2473 0174 3A       		.uleb128 0x3a
 2474 0175 0B       		.uleb128 0xb
 2475 0176 3B       		.uleb128 0x3b
 2476 0177 0B       		.uleb128 0xb
 2477 0178 27       		.uleb128 0x27
 2478 0179 19       		.uleb128 0x19
 2479 017a 11       		.uleb128 0x11
 2480 017b 01       		.uleb128 0x1
 2481 017c 12       		.uleb128 0x12
 2482 017d 06       		.uleb128 0x6
 2483 017e 40       		.uleb128 0x40
 2484 017f 18       		.uleb128 0x18
 2485 0180 9742     		.uleb128 0x2117
 2486 0182 19       		.uleb128 0x19
 2487 0183 01       		.uleb128 0x1
 2488 0184 13       		.uleb128 0x13
 2489 0185 00       		.byte	0
 2490 0186 00       		.byte	0
 2491 0187 1F       		.uleb128 0x1f
 2492 0188 05       		.uleb128 0x5
 2493 0189 00       		.byte	0
 2494 018a 03       		.uleb128 0x3
 2495 018b 0E       		.uleb128 0xe
 2496 018c 3A       		.uleb128 0x3a
 2497 018d 0B       		.uleb128 0xb
 2498 018e 3B       		.uleb128 0x3b
 2499 018f 0B       		.uleb128 0xb
 2500 0190 49       		.uleb128 0x49
 2501 0191 13       		.uleb128 0x13
 2502 0192 02       		.uleb128 0x2
 2503 0193 17       		.uleb128 0x17
 2504 0194 00       		.byte	0
 2505 0195 00       		.byte	0
 2506 0196 20       		.uleb128 0x20
 2507 0197 34       		.uleb128 0x34
 2508 0198 00       		.byte	0
ARM GAS  /tmp/ccqiC8Gj.s 			page 45


 2509 0199 03       		.uleb128 0x3
 2510 019a 0E       		.uleb128 0xe
 2511 019b 3A       		.uleb128 0x3a
 2512 019c 0B       		.uleb128 0xb
 2513 019d 3B       		.uleb128 0x3b
 2514 019e 0B       		.uleb128 0xb
 2515 019f 49       		.uleb128 0x49
 2516 01a0 13       		.uleb128 0x13
 2517 01a1 02       		.uleb128 0x2
 2518 01a2 17       		.uleb128 0x17
 2519 01a3 00       		.byte	0
 2520 01a4 00       		.byte	0
 2521 01a5 21       		.uleb128 0x21
 2522 01a6 34       		.uleb128 0x34
 2523 01a7 00       		.byte	0
 2524 01a8 03       		.uleb128 0x3
 2525 01a9 0E       		.uleb128 0xe
 2526 01aa 3A       		.uleb128 0x3a
 2527 01ab 0B       		.uleb128 0xb
 2528 01ac 3B       		.uleb128 0x3b
 2529 01ad 0B       		.uleb128 0xb
 2530 01ae 49       		.uleb128 0x49
 2531 01af 13       		.uleb128 0x13
 2532 01b0 02       		.uleb128 0x2
 2533 01b1 18       		.uleb128 0x18
 2534 01b2 00       		.byte	0
 2535 01b3 00       		.byte	0
 2536 01b4 22       		.uleb128 0x22
 2537 01b5 1D       		.uleb128 0x1d
 2538 01b6 00       		.byte	0
 2539 01b7 31       		.uleb128 0x31
 2540 01b8 13       		.uleb128 0x13
 2541 01b9 11       		.uleb128 0x11
 2542 01ba 01       		.uleb128 0x1
 2543 01bb 12       		.uleb128 0x12
 2544 01bc 06       		.uleb128 0x6
 2545 01bd 58       		.uleb128 0x58
 2546 01be 0B       		.uleb128 0xb
 2547 01bf 59       		.uleb128 0x59
 2548 01c0 0B       		.uleb128 0xb
 2549 01c1 00       		.byte	0
 2550 01c2 00       		.byte	0
 2551 01c3 23       		.uleb128 0x23
 2552 01c4 05       		.uleb128 0x5
 2553 01c5 00       		.byte	0
 2554 01c6 03       		.uleb128 0x3
 2555 01c7 08       		.uleb128 0x8
 2556 01c8 3A       		.uleb128 0x3a
 2557 01c9 0B       		.uleb128 0xb
 2558 01ca 3B       		.uleb128 0x3b
 2559 01cb 0B       		.uleb128 0xb
 2560 01cc 49       		.uleb128 0x49
 2561 01cd 13       		.uleb128 0x13
 2562 01ce 02       		.uleb128 0x2
 2563 01cf 17       		.uleb128 0x17
 2564 01d0 00       		.byte	0
 2565 01d1 00       		.byte	0
ARM GAS  /tmp/ccqiC8Gj.s 			page 46


 2566 01d2 24       		.uleb128 0x24
 2567 01d3 1D       		.uleb128 0x1d
 2568 01d4 01       		.byte	0x1
 2569 01d5 31       		.uleb128 0x31
 2570 01d6 13       		.uleb128 0x13
 2571 01d7 52       		.uleb128 0x52
 2572 01d8 01       		.uleb128 0x1
 2573 01d9 55       		.uleb128 0x55
 2574 01da 17       		.uleb128 0x17
 2575 01db 58       		.uleb128 0x58
 2576 01dc 0B       		.uleb128 0xb
 2577 01dd 59       		.uleb128 0x59
 2578 01de 0B       		.uleb128 0xb
 2579 01df 01       		.uleb128 0x1
 2580 01e0 13       		.uleb128 0x13
 2581 01e1 00       		.byte	0
 2582 01e2 00       		.byte	0
 2583 01e3 25       		.uleb128 0x25
 2584 01e4 898201   		.uleb128 0x4109
 2585 01e7 00       		.byte	0
 2586 01e8 11       		.uleb128 0x11
 2587 01e9 01       		.uleb128 0x1
 2588 01ea 31       		.uleb128 0x31
 2589 01eb 13       		.uleb128 0x13
 2590 01ec 00       		.byte	0
 2591 01ed 00       		.byte	0
 2592 01ee 26       		.uleb128 0x26
 2593 01ef 2E       		.uleb128 0x2e
 2594 01f0 00       		.byte	0
 2595 01f1 03       		.uleb128 0x3
 2596 01f2 0E       		.uleb128 0xe
 2597 01f3 3A       		.uleb128 0x3a
 2598 01f4 0B       		.uleb128 0xb
 2599 01f5 3B       		.uleb128 0x3b
 2600 01f6 0B       		.uleb128 0xb
 2601 01f7 27       		.uleb128 0x27
 2602 01f8 19       		.uleb128 0x19
 2603 01f9 20       		.uleb128 0x20
 2604 01fa 0B       		.uleb128 0xb
 2605 01fb 00       		.byte	0
 2606 01fc 00       		.byte	0
 2607 01fd 27       		.uleb128 0x27
 2608 01fe 2E       		.uleb128 0x2e
 2609 01ff 00       		.byte	0
 2610 0200 3F       		.uleb128 0x3f
 2611 0201 19       		.uleb128 0x19
 2612 0202 3C       		.uleb128 0x3c
 2613 0203 19       		.uleb128 0x19
 2614 0204 6E       		.uleb128 0x6e
 2615 0205 0E       		.uleb128 0xe
 2616 0206 03       		.uleb128 0x3
 2617 0207 0E       		.uleb128 0xe
 2618 0208 3A       		.uleb128 0x3a
 2619 0209 0B       		.uleb128 0xb
 2620 020a 3B       		.uleb128 0x3b
 2621 020b 0B       		.uleb128 0xb
 2622 020c 00       		.byte	0
ARM GAS  /tmp/ccqiC8Gj.s 			page 47


 2623 020d 00       		.byte	0
 2624 020e 00       		.byte	0
 2625              		.section	.debug_loc,"",%progbits
 2626              	.Ldebug_loc0:
 2627              	.LLST1:
 2628 0000 00000000 		.4byte	.LVL6
 2629 0004 08000000 		.4byte	.LVL7
 2630 0008 0100     		.2byte	0x1
 2631 000a 50       		.byte	0x50
 2632 000b 08000000 		.4byte	.LVL7
 2633 000f 34000000 		.4byte	.LFE12
 2634 0013 0400     		.2byte	0x4
 2635 0015 F3       		.byte	0xf3
 2636 0016 01       		.uleb128 0x1
 2637 0017 50       		.byte	0x50
 2638 0018 9F       		.byte	0x9f
 2639 0019 00000000 		.4byte	0
 2640 001d 00000000 		.4byte	0
 2641              	.LLST2:
 2642 0021 0C000000 		.4byte	.LVL8
 2643 0025 14000000 		.4byte	.LVL9
 2644 0029 0100     		.2byte	0x1
 2645 002b 53       		.byte	0x53
 2646 002c 24000000 		.4byte	.LVL11
 2647 0030 34000000 		.4byte	.LFE12
 2648 0034 0100     		.2byte	0x1
 2649 0036 53       		.byte	0x53
 2650 0037 00000000 		.4byte	0
 2651 003b 00000000 		.4byte	0
 2652              	.LLST0:
 2653 003f 00000000 		.4byte	.LVL4
 2654 0043 10000000 		.4byte	.LVL5
 2655 0047 0100     		.2byte	0x1
 2656 0049 50       		.byte	0x50
 2657 004a 10000000 		.4byte	.LVL5
 2658 004e 24000000 		.4byte	.LFE10
 2659 0052 0400     		.2byte	0x4
 2660 0054 F3       		.byte	0xf3
 2661 0055 01       		.uleb128 0x1
 2662 0056 50       		.byte	0x50
 2663 0057 9F       		.byte	0x9f
 2664 0058 00000000 		.4byte	0
 2665 005c 00000000 		.4byte	0
 2666              		.section	.debug_aranges,"",%progbits
 2667 0000 44000000 		.4byte	0x44
 2668 0004 0200     		.2byte	0x2
 2669 0006 00000000 		.4byte	.Ldebug_info0
 2670 000a 04       		.byte	0x4
 2671 000b 00       		.byte	0
 2672 000c 0000     		.2byte	0
 2673 000e 0000     		.2byte	0
 2674 0010 00000000 		.4byte	.LFB9
 2675 0014 40000000 		.4byte	.LFE9-.LFB9
 2676 0018 00000000 		.4byte	.LFB10
 2677 001c 24000000 		.4byte	.LFE10-.LFB10
 2678 0020 00000000 		.4byte	.LFB11
 2679 0024 50000000 		.4byte	.LFE11-.LFB11
ARM GAS  /tmp/ccqiC8Gj.s 			page 48


 2680 0028 00000000 		.4byte	.LFB12
 2681 002c 34000000 		.4byte	.LFE12-.LFB12
 2682 0030 00000000 		.4byte	.LFB13
 2683 0034 18000000 		.4byte	.LFE13-.LFB13
 2684 0038 00000000 		.4byte	.LFB14
 2685 003c 18000000 		.4byte	.LFE14-.LFB14
 2686 0040 00000000 		.4byte	0
 2687 0044 00000000 		.4byte	0
 2688              		.section	.debug_ranges,"",%progbits
 2689              	.Ldebug_ranges0:
 2690 0000 04000000 		.4byte	.LBB6
 2691 0004 10000000 		.4byte	.LBE6
 2692 0008 14000000 		.4byte	.LBB9
 2693 000c 18000000 		.4byte	.LBE9
 2694 0010 00000000 		.4byte	0
 2695 0014 00000000 		.4byte	0
 2696 0018 00000000 		.4byte	.LFB9
 2697 001c 40000000 		.4byte	.LFE9
 2698 0020 00000000 		.4byte	.LFB10
 2699 0024 24000000 		.4byte	.LFE10
 2700 0028 00000000 		.4byte	.LFB11
 2701 002c 50000000 		.4byte	.LFE11
 2702 0030 00000000 		.4byte	.LFB12
 2703 0034 34000000 		.4byte	.LFE12
 2704 0038 00000000 		.4byte	.LFB13
 2705 003c 18000000 		.4byte	.LFE13
 2706 0040 00000000 		.4byte	.LFB14
 2707 0044 18000000 		.4byte	.LFE14
 2708 0048 00000000 		.4byte	0
 2709 004c 00000000 		.4byte	0
 2710              		.section	.debug_line,"",%progbits
 2711              	.Ldebug_line0:
 2712 0000 A3020000 		.section	.debug_str,"MS",%progbits,1
 2712      02000402 
 2712      00000201 
 2712      FB0E0D00 
 2712      01010101 
 2713              	.LASF96:
 2714 0000 63665F6F 		.ascii	"cf_off_older\000"
 2714      66665F6F 
 2714      6C646572 
 2714      00
 2715              	.LASF46:
 2716 000d 54687265 		.ascii	"ThreadsQueue\000"
 2716      61647351 
 2716      75657565 
 2716      00
 2717              	.LASF42:
 2718 001a 705F6D73 		.ascii	"p_msg\000"
 2718      6700
 2719              	.LASF2:
 2720 0020 73697A65 		.ascii	"size_t\000"
 2720      5F7400
 2721              	.LASF81:
 2722 0027 7264796D 		.ascii	"rdymsg\000"
 2722      736700
 2723              	.LASF118:
ARM GAS  /tmp/ccqiC8Gj.s 			page 49


 2724 002e 4F757470 		.ascii	"OutputQueue\000"
 2724      75745175 
 2724      65756500 
 2725              	.LASF3:
 2726 003a 5F5F7569 		.ascii	"__uint8_t\000"
 2726      6E74385F 
 2726      7400
 2727              	.LASF184:
 2728 0044 5350495F 		.ascii	"SPI_ACTIVE\000"
 2728      41435449 
 2728      564500
 2729              	.LASF68:
 2730 004f 76746C69 		.ascii	"vtlist\000"
 2730      737400
 2731              	.LASF120:
 2732 0056 62736364 		.ascii	"bscdevice_t\000"
 2732      65766963 
 2732      655F7400 
 2733              	.LASF158:
 2734 0062 72786275 		.ascii	"rxbuf\000"
 2734      6600
 2735              	.LASF111:
 2736 0068 715F746F 		.ascii	"q_top\000"
 2736      7000
 2737              	.LASF13:
 2738 006e 6C6F6E67 		.ascii	"long long unsigned int\000"
 2738      206C6F6E 
 2738      6720756E 
 2738      7369676E 
 2738      65642069 
 2739              	.LASF217:
 2740 0085 2F686F6D 		.ascii	"/home/lmr/Downloads/ChibiOS-RPi/ChibiOS-RPi/demos/P"
 2740      652F6C6D 
 2740      722F446F 
 2740      776E6C6F 
 2740      6164732F 
 2741 00b8 726F6A65 		.ascii	"roject\000"
 2741      637400
 2742              	.LASF92:
 2743 00bf 63685F74 		.ascii	"ch_threadsize\000"
 2743      68726561 
 2743      6473697A 
 2743      6500
 2744              	.LASF82:
 2745 00cd 65786974 		.ascii	"exitcode\000"
 2745      636F6465 
 2745      00
 2746              	.LASF209:
 2747 00d6 73797374 		.ascii	"systimer_serve_interrupt\000"
 2747      696D6572 
 2747      5F736572 
 2747      76655F69 
 2747      6E746572 
 2748              	.LASF187:
 2749 00ef 53504944 		.ascii	"SPIDriver\000"
 2749      72697665 
 2749      7200
ARM GAS  /tmp/ccqiC8Gj.s 			page 50


 2750              	.LASF125:
 2751 00f9 64617461 		.ascii	"dataFifo\000"
 2751      4669666F 
 2751      00
 2752              	.LASF30:
 2753 0102 705F7072 		.ascii	"p_prio\000"
 2753      696F00
 2754              	.LASF99:
 2755 0109 63665F6F 		.ascii	"cf_off_state\000"
 2755      66665F73 
 2755      74617465 
 2755      00
 2756              	.LASF180:
 2757 0116 72656164 		.ascii	"readt\000"
 2757      7400
 2758              	.LASF151:
 2759 011c 64657669 		.ascii	"device\000"
 2759      636500
 2760              	.LASF108:
 2761 0123 715F7761 		.ascii	"q_waiting\000"
 2761      6974696E 
 2761      6700
 2762              	.LASF12:
 2763 012d 6C6F6E67 		.ascii	"long long int\000"
 2763      206C6F6E 
 2763      6720696E 
 2763      7400
 2764              	.LASF1:
 2765 013b 7369676E 		.ascii	"signed char\000"
 2765      65642063 
 2765      68617200 
 2766              	.LASF98:
 2767 0147 63665F6F 		.ascii	"cf_off_stklimit\000"
 2767      66665F73 
 2767      746B6C69 
 2767      6D697400 
 2768              	.LASF182:
 2769 0157 5350495F 		.ascii	"SPI_STOP\000"
 2769      53544F50 
 2769      00
 2770              	.LASF100:
 2771 0160 63665F6F 		.ascii	"cf_off_flags\000"
 2771      66665F66 
 2771      6C616773 
 2771      00
 2772              	.LASF167:
 2773 016d 53445F53 		.ascii	"SD_STOP\000"
 2773      544F5000 
 2774              	.LASF71:
 2775 0175 6D5F7175 		.ascii	"m_queue\000"
 2775      65756500 
 2776              	.LASF213:
 2777 017d 6932635F 		.ascii	"i2c_lld_serve_interrupt\000"
 2777      6C6C645F 
 2777      73657276 
 2777      655F696E 
 2777      74657272 
ARM GAS  /tmp/ccqiC8Gj.s 			page 51


 2778              	.LASF154:
 2779 0195 61646472 		.ascii	"addr\000"
 2779      00
 2780              	.LASF175:
 2781 019a 77726974 		.ascii	"write\000"
 2781      6500
 2782              	.LASF21:
 2783 01a0 74736C69 		.ascii	"tslices_t\000"
 2783      6365735F 
 2783      7400
 2784              	.LASF140:
 2785 01aa 4932435F 		.ascii	"I2C_UNINIT\000"
 2785      554E494E 
 2785      495400
 2786              	.LASF162:
 2787 01b5 69326361 		.ascii	"i2caddr_t\000"
 2787      6464725F 
 2787      7400
 2788              	.LASF148:
 2789 01bf 73746174 		.ascii	"state\000"
 2789      6500
 2790              	.LASF9:
 2791 01c5 6C6F6E67 		.ascii	"long int\000"
 2791      20696E74 
 2791      00
 2792              	.LASF19:
 2793 01ce 74737461 		.ascii	"tstate_t\000"
 2793      74655F74 
 2793      00
 2794              	.LASF153:
 2795 01d7 74687265 		.ascii	"thread\000"
 2795      616400
 2796              	.LASF127:
 2797 01de 64617461 		.ascii	"dataDelay\000"
 2797      44656C61 
 2797      7900
 2798              	.LASF196:
 2799 01e8 636C6F63 		.ascii	"clock_polarity\000"
 2799      6B5F706F 
 2799      6C617269 
 2799      747900
 2800              	.LASF160:
 2801 01f7 72786964 		.ascii	"rxidx\000"
 2801      7800
 2802              	.LASF110:
 2803 01fd 715F6275 		.ascii	"q_buffer\000"
 2803      66666572 
 2803      00
 2804              	.LASF15:
 2805 0206 75696E74 		.ascii	"uint16_t\000"
 2805      31365F74 
 2805      00
 2806              	.LASF200:
 2807 020f 53504930 		.ascii	"SPI0\000"
 2807      00
 2808              	.LASF105:
 2809 0214 63686465 		.ascii	"chdebug_t\000"
ARM GAS  /tmp/ccqiC8Gj.s 			page 52


 2809      6275675F 
 2809      7400
 2810              	.LASF143:
 2811 021e 4932435F 		.ascii	"I2C_ACTIVE_TX\000"
 2811      41435449 
 2811      56455F54 
 2811      5800
 2812              	.LASF197:
 2813 022c 636C6F63 		.ascii	"clock_phase\000"
 2813      6B5F7068 
 2813      61736500 
 2814              	.LASF32:
 2815 0238 705F6E65 		.ascii	"p_newer\000"
 2815      77657200 
 2816              	.LASF119:
 2817 0240 5F69646C 		.ascii	"_idle_thread_wa\000"
 2817      655F7468 
 2817      72656164 
 2817      5F776100 
 2818              	.LASF190:
 2819 0250 656E645F 		.ascii	"end_cb\000"
 2819      636200
 2820              	.LASF188:
 2821 0257 7478636E 		.ascii	"txcnt\000"
 2821      7400
 2822              	.LASF194:
 2823 025d 63686970 		.ascii	"chip_select_polarity0\000"
 2823      5F73656C 
 2823      6563745F 
 2823      706F6C61 
 2823      72697479 
 2824              	.LASF195:
 2825 0273 63686970 		.ascii	"chip_select_polarity1\000"
 2825      5F73656C 
 2825      6563745F 
 2825      706F6C61 
 2825      72697479 
 2826              	.LASF121:
 2827 0289 636F6E74 		.ascii	"control\000"
 2827      726F6C00 
 2828              	.LASF10:
 2829 0291 5F5F7569 		.ascii	"__uint32_t\000"
 2829      6E743332 
 2829      5F7400
 2830              	.LASF49:
 2831 029c 72656761 		.ascii	"regarm_t\000"
 2831      726D5F74 
 2831      00
 2832              	.LASF55:
 2833 02a5 76745F70 		.ascii	"vt_prev\000"
 2833      72657600 
 2834              	.LASF124:
 2835 02ad 736C6176 		.ascii	"slaveAddress\000"
 2835      65416464 
 2835      72657373 
 2835      00
 2836              	.LASF208:
ARM GAS  /tmp/ccqiC8Gj.s 			page 53


 2837 02ba 49727148 		.ascii	"IrqHandler\000"
 2837      616E646C 
 2837      657200
 2838              	.LASF189:
 2839 02c5 73706963 		.ascii	"spicallback_t\000"
 2839      616C6C62 
 2839      61636B5F 
 2839      7400
 2840              	.LASF165:
 2841 02d3 49324330 		.ascii	"I2C0\000"
 2841      00
 2842              	.LASF79:
 2843 02d8 4576656E 		.ascii	"EventSource\000"
 2843      74536F75 
 2843      72636500 
 2844              	.LASF0:
 2845 02e4 756E7369 		.ascii	"unsigned int\000"
 2845      676E6564 
 2845      20696E74 
 2845      00
 2846              	.LASF54:
 2847 02f1 76745F6E 		.ascii	"vt_next\000"
 2847      65787400 
 2848              	.LASF155:
 2849 02f9 74786275 		.ascii	"txbuf\000"
 2849      6600
 2850              	.LASF174:
 2851 02ff 53657269 		.ascii	"SerialDriverVMT\000"
 2851      616C4472 
 2851      69766572 
 2851      564D5400 
 2852              	.LASF150:
 2853 030f 6572726F 		.ascii	"errors\000"
 2853      727300
 2854              	.LASF211:
 2855 0316 63685379 		.ascii	"chSysTimerHandlerI\000"
 2855      7354696D 
 2855      65724861 
 2855      6E646C65 
 2855      724900
 2856              	.LASF172:
 2857 0329 69717565 		.ascii	"iqueue\000"
 2857      756500
 2858              	.LASF11:
 2859 0330 6C6F6E67 		.ascii	"long unsigned int\000"
 2859      20756E73 
 2859      69676E65 
 2859      6420696E 
 2859      7400
 2860              	.LASF106:
 2861 0342 63685F64 		.ascii	"ch_debug\000"
 2861      65627567 
 2861      00
 2862              	.LASF206:
 2863 034b 74696D65 		.ascii	"timeout\000"
 2863      6F757400 
 2864              	.LASF178:
ARM GAS  /tmp/ccqiC8Gj.s 			page 54


 2865 0353 67657474 		.ascii	"gett\000"
 2865      00
 2866              	.LASF52:
 2867 0358 76746675 		.ascii	"vtfunc_t\000"
 2867      6E635F74 
 2867      00
 2868              	.LASF86:
 2869 0361 63685F69 		.ascii	"ch_identifier\000"
 2869      64656E74 
 2869      69666965 
 2869      7200
 2870              	.LASF193:
 2871 036f 63686970 		.ascii	"chip_select_polarity\000"
 2871      5F73656C 
 2871      6563745F 
 2871      706F6C61 
 2871      72697479 
 2872              	.LASF171:
 2873 0384 6576656E 		.ascii	"event\000"
 2873      7400
 2874              	.LASF51:
 2875 038a 636F6E74 		.ascii	"context\000"
 2875      65787400 
 2876              	.LASF7:
 2877 0392 73686F72 		.ascii	"short unsigned int\000"
 2877      7420756E 
 2877      7369676E 
 2877      65642069 
 2877      6E7400
 2878              	.LASF135:
 2879 03a5 6770696F 		.ascii	"gpio_port_t\000"
 2879      5F706F72 
 2879      745F7400 
 2880              	.LASF131:
 2881 03b1 6770636C 		.ascii	"gpclr\000"
 2881      7200
 2882              	.LASF23:
 2883 03b7 6D73675F 		.ascii	"msg_t\000"
 2883      7400
 2884              	.LASF173:
 2885 03bd 6F717565 		.ascii	"oqueue\000"
 2885      756500
 2886              	.LASF64:
 2887 03c4 725F6E65 		.ascii	"r_newer\000"
 2887      77657200 
 2888              	.LASF75:
 2889 03cc 656C5F6E 		.ascii	"el_next\000"
 2889      65787400 
 2890              	.LASF179:
 2891 03d4 77726974 		.ascii	"writet\000"
 2891      657400
 2892              	.LASF18:
 2893 03db 746D6F64 		.ascii	"tmode_t\000"
 2893      655F7400 
 2894              	.LASF47:
 2895 03e3 54687265 		.ascii	"ThreadsList\000"
 2895      6164734C 
ARM GAS  /tmp/ccqiC8Gj.s 			page 55


 2895      69737400 
 2896              	.LASF24:
 2897 03ef 6576656E 		.ascii	"eventmask_t\000"
 2897      746D6173 
 2897      6B5F7400 
 2898              	.LASF117:
 2899 03fb 496E7075 		.ascii	"InputQueue\000"
 2899      74517565 
 2899      756500
 2900              	.LASF70:
 2901 0406 4D757465 		.ascii	"Mutex\000"
 2901      7800
 2902              	.LASF107:
 2903 040c 47656E65 		.ascii	"GenericQueue\000"
 2903      72696351 
 2903      75657565 
 2903      00
 2904              	.LASF48:
 2905 0419 73746B61 		.ascii	"stkalign_t\000"
 2905      6C69676E 
 2905      5F7400
 2906              	.LASF87:
 2907 0424 63685F7A 		.ascii	"ch_zero\000"
 2907      65726F00 
 2908              	.LASF101:
 2909 042c 63665F6F 		.ascii	"cf_off_refs\000"
 2909      66665F72 
 2909      65667300 
 2910              	.LASF132:
 2911 0438 67706C65 		.ascii	"gplev\000"
 2911      7600
 2912              	.LASF202:
 2913 043e 706D5F77 		.ascii	"pm_wdog\000"
 2913      646F6700 
 2914              	.LASF177:
 2915 0446 70757474 		.ascii	"putt\000"
 2915      00
 2916              	.LASF56:
 2917 044b 76745F74 		.ascii	"vt_time\000"
 2917      696D6500 
 2918              	.LASF141:
 2919 0453 4932435F 		.ascii	"I2C_STOP\000"
 2919      53544F50 
 2919      00
 2920              	.LASF104:
 2921 045c 73697A65 		.ascii	"sizetype\000"
 2921      74797065 
 2921      00
 2922              	.LASF126:
 2923 0465 636C6F63 		.ascii	"clockDivider\000"
 2923      6B446976 
 2923      69646572 
 2923      00
 2924              	.LASF109:
 2925 0472 715F636F 		.ascii	"q_counter\000"
 2925      756E7465 
 2925      7200
ARM GAS  /tmp/ccqiC8Gj.s 			page 56


 2926              	.LASF57:
 2927 047c 76745F66 		.ascii	"vt_func\000"
 2927      756E6300 
 2928              	.LASF91:
 2929 0484 63685F74 		.ascii	"ch_timesize\000"
 2929      696D6573 
 2929      697A6500 
 2930              	.LASF219:
 2931 0490 77617463 		.ascii	"watchdog_stop\000"
 2931      68646F67 
 2931      5F73746F 
 2931      7000
 2932              	.LASF163:
 2933 049e 69635F73 		.ascii	"ic_speed\000"
 2933      70656564 
 2933      00
 2934              	.LASF97:
 2935 04a7 63665F6F 		.ascii	"cf_off_name\000"
 2935      66665F6E 
 2935      616D6500 
 2936              	.LASF207:
 2937 04b3 636F6D70 		.ascii	"compare\000"
 2937      61726500 
 2938              	.LASF33:
 2939 04bb 705F6F6C 		.ascii	"p_older\000"
 2939      64657200 
 2940              	.LASF159:
 2941 04c3 72786279 		.ascii	"rxbytes\000"
 2941      74657300 
 2942              	.LASF112:
 2943 04cb 715F7772 		.ascii	"q_wrptr\000"
 2943      70747200 
 2944              	.LASF63:
 2945 04d3 725F6374 		.ascii	"r_ctx\000"
 2945      7800
 2946              	.LASF216:
 2947 04d9 2E2E2F2E 		.ascii	"../../os/hal/platforms/BCM2835/hal_lld.c\000"
 2947      2E2F6F73 
 2947      2F68616C 
 2947      2F706C61 
 2947      74666F72 
 2948              	.LASF88:
 2949 0502 63685F73 		.ascii	"ch_size\000"
 2949      697A6500 
 2950              	.LASF137:
 2951 050a 494F504F 		.ascii	"IOPORT0\000"
 2951      52543000 
 2952              	.LASF66:
 2953 0512 725F6375 		.ascii	"r_current\000"
 2953      7272656E 
 2953      7400
 2954              	.LASF65:
 2955 051c 725F6F6C 		.ascii	"r_older\000"
 2955      64657200 
 2956              	.LASF77:
 2957 0524 656C5F6D 		.ascii	"el_mask\000"
 2957      61736B00 
ARM GAS  /tmp/ccqiC8Gj.s 			page 57


 2958              	.LASF130:
 2959 052c 67707365 		.ascii	"gpset\000"
 2959      7400
 2960              	.LASF133:
 2961 0532 67707075 		.ascii	"gppudclk\000"
 2961      64636C6B 
 2961      00
 2962              	.LASF191:
 2963 053b 6C6F7373 		.ascii	"lossiEnabled\000"
 2963      69456E61 
 2963      626C6564 
 2963      00
 2964              	.LASF192:
 2965 0548 63686970 		.ascii	"chip_select\000"
 2965      5F73656C 
 2965      65637400 
 2966              	.LASF20:
 2967 0554 74726566 		.ascii	"trefs_t\000"
 2967      735F7400 
 2968              	.LASF146:
 2969 055c 69326373 		.ascii	"i2cstate_t\000"
 2969      74617465 
 2969      5F7400
 2970              	.LASF90:
 2971 0567 63685F70 		.ascii	"ch_ptrsize\000"
 2971      74727369 
 2971      7A6500
 2972              	.LASF116:
 2973 0572 716E6F74 		.ascii	"qnotify_t\000"
 2973      6966795F 
 2973      7400
 2974              	.LASF29:
 2975 057c 705F7072 		.ascii	"p_prev\000"
 2975      657600
 2976              	.LASF22:
 2977 0583 74707269 		.ascii	"tprio_t\000"
 2977      6F5F7400 
 2978              	.LASF113:
 2979 058b 715F7264 		.ascii	"q_rdptr\000"
 2979      70747200 
 2980              	.LASF161:
 2981 0593 69326366 		.ascii	"i2cflags_t\000"
 2981      6C616773 
 2981      5F7400
 2982              	.LASF152:
 2983 059e 6D757465 		.ascii	"mutex\000"
 2983      7800
 2984              	.LASF16:
 2985 05a4 696E7433 		.ascii	"int32_t\000"
 2985      325F7400 
 2986              	.LASF4:
 2987 05ac 756E7369 		.ascii	"unsigned char\000"
 2987      676E6564 
 2987      20636861 
 2987      7200
 2988              	.LASF76:
 2989 05ba 656C5F6C 		.ascii	"el_listener\000"
ARM GAS  /tmp/ccqiC8Gj.s 			page 58


 2989      69737465 
 2989      6E657200 
 2990              	.LASF78:
 2991 05c6 656C5F66 		.ascii	"el_flags\000"
 2991      6C616773 
 2991      00
 2992              	.LASF44:
 2993 05cf 705F6D74 		.ascii	"p_mtxlist\000"
 2993      786C6973 
 2993      7400
 2994              	.LASF5:
 2995 05d9 73686F72 		.ascii	"short int\000"
 2995      7420696E 
 2995      7400
 2996              	.LASF35:
 2997 05e3 705F7374 		.ascii	"p_state\000"
 2997      61746500 
 2998              	.LASF38:
 2999 05eb 705F7072 		.ascii	"p_preempt\000"
 2999      65656D70 
 2999      7400
 3000              	.LASF103:
 3001 05f5 63665F6F 		.ascii	"cf_off_time\000"
 3001      66665F74 
 3001      696D6500 
 3002              	.LASF62:
 3003 0601 725F7072 		.ascii	"r_prio\000"
 3003      696F00
 3004              	.LASF134:
 3005 0608 70696E5F 		.ascii	"pin_base\000"
 3005      62617365 
 3005      00
 3006              	.LASF84:
 3007 0611 65776D61 		.ascii	"ewmask\000"
 3007      736B00
 3008              	.LASF28:
 3009 0618 705F6E65 		.ascii	"p_next\000"
 3009      787400
 3010              	.LASF138:
 3011 061f 494F504F 		.ascii	"IOPORT1\000"
 3011      52543100 
 3012              	.LASF102:
 3013 0627 63665F6F 		.ascii	"cf_off_preempt\000"
 3013      66665F70 
 3013      7265656D 
 3013      707400
 3014              	.LASF36:
 3015 0636 705F666C 		.ascii	"p_flags\000"
 3015      61677300 
 3016              	.LASF27:
 3017 063e 54687265 		.ascii	"Thread\000"
 3017      616400
 3018              	.LASF198:
 3019 0645 636C6F63 		.ascii	"clock_divider\000"
 3019      6B5F6469 
 3019      76696465 
 3019      7200
ARM GAS  /tmp/ccqiC8Gj.s 			page 59


 3020              	.LASF95:
 3021 0653 63665F6F 		.ascii	"cf_off_newer\000"
 3021      66665F6E 
 3021      65776572 
 3021      00
 3022              	.LASF145:
 3023 0660 4932435F 		.ascii	"I2C_LOCKED\000"
 3023      4C4F434B 
 3023      454400
 3024              	.LASF218:
 3025 066b 77617463 		.ascii	"watchdog_get_remaining\000"
 3025      68646F67 
 3025      5F676574 
 3025      5F72656D 
 3025      61696E69 
 3026              	.LASF43:
 3027 0682 705F6570 		.ascii	"p_epending\000"
 3027      656E6469 
 3027      6E6700
 3028              	.LASF166:
 3029 068d 53445F55 		.ascii	"SD_UNINIT\000"
 3029      4E494E49 
 3029      5400
 3030              	.LASF17:
 3031 0697 75696E74 		.ascii	"uint32_t\000"
 3031      33325F74 
 3031      00
 3032              	.LASF93:
 3033 06a0 63665F6F 		.ascii	"cf_off_prio\000"
 3033      66665F70 
 3033      72696F00 
 3034              	.LASF61:
 3035 06ac 725F7175 		.ascii	"r_queue\000"
 3035      65756500 
 3036              	.LASF53:
 3037 06b4 56697274 		.ascii	"VirtualTimer\000"
 3037      75616C54 
 3037      696D6572 
 3037      00
 3038              	.LASF203:
 3039 06c1 77617463 		.ascii	"watchdog_start\000"
 3039      68646F67 
 3039      5F737461 
 3039      727400
 3040              	.LASF170:
 3041 06d0 53657269 		.ascii	"SerialDriver\000"
 3041      616C4472 
 3041      69766572 
 3041      00
 3042              	.LASF144:
 3043 06dd 4932435F 		.ascii	"I2C_ACTIVE_RX\000"
 3043      41435449 
 3043      56455F52 
 3043      5800
 3044              	.LASF176:
 3045 06eb 72656164 		.ascii	"read\000"
 3045      00
ARM GAS  /tmp/ccqiC8Gj.s 			page 60


 3046              	.LASF85:
 3047 06f0 63686172 		.ascii	"char\000"
 3047      00
 3048              	.LASF185:
 3049 06f5 5350495F 		.ascii	"SPI_COMPLETE\000"
 3049      434F4D50 
 3049      4C455445 
 3049      00
 3050              	.LASF149:
 3051 0702 636F6E66 		.ascii	"config\000"
 3051      696700
 3052              	.LASF6:
 3053 0709 5F5F7569 		.ascii	"__uint16_t\000"
 3053      6E743136 
 3053      5F7400
 3054              	.LASF186:
 3055 0714 73706973 		.ascii	"spistate_t\000"
 3055      74617465 
 3055      5F7400
 3056              	.LASF73:
 3057 071f 6D5F6E65 		.ascii	"m_next\000"
 3057      787400
 3058              	.LASF26:
 3059 0726 73797374 		.ascii	"systime_t\000"
 3059      696D655F 
 3059      7400
 3060              	.LASF45:
 3061 0730 705F7265 		.ascii	"p_realprio\000"
 3061      616C7072 
 3061      696F00
 3062              	.LASF8:
 3063 073b 5F5F696E 		.ascii	"__int32_t\000"
 3063      7433325F 
 3063      7400
 3064              	.LASF142:
 3065 0745 4932435F 		.ascii	"I2C_READY\000"
 3065      52454144 
 3065      5900
 3066              	.LASF147:
 3067 074f 49324344 		.ascii	"I2CDriver\000"
 3067      72697665 
 3067      7200
 3068              	.LASF210:
 3069 0759 73797374 		.ascii	"systimer_init\000"
 3069      696D6572 
 3069      5F696E69 
 3069      7400
 3070              	.LASF39:
 3071 0767 705F7469 		.ascii	"p_time\000"
 3071      6D6500
 3072              	.LASF215:
 3073 076e 474E5520 		.ascii	"GNU C11 6.3.1 20170620 -mcpu=arm1176jz-s -mno-thumb"
 3073      43313120 
 3073      362E332E 
 3073      31203230 
 3073      31373036 
 3074 07a1 2D696E74 		.ascii	"-interwork -ggdb -O2 -fomit-frame-pointer -ffunctio"
ARM GAS  /tmp/ccqiC8Gj.s 			page 61


 3074      6572776F 
 3074      726B202D 
 3074      67676462 
 3074      202D4F32 
 3075 07d4 6E2D7365 		.ascii	"n-sections -fdata-sections\000"
 3075      6374696F 
 3075      6E73202D 
 3075      66646174 
 3075      612D7365 
 3076              	.LASF204:
 3077 07ef 68616C5F 		.ascii	"hal_lld_init\000"
 3077      6C6C645F 
 3077      696E6974 
 3077      00
 3078              	.LASF50:
 3079 07fc 696E7463 		.ascii	"intctx\000"
 3079      747800
 3080              	.LASF41:
 3081 0803 705F6D73 		.ascii	"p_msgqueue\000"
 3081      67717565 
 3081      756500
 3082              	.LASF168:
 3083 080e 53445F52 		.ascii	"SD_READY\000"
 3083      45414459 
 3083      00
 3084              	.LASF183:
 3085 0817 5350495F 		.ascii	"SPI_READY\000"
 3085      52454144 
 3085      5900
 3086              	.LASF181:
 3087 0821 5350495F 		.ascii	"SPI_UNINIT\000"
 3087      554E494E 
 3087      495400
 3088              	.LASF58:
 3089 082c 76745F70 		.ascii	"vt_par\000"
 3089      617200
 3090              	.LASF25:
 3091 0833 666C6167 		.ascii	"flagsmask_t\000"
 3091      736D6173 
 3091      6B5F7400 
 3092              	.LASF164:
 3093 083f 49324343 		.ascii	"I2CConfig\000"
 3093      6F6E6669 
 3093      6700
 3094              	.LASF169:
 3095 0849 73647374 		.ascii	"sdstate_t\000"
 3095      6174655F 
 3095      7400
 3096              	.LASF157:
 3097 0853 74786964 		.ascii	"txidx\000"
 3097      7800
 3098              	.LASF94:
 3099 0859 63665F6F 		.ascii	"cf_off_ctx\000"
 3099      66665F63 
 3099      747800
 3100              	.LASF37:
 3101 0864 705F7265 		.ascii	"p_refs\000"
ARM GAS  /tmp/ccqiC8Gj.s 			page 62


 3101      667300
 3102              	.LASF122:
 3103 086b 73746174 		.ascii	"status\000"
 3103      757300
 3104              	.LASF67:
 3105 0872 52656164 		.ascii	"ReadyList\000"
 3105      794C6973 
 3105      7400
 3106              	.LASF114:
 3107 087c 715F6E6F 		.ascii	"q_notify\000"
 3107      74696679 
 3107      00
 3108              	.LASF69:
 3109 0885 726C6973 		.ascii	"rlist\000"
 3109      7400
 3110              	.LASF14:
 3111 088b 75696E74 		.ascii	"uint8_t\000"
 3111      385F7400 
 3112              	.LASF129:
 3113 0893 6C617463 		.ascii	"latch\000"
 3113      6800
 3114              	.LASF214:
 3115 0899 7370695F 		.ascii	"spi_lld_serve_interrupt\000"
 3115      6C6C645F 
 3115      73657276 
 3115      655F696E 
 3115      74657272 
 3116              	.LASF74:
 3117 08b1 4576656E 		.ascii	"EventListener\000"
 3117      744C6973 
 3117      74656E65 
 3117      7200
 3118              	.LASF83:
 3119 08bf 77746F62 		.ascii	"wtobjp\000"
 3119      6A7000
 3120              	.LASF34:
 3121 08c6 705F6E61 		.ascii	"p_name\000"
 3121      6D6500
 3122              	.LASF59:
 3123 08cd 76745F73 		.ascii	"vt_systime\000"
 3123      79737469 
 3123      6D6500
 3124              	.LASF80:
 3125 08d8 65735F6E 		.ascii	"es_next\000"
 3125      65787400 
 3126              	.LASF199:
 3127 08e0 53504943 		.ascii	"SPIConfig\000"
 3127      6F6E6669 
 3127      6700
 3128              	.LASF212:
 3129 08ea 73645F6C 		.ascii	"sd_lld_serve_interrupt\000"
 3129      6C645F73 
 3129      65727665 
 3129      5F696E74 
 3129      65727275 
 3130              	.LASF89:
 3131 0901 63685F76 		.ascii	"ch_version\000"
ARM GAS  /tmp/ccqiC8Gj.s 			page 63


 3131      65727369 
 3131      6F6E00
 3132              	.LASF123:
 3133 090c 64617461 		.ascii	"dataLength\000"
 3133      4C656E67 
 3133      746800
 3134              	.LASF60:
 3135 0917 56544C69 		.ascii	"VTList\000"
 3135      737400
 3136              	.LASF205:
 3137 091e 64656C61 		.ascii	"delayMicroseconds\000"
 3137      794D6963 
 3137      726F7365 
 3137      636F6E64 
 3137      7300
 3138              	.LASF115:
 3139 0930 715F6C69 		.ascii	"q_link\000"
 3139      6E6B00
 3140              	.LASF201:
 3141 0937 706D5F72 		.ascii	"pm_rstc\000"
 3141      73746300 
 3142              	.LASF136:
 3143 093f 50414C43 		.ascii	"PALConfig\000"
 3143      6F6E6669 
 3143      6700
 3144              	.LASF72:
 3145 0949 6D5F6F77 		.ascii	"m_owner\000"
 3145      6E657200 
 3146              	.LASF139:
 3147 0951 70616C5F 		.ascii	"pal_default_config\000"
 3147      64656661 
 3147      756C745F 
 3147      636F6E66 
 3147      696700
 3148              	.LASF31:
 3149 0964 705F6374 		.ascii	"p_ctx\000"
 3149      7800
 3150              	.LASF40:
 3151 096a 705F7761 		.ascii	"p_waiting\000"
 3151      6974696E 
 3151      6700
 3152              	.LASF156:
 3153 0974 74786279 		.ascii	"txbytes\000"
 3153      74657300 
 3154              	.LASF128:
 3155 097c 636C6F63 		.ascii	"clockStretchTimeout\000"
 3155      6B537472 
 3155      65746368 
 3155      54696D65 
 3155      6F757400 
 3156              		.ident	"GCC: (15:6.3.1+svn253039-1build1) 6.3.1 20170620"
ARM GAS  /tmp/ccqiC8Gj.s 			page 64


DEFINED SYMBOLS
                            *ABS*:0000000000000000 hal_lld.c
     /tmp/ccqiC8Gj.s:16     .text.IrqHandler:0000000000000000 $a
     /tmp/ccqiC8Gj.s:22     .text.IrqHandler:0000000000000000 IrqHandler
     /tmp/ccqiC8Gj.s:77     .text.IrqHandler:0000000000000030 $d
     /tmp/ccqiC8Gj.s:85     .text.delayMicroseconds:0000000000000000 $a
     /tmp/ccqiC8Gj.s:91     .text.delayMicroseconds:0000000000000000 delayMicroseconds
     /tmp/ccqiC8Gj.s:117    .text.delayMicroseconds:0000000000000020 $d
     /tmp/ccqiC8Gj.s:122    .text.hal_lld_init:0000000000000000 $a
     /tmp/ccqiC8Gj.s:128    .text.hal_lld_init:0000000000000000 hal_lld_init
     /tmp/ccqiC8Gj.s:171    .text.hal_lld_init:0000000000000044 $d
     /tmp/ccqiC8Gj.s:180    .text.watchdog_start:0000000000000000 $a
     /tmp/ccqiC8Gj.s:186    .text.watchdog_start:0000000000000000 watchdog_start
     /tmp/ccqiC8Gj.s:223    .text.watchdog_start:0000000000000030 $d
     /tmp/ccqiC8Gj.s:228    .text.watchdog_stop:0000000000000000 $a
     /tmp/ccqiC8Gj.s:234    .text.watchdog_stop:0000000000000000 watchdog_stop
     /tmp/ccqiC8Gj.s:249    .text.watchdog_stop:0000000000000010 $d
     /tmp/ccqiC8Gj.s:255    .text.watchdog_get_remaining:0000000000000000 $a
     /tmp/ccqiC8Gj.s:261    .text.watchdog_get_remaining:0000000000000000 watchdog_get_remaining
     /tmp/ccqiC8Gj.s:278    .text.watchdog_get_remaining:0000000000000014 $d
                     .debug_frame:0000000000000010 $d

UNDEFINED SYMBOLS
chSysTimerHandlerI
sd_lld_serve_interrupt
i2c_lld_serve_interrupt
spi_lld_serve_interrupt
_port_irq_common
SD1
I2C0
SPI0
