ARM GAS  /tmp/ccqiC8Gj.s 			page 1


   1              		.cpu arm1176jz-s
   2              		.eabi_attribute 20, 1
   3              		.eabi_attribute 21, 1
   4              		.eabi_attribute 23, 3
   5              		.eabi_attribute 24, 1
   6              		.eabi_attribute 25, 1
   7              		.eabi_attribute 26, 1
   8              		.eabi_attribute 30, 2
   9              		.eabi_attribute 34, 1
  10              		.eabi_attribute 18, 4
  11              		.file	"hal_lld.c"
  12              		.text
  13              	.Ltext0:
  14              		.cfi_sections	.debug_frame
  15              		.section	.text.IrqHandler,"ax",%progbits
  16              		.align	2
  17              		.global	IrqHandler
  18              		.syntax unified
  19              		.arm
  20              		.fpu softvfp
  21              		.type	IrqHandler, %function
  22              	IrqHandler:
  23              	.LFB9:
  24              		.file 1 "../../os/hal/platforms/BCM2835/hal_lld.c"
  25              		.loc 1 91 0
  26              		.cfi_startproc
  27              		@ Naked Function: prologue and epilogue provided by programmer.
  28              		@ args = 0, pretend = 0, frame = 0
  29              		@ frame_needed = 0, uses_anonymous_args = 0
  30              		.loc 1 92 0
  31              		.syntax divided
  32              	@ 92 "../../os/hal/platforms/BCM2835/hal_lld.c" 1
  33 0000 0F502DE9 		stmfd    sp!, {r0-r3, r12, lr}
  34              	@ 0 "" 2
  35              		.arm
  36              		.syntax unified
  37              	.LBB6:
  38              	.LBB7:
  39              		.loc 1 75 0
  40 0004 FEFFFFEB 		bl	chSysTimerHandlerI
  41              	.LVL0:
  42              		.loc 1 79 0
  43 0008 0020A0E3 		mov	r2, #0
  44 000c 1C309FE5 		ldr	r3, .L2
  45              	.LBE7:
  46              	.LBE6:
  47              		.loc 1 97 0
  48 0010 1C009FE5 		ldr	r0, .L2+4
  49              	.LBB9:
  50              	.LBB8:
  51              		.loc 1 79 0
  52 0014 0C2483E5 		str	r2, [r3, #1036]
  53              	.LBE8:
  54              	.LBE9:
  55              		.loc 1 97 0
  56 0018 FEFFFFEB 		bl	sd_lld_serve_interrupt
  57              	.LVL1:
ARM GAS  /tmp/ccqiC8Gj.s 			page 2


  58              		.loc 1 101 0
  59 001c 14009FE5 		ldr	r0, .L2+8
  60 0020 FEFFFFEB 		bl	i2c_lld_serve_interrupt
  61              	.LVL2:
  62              		.loc 1 105 0
  63 0024 10009FE5 		ldr	r0, .L2+12
  64 0028 FEFFFFEB 		bl	spi_lld_serve_interrupt
  65              	.LVL3:
  66              		.loc 1 112 0
  67              		.syntax divided
  68              	@ 112 "../../os/hal/platforms/BCM2835/hal_lld.c" 1
  69 002c FEFFFFEA 		b       _port_irq_common
  70              	@ 0 "" 2
  71              		.loc 1 113 0
  72              		.arm
  73              		.syntax unified
  74              	.L3:
  75              		.align	2
  76              	.L2:
  77 0030 00B00020 		.word	536915968
  78 0034 00000000 		.word	SD1
  79 0038 00000000 		.word	I2C0
  80 003c 00000000 		.word	SPI0
  81              		.cfi_endproc
  82              	.LFE9:
  83              		.size	IrqHandler, .-IrqHandler
  84              		.section	.text.delayMicroseconds,"ax",%progbits
  85              		.align	2
  86              		.global	delayMicroseconds
  87              		.syntax unified
  88              		.arm
  89              		.fpu softvfp
  90              		.type	delayMicroseconds, %function
  91              	delayMicroseconds:
  92              	.LFB10:
  93              		.loc 1 124 0
  94              		.cfi_startproc
  95              		@ args = 0, pretend = 0, frame = 0
  96              		@ frame_needed = 0, uses_anonymous_args = 0
  97              		@ link register save eliminated.
  98              	.LVL4:
  99              		.loc 1 125 0
 100 0000 18309FE5 		ldr	r3, .L8
 101              		.loc 1 126 0
 102 0004 0320A0E1 		mov	r2, r3
 103              		.loc 1 125 0
 104 0008 043093E5 		ldr	r3, [r3, #4]
 105 000c 000083E0 		add	r0, r3, r0
 106              	.LVL5:
 107              	.L5:
 108              		.loc 1 126 0 discriminator 1
 109 0010 043092E5 		ldr	r3, [r2, #4]
 110 0014 030050E1 		cmp	r0, r3
 111 0018 FCFFFF8A 		bhi	.L5
 112              		.loc 1 127 0
 113 001c 1EFF2FE1 		bx	lr
 114              	.L9:
ARM GAS  /tmp/ccqiC8Gj.s 			page 3


 115              		.align	2
 116              	.L8:
 117 0020 00300020 		.word	536883200
 118              		.cfi_endproc
 119              	.LFE10:
 120              		.size	delayMicroseconds, .-delayMicroseconds
 121              		.section	.text.hal_lld_init,"ax",%progbits
 122              		.align	2
 123              		.global	hal_lld_init
 124              		.syntax unified
 125              		.arm
 126              		.fpu softvfp
 127              		.type	hal_lld_init, %function
 128              	hal_lld_init:
 129              	.LFB11:
 130              		.loc 1 134 0
 131              		.cfi_startproc
 132              		@ args = 0, pretend = 0, frame = 0
 133              		@ frame_needed = 0, uses_anonymous_args = 0
 134 0000 04E02DE5 		str	lr, [sp, #-4]!
 135              		.cfi_def_cfa_offset 4
 136              		.cfi_offset 14, -4
 137              	.LBB10:
 138              	.LBB11:
 139              		.loc 1 59 0
 140 0004 F9C0A0E3 		mov	ip, #249
 141              		.loc 1 56 0
 142 0008 3EE8A0E3 		mov	lr, #4063232
 143              		.loc 1 60 0
 144 000c 0000A0E3 		mov	r0, #0
 145              		.loc 1 56 0
 146 0010 2C309FE5 		ldr	r3, .L12
 147              		.loc 1 57 0
 148 0014 2C209FE5 		ldr	r2, .L12+4
 149              		.loc 1 61 0
 150 0018 2C109FE5 		ldr	r1, .L12+8
 151              		.loc 1 56 0
 152 001c 08E483E5 		str	lr, [r3, #1032]
 153              		.loc 1 57 0
 154 0020 002483E5 		str	r2, [r3, #1024]
 155              		.loc 1 58 0
 156 0024 182483E5 		str	r2, [r3, #1048]
 157              		.loc 1 59 0
 158 0028 1CC483E5 		str	ip, [r3, #1052]
 159              		.loc 1 60 0
 160 002c 0C0483E5 		str	r0, [r3, #1036]
 161              		.loc 1 61 0
 162 0030 081483E5 		str	r1, [r3, #1032]
 163              		.loc 1 63 0
 164 0034 182293E5 		ldr	r2, [r3, #536]
 165 0038 012082E3 		orr	r2, r2, #1
 166 003c 182283E5 		str	r2, [r3, #536]
 167 0040 04F09DE4 		ldr	pc, [sp], #4
 168              	.L13:
 169              		.align	2
 170              	.L12:
 171 0044 00B00020 		.word	536915968
ARM GAS  /tmp/ccqiC8Gj.s 			page 4


 172 0048 E7030000 		.word	999
 173 004c A2003E00 		.word	4063394
 174              	.LBE11:
 175              	.LBE10:
 176              		.cfi_endproc
 177              	.LFE11:
 178              		.size	hal_lld_init, .-hal_lld_init
 179              		.section	.text.watchdog_start,"ax",%progbits
 180              		.align	2
 181              		.global	watchdog_start
 182              		.syntax unified
 183              		.arm
 184              		.fpu softvfp
 185              		.type	watchdog_start, %function
 186              	watchdog_start:
 187              	.LFB12:
 188              		.loc 1 142 0
 189              		.cfi_startproc
 190              		@ args = 0, pretend = 0, frame = 0
 191              		@ frame_needed = 0, uses_anonymous_args = 0
 192              		@ link register save eliminated.
 193              	.LVL6:
 194              		.loc 1 144 0
 195 0000 28209FE5 		ldr	r2, .L15
 196              		.loc 1 147 0
 197 0004 FF04C0E3 		bic	r0, r0, #-16777216
 198              	.LVL7:
 199              		.loc 1 144 0
 200 0008 1C3092E5 		ldr	r3, [r2, #28]
 201              	.LVL8:
 202              		.loc 1 147 0
 203 000c 0F06C0E3 		bic	r0, r0, #15728640
 204              		.loc 1 148 0
 205 0010 5A34C3E3 		bic	r3, r3, #1509949440
 206              	.LVL9:
 207 0014 3030C3E3 		bic	r3, r3, #48
 208 0018 5A3483E3 		orr	r3, r3, #1509949440
 209              		.loc 1 147 0
 210 001c 5A0480E3 		orr	r0, r0, #1509949440
 211              	.LVL10:
 212              		.loc 1 148 0
 213 0020 203083E3 		orr	r3, r3, #32
 214              	.LVL11:
 215              		.loc 1 149 0
 216 0024 240082E5 		str	r0, [r2, #36]
 217              		.loc 1 150 0
 218 0028 1C3082E5 		str	r3, [r2, #28]
 219 002c 1EFF2FE1 		bx	lr
 220              	.L16:
 221              		.align	2
 222              	.L15:
 223 0030 00001020 		.word	537919488
 224              		.cfi_endproc
 225              	.LFE12:
 226              		.size	watchdog_start, .-watchdog_start
 227              		.section	.text.watchdog_stop,"ax",%progbits
 228              		.align	2
ARM GAS  /tmp/ccqiC8Gj.s 			page 5


 229              		.global	watchdog_stop
 230              		.syntax unified
 231              		.arm
 232              		.fpu softvfp
 233              		.type	watchdog_stop, %function
 234              	watchdog_stop:
 235              	.LFB13:
 236              		.loc 1 157 0
 237              		.cfi_startproc
 238              		@ args = 0, pretend = 0, frame = 0
 239              		@ frame_needed = 0, uses_anonymous_args = 0
 240              		@ link register save eliminated.
 241              		.loc 1 158 0
 242 0000 08309FE5 		ldr	r3, .L18
 243 0004 08209FE5 		ldr	r2, .L18+4
 244 0008 1C2083E5 		str	r2, [r3, #28]
 245 000c 1EFF2FE1 		bx	lr
 246              	.L19:
 247              		.align	2
 248              	.L18:
 249 0010 00001020 		.word	537919488
 250 0014 0201005A 		.word	1509949698
 251              		.cfi_endproc
 252              	.LFE13:
 253              		.size	watchdog_stop, .-watchdog_stop
 254              		.section	.text.watchdog_get_remaining,"ax",%progbits
 255              		.align	2
 256              		.global	watchdog_get_remaining
 257              		.syntax unified
 258              		.arm
 259              		.fpu softvfp
 260              		.type	watchdog_get_remaining, %function
 261              	watchdog_get_remaining:
 262              	.LFB14:
 263              		.loc 1 165 0
 264              		.cfi_startproc
 265              		@ args = 0, pretend = 0, frame = 0
 266              		@ frame_needed = 0, uses_anonymous_args = 0
 267              		@ link register save eliminated.
 268              		.loc 1 166 0
 269 0000 0C309FE5 		ldr	r3, .L21
 270 0004 240093E5 		ldr	r0, [r3, #36]
 271              		.loc 1 167 0
 272 0008 FF04C0E3 		bic	r0, r0, #-16777216
 273 000c 0F06C0E3 		bic	r0, r0, #15728640
 274 0010 1EFF2FE1 		bx	lr
 275              	.L22:
 276              		.align	2
 277              	.L21:
 278 0014 00001020 		.word	537919488
 279              		.cfi_endproc
 280              	.LFE14:
 281              		.size	watchdog_get_remaining, .-watchdog_get_remaining
 282              		.text
 283              	.Letext0:
 284              		.file 2 "/usr/lib/gcc/arm-none-eabi/6.3.1/include/stddef.h"
 285              		.file 3 "/usr/include/newlib/machine/_default_types.h"
ARM GAS  /tmp/ccqiC8Gj.s 			page 6


 286              		.file 4 "/usr/include/newlib/sys/_stdint.h"
 287              		.file 5 "../../os/ports/GCC/ARM/chtypes.h"
 288              		.file 6 "../../os/kernel/include/chlists.h"
 289              		.file 7 "../../os/kernel/include/chthreads.h"
 290              		.file 8 "../../os/ports/GCC/ARM/chcore.h"
 291              		.file 9 "../../os/kernel/include/chvt.h"
 292              		.file 10 "../../os/kernel/include/chschd.h"
 293              		.file 11 "../../os/kernel/include/chmtx.h"
 294              		.file 12 "../../os/kernel/include/chevents.h"
 295              		.file 13 "../../os/kernel/include/chregistry.h"
 296              		.file 14 "../../os/kernel/include/chqueues.h"
 297              		.file 15 "../../os/kernel/include/ch.h"
 298              		.file 16 "../../os/hal/platforms/BCM2835/bcm2835.h"
 299              		.file 17 "../../os/hal/platforms/BCM2835/pal_lld.h"
 300              		.file 18 "../../os/hal/include/i2c.h"
 301              		.file 19 "../../os/hal/platforms/BCM2835/i2c_lld.h"
 302              		.file 20 "../../os/hal/include/serial.h"
 303              		.file 21 "../../os/hal/include/spi.h"
 304              		.file 22 "../../os/hal/platforms/BCM2835/spi_lld.h"
 305              		.file 23 "../../os/kernel/include/chsys.h"
 306              		.file 24 "../../os/hal/platforms/BCM2835/serial_lld.h"