ARM GAS  /tmp/cchTLloI.s 			page 1


   1              		.cpu arm1176jz-s
   2              		.eabi_attribute 20, 1
   3              		.eabi_attribute 21, 1
   4              		.eabi_attribute 23, 3
   5              		.eabi_attribute 24, 1
   6              		.eabi_attribute 25, 1
   7              		.eabi_attribute 26, 1
   8              		.eabi_attribute 30, 2
   9              		.eabi_attribute 34, 1
  10              		.eabi_attribute 18, 4
  11              		.file	"i2c.c"
  12              		.text
  13              	.Ltext0:
  14              		.cfi_sections	.debug_frame
  15              		.section	.text.i2cInit,"ax",%progbits
  16              		.align	2
  17              		.global	i2cInit
  18              		.syntax unified
  19              		.arm
  20              		.fpu softvfp
  21              		.type	i2cInit, %function
  22              	i2cInit:
  23              	.LFB7:
  24              		.file 1 "../../os/hal/src/i2c.c"
  25              		.loc 1 64 0
  26              		.cfi_startproc
  27              		@ args = 0, pretend = 0, frame = 0
  28              		@ frame_needed = 0, uses_anonymous_args = 0
  29              		@ link register save eliminated.
  30              		.loc 1 65 0
  31 0000 FEFFFFEA 		b	i2c_lld_init
  32              	.LVL0:
  33              		.cfi_endproc
  34              	.LFE7:
  35              		.size	i2cInit, .-i2cInit
  36              		.section	.text.i2cObjectInit,"ax",%progbits
  37              		.align	2
  38              		.global	i2cObjectInit
  39              		.syntax unified
  40              		.arm
  41              		.fpu softvfp
  42              		.type	i2cObjectInit, %function
  43              	i2cObjectInit:
  44              	.LFB8:
  45              		.loc 1 75 0
  46              		.cfi_startproc
  47              		@ args = 0, pretend = 0, frame = 0
  48              		@ frame_needed = 0, uses_anonymous_args = 0
  49              		@ link register save eliminated.
  50              	.LVL1:
  51              		.loc 1 77 0
  52 0000 0120A0E3 		mov	r2, #1
  53              		.loc 1 78 0
  54 0004 0030A0E3 		mov	r3, #0
  55              		.loc 1 77 0
  56 0008 0020C0E5 		strb	r2, [r0]
  57              		.loc 1 78 0
ARM GAS  /tmp/cchTLloI.s 			page 2


  58 000c 043080E5 		str	r3, [r0, #4]
  59              		.loc 1 82 0
  60 0010 100080E2 		add	r0, r0, #16
  61              	.LVL2:
  62 0014 FEFFFFEA 		b	chMtxInit
  63              	.LVL3:
  64              		.cfi_endproc
  65              	.LFE8:
  66              		.size	i2cObjectInit, .-i2cObjectInit
  67              		.section	.text.i2cStart,"ax",%progbits
  68              		.align	2
  69              		.global	i2cStart
  70              		.syntax unified
  71              		.arm
  72              		.fpu softvfp
  73              		.type	i2cStart, %function
  74              	i2cStart:
  75              	.LFB9:
  76              		.loc 1 101 0
  77              		.cfi_startproc
  78              		@ args = 0, pretend = 0, frame = 0
  79              		@ frame_needed = 0, uses_anonymous_args = 0
  80              	.LVL4:
  81 0000 10402DE9 		push	{r4, lr}
  82              		.cfi_def_cfa_offset 8
  83              		.cfi_offset 4, -8
  84              		.cfi_offset 14, -4
  85              		.loc 1 101 0
  86 0004 0040A0E1 		mov	r4, r0
  87              		.loc 1 109 0
  88              		.syntax divided
  89              	@ 109 "../../os/hal/src/i2c.c" 1
  90 0008 9FF021E3 		msr     CPSR_c, #0x9F
  91              	@ 0 "" 2
  92              		.loc 1 110 0
  93              		.arm
  94              		.syntax unified
  95 000c 041080E5 		str	r1, [r0, #4]
  96              		.loc 1 111 0
  97 0010 FEFFFFEB 		bl	i2c_lld_start
  98              	.LVL5:
  99              		.loc 1 112 0
 100 0014 0230A0E3 		mov	r3, #2
 101 0018 0030C4E5 		strb	r3, [r4]
 102              		.loc 1 113 0
 103              		.syntax divided
 104              	@ 113 "../../os/hal/src/i2c.c" 1
 105 001c 1FF021E3 		msr     CPSR_c, #0x1F
 106              	@ 0 "" 2
 107              		.arm
 108              		.syntax unified
 109 0020 1080BDE8 		pop	{r4, pc}
 110              		.cfi_endproc
 111              	.LFE9:
 112              		.size	i2cStart, .-i2cStart
 113              		.section	.text.i2cStop,"ax",%progbits
 114              		.align	2
ARM GAS  /tmp/cchTLloI.s 			page 3


 115              		.global	i2cStop
 116              		.syntax unified
 117              		.arm
 118              		.fpu softvfp
 119              		.type	i2cStop, %function
 120              	i2cStop:
 121              	.LFB10:
 122              		.loc 1 123 0
 123              		.cfi_startproc
 124              		@ args = 0, pretend = 0, frame = 0
 125              		@ frame_needed = 0, uses_anonymous_args = 0
 126              	.LVL6:
 127 0000 10402DE9 		push	{r4, lr}
 128              		.cfi_def_cfa_offset 8
 129              		.cfi_offset 4, -8
 130              		.cfi_offset 14, -4
 131              		.loc 1 123 0
 132 0004 0040A0E1 		mov	r4, r0
 133              		.loc 1 131 0
 134              		.syntax divided
 135              	@ 131 "../../os/hal/src/i2c.c" 1
 136 0008 9FF021E3 		msr     CPSR_c, #0x9F
 137              	@ 0 "" 2
 138              		.loc 1 132 0
 139              		.arm
 140              		.syntax unified
 141 000c FEFFFFEB 		bl	i2c_lld_stop
 142              	.LVL7:
 143              		.loc 1 133 0
 144 0010 0130A0E3 		mov	r3, #1
 145 0014 0030C4E5 		strb	r3, [r4]
 146              		.loc 1 134 0
 147              		.syntax divided
 148              	@ 134 "../../os/hal/src/i2c.c" 1
 149 0018 1FF021E3 		msr     CPSR_c, #0x1F
 150              	@ 0 "" 2
 151              		.arm
 152              		.syntax unified
 153 001c 1080BDE8 		pop	{r4, pc}
 154              		.cfi_endproc
 155              	.LFE10:
 156              		.size	i2cStop, .-i2cStop
 157              		.section	.text.i2cGetErrors,"ax",%progbits
 158              		.align	2
 159              		.global	i2cGetErrors
 160              		.syntax unified
 161              		.arm
 162              		.fpu softvfp
 163              		.type	i2cGetErrors, %function
 164              	i2cGetErrors:
 165              	.LFB11:
 166              		.loc 1 145 0
 167              		.cfi_startproc
 168              		@ args = 0, pretend = 0, frame = 0
 169              		@ frame_needed = 0, uses_anonymous_args = 0
 170              		@ link register save eliminated.
 171              	.LVL8:
ARM GAS  /tmp/cchTLloI.s 			page 4


 172              		.loc 1 150 0
 173 0000 080090E5 		ldr	r0, [r0, #8]
 174              	.LVL9:
 175 0004 1EFF2FE1 		bx	lr
 176              		.cfi_endproc
 177              	.LFE11:
 178              		.size	i2cGetErrors, .-i2cGetErrors
 179              		.section	.text.i2cMasterTransmitTimeout,"ax",%progbits
 180              		.align	2
 181              		.global	i2cMasterTransmitTimeout
 182              		.syntax unified
 183              		.arm
 184              		.fpu softvfp
 185              		.type	i2cMasterTransmitTimeout, %function
 186              	i2cMasterTransmitTimeout:
 187              	.LFB12:
 188              		.loc 1 184 0
 189              		.cfi_startproc
 190              		@ args = 12, pretend = 0, frame = 0
 191              		@ frame_needed = 0, uses_anonymous_args = 0
 192              	.LVL10:
 193 0000 70402DE9 		push	{r4, r5, r6, lr}
 194              		.cfi_def_cfa_offset 16
 195              		.cfi_offset 4, -16
 196              		.cfi_offset 5, -12
 197              		.cfi_offset 6, -8
 198              		.cfi_offset 14, -4
 199 0004 10D04DE2 		sub	sp, sp, #16
 200              		.cfi_def_cfa_offset 32
 201              		.loc 1 184 0
 202 0008 0040A0E1 		mov	r4, r0
 203 000c 20C09DE5 		ldr	ip, [sp, #32]
 204 0010 28609DE5 		ldr	r6, [sp, #40]
 205              		.loc 1 196 0
 206              		.syntax divided
 207              	@ 196 "../../os/hal/src/i2c.c" 1
 208 0014 9FF021E3 		msr     CPSR_c, #0x9F
 209              	@ 0 "" 2
 210              		.loc 1 198 0
 211              		.arm
 212              		.syntax unified
 213 0018 03E0A0E3 		mov	lr, #3
 214              		.loc 1 197 0
 215 001c 0050A0E3 		mov	r5, #0
 216              		.loc 1 199 0
 217 0020 00C08DE5 		str	ip, [sp]
 218 0024 24C0DDE5 		ldrb	ip, [sp, #36]	@ zero_extendqisi2
 219 0028 08608DE5 		str	r6, [sp, #8]
 220              		.loc 1 197 0
 221 002c 085080E5 		str	r5, [r0, #8]
 222              		.loc 1 198 0
 223 0030 00E0C0E5 		strb	lr, [r0]
 224              		.loc 1 199 0
 225 0034 04C08DE5 		str	ip, [sp, #4]
 226 0038 FEFFFFEB 		bl	i2c_lld_master_transmit_timeout
 227              	.LVL11:
 228              		.loc 1 201 0
ARM GAS  /tmp/cchTLloI.s 			page 5


 229 003c 010070E3 		cmn	r0, #1
 230              		.loc 1 202 0
 231 0040 0530A003 		moveq	r3, #5
 232              		.loc 1 204 0
 233 0044 0230A013 		movne	r3, #2
 234 0048 0030C4E5 		strb	r3, [r4]
 235              		.loc 1 205 0
 236              		.syntax divided
 237              	@ 205 "../../os/hal/src/i2c.c" 1
 238 004c 1FF021E3 		msr     CPSR_c, #0x1F
 239              	@ 0 "" 2
 240              		.loc 1 207 0
 241              		.arm
 242              		.syntax unified
 243 0050 10D08DE2 		add	sp, sp, #16
 244              		.cfi_def_cfa_offset 16
 245              		@ sp needed
 246 0054 7080BDE8 		pop	{r4, r5, r6, pc}
 247              		.cfi_endproc
 248              	.LFE12:
 249              		.size	i2cMasterTransmitTimeout, .-i2cMasterTransmitTimeout
 250              		.section	.text.i2cMasterReceiveTimeout,"ax",%progbits
 251              		.align	2
 252              		.global	i2cMasterReceiveTimeout
 253              		.syntax unified
 254              		.arm
 255              		.fpu softvfp
 256              		.type	i2cMasterReceiveTimeout, %function
 257              	i2cMasterReceiveTimeout:
 258              	.LFB13:
 259              		.loc 1 233 0
 260              		.cfi_startproc
 261              		@ args = 4, pretend = 0, frame = 0
 262              		@ frame_needed = 0, uses_anonymous_args = 0
 263              	.LVL12:
 264 0000 30402DE9 		push	{r4, r5, lr}
 265              		.cfi_def_cfa_offset 12
 266              		.cfi_offset 4, -12
 267              		.cfi_offset 5, -8
 268              		.cfi_offset 14, -4
 269 0004 0CD04DE2 		sub	sp, sp, #12
 270              		.cfi_def_cfa_offset 24
 271              		.loc 1 233 0
 272 0008 0040A0E1 		mov	r4, r0
 273 000c 18509DE5 		ldr	r5, [sp, #24]
 274              		.loc 1 245 0
 275              		.syntax divided
 276              	@ 245 "../../os/hal/src/i2c.c" 1
 277 0010 9FF021E3 		msr     CPSR_c, #0x9F
 278              	@ 0 "" 2
 279              		.loc 1 246 0
 280              		.arm
 281              		.syntax unified
 282 0014 00E0A0E3 		mov	lr, #0
 283              		.loc 1 247 0
 284 0018 04C0A0E3 		mov	ip, #4
 285              		.loc 1 248 0
ARM GAS  /tmp/cchTLloI.s 			page 6


 286 001c 00508DE5 		str	r5, [sp]
 287              		.loc 1 246 0
 288 0020 08E080E5 		str	lr, [r0, #8]
 289              		.loc 1 247 0
 290 0024 00C0C0E5 		strb	ip, [r0]
 291              		.loc 1 248 0
 292 0028 FEFFFFEB 		bl	i2c_lld_master_receive_timeout
 293              	.LVL13:
 294              		.loc 1 249 0
 295 002c 010070E3 		cmn	r0, #1
 296              		.loc 1 250 0
 297 0030 0530A003 		moveq	r3, #5
 298              		.loc 1 252 0
 299 0034 0230A013 		movne	r3, #2
 300 0038 0030C4E5 		strb	r3, [r4]
 301              		.loc 1 253 0
 302              		.syntax divided
 303              	@ 253 "../../os/hal/src/i2c.c" 1
 304 003c 1FF021E3 		msr     CPSR_c, #0x1F
 305              	@ 0 "" 2
 306              		.loc 1 255 0
 307              		.arm
 308              		.syntax unified
 309 0040 0CD08DE2 		add	sp, sp, #12
 310              		.cfi_def_cfa_offset 12
 311              		@ sp needed
 312 0044 3080BDE8 		pop	{r4, r5, pc}
 313              		.cfi_endproc
 314              	.LFE13:
 315              		.size	i2cMasterReceiveTimeout, .-i2cMasterReceiveTimeout
 316              		.section	.text.i2cAcquireBus,"ax",%progbits
 317              		.align	2
 318              		.global	i2cAcquireBus
 319              		.syntax unified
 320              		.arm
 321              		.fpu softvfp
 322              		.type	i2cAcquireBus, %function
 323              	i2cAcquireBus:
 324              	.LFB14:
 325              		.loc 1 269 0
 326              		.cfi_startproc
 327              		@ args = 0, pretend = 0, frame = 0
 328              		@ frame_needed = 0, uses_anonymous_args = 0
 329              		@ link register save eliminated.
 330              	.LVL14:
 331              		.loc 1 274 0
 332 0000 100080E2 		add	r0, r0, #16
 333              	.LVL15:
 334 0004 FEFFFFEA 		b	chMtxLock
 335              	.LVL16:
 336              		.cfi_endproc
 337              	.LFE14:
 338              		.size	i2cAcquireBus, .-i2cAcquireBus
 339              		.section	.text.i2cReleaseBus,"ax",%progbits
 340              		.align	2
 341              		.global	i2cReleaseBus
 342              		.syntax unified
ARM GAS  /tmp/cchTLloI.s 			page 7


 343              		.arm
 344              		.fpu softvfp
 345              		.type	i2cReleaseBus, %function
 346              	i2cReleaseBus:
 347              	.LFB15:
 348              		.loc 1 289 0
 349              		.cfi_startproc
 350              		@ args = 0, pretend = 0, frame = 0
 351              		@ frame_needed = 0, uses_anonymous_args = 0
 352              		@ link register save eliminated.
 353              	.LVL17:
 354              		.loc 1 294 0
 355 0000 FEFFFFEA 		b	chMtxUnlock
 356              	.LVL18:
 357              		.cfi_endproc
 358              	.LFE15:
 359              		.size	i2cReleaseBus, .-i2cReleaseBus
 360              		.text
 361              	.Letext0:
 362              		.file 2 "/usr/lib/gcc/arm-none-eabi/6.3.1/include/stddef.h"
 363              		.file 3 "/usr/include/newlib/machine/_default_types.h"
 364              		.file 4 "/usr/include/newlib/sys/_stdint.h"
 365              		.file 5 "../../os/ports/GCC/ARM/chtypes.h"
 366              		.file 6 "../../os/kernel/include/chlists.h"
 367              		.file 7 "../../os/kernel/include/chthreads.h"
 368              		.file 8 "../../os/ports/GCC/ARM/chcore.h"
 369              		.file 9 "../../os/kernel/include/chvt.h"
 370              		.file 10 "../../os/kernel/include/chschd.h"
 371              		.file 11 "../../os/kernel/include/chmtx.h"
 372              		.file 12 "../../os/kernel/include/chevents.h"
 373              		.file 13 "../../os/kernel/include/chregistry.h"
 374              		.file 14 "../../os/kernel/include/chqueues.h"
 375              		.file 15 "../../os/kernel/include/ch.h"
 376              		.file 16 "../../os/hal/platforms/BCM2835/bcm2835.h"
 377              		.file 17 "../../os/hal/platforms/BCM2835/pal_lld.h"
 378              		.file 18 "../../os/hal/include/i2c.h"
 379              		.file 19 "../../os/hal/platforms/BCM2835/i2c_lld.h"
 380              		.file 20 "../../os/hal/include/serial.h"
 381              		.file 21 "../../os/hal/include/spi.h"
 382              		.file 22 "../../os/hal/platforms/BCM2835/spi_lld.h"
 383              		.file 23 "../../os/hal/platforms/BCM2835/serial_lld.h"