ARM GAS  /tmp/ccBZqj2k.s 			page 1


   1              		.cpu arm1176jz-s
   2              		.eabi_attribute 20, 1
   3              		.eabi_attribute 21, 1
   4              		.eabi_attribute 23, 3
   5              		.eabi_attribute 24, 1
   6              		.eabi_attribute 25, 1
   7              		.eabi_attribute 26, 1
   8              		.eabi_attribute 30, 2
   9              		.eabi_attribute 34, 1
  10              		.eabi_attribute 18, 4
  11              		.file	"i2c_lld.c"
  12              		.text
  13              	.Ltext0:
  14              		.cfi_sections	.debug_frame
  15              		.section	.text.i2c_lld_safety_timeout,"ax",%progbits
  16              		.align	2
  17              		.syntax unified
  18              		.arm
  19              		.fpu softvfp
  20              		.type	i2c_lld_safety_timeout, %function
  21              	i2c_lld_safety_timeout:
  22              	.LFB7:
  23              		.file 1 "../../os/hal/platforms/BCM2835/i2c_lld.c"
  24              		.loc 1 79 0
  25              		.cfi_startproc
  26              		@ args = 0, pretend = 0, frame = 0
  27              		@ frame_needed = 0, uses_anonymous_args = 0
  28              	.LVL0:
  29              		.loc 1 82 0
  30 0000 201090E5 		ldr	r1, [r0, #32]
  31 0004 000051E3 		cmp	r1, #0
  32 0008 1EFF2F01 		bxeq	lr
  33 000c 0030A0E1 		mov	r3, r0
  34              	.LBB2:
  35              		.loc 1 83 0
  36 0010 0C2090E5 		ldr	r2, [r0, #12]
  37              	.LVL1:
  38              		.loc 1 85 0
  39 0014 080090E5 		ldr	r0, [r0, #8]
  40              	.LVL2:
  41              	.LBE2:
  42              		.loc 1 79 0
  43 0018 10402DE9 		push	{r4, lr}
  44              		.cfi_def_cfa_offset 8
  45              		.cfi_offset 4, -8
  46              		.cfi_offset 14, -4
  47              	.LBB3:
  48              		.loc 1 86 0
  49 001c 04E092E5 		ldr	lr, [r2, #4]
  50              		.loc 1 85 0
  51 0020 20C080E3 		orr	ip, r0, #32
  52 0024 08C083E5 		str	ip, [r3, #8]
  53              		.loc 1 86 0
  54 0028 020C1EE3 		tst	lr, #512
  55              		.loc 1 91 0
  56 002c 00C0A0E3 		mov	ip, #0
  57              		.loc 1 96 0
ARM GAS  /tmp/ccBZqj2k.s 			page 2


  58 0030 00E0E0E3 		mvn	lr, #0
  59              		.loc 1 87 0
  60 0034 21008013 		orrne	r0, r0, #33
  61 0038 08008315 		strne	r0, [r3, #8]
  62              		.loc 1 88 0
  63 003c 040092E5 		ldr	r0, [r2, #4]
  64              		.loc 1 92 0
  65 0040 28409FE5 		ldr	r4, .L15
  66              		.loc 1 88 0
  67 0044 010C10E3 		tst	r0, #256
  68              		.loc 1 89 0
  69 0048 08009315 		ldrne	r0, [r3, #8]
  70 004c 04008013 		orrne	r0, r0, #4
  71 0050 08008315 		strne	r0, [r3, #8]
  72              		.loc 1 91 0
  73 0054 00C082E5 		str	ip, [r2]
  74              		.loc 1 92 0
  75 0058 044082E5 		str	r4, [r2, #4]
  76              	.LVL3:
  77              		.loc 1 95 0
  78 005c 20C083E5 		str	ip, [r3, #32]
  79              		.loc 1 96 0
  80 0060 24E081E5 		str	lr, [r1, #36]
  81              		.loc 1 97 0
  82 0064 0100A0E1 		mov	r0, r1
  83              	.LBE3:
  84              		.loc 1 100 0
  85 0068 1040BDE8 		pop	{r4, lr}
  86              		.cfi_restore 14
  87              		.cfi_restore 4
  88              		.cfi_def_cfa_offset 0
  89              	.LBB4:
  90              		.loc 1 97 0
  91 006c FEFFFFEA 		b	chSchReadyI
  92              	.LVL4:
  93              	.L16:
  94              		.align	2
  95              	.L15:
  96 0070 02030000 		.word	770
  97              	.LBE4:
  98              		.cfi_endproc
  99              	.LFE7:
 100              		.size	i2c_lld_safety_timeout, .-i2c_lld_safety_timeout
 101              		.section	.text.i2c_lld_serve_interrupt,"ax",%progbits
 102              		.align	2
 103              		.global	i2c_lld_serve_interrupt
 104              		.syntax unified
 105              		.arm
 106              		.fpu softvfp
 107              		.type	i2c_lld_serve_interrupt, %function
 108              	i2c_lld_serve_interrupt:
 109              	.LFB8:
 110              		.loc 1 106 0
 111              		.cfi_startproc
 112              		@ args = 0, pretend = 0, frame = 0
 113              		@ frame_needed = 0, uses_anonymous_args = 0
 114              	.LVL5:
ARM GAS  /tmp/ccBZqj2k.s 			page 3


 115              		.loc 1 108 0
 116 0000 0C2090E5 		ldr	r2, [r0, #12]
 117              	.LVL6:
 118              		.loc 1 109 0
 119 0004 041092E5 		ldr	r1, [r2, #4]
 120              	.LVL7:
 121              		.loc 1 111 0
 122 0008 030C11E3 		tst	r1, #768
 123 000c 0800000A 		beq	.L18
 124              		.loc 1 113 0
 125 0010 203090E5 		ldr	r3, [r0, #32]
 126 0014 000053E3 		cmp	r3, #0
 127 0018 1EFF2F01 		bxeq	lr
 128              	.LVL8:
 129              	.LBB5:
 130              		.loc 1 113 0 is_stmt 0 discriminator 1
 131 001c 0010A0E3 		mov	r1, #0
 132              	.LVL9:
 133 0020 0120E0E3 		mvn	r2, #1
 134              	.LVL10:
 135 0024 201080E5 		str	r1, [r0, #32]
 136 0028 0300A0E1 		mov	r0, r3
 137              	.LVL11:
 138 002c 242083E5 		str	r2, [r3, #36]
 139              	.LVL12:
 140 0030 FEFFFFEA 		b	chSchReadyI
 141              	.LVL13:
 142              	.L18:
 143              	.LBE5:
 144              		.loc 1 115 0 is_stmt 1
 145 0034 020011E3 		tst	r1, #2
 146              		.loc 1 106 0
 147 0038 04E02DE5 		str	lr, [sp, #-4]!
 148              		.cfi_def_cfa_offset 4
 149              		.cfi_offset 14, -4
 150              		.loc 1 115 0
 151 003c 1A00000A 		beq	.L21
 152              		.loc 1 116 0
 153 0040 200011E3 		tst	r1, #32
 154 0044 0C00000A 		beq	.L25
 155 0048 3C3090E5 		ldr	r3, [r0, #60]
 156 004c 381090E5 		ldr	r1, [r0, #56]
 157              	.LVL14:
 158 0050 030051E1 		cmp	r1, r3
 159 0054 0800009A 		bls	.L25
 160              	.L26:
 161              		.loc 1 117 0
 162 0058 341090E5 		ldr	r1, [r0, #52]
 163 005c 10C092E5 		ldr	ip, [r2, #16]
 164 0060 01E083E2 		add	lr, r3, #1
 165 0064 3CE080E5 		str	lr, [r0, #60]
 166 0068 03C0C1E7 		strb	ip, [r1, r3]
 167              		.loc 1 116 0
 168 006c 3C3090E5 		ldr	r3, [r0, #60]
 169 0070 381090E5 		ldr	r1, [r0, #56]
 170 0074 010053E1 		cmp	r3, r1
 171 0078 F6FFFF3A 		bcc	.L26
ARM GAS  /tmp/ccBZqj2k.s 			page 4


 172              	.L25:
 173              		.loc 1 118 0
 174 007c 0010A0E3 		mov	r1, #0
 175              		.loc 1 120 0
 176 0080 203090E5 		ldr	r3, [r0, #32]
 177              		.loc 1 119 0
 178 0084 B8C09FE5 		ldr	ip, .L46
 179              		.loc 1 120 0
 180 0088 010053E1 		cmp	r3, r1
 181              		.loc 1 118 0
 182 008c 001082E5 		str	r1, [r2]
 183              		.loc 1 119 0
 184 0090 04C082E5 		str	ip, [r2, #4]
 185              		.loc 1 120 0
 186 0094 2900000A 		beq	.L45
 187              	.LVL15:
 188              	.LBB6:
 189              		.loc 1 120 0 is_stmt 0 discriminator 1
 190 0098 201080E5 		str	r1, [r0, #32]
 191 009c 241083E5 		str	r1, [r3, #36]
 192 00a0 0300A0E1 		mov	r0, r3
 193              	.LVL16:
 194              	.LBE6:
 195              		.loc 1 130 0 is_stmt 1 discriminator 1
 196 00a4 04E09DE4 		ldr	lr, [sp], #4
 197              		.cfi_remember_state
 198              		.cfi_restore 14
 199              		.cfi_def_cfa_offset 0
 200              	.LBB7:
 201              		.loc 1 120 0 discriminator 1
 202 00a8 FEFFFFEA 		b	chSchReadyI
 203              	.LVL17:
 204              	.L21:
 205              		.cfi_restore_state
 206              	.LBE7:
 207              		.loc 1 122 0
 208 00ac 040011E3 		tst	r1, #4
 209 00b0 1000000A 		beq	.L27
 210              		.loc 1 123 0
 211 00b4 303090E5 		ldr	r3, [r0, #48]
 212 00b8 2CE090E5 		ldr	lr, [r0, #44]
 213 00bc 03005EE1 		cmp	lr, r3
 214 00c0 04F09D94 		ldrls	pc, [sp], #4
 215 00c4 100011E3 		tst	r1, #16
 216 00c8 04F09D04 		ldreq	pc, [sp], #4
 217 00cc 28C090E5 		ldr	ip, [r0, #40]
 218 00d0 03308CE0 		add	r3, ip, r3
 219 00d4 0EE08CE0 		add	lr, ip, lr
 220 00d8 01C06CE2 		rsb	ip, ip, #1
 221              	.LVL18:
 222              	.L28:
 223              		.loc 1 124 0
 224 00dc 03108CE0 		add	r1, ip, r3
 225 00e0 301080E5 		str	r1, [r0, #48]
 226 00e4 0110D3E4 		ldrb	r1, [r3], #1	@ zero_extendqisi2
 227              		.loc 1 123 0
 228 00e8 03005EE1 		cmp	lr, r3
ARM GAS  /tmp/ccBZqj2k.s 			page 5


 229              		.loc 1 124 0
 230 00ec 101082E5 		str	r1, [r2, #16]
 231              		.loc 1 123 0
 232 00f0 F9FFFF1A 		bne	.L28
 233 00f4 04F09DE4 		ldr	pc, [sp], #4
 234              	.LVL19:
 235              	.L27:
 236              		.loc 1 126 0
 237 00f8 080011E3 		tst	r1, #8
 238 00fc 04F09D04 		ldreq	pc, [sp], #4
 239              		.loc 1 127 0
 240 0100 3C3090E5 		ldr	r3, [r0, #60]
 241 0104 38C090E5 		ldr	ip, [r0, #56]
 242 0108 0C0053E1 		cmp	r3, ip
 243 010c 04F09D24 		ldrcs	pc, [sp], #4
 244 0110 200011E3 		tst	r1, #32
 245 0114 04F09D04 		ldreq	pc, [sp], #4
 246              	.LVL20:
 247              	.L29:
 248              		.loc 1 128 0
 249 0118 341090E5 		ldr	r1, [r0, #52]
 250 011c 10C092E5 		ldr	ip, [r2, #16]
 251 0120 01E083E2 		add	lr, r3, #1
 252 0124 3CE080E5 		str	lr, [r0, #60]
 253 0128 03C0C1E7 		strb	ip, [r1, r3]
 254              		.loc 1 127 0
 255 012c 3C3090E5 		ldr	r3, [r0, #60]
 256 0130 381090E5 		ldr	r1, [r0, #56]
 257 0134 010053E1 		cmp	r3, r1
 258 0138 F6FFFF3A 		bcc	.L29
 259 013c 04F09DE4 		ldr	pc, [sp], #4
 260              	.L45:
 261 0140 04F09DE4 		ldr	pc, [sp], #4
 262              	.L47:
 263              		.align	2
 264              	.L46:
 265 0144 02030000 		.word	770
 266              		.cfi_endproc
 267              	.LFE8:
 268              		.size	i2c_lld_serve_interrupt, .-i2c_lld_serve_interrupt
 269              		.section	.text.i2c_lld_init,"ax",%progbits
 270              		.align	2
 271              		.global	i2c_lld_init
 272              		.syntax unified
 273              		.arm
 274              		.fpu softvfp
 275              		.type	i2c_lld_init, %function
 276              	i2c_lld_init:
 277              	.LFB9:
 278              		.loc 1 141 0
 279              		.cfi_startproc
 280              		@ args = 0, pretend = 0, frame = 0
 281              		@ frame_needed = 0, uses_anonymous_args = 0
 282              		@ link register save eliminated.
 283              		.loc 1 142 0
 284 0000 0C309FE5 		ldr	r3, .L49
 285 0004 0C209FE5 		ldr	r2, .L49+4
ARM GAS  /tmp/ccBZqj2k.s 			page 6


 286              		.loc 1 143 0
 287 0008 0300A0E1 		mov	r0, r3
 288              		.loc 1 142 0
 289 000c 0C2083E5 		str	r2, [r3, #12]
 290              		.loc 1 143 0
 291 0010 FEFFFFEA 		b	i2cObjectInit
 292              	.LVL21:
 293              	.L50:
 294              		.align	2
 295              	.L49:
 296 0014 00000000 		.word	I2C0
 297 0018 00408020 		.word	545275904
 298              		.cfi_endproc
 299              	.LFE9:
 300              		.size	i2c_lld_init, .-i2c_lld_init
 301              		.global	__aeabi_uidiv
 302              		.section	.text.i2c_lld_start,"ax",%progbits
 303              		.align	2
 304              		.global	i2c_lld_start
 305              		.syntax unified
 306              		.arm
 307              		.fpu softvfp
 308              		.type	i2c_lld_start, %function
 309              	i2c_lld_start:
 310              	.LFB10:
 311              		.loc 1 153 0
 312              		.cfi_startproc
 313              		@ args = 0, pretend = 0, frame = 0
 314              		@ frame_needed = 0, uses_anonymous_args = 0
 315              	.LVL22:
 316 0000 10402DE9 		push	{r4, lr}
 317              		.cfi_def_cfa_offset 8
 318              		.cfi_offset 4, -8
 319              		.cfi_offset 14, -4
 320              		.loc 1 153 0
 321 0004 0040A0E1 		mov	r4, r0
 322              		.loc 1 160 0
 323 0008 0410A0E3 		mov	r1, #4
 324 000c 0200A0E3 		mov	r0, #2
 325              	.LVL23:
 326 0010 FEFFFFEB 		bl	bcm2835_gpio_fnsel
 327              	.LVL24:
 328              		.loc 1 161 0
 329 0014 0410A0E3 		mov	r1, #4
 330 0018 0300A0E3 		mov	r0, #3
 331 001c FEFFFFEB 		bl	bcm2835_gpio_fnsel
 332              	.LVL25:
 333              		.loc 1 163 0
 334 0020 042094E5 		ldr	r2, [r4, #4]
 335              		.loc 1 164 0
 336 0024 34309FE5 		ldr	r3, .L56
 337              		.loc 1 163 0
 338 0028 001092E5 		ldr	r1, [r2]
 339              	.LVL26:
 340              		.loc 1 164 0
 341 002c 000051E3 		cmp	r1, #0
 342 0030 03005111 		cmpne	r1, r3
ARM GAS  /tmp/ccBZqj2k.s 			page 7


 343 0034 0700000A 		beq	.L55
 344              		.loc 1 165 0
 345 0038 24009FE5 		ldr	r0, .L56+4
 346 003c FEFFFFEB 		bl	__aeabi_uidiv
 347              	.LVL27:
 348 0040 0C2094E5 		ldr	r2, [r4, #12]
 349 0044 140082E5 		str	r0, [r2, #20]
 350              	.L53:
 351              		.loc 1 167 0
 352 0048 003092E5 		ldr	r3, [r2]
 353 004c 023983E3 		orr	r3, r3, #32768
 354 0050 003082E5 		str	r3, [r2]
 355 0054 1080BDE8 		pop	{r4, pc}
 356              	.LVL28:
 357              	.L55:
 358 0058 0C2094E5 		ldr	r2, [r4, #12]
 359 005c F9FFFFEA 		b	.L53
 360              	.L57:
 361              		.align	2
 362              	.L56:
 363 0060 A0860100 		.word	100000
 364 0064 80D1F008 		.word	150000000
 365              		.cfi_endproc
 366              	.LFE10:
 367              		.size	i2c_lld_start, .-i2c_lld_start
 368              		.section	.text.i2c_lld_stop,"ax",%progbits
 369              		.align	2
 370              		.global	i2c_lld_stop
 371              		.syntax unified
 372              		.arm
 373              		.fpu softvfp
 374              		.type	i2c_lld_stop, %function
 375              	i2c_lld_stop:
 376              	.LFB11:
 377              		.loc 1 177 0
 378              		.cfi_startproc
 379              		@ args = 0, pretend = 0, frame = 0
 380              		@ frame_needed = 0, uses_anonymous_args = 0
 381              	.LVL29:
 382 0000 10402DE9 		push	{r4, lr}
 383              		.cfi_def_cfa_offset 8
 384              		.cfi_offset 4, -8
 385              		.cfi_offset 14, -4
 386              		.loc 1 177 0
 387 0004 0040A0E1 		mov	r4, r0
 388              		.loc 1 183 0
 389 0008 0010A0E3 		mov	r1, #0
 390 000c 0200A0E3 		mov	r0, #2
 391              	.LVL30:
 392 0010 FEFFFFEB 		bl	bcm2835_gpio_fnsel
 393              	.LVL31:
 394              		.loc 1 184 0
 395 0014 0010A0E3 		mov	r1, #0
 396 0018 0300A0E3 		mov	r0, #3
 397 001c FEFFFFEB 		bl	bcm2835_gpio_fnsel
 398              	.LVL32:
 399              		.loc 1 186 0
ARM GAS  /tmp/ccBZqj2k.s 			page 8


 400 0020 0C2094E5 		ldr	r2, [r4, #12]
 401 0024 003092E5 		ldr	r3, [r2]
 402 0028 0239C3E3 		bic	r3, r3, #32768
 403 002c 003082E5 		str	r3, [r2]
 404 0030 1080BDE8 		pop	{r4, pc}
 405              		.cfi_endproc
 406              	.LFE11:
 407              		.size	i2c_lld_stop, .-i2c_lld_stop
 408              		.section	.text.i2c_lld_master_receive_timeout,"ax",%progbits
 409              		.align	2
 410              		.global	i2c_lld_master_receive_timeout
 411              		.syntax unified
 412              		.arm
 413              		.fpu softvfp
 414              		.type	i2c_lld_master_receive_timeout, %function
 415              	i2c_lld_master_receive_timeout:
 416              	.LFB13:
 417              		.loc 1 271 0
 418              		.cfi_startproc
 419              		@ args = 4, pretend = 0, frame = 24
 420              		@ frame_needed = 0, uses_anonymous_args = 0
 421              	.LVL33:
 422 0000 F0412DE9 		push	{r4, r5, r6, r7, r8, lr}
 423              		.cfi_def_cfa_offset 24
 424              		.cfi_offset 4, -24
 425              		.cfi_offset 5, -20
 426              		.cfi_offset 6, -16
 427              		.cfi_offset 7, -12
 428              		.cfi_offset 8, -8
 429              		.cfi_offset 14, -4
 430 0004 18D04DE2 		sub	sp, sp, #24
 431              		.cfi_def_cfa_offset 48
 432              		.loc 1 271 0
 433 0008 30509DE5 		ldr	r5, [sp, #48]
 434 000c 0040A0E1 		mov	r4, r0
 435              		.loc 1 275 0
 436 0010 010075E3 		cmn	r5, #1
 437              		.loc 1 271 0
 438 0014 0170A0E1 		mov	r7, r1
 439 0018 0280A0E1 		mov	r8, r2
 440 001c 0360A0E1 		mov	r6, r3
 441              		.loc 1 275 0
 442 0020 0400000A 		beq	.L61
 443              		.loc 1 276 0
 444 0024 0030A0E1 		mov	r3, r0
 445              	.LVL34:
 446 0028 8C209FE5 		ldr	r2, .L73
 447              	.LVL35:
 448 002c 0510A0E1 		mov	r1, r5
 449              	.LVL36:
 450 0030 04008DE2 		add	r0, sp, #4
 451              	.LVL37:
 452 0034 FEFFFFEB 		bl	chVTSetI
 453              	.LVL38:
 454              	.L61:
 455              		.loc 1 279 0
 456 0038 0020A0E3 		mov	r2, #0
ARM GAS  /tmp/ccBZqj2k.s 			page 9


 457              		.loc 1 287 0
 458 003c 0C3094E5 		ldr	r3, [r4, #12]
 459              	.LVL39:
 460              		.loc 1 290 0
 461 0040 78009FE5 		ldr	r0, .L73+4
 462              		.loc 1 293 0
 463 0044 78109FE5 		ldr	r1, .L73+8
 464              		.loc 1 278 0
 465 0048 B472C4E1 		strh	r7, [r4, #36]	@ movhi
 466              		.loc 1 282 0
 467 004c 348084E5 		str	r8, [r4, #52]
 468              		.loc 1 283 0
 469 0050 386084E5 		str	r6, [r4, #56]
 470              		.loc 1 279 0
 471 0054 282084E5 		str	r2, [r4, #40]
 472              		.loc 1 280 0
 473 0058 2C2084E5 		str	r2, [r4, #44]
 474              		.loc 1 281 0
 475 005c 302084E5 		str	r2, [r4, #48]
 476              		.loc 1 284 0
 477 0060 3C2084E5 		str	r2, [r4, #60]
 478              		.loc 1 288 0
 479 0064 0C7083E5 		str	r7, [r3, #12]
 480              		.loc 1 289 0
 481 0068 086083E5 		str	r6, [r3, #8]
 482              		.loc 1 290 0
 483 006c 040083E5 		str	r0, [r3, #4]
 484              		.loc 1 293 0
 485 0070 001083E5 		str	r1, [r3]
 486              		.loc 1 296 0
 487              		.syntax divided
 488              	@ 296 "../../os/hal/platforms/BCM2835/i2c_lld.c" 1
 489 0074 9FF021E3 		msr     CPSR_c, #0x9F
 490              	@ 0 "" 2
 491              		.loc 1 297 0
 492              		.arm
 493              		.syntax unified
 494 0078 48609FE5 		ldr	r6, .L73+12
 495              	.LVL40:
 496              		.loc 1 298 0
 497 007c 0200A0E3 		mov	r0, #2
 498              		.loc 1 297 0
 499 0080 183096E5 		ldr	r3, [r6, #24]
 500              	.LVL41:
 501 0084 203084E5 		str	r3, [r4, #32]
 502              		.loc 1 298 0
 503 0088 FEFFFFEB 		bl	chSchGoSleepS
 504              	.LVL42:
 505              		.loc 1 299 0
 506 008c 010075E3 		cmn	r5, #1
 507 0090 0400000A 		beq	.L62
 508              		.loc 1 299 0 is_stmt 0 discriminator 1
 509 0094 10309DE5 		ldr	r3, [sp, #16]
 510 0098 000053E3 		cmp	r3, #0
 511 009c 0100000A 		beq	.L62
 512              		.loc 1 300 0 is_stmt 1
 513 00a0 04008DE2 		add	r0, sp, #4
ARM GAS  /tmp/ccBZqj2k.s 			page 10


 514 00a4 FEFFFFEB 		bl	chVTResetI
 515              	.LVL43:
 516              	.L62:
 517              		.loc 1 301 0
 518              		.syntax divided
 519              	@ 301 "../../os/hal/platforms/BCM2835/i2c_lld.c" 1
 520 00a8 1FF021E3 		msr     CPSR_c, #0x1F
 521              	@ 0 "" 2
 522              		.loc 1 303 0
 523              		.arm
 524              		.syntax unified
 525 00ac 183096E5 		ldr	r3, [r6, #24]
 526              		.loc 1 304 0
 527 00b0 240093E5 		ldr	r0, [r3, #36]
 528 00b4 18D08DE2 		add	sp, sp, #24
 529              		.cfi_def_cfa_offset 24
 530              		@ sp needed
 531 00b8 F081BDE8 		pop	{r4, r5, r6, r7, r8, pc}
 532              	.LVL44:
 533              	.L74:
 534              		.align	2
 535              	.L73:
 536 00bc 00000000 		.word	i2c_lld_safety_timeout
 537 00c0 02030000 		.word	770
 538 00c4 91850000 		.word	34193
 539 00c8 00000000 		.word	rlist
 540              		.cfi_endproc
 541              	.LFE13:
 542              		.size	i2c_lld_master_receive_timeout, .-i2c_lld_master_receive_timeout
 543              		.section	.text.i2c_lld_master_transmit_timeout,"ax",%progbits
 544              		.align	2
 545              		.global	i2c_lld_master_transmit_timeout
 546              		.syntax unified
 547              		.arm
 548              		.fpu softvfp
 549              		.type	i2c_lld_master_transmit_timeout, %function
 550              	i2c_lld_master_transmit_timeout:
 551              	.LFB12:
 552              		.loc 1 208 0
 553              		.cfi_startproc
 554              		@ args = 12, pretend = 0, frame = 24
 555              		@ frame_needed = 0, uses_anonymous_args = 0
 556              	.LVL45:
 557 0000 F0472DE9 		push	{r4, r5, r6, r7, r8, r9, r10, lr}
 558              		.cfi_def_cfa_offset 32
 559              		.cfi_offset 4, -32
 560              		.cfi_offset 5, -28
 561              		.cfi_offset 6, -24
 562              		.cfi_offset 7, -20
 563              		.cfi_offset 8, -16
 564              		.cfi_offset 9, -12
 565              		.cfi_offset 10, -8
 566              		.cfi_offset 14, -4
 567 0004 20D04DE2 		sub	sp, sp, #32
 568              		.cfi_def_cfa_offset 64
 569              		.loc 1 208 0
 570 0008 48509DE5 		ldr	r5, [sp, #72]
ARM GAS  /tmp/ccBZqj2k.s 			page 11


 571 000c 0040A0E1 		mov	r4, r0
 572              		.loc 1 212 0
 573 0010 010075E3 		cmn	r5, #1
 574              		.loc 1 208 0
 575 0014 0160A0E1 		mov	r6, r1
 576 0018 02A0A0E1 		mov	r10, r2
 577 001c 0390A0E1 		mov	r9, r3
 578 0020 40809DE5 		ldr	r8, [sp, #64]
 579 0024 4470DDE5 		ldrb	r7, [sp, #68]	@ zero_extendqisi2
 580              		.loc 1 212 0
 581 0028 0400000A 		beq	.L76
 582              		.loc 1 213 0
 583 002c 0030A0E1 		mov	r3, r0
 584              	.LVL46:
 585 0030 F8209FE5 		ldr	r2, .L99
 586              	.LVL47:
 587 0034 0510A0E1 		mov	r1, r5
 588              	.LVL48:
 589 0038 0C008DE2 		add	r0, sp, #12
 590              	.LVL49:
 591 003c FEFFFFEB 		bl	chVTSetI
 592              	.LVL50:
 593              	.L76:
 594              		.loc 1 218 0
 595 0040 0020A0E3 		mov	r2, #0
 596              		.loc 1 223 0
 597 0044 0C3094E5 		ldr	r3, [r4, #12]
 598              	.LVL51:
 599              		.loc 1 226 0
 600 0048 E4109FE5 		ldr	r1, .L99+4
 601              		.loc 1 218 0
 602 004c 302084E5 		str	r2, [r4, #48]
 603              		.loc 1 221 0
 604 0050 3C2084E5 		str	r2, [r4, #60]
 605              		.loc 1 215 0
 606 0054 B462C4E1 		strh	r6, [r4, #36]	@ movhi
 607              		.loc 1 216 0
 608 0058 28A084E5 		str	r10, [r4, #40]
 609              		.loc 1 217 0
 610 005c 2C9084E5 		str	r9, [r4, #44]
 611              		.loc 1 219 0
 612 0060 348084E5 		str	r8, [r4, #52]
 613              		.loc 1 220 0
 614 0064 387084E5 		str	r7, [r4, #56]
 615              		.loc 1 224 0
 616 0068 0C6083E5 		str	r6, [r3, #12]
 617              		.loc 1 225 0
 618 006c 089083E5 		str	r9, [r3, #8]
 619              		.loc 1 226 0
 620 0070 041083E5 		str	r1, [r3, #4]
 621              		.loc 1 229 0
 622 0074 002093E5 		ldr	r2, [r3]
 623 0078 832C82E3 		orr	r2, r2, #33536
 624 007c 802082E3 		orr	r2, r2, #128
 625 0080 002083E5 		str	r2, [r3]
 626              		.loc 1 232 0
 627              		.syntax divided
ARM GAS  /tmp/ccBZqj2k.s 			page 12


 628              	@ 232 "../../os/hal/platforms/BCM2835/i2c_lld.c" 1
 629 0084 9FF021E3 		msr     CPSR_c, #0x9F
 630              	@ 0 "" 2
 631              		.loc 1 234 0
 632              		.arm
 633              		.syntax unified
 634 0088 A8909FE5 		ldr	r9, .L99+8
 635              	.LVL52:
 636              		.loc 1 235 0
 637 008c 0200A0E3 		mov	r0, #2
 638              		.loc 1 234 0
 639 0090 183099E5 		ldr	r3, [r9, #24]
 640              	.LVL53:
 641 0094 203084E5 		str	r3, [r4, #32]
 642              		.loc 1 235 0
 643 0098 FEFFFFEB 		bl	chSchGoSleepS
 644              	.LVL54:
 645              		.loc 1 236 0
 646 009c 010075E3 		cmn	r5, #1
 647 00a0 0400000A 		beq	.L77
 648              		.loc 1 236 0 is_stmt 0 discriminator 1
 649 00a4 18309DE5 		ldr	r3, [sp, #24]
 650 00a8 000053E3 		cmp	r3, #0
 651 00ac 0100000A 		beq	.L77
 652              		.loc 1 237 0 is_stmt 1
 653 00b0 0C008DE2 		add	r0, sp, #12
 654 00b4 FEFFFFEB 		bl	chVTResetI
 655              	.LVL55:
 656              	.L77:
 657              		.loc 1 239 0
 658              		.syntax divided
 659              	@ 239 "../../os/hal/platforms/BCM2835/i2c_lld.c" 1
 660 00b8 1FF021E3 		msr     CPSR_c, #0x1F
 661              	@ 0 "" 2
 662              		.loc 1 241 0
 663              		.arm
 664              		.syntax unified
 665 00bc 183099E5 		ldr	r3, [r9, #24]
 666              		.loc 1 243 0
 667 00c0 000057E3 		cmp	r7, #0
 668              		.loc 1 241 0
 669 00c4 249093E5 		ldr	r9, [r3, #36]
 670              	.LVL56:
 671              		.loc 1 243 0
 672 00c8 193F6FE1 		clz	r3, r9
 673 00cc A332A0E1 		lsr	r3, r3, #5
 674 00d0 0030A003 		moveq	r3, #0
 675 00d4 000053E3 		cmp	r3, #0
 676 00d8 0200001A 		bne	.L98
 677              	.L75:
 678              		.loc 1 252 0
 679 00dc 0900A0E1 		mov	r0, r9
 680 00e0 20D08DE2 		add	sp, sp, #32
 681              		.cfi_remember_state
 682              		.cfi_def_cfa_offset 32
 683              		@ sp needed
 684 00e4 F087BDE8 		pop	{r4, r5, r6, r7, r8, r9, r10, pc}
ARM GAS  /tmp/ccBZqj2k.s 			page 13


 685              	.LVL57:
 686              	.L98:
 687              		.cfi_restore_state
 688              		.loc 1 245 0
 689 00e8 00C0E0E3 		mvn	ip, #0
 690 00ec 0730A0E1 		mov	r3, r7
 691 00f0 0820A0E1 		mov	r2, r8
 692 00f4 0610A0E1 		mov	r1, r6
 693 00f8 0400A0E1 		mov	r0, r4
 694 00fc 00C08DE5 		str	ip, [sp]
 695 0100 FEFFFFEB 		bl	i2c_lld_master_receive_timeout
 696              	.LVL58:
 697              		.loc 1 247 0
 698 0104 010075E3 		cmn	r5, #1
 699              		.loc 1 245 0
 700 0108 0090A0E1 		mov	r9, r0
 701              	.LVL59:
 702              		.loc 1 247 0
 703 010c F2FFFF0A 		beq	.L75
 704              		.loc 1 247 0 is_stmt 0 discriminator 1
 705 0110 18309DE5 		ldr	r3, [sp, #24]
 706 0114 000053E3 		cmp	r3, #0
 707 0118 EFFFFF0A 		beq	.L75
 708              		.loc 1 248 0 is_stmt 1
 709 011c 0C008DE2 		add	r0, sp, #12
 710              	.LVL60:
 711 0120 FEFFFFEB 		bl	chVTResetI
 712              	.LVL61:
 713              		.loc 1 252 0
 714 0124 0900A0E1 		mov	r0, r9
 715 0128 20D08DE2 		add	sp, sp, #32
 716              		.cfi_def_cfa_offset 32
 717              		@ sp needed
 718 012c F087BDE8 		pop	{r4, r5, r6, r7, r8, r9, r10, pc}
 719              	.LVL62:
 720              	.L100:
 721              		.align	2
 722              	.L99:
 723 0130 00000000 		.word	i2c_lld_safety_timeout
 724 0134 02030000 		.word	770
 725 0138 00000000 		.word	rlist
 726              		.cfi_endproc
 727              	.LFE12:
 728              		.size	i2c_lld_master_transmit_timeout, .-i2c_lld_master_transmit_timeout
 729              		.comm	I2C1,64,4
 730              		.comm	I2C0,64,4
 731              		.text
 732              	.Letext0:
 733              		.file 2 "/usr/lib/gcc/arm-none-eabi/6.3.1/include/stddef.h"
 734              		.file 3 "/usr/include/newlib/machine/_default_types.h"
 735              		.file 4 "/usr/include/newlib/sys/_stdint.h"
 736              		.file 5 "../../os/ports/GCC/ARM/chtypes.h"
 737              		.file 6 "../../os/kernel/include/chlists.h"
 738              		.file 7 "../../os/kernel/include/chthreads.h"
 739              		.file 8 "../../os/ports/GCC/ARM/chcore.h"
 740              		.file 9 "../../os/kernel/include/chvt.h"
 741              		.file 10 "../../os/kernel/include/chschd.h"
ARM GAS  /tmp/ccBZqj2k.s 			page 14


 742              		.file 11 "../../os/kernel/include/chmtx.h"
 743              		.file 12 "../../os/kernel/include/chevents.h"
 744              		.file 13 "../../os/kernel/include/chregistry.h"
 745              		.file 14 "../../os/kernel/include/chqueues.h"
 746              		.file 15 "../../os/kernel/include/ch.h"
 747              		.file 16 "../../os/hal/platforms/BCM2835/bcm2835.h"
 748              		.file 17 "../../os/hal/platforms/BCM2835/pal_lld.h"
 749              		.file 18 "../../os/hal/include/i2c.h"
 750              		.file 19 "../../os/hal/platforms/BCM2835/i2c_lld.h"
 751              		.file 20 "../../os/hal/include/serial.h"
 752              		.file 21 "../../os/hal/include/spi.h"
 753              		.file 22 "../../os/hal/platforms/BCM2835/spi_lld.h"
 754              		.file 23 "../../os/hal/platforms/BCM2835/serial_lld.h"