ARM GAS  /tmp/ccBZqj2k.s 			page 1


   1              		.cpu arm1176jz-s
   2              		.eabi_attribute 20, 1
   3              		.eabi_attribute 21, 1
   4              		.eabi_attribute 23, 3
   5              		.eabi_attribute 24, 1
   6              		.eabi_attribute 25, 1
   7              		.eabi_attribute 26, 1
   8              		.eabi_attribute 30, 2
   9              		.eabi_attribute 34, 1
  10              		.eabi_attribute 18, 4
  11              		.file	"i2c_lld.c"
  12              		.text
  13              	.Ltext0:
  14              		.cfi_sections	.debug_frame
  15              		.section	.text.i2c_lld_safety_timeout,"ax",%progbits
  16              		.align	2
  17              		.syntax unified
  18              		.arm
  19              		.fpu softvfp
  20              		.type	i2c_lld_safety_timeout, %function
  21              	i2c_lld_safety_timeout:
  22              	.LFB7:
  23              		.file 1 "../../os/hal/platforms/BCM2835/i2c_lld.c"
  24              		.loc 1 79 0
  25              		.cfi_startproc
  26              		@ args = 0, pretend = 0, frame = 0
  27              		@ frame_needed = 0, uses_anonymous_args = 0
  28              	.LVL0:
  29              		.loc 1 82 0
  30 0000 201090E5 		ldr	r1, [r0, #32]
  31 0004 000051E3 		cmp	r1, #0
  32 0008 1EFF2F01 		bxeq	lr
  33 000c 0030A0E1 		mov	r3, r0
  34              	.LBB2:
  35              		.loc 1 83 0
  36 0010 0C2090E5 		ldr	r2, [r0, #12]
  37              	.LVL1:
  38              		.loc 1 85 0
  39 0014 080090E5 		ldr	r0, [r0, #8]
  40              	.LVL2:
  41              	.LBE2:
  42              		.loc 1 79 0
  43 0018 10402DE9 		push	{r4, lr}
  44              		.cfi_def_cfa_offset 8
  45              		.cfi_offset 4, -8
  46              		.cfi_offset 14, -4
  47              	.LBB3:
  48              		.loc 1 86 0
  49 001c 04E092E5 		ldr	lr, [r2, #4]
  50              		.loc 1 85 0
  51 0020 20C080E3 		orr	ip, r0, #32
  52 0024 08C083E5 		str	ip, [r3, #8]
  53              		.loc 1 86 0
  54 0028 020C1EE3 		tst	lr, #512
  55              		.loc 1 91 0
  56 002c 00C0A0E3 		mov	ip, #0
  57              		.loc 1 96 0
ARM GAS  /tmp/ccBZqj2k.s 			page 2


  58 0030 00E0E0E3 		mvn	lr, #0
  59              		.loc 1 87 0
  60 0034 21008013 		orrne	r0, r0, #33
  61 0038 08008315 		strne	r0, [r3, #8]
  62              		.loc 1 88 0
  63 003c 040092E5 		ldr	r0, [r2, #4]
  64              		.loc 1 92 0
  65 0040 28409FE5 		ldr	r4, .L15
  66              		.loc 1 88 0
  67 0044 010C10E3 		tst	r0, #256
  68              		.loc 1 89 0
  69 0048 08009315 		ldrne	r0, [r3, #8]
  70 004c 04008013 		orrne	r0, r0, #4
  71 0050 08008315 		strne	r0, [r3, #8]
  72              		.loc 1 91 0
  73 0054 00C082E5 		str	ip, [r2]
  74              		.loc 1 92 0
  75 0058 044082E5 		str	r4, [r2, #4]
  76              	.LVL3:
  77              		.loc 1 95 0
  78 005c 20C083E5 		str	ip, [r3, #32]
  79              		.loc 1 96 0
  80 0060 24E081E5 		str	lr, [r1, #36]
  81              		.loc 1 97 0
  82 0064 0100A0E1 		mov	r0, r1
  83              	.LBE3:
  84              		.loc 1 100 0
  85 0068 1040BDE8 		pop	{r4, lr}
  86              		.cfi_restore 14
  87              		.cfi_restore 4
  88              		.cfi_def_cfa_offset 0
  89              	.LBB4:
  90              		.loc 1 97 0
  91 006c FEFFFFEA 		b	chSchReadyI
  92              	.LVL4:
  93              	.L16:
  94              		.align	2
  95              	.L15:
  96 0070 02030000 		.word	770
  97              	.LBE4:
  98              		.cfi_endproc
  99              	.LFE7:
 100              		.size	i2c_lld_safety_timeout, .-i2c_lld_safety_timeout
 101              		.section	.text.i2c_lld_serve_interrupt,"ax",%progbits
 102              		.align	2
 103              		.global	i2c_lld_serve_interrupt
 104              		.syntax unified
 105              		.arm
 106              		.fpu softvfp
 107              		.type	i2c_lld_serve_interrupt, %function
 108              	i2c_lld_serve_interrupt:
 109              	.LFB8:
 110              		.loc 1 106 0
 111              		.cfi_startproc
 112              		@ args = 0, pretend = 0, frame = 0
 113              		@ frame_needed = 0, uses_anonymous_args = 0
 114              	.LVL5:
ARM GAS  /tmp/ccBZqj2k.s 			page 3


 115              		.loc 1 108 0
 116 0000 0C2090E5 		ldr	r2, [r0, #12]
 117              	.LVL6:
 118              		.loc 1 109 0
 119 0004 041092E5 		ldr	r1, [r2, #4]
 120              	.LVL7:
 121              		.loc 1 111 0
 122 0008 030C11E3 		tst	r1, #768
 123 000c 0800000A 		beq	.L18
 124              		.loc 1 113 0
 125 0010 203090E5 		ldr	r3, [r0, #32]
 126 0014 000053E3 		cmp	r3, #0
 127 0018 1EFF2F01 		bxeq	lr
 128              	.LVL8:
 129              	.LBB5:
 130              		.loc 1 113 0 is_stmt 0 discriminator 1
 131 001c 0010A0E3 		mov	r1, #0
 132              	.LVL9:
 133 0020 0120E0E3 		mvn	r2, #1
 134              	.LVL10:
 135 0024 201080E5 		str	r1, [r0, #32]
 136 0028 0300A0E1 		mov	r0, r3
 137              	.LVL11:
 138 002c 242083E5 		str	r2, [r3, #36]
 139              	.LVL12:
 140 0030 FEFFFFEA 		b	chSchReadyI
 141              	.LVL13:
 142              	.L18:
 143              	.LBE5:
 144              		.loc 1 115 0 is_stmt 1
 145 0034 020011E3 		tst	r1, #2
 146              		.loc 1 106 0
 147 0038 04E02DE5 		str	lr, [sp, #-4]!
 148              		.cfi_def_cfa_offset 4
 149              		.cfi_offset 14, -4
 150              		.loc 1 115 0
 151 003c 1A00000A 		beq	.L21
 152              		.loc 1 116 0
 153 0040 200011E3 		tst	r1, #32
 154 0044 0C00000A 		beq	.L25
 155 0048 3C3090E5 		ldr	r3, [r0, #60]
 156 004c 381090E5 		ldr	r1, [r0, #56]
 157              	.LVL14:
 158 0050 030051E1 		cmp	r1, r3
 159 0054 0800009A 		bls	.L25
 160              	.L26:
 161              		.loc 1 117 0
 162 0058 341090E5 		ldr	r1, [r0, #52]
 163 005c 10C092E5 		ldr	ip, [r2, #16]
 164 0060 01E083E2 		add	lr, r3, #1
 165 0064 3CE080E5 		str	lr, [r0, #60]
 166 0068 03C0C1E7 		strb	ip, [r1, r3]
 167              		.loc 1 116 0
 168 006c 3C3090E5 		ldr	r3, [r0, #60]
 169 0070 381090E5 		ldr	r1, [r0, #56]
 170 0074 010053E1 		cmp	r3, r1
 171 0078 F6FFFF3A 		bcc	.L26
ARM GAS  /tmp/ccBZqj2k.s 			page 4


 172              	.L25:
 173              		.loc 1 118 0
 174 007c 0010A0E3 		mov	r1, #0
 175              		.loc 1 120 0
 176 0080 203090E5 		ldr	r3, [r0, #32]
 177              		.loc 1 119 0
 178 0084 B8C09FE5 		ldr	ip, .L46
 179              		.loc 1 120 0
 180 0088 010053E1 		cmp	r3, r1
 181              		.loc 1 118 0
 182 008c 001082E5 		str	r1, [r2]
 183              		.loc 1 119 0
 184 0090 04C082E5 		str	ip, [r2, #4]
 185              		.loc 1 120 0
 186 0094 2900000A 		beq	.L45
 187              	.LVL15:
 188              	.LBB6:
 189              		.loc 1 120 0 is_stmt 0 discriminator 1
 190 0098 201080E5 		str	r1, [r0, #32]
 191 009c 241083E5 		str	r1, [r3, #36]
 192 00a0 0300A0E1 		mov	r0, r3
 193              	.LVL16:
 194              	.LBE6:
 195              		.loc 1 130 0 is_stmt 1 discriminator 1
 196 00a4 04E09DE4 		ldr	lr, [sp], #4
 197              		.cfi_remember_state
 198              		.cfi_restore 14
 199              		.cfi_def_cfa_offset 0
 200              	.LBB7:
 201              		.loc 1 120 0 discriminator 1
 202 00a8 FEFFFFEA 		b	chSchReadyI
 203              	.LVL17:
 204              	.L21:
 205              		.cfi_restore_state
 206              	.LBE7:
 207              		.loc 1 122 0
 208 00ac 040011E3 		tst	r1, #4
 209 00b0 1000000A 		beq	.L27
 210              		.loc 1 123 0
 211 00b4 303090E5 		ldr	r3, [r0, #48]
 212 00b8 2CE090E5 		ldr	lr, [r0, #44]
 213 00bc 03005EE1 		cmp	lr, r3
 214 00c0 04F09D94 		ldrls	pc, [sp], #4
 215 00c4 100011E3 		tst	r1, #16
 216 00c8 04F09D04 		ldreq	pc, [sp], #4
 217 00cc 28C090E5 		ldr	ip, [r0, #40]
 218 00d0 03308CE0 		add	r3, ip, r3
 219 00d4 0EE08CE0 		add	lr, ip, lr
 220 00d8 01C06CE2 		rsb	ip, ip, #1
 221              	.LVL18:
 222              	.L28:
 223              		.loc 1 124 0
 224 00dc 03108CE0 		add	r1, ip, r3
 225 00e0 301080E5 		str	r1, [r0, #48]
 226 00e4 0110D3E4 		ldrb	r1, [r3], #1	@ zero_extendqisi2
 227              		.loc 1 123 0
 228 00e8 03005EE1 		cmp	lr, r3
ARM GAS  /tmp/ccBZqj2k.s 			page 5


 229              		.loc 1 124 0
 230 00ec 101082E5 		str	r1, [r2, #16]
 231              		.loc 1 123 0
 232 00f0 F9FFFF1A 		bne	.L28
 233 00f4 04F09DE4 		ldr	pc, [sp], #4
 234              	.LVL19:
 235              	.L27:
 236              		.loc 1 126 0
 237 00f8 080011E3 		tst	r1, #8
 238 00fc 04F09D04 		ldreq	pc, [sp], #4
 239              		.loc 1 127 0
 240 0100 3C3090E5 		ldr	r3, [r0, #60]
 241 0104 38C090E5 		ldr	ip, [r0, #56]
 242 0108 0C0053E1 		cmp	r3, ip
 243 010c 04F09D24 		ldrcs	pc, [sp], #4
 244 0110 200011E3 		tst	r1, #32
 245 0114 04F09D04 		ldreq	pc, [sp], #4
 246              	.LVL20:
 247              	.L29:
 248              		.loc 1 128 0
 249 0118 341090E5 		ldr	r1, [r0, #52]
 250 011c 10C092E5 		ldr	ip, [r2, #16]
 251 0120 01E083E2 		add	lr, r3, #1
 252 0124 3CE080E5 		str	lr, [r0, #60]
 253 0128 03C0C1E7 		strb	ip, [r1, r3]
 254              		.loc 1 127 0
 255 012c 3C3090E5 		ldr	r3, [r0, #60]
 256 0130 381090E5 		ldr	r1, [r0, #56]
 257 0134 010053E1 		cmp	r3, r1
 258 0138 F6FFFF3A 		bcc	.L29
 259 013c 04F09DE4 		ldr	pc, [sp], #4
 260              	.L45:
 261 0140 04F09DE4 		ldr	pc, [sp], #4
 262              	.L47:
 263              		.align	2
 264              	.L46:
 265 0144 02030000 		.word	770
 266              		.cfi_endproc
 267              	.LFE8:
 268              		.size	i2c_lld_serve_interrupt, .-i2c_lld_serve_interrupt
 269              		.section	.text.i2c_lld_init,"ax",%progbits
 270              		.align	2
 271              		.global	i2c_lld_init
 272              		.syntax unified
 273              		.arm
 274              		.fpu softvfp
 275              		.type	i2c_lld_init, %function
 276              	i2c_lld_init:
 277              	.LFB9:
 278              		.loc 1 141 0
 279              		.cfi_startproc
 280              		@ args = 0, pretend = 0, frame = 0
 281              		@ frame_needed = 0, uses_anonymous_args = 0
 282              		@ link register save eliminated.
 283              		.loc 1 142 0
 284 0000 0C309FE5 		ldr	r3, .L49
 285 0004 0C209FE5 		ldr	r2, .L49+4
ARM GAS  /tmp/ccBZqj2k.s 			page 6


 286              		.loc 1 143 0
 287 0008 0300A0E1 		mov	r0, r3
 288              		.loc 1 142 0
 289 000c 0C2083E5 		str	r2, [r3, #12]
 290              		.loc 1 143 0
 291 0010 FEFFFFEA 		b	i2cObjectInit
 292              	.LVL21:
 293              	.L50:
 294              		.align	2
 295              	.L49:
 296 0014 00000000 		.word	I2C0
 297 0018 00408020 		.word	545275904
 298              		.cfi_endproc
 299              	.LFE9:
 300              		.size	i2c_lld_init, .-i2c_lld_init
 301              		.global	__aeabi_uidiv
 302              		.section	.text.i2c_lld_start,"ax",%progbits
 303              		.align	2
 304              		.global	i2c_lld_start
 305              		.syntax unified
 306              		.arm
 307              		.fpu softvfp
 308              		.type	i2c_lld_start, %function
 309              	i2c_lld_start:
 310              	.LFB10:
 311              		.loc 1 153 0
 312              		.cfi_startproc
 313              		@ args = 0, pretend = 0, frame = 0
 314              		@ frame_needed = 0, uses_anonymous_args = 0
 315              	.LVL22:
 316 0000 10402DE9 		push	{r4, lr}
 317              		.cfi_def_cfa_offset 8
 318              		.cfi_offset 4, -8
 319              		.cfi_offset 14, -4
 320              		.loc 1 153 0
 321 0004 0040A0E1 		mov	r4, r0
 322              		.loc 1 160 0
 323 0008 0410A0E3 		mov	r1, #4
 324 000c 0200A0E3 		mov	r0, #2
 325              	.LVL23:
 326 0010 FEFFFFEB 		bl	bcm2835_gpio_fnsel
 327              	.LVL24:
 328              		.loc 1 161 0
 329 0014 0410A0E3 		mov	r1, #4
 330 0018 0300A0E3 		mov	r0, #3
 331 001c FEFFFFEB 		bl	bcm2835_gpio_fnsel
 332              	.LVL25:
 333              		.loc 1 163 0
 334 0020 042094E5 		ldr	r2, [r4, #4]
 335              		.loc 1 164 0
 336 0024 34309FE5 		ldr	r3, .L56
 337              		.loc 1 163 0
 338 0028 001092E5 		ldr	r1, [r2]
 339              	.LVL26:
 340              		.loc 1 164 0
 341 002c 000051E3 		cmp	r1, #0
 342 0030 03005111 		cmpne	r1, r3
ARM GAS  /tmp/ccBZqj2k.s 			page 7


 343 0034 0700000A 		beq	.L55
 344              		.loc 1 165 0
 345 0038 24009FE5 		ldr	r0, .L56+4
 346 003c FEFFFFEB 		bl	__aeabi_uidiv
 347              	.LVL27:
 348 0040 0C2094E5 		ldr	r2, [r4, #12]
 349 0044 140082E5 		str	r0, [r2, #20]
 350              	.L53:
 351              		.loc 1 167 0
 352 0048 003092E5 		ldr	r3, [r2]
 353 004c 023983E3 		orr	r3, r3, #32768
 354 0050 003082E5 		str	r3, [r2]
 355 0054 1080BDE8 		pop	{r4, pc}
 356              	.LVL28:
 357              	.L55:
 358 0058 0C2094E5 		ldr	r2, [r4, #12]
 359 005c F9FFFFEA 		b	.L53
 360              	.L57:
 361              		.align	2
 362              	.L56:
 363 0060 A0860100 		.word	100000
 364 0064 80D1F008 		.word	150000000
 365              		.cfi_endproc
 366              	.LFE10:
 367              		.size	i2c_lld_start, .-i2c_lld_start
 368              		.section	.text.i2c_lld_stop,"ax",%progbits
 369              		.align	2
 370              		.global	i2c_lld_stop
 371              		.syntax unified
 372              		.arm
 373              		.fpu softvfp
 374              		.type	i2c_lld_stop, %function
 375              	i2c_lld_stop:
 376              	.LFB11:
 377              		.loc 1 177 0
 378              		.cfi_startproc
 379              		@ args = 0, pretend = 0, frame = 0
 380              		@ frame_needed = 0, uses_anonymous_args = 0
 381              	.LVL29:
 382 0000 10402DE9 		push	{r4, lr}
 383              		.cfi_def_cfa_offset 8
 384              		.cfi_offset 4, -8
 385              		.cfi_offset 14, -4
 386              		.loc 1 177 0
 387 0004 0040A0E1 		mov	r4, r0
 388              		.loc 1 183 0
 389 0008 0010A0E3 		mov	r1, #0
 390 000c 0200A0E3 		mov	r0, #2
 391              	.LVL30:
 392 0010 FEFFFFEB 		bl	bcm2835_gpio_fnsel
 393              	.LVL31:
 394              		.loc 1 184 0
 395 0014 0010A0E3 		mov	r1, #0
 396 0018 0300A0E3 		mov	r0, #3
 397 001c FEFFFFEB 		bl	bcm2835_gpio_fnsel
 398              	.LVL32:
 399              		.loc 1 186 0
ARM GAS  /tmp/ccBZqj2k.s 			page 8


 400 0020 0C2094E5 		ldr	r2, [r4, #12]
 401 0024 003092E5 		ldr	r3, [r2]
 402 0028 0239C3E3 		bic	r3, r3, #32768
 403 002c 003082E5 		str	r3, [r2]
 404 0030 1080BDE8 		pop	{r4, pc}
 405              		.cfi_endproc
 406              	.LFE11:
 407              		.size	i2c_lld_stop, .-i2c_lld_stop
 408              		.section	.text.i2c_lld_master_receive_timeout,"ax",%progbits
 409              		.align	2
 410              		.global	i2c_lld_master_receive_timeout
 411              		.syntax unified
 412              		.arm
 413              		.fpu softvfp
 414              		.type	i2c_lld_master_receive_timeout, %function
 415              	i2c_lld_master_receive_timeout:
 416              	.LFB13:
 417              		.loc 1 271 0
 418              		.cfi_startproc
 419              		@ args = 4, pretend = 0, frame = 24
 420              		@ frame_needed = 0, uses_anonymous_args = 0
 421              	.LVL33:
 422 0000 F0412DE9 		push	{r4, r5, r6, r7, r8, lr}
 423              		.cfi_def_cfa_offset 24
 424              		.cfi_offset 4, -24
 425              		.cfi_offset 5, -20
 426              		.cfi_offset 6, -16
 427              		.cfi_offset 7, -12
 428              		.cfi_offset 8, -8
 429              		.cfi_offset 14, -4
 430 0004 18D04DE2 		sub	sp, sp, #24
 431              		.cfi_def_cfa_offset 48
 432              		.loc 1 271 0
 433 0008 30509DE5 		ldr	r5, [sp, #48]
 434 000c 0040A0E1 		mov	r4, r0
 435              		.loc 1 275 0
 436 0010 010075E3 		cmn	r5, #1
 437              		.loc 1 271 0
 438 0014 0170A0E1 		mov	r7, r1
 439 0018 0280A0E1 		mov	r8, r2
 440 001c 0360A0E1 		mov	r6, r3
 441              		.loc 1 275 0
 442 0020 0400000A 		beq	.L61
 443              		.loc 1 276 0
 444 0024 0030A0E1 		mov	r3, r0
 445              	.LVL34:
 446 0028 8C209FE5 		ldr	r2, .L73
 447              	.LVL35:
 448 002c 0510A0E1 		mov	r1, r5
 449              	.LVL36:
 450 0030 04008DE2 		add	r0, sp, #4
 451              	.LVL37:
 452 0034 FEFFFFEB 		bl	chVTSetI
 453              	.LVL38:
 454              	.L61:
 455              		.loc 1 279 0
 456 0038 0020A0E3 		mov	r2, #0
ARM GAS  /tmp/ccBZqj2k.s 			page 9


 457              		.loc 1 287 0
 458 003c 0C3094E5 		ldr	r3, [r4, #12]
 459              	.LVL39:
 460              		.loc 1 290 0
 461 0040 78009FE5 		ldr	r0, .L73+4
 462              		.loc 1 293 0
 463 0044 78109FE5 		ldr	r1, .L73+8
 464              		.loc 1 278 0
 465 0048 B472C4E1 		strh	r7, [r4, #36]	@ movhi
 466              		.loc 1 282 0
 467 004c 348084E5 		str	r8, [r4, #52]
 468              		.loc 1 283 0
 469 0050 386084E5 		str	r6, [r4, #56]
 470              		.loc 1 279 0
 471 0054 282084E5 		str	r2, [r4, #40]
 472              		.loc 1 280 0
 473 0058 2C2084E5 		str	r2, [r4, #44]
 474              		.loc 1 281 0
 475 005c 302084E5 		str	r2, [r4, #48]
 476              		.loc 1 284 0
 477 0060 3C2084E5 		str	r2, [r4, #60]
 478              		.loc 1 288 0
 479 0064 0C7083E5 		str	r7, [r3, #12]
 480              		.loc 1 289 0
 481 0068 086083E5 		str	r6, [r3, #8]
 482              		.loc 1 290 0
 483 006c 040083E5 		str	r0, [r3, #4]
 484              		.loc 1 293 0
 485 0070 001083E5 		str	r1, [r3]
 486              		.loc 1 296 0
 487              		.syntax divided
 488              	@ 296 "../../os/hal/platforms/BCM2835/i2c_lld.c" 1
 489 0074 9FF021E3 		msr     CPSR_c, #0x9F
 490              	@ 0 "" 2
 491              		.loc 1 297 0
 492              		.arm
 493              		.syntax unified
 494 0078 48609FE5 		ldr	r6, .L73+12
 495              	.LVL40:
 496              		.loc 1 298 0
 497 007c 0200A0E3 		mov	r0, #2
 498              		.loc 1 297 0
 499 0080 183096E5 		ldr	r3, [r6, #24]
 500              	.LVL41:
 501 0084 203084E5 		str	r3, [r4, #32]
 502              		.loc 1 298 0
 503 0088 FEFFFFEB 		bl	chSchGoSleepS
 504              	.LVL42:
 505              		.loc 1 299 0
 506 008c 010075E3 		cmn	r5, #1
 507 0090 0400000A 		beq	.L62
 508              		.loc 1 299 0 is_stmt 0 discriminator 1
 509 0094 10309DE5 		ldr	r3, [sp, #16]
 510 0098 000053E3 		cmp	r3, #0
 511 009c 0100000A 		beq	.L62
 512              		.loc 1 300 0 is_stmt 1
 513 00a0 04008DE2 		add	r0, sp, #4
ARM GAS  /tmp/ccBZqj2k.s 			page 10


 514 00a4 FEFFFFEB 		bl	chVTResetI
 515              	.LVL43:
 516              	.L62:
 517              		.loc 1 301 0
 518              		.syntax divided
 519              	@ 301 "../../os/hal/platforms/BCM2835/i2c_lld.c" 1
 520 00a8 1FF021E3 		msr     CPSR_c, #0x1F
 521              	@ 0 "" 2
 522              		.loc 1 303 0
 523              		.arm
 524              		.syntax unified
 525 00ac 183096E5 		ldr	r3, [r6, #24]
 526              		.loc 1 304 0
 527 00b0 240093E5 		ldr	r0, [r3, #36]
 528 00b4 18D08DE2 		add	sp, sp, #24
 529              		.cfi_def_cfa_offset 24
 530              		@ sp needed
 531 00b8 F081BDE8 		pop	{r4, r5, r6, r7, r8, pc}
 532              	.LVL44:
 533              	.L74:
 534              		.align	2
 535              	.L73:
 536 00bc 00000000 		.word	i2c_lld_safety_timeout
 537 00c0 02030000 		.word	770
 538 00c4 91850000 		.word	34193
 539 00c8 00000000 		.word	rlist
 540              		.cfi_endproc
 541              	.LFE13:
 542              		.size	i2c_lld_master_receive_timeout, .-i2c_lld_master_receive_timeout
 543              		.section	.text.i2c_lld_master_transmit_timeout,"ax",%progbits
 544              		.align	2
 545              		.global	i2c_lld_master_transmit_timeout
 546              		.syntax unified
 547              		.arm
 548              		.fpu softvfp
 549              		.type	i2c_lld_master_transmit_timeout, %function
 550              	i2c_lld_master_transmit_timeout:
 551              	.LFB12:
 552              		.loc 1 208 0
 553              		.cfi_startproc
 554              		@ args = 12, pretend = 0, frame = 24
 555              		@ frame_needed = 0, uses_anonymous_args = 0
 556              	.LVL45:
 557 0000 F0472DE9 		push	{r4, r5, r6, r7, r8, r9, r10, lr}
 558              		.cfi_def_cfa_offset 32
 559              		.cfi_offset 4, -32
 560              		.cfi_offset 5, -28
 561              		.cfi_offset 6, -24
 562              		.cfi_offset 7, -20
 563              		.cfi_offset 8, -16
 564              		.cfi_offset 9, -12
 565              		.cfi_offset 10, -8
 566              		.cfi_offset 14, -4
 567 0004 20D04DE2 		sub	sp, sp, #32
 568              		.cfi_def_cfa_offset 64
 569              		.loc 1 208 0
 570 0008 48509DE5 		ldr	r5, [sp, #72]
ARM GAS  /tmp/ccBZqj2k.s 			page 11


 571 000c 0040A0E1 		mov	r4, r0
 572              		.loc 1 212 0
 573 0010 010075E3 		cmn	r5, #1
 574              		.loc 1 208 0
 575 0014 0160A0E1 		mov	r6, r1
 576 0018 02A0A0E1 		mov	r10, r2
 577 001c 0390A0E1 		mov	r9, r3
 578 0020 40809DE5 		ldr	r8, [sp, #64]
 579 0024 4470DDE5 		ldrb	r7, [sp, #68]	@ zero_extendqisi2
 580              		.loc 1 212 0
 581 0028 0400000A 		beq	.L76
 582              		.loc 1 213 0
 583 002c 0030A0E1 		mov	r3, r0
 584              	.LVL46:
 585 0030 F8209FE5 		ldr	r2, .L99
 586              	.LVL47:
 587 0034 0510A0E1 		mov	r1, r5
 588              	.LVL48:
 589 0038 0C008DE2 		add	r0, sp, #12
 590              	.LVL49:
 591 003c FEFFFFEB 		bl	chVTSetI
 592              	.LVL50:
 593              	.L76:
 594              		.loc 1 218 0
 595 0040 0020A0E3 		mov	r2, #0
 596              		.loc 1 223 0
 597 0044 0C3094E5 		ldr	r3, [r4, #12]
 598              	.LVL51:
 599              		.loc 1 226 0
 600 0048 E4109FE5 		ldr	r1, .L99+4
 601              		.loc 1 218 0
 602 004c 302084E5 		str	r2, [r4, #48]
 603              		.loc 1 221 0
 604 0050 3C2084E5 		str	r2, [r4, #60]
 605              		.loc 1 215 0
 606 0054 B462C4E1 		strh	r6, [r4, #36]	@ movhi
 607              		.loc 1 216 0
 608 0058 28A084E5 		str	r10, [r4, #40]
 609              		.loc 1 217 0
 610 005c 2C9084E5 		str	r9, [r4, #44]
 611              		.loc 1 219 0
 612 0060 348084E5 		str	r8, [r4, #52]
 613              		.loc 1 220 0
 614 0064 387084E5 		str	r7, [r4, #56]
 615              		.loc 1 224 0
 616 0068 0C6083E5 		str	r6, [r3, #12]
 617              		.loc 1 225 0
 618 006c 089083E5 		str	r9, [r3, #8]
 619              		.loc 1 226 0
 620 0070 041083E5 		str	r1, [r3, #4]
 621              		.loc 1 229 0
 622 0074 002093E5 		ldr	r2, [r3]
 623 0078 832C82E3 		orr	r2, r2, #33536
 624 007c 802082E3 		orr	r2, r2, #128
 625 0080 002083E5 		str	r2, [r3]
 626              		.loc 1 232 0
 627              		.syntax divided
ARM GAS  /tmp/ccBZqj2k.s 			page 12


 628              	@ 232 "../../os/hal/platforms/BCM2835/i2c_lld.c" 1
 629 0084 9FF021E3 		msr     CPSR_c, #0x9F
 630              	@ 0 "" 2
 631              		.loc 1 234 0
 632              		.arm
 633              		.syntax unified
 634 0088 A8909FE5 		ldr	r9, .L99+8
 635              	.LVL52:
 636              		.loc 1 235 0
 637 008c 0200A0E3 		mov	r0, #2
 638              		.loc 1 234 0
 639 0090 183099E5 		ldr	r3, [r9, #24]
 640              	.LVL53:
 641 0094 203084E5 		str	r3, [r4, #32]
 642              		.loc 1 235 0
 643 0098 FEFFFFEB 		bl	chSchGoSleepS
 644              	.LVL54:
 645              		.loc 1 236 0
 646 009c 010075E3 		cmn	r5, #1
 647 00a0 0400000A 		beq	.L77
 648              		.loc 1 236 0 is_stmt 0 discriminator 1
 649 00a4 18309DE5 		ldr	r3, [sp, #24]
 650 00a8 000053E3 		cmp	r3, #0
 651 00ac 0100000A 		beq	.L77
 652              		.loc 1 237 0 is_stmt 1
 653 00b0 0C008DE2 		add	r0, sp, #12
 654 00b4 FEFFFFEB 		bl	chVTResetI
 655              	.LVL55:
 656              	.L77:
 657              		.loc 1 239 0
 658              		.syntax divided
 659              	@ 239 "../../os/hal/platforms/BCM2835/i2c_lld.c" 1
 660 00b8 1FF021E3 		msr     CPSR_c, #0x1F
 661              	@ 0 "" 2
 662              		.loc 1 241 0
 663              		.arm
 664              		.syntax unified
 665 00bc 183099E5 		ldr	r3, [r9, #24]
 666              		.loc 1 243 0
 667 00c0 000057E3 		cmp	r7, #0
 668              		.loc 1 241 0
 669 00c4 249093E5 		ldr	r9, [r3, #36]
 670              	.LVL56:
 671              		.loc 1 243 0
 672 00c8 193F6FE1 		clz	r3, r9
 673 00cc A332A0E1 		lsr	r3, r3, #5
 674 00d0 0030A003 		moveq	r3, #0
 675 00d4 000053E3 		cmp	r3, #0
 676 00d8 0200001A 		bne	.L98
 677              	.L75:
 678              		.loc 1 252 0
 679 00dc 0900A0E1 		mov	r0, r9
 680 00e0 20D08DE2 		add	sp, sp, #32
 681              		.cfi_remember_state
 682              		.cfi_def_cfa_offset 32
 683              		@ sp needed
 684 00e4 F087BDE8 		pop	{r4, r5, r6, r7, r8, r9, r10, pc}
ARM GAS  /tmp/ccBZqj2k.s 			page 13


 685              	.LVL57:
 686              	.L98:
 687              		.cfi_restore_state
 688              		.loc 1 245 0
 689 00e8 00C0E0E3 		mvn	ip, #0
 690 00ec 0730A0E1 		mov	r3, r7
 691 00f0 0820A0E1 		mov	r2, r8
 692 00f4 0610A0E1 		mov	r1, r6
 693 00f8 0400A0E1 		mov	r0, r4
 694 00fc 00C08DE5 		str	ip, [sp]
 695 0100 FEFFFFEB 		bl	i2c_lld_master_receive_timeout
 696              	.LVL58:
 697              		.loc 1 247 0
 698 0104 010075E3 		cmn	r5, #1
 699              		.loc 1 245 0
 700 0108 0090A0E1 		mov	r9, r0
 701              	.LVL59:
 702              		.loc 1 247 0
 703 010c F2FFFF0A 		beq	.L75
 704              		.loc 1 247 0 is_stmt 0 discriminator 1
 705 0110 18309DE5 		ldr	r3, [sp, #24]
 706 0114 000053E3 		cmp	r3, #0
 707 0118 EFFFFF0A 		beq	.L75
 708              		.loc 1 248 0 is_stmt 1
 709 011c 0C008DE2 		add	r0, sp, #12
 710              	.LVL60:
 711 0120 FEFFFFEB 		bl	chVTResetI
 712              	.LVL61:
 713              		.loc 1 252 0
 714 0124 0900A0E1 		mov	r0, r9
 715 0128 20D08DE2 		add	sp, sp, #32
 716              		.cfi_def_cfa_offset 32
 717              		@ sp needed
 718 012c F087BDE8 		pop	{r4, r5, r6, r7, r8, r9, r10, pc}
 719              	.LVL62:
 720              	.L100:
 721              		.align	2
 722              	.L99:
 723 0130 00000000 		.word	i2c_lld_safety_timeout
 724 0134 02030000 		.word	770
 725 0138 00000000 		.word	rlist
 726              		.cfi_endproc
 727              	.LFE12:
 728              		.size	i2c_lld_master_transmit_timeout, .-i2c_lld_master_transmit_timeout
 729              		.comm	I2C1,64,4
 730              		.comm	I2C0,64,4
 731              		.text
 732              	.Letext0:
 733              		.file 2 "/usr/lib/gcc/arm-none-eabi/6.3.1/include/stddef.h"
 734              		.file 3 "/usr/include/newlib/machine/_default_types.h"
 735              		.file 4 "/usr/include/newlib/sys/_stdint.h"
 736              		.file 5 "../../os/ports/GCC/ARM/chtypes.h"
 737              		.file 6 "../../os/kernel/include/chlists.h"
 738              		.file 7 "../../os/kernel/include/chthreads.h"
 739              		.file 8 "../../os/ports/GCC/ARM/chcore.h"
 740              		.file 9 "../../os/kernel/include/chvt.h"
 741              		.file 10 "../../os/kernel/include/chschd.h"
ARM GAS  /tmp/ccBZqj2k.s 			page 14


 742              		.file 11 "../../os/kernel/include/chmtx.h"
 743              		.file 12 "../../os/kernel/include/chevents.h"
 744              		.file 13 "../../os/kernel/include/chregistry.h"
 745              		.file 14 "../../os/kernel/include/chqueues.h"
 746              		.file 15 "../../os/kernel/include/ch.h"
 747              		.file 16 "../../os/hal/platforms/BCM2835/bcm2835.h"
 748              		.file 17 "../../os/hal/platforms/BCM2835/pal_lld.h"
 749              		.file 18 "../../os/hal/include/i2c.h"
 750              		.file 19 "../../os/hal/platforms/BCM2835/i2c_lld.h"
 751              		.file 20 "../../os/hal/include/serial.h"
 752              		.file 21 "../../os/hal/include/spi.h"
 753              		.file 22 "../../os/hal/platforms/BCM2835/spi_lld.h"
 754              		.file 23 "../../os/hal/platforms/BCM2835/serial_lld.h"
 755              		.section	.debug_info,"",%progbits
 756              	.Ldebug_info0:
 757 0000 4E110000 		.4byte	0x114e
 758 0004 0400     		.2byte	0x4
 759 0006 00000000 		.4byte	.Ldebug_abbrev0
 760 000a 04       		.byte	0x4
 761 000b 01       		.uleb128 0x1
 762 000c A7070000 		.4byte	.LASF217
 763 0010 0C       		.byte	0xc
 764 0011 47040000 		.4byte	.LASF218
 765 0015 7E000000 		.4byte	.LASF219
 766 0019 38000000 		.4byte	.Ldebug_ranges0+0x38
 767 001d 00000000 		.4byte	0
 768 0021 00000000 		.4byte	.Ldebug_line0
 769 0025 02       		.uleb128 0x2
 770 0026 04       		.byte	0x4
 771 0027 05       		.byte	0x5
 772 0028 696E7400 		.ascii	"int\000"
 773 002c 03       		.uleb128 0x3
 774 002d 13000000 		.4byte	.LASF2
 775 0031 02       		.byte	0x2
 776 0032 D8       		.byte	0xd8
 777 0033 37000000 		.4byte	0x37
 778 0037 04       		.uleb128 0x4
 779 0038 04       		.byte	0x4
 780 0039 07       		.byte	0x7
 781 003a 07030000 		.4byte	.LASF0
 782 003e 05       		.uleb128 0x5
 783 003f 37000000 		.4byte	0x37
 784 0043 04       		.uleb128 0x4
 785 0044 01       		.byte	0x1
 786 0045 06       		.byte	0x6
 787 0046 20010000 		.4byte	.LASF1
 788 004a 03       		.uleb128 0x3
 789 004b 33000000 		.4byte	.LASF3
 790 004f 03       		.byte	0x3
 791 0050 1D       		.byte	0x1d
 792 0051 55000000 		.4byte	0x55
 793 0055 04       		.uleb128 0x4
 794 0056 01       		.byte	0x1
 795 0057 08       		.byte	0x8
 796 0058 E8050000 		.4byte	.LASF4
 797 005c 04       		.uleb128 0x4
 798 005d 02       		.byte	0x2
ARM GAS  /tmp/ccBZqj2k.s 			page 15


 799 005e 05       		.byte	0x5
 800 005f 15060000 		.4byte	.LASF5
 801 0063 03       		.uleb128 0x3
 802 0064 44070000 		.4byte	.LASF6
 803 0068 03       		.byte	0x3
 804 0069 2B       		.byte	0x2b
 805 006a 6E000000 		.4byte	0x6e
 806 006e 04       		.uleb128 0x4
 807 006f 02       		.byte	0x2
 808 0070 07       		.byte	0x7
 809 0071 A2030000 		.4byte	.LASF7
 810 0075 03       		.uleb128 0x3
 811 0076 82070000 		.4byte	.LASF8
 812 007a 03       		.byte	0x3
 813 007b 3F       		.byte	0x3f
 814 007c 80000000 		.4byte	0x80
 815 0080 04       		.uleb128 0x4
 816 0081 04       		.byte	0x4
 817 0082 05       		.byte	0x5
 818 0083 E3010000 		.4byte	.LASF9
 819 0087 03       		.uleb128 0x3
 820 0088 BA020000 		.4byte	.LASF10
 821 008c 03       		.byte	0x3
 822 008d 41       		.byte	0x41
 823 008e 92000000 		.4byte	0x92
 824 0092 04       		.uleb128 0x4
 825 0093 04       		.byte	0x4
 826 0094 07       		.byte	0x7
 827 0095 40030000 		.4byte	.LASF11
 828 0099 04       		.uleb128 0x4
 829 009a 08       		.byte	0x8
 830 009b 05       		.byte	0x5
 831 009c 12010000 		.4byte	.LASF12
 832 00a0 04       		.uleb128 0x4
 833 00a1 08       		.byte	0x8
 834 00a2 07       		.byte	0x7
 835 00a3 67000000 		.4byte	.LASF13
 836 00a7 03       		.uleb128 0x3
 837 00a8 D2080000 		.4byte	.LASF14
 838 00ac 04       		.byte	0x4
 839 00ad 18       		.byte	0x18
 840 00ae 4A000000 		.4byte	0x4a
 841 00b2 06       		.uleb128 0x6
 842 00b3 A7000000 		.4byte	0xa7
 843 00b7 03       		.uleb128 0x3
 844 00b8 2F020000 		.4byte	.LASF15
 845 00bc 04       		.byte	0x4
 846 00bd 24       		.byte	0x24
 847 00be 63000000 		.4byte	0x63
 848 00c2 03       		.uleb128 0x3
 849 00c3 E0050000 		.4byte	.LASF16
 850 00c7 04       		.byte	0x4
 851 00c8 2C       		.byte	0x2c
 852 00c9 75000000 		.4byte	0x75
 853 00cd 03       		.uleb128 0x3
 854 00ce CA060000 		.4byte	.LASF17
 855 00d2 04       		.byte	0x4
ARM GAS  /tmp/ccBZqj2k.s 			page 16


 856 00d3 30       		.byte	0x30
 857 00d4 87000000 		.4byte	0x87
 858 00d8 05       		.uleb128 0x5
 859 00d9 CD000000 		.4byte	0xcd
 860 00dd 03       		.uleb128 0x3
 861 00de EB030000 		.4byte	.LASF18
 862 00e2 05       		.byte	0x5
 863 00e3 2A       		.byte	0x2a
 864 00e4 A7000000 		.4byte	0xa7
 865 00e8 03       		.uleb128 0x3
 866 00e9 F7010000 		.4byte	.LASF19
 867 00ed 05       		.byte	0x5
 868 00ee 2B       		.byte	0x2b
 869 00ef A7000000 		.4byte	0xa7
 870 00f3 03       		.uleb128 0x3
 871 00f4 82050000 		.4byte	.LASF20
 872 00f8 05       		.byte	0x5
 873 00f9 2C       		.byte	0x2c
 874 00fa A7000000 		.4byte	0xa7
 875 00fe 03       		.uleb128 0x3
 876 00ff BE010000 		.4byte	.LASF21
 877 0103 05       		.byte	0x5
 878 0104 2D       		.byte	0x2d
 879 0105 A7000000 		.4byte	0xa7
 880 0109 03       		.uleb128 0x3
 881 010a B1050000 		.4byte	.LASF22
 882 010e 05       		.byte	0x5
 883 010f 2E       		.byte	0x2e
 884 0110 CD000000 		.4byte	0xcd
 885 0114 03       		.uleb128 0x3
 886 0115 C7030000 		.4byte	.LASF23
 887 0119 05       		.byte	0x5
 888 011a 2F       		.byte	0x2f
 889 011b C2000000 		.4byte	0xc2
 890 011f 03       		.uleb128 0x3
 891 0120 FF030000 		.4byte	.LASF24
 892 0124 05       		.byte	0x5
 893 0125 31       		.byte	0x31
 894 0126 CD000000 		.4byte	0xcd
 895 012a 03       		.uleb128 0x3
 896 012b 6D080000 		.4byte	.LASF25
 897 012f 05       		.byte	0x5
 898 0130 32       		.byte	0x32
 899 0131 CD000000 		.4byte	0xcd
 900 0135 03       		.uleb128 0x3
 901 0136 6D070000 		.4byte	.LASF26
 902 013a 05       		.byte	0x5
 903 013b 33       		.byte	0x33
 904 013c CD000000 		.4byte	0xcd
 905 0140 05       		.uleb128 0x5
 906 0141 35010000 		.4byte	0x135
 907 0145 03       		.uleb128 0x3
 908 0146 7A060000 		.4byte	.LASF27
 909 014a 06       		.byte	0x6
 910 014b 23       		.byte	0x23
 911 014c 50010000 		.4byte	0x150
 912 0150 07       		.uleb128 0x7
ARM GAS  /tmp/ccBZqj2k.s 			page 17


 913 0151 7A060000 		.4byte	.LASF27
 914 0155 44       		.byte	0x44
 915 0156 07       		.byte	0x7
 916 0157 57       		.byte	0x57
 917 0158 41020000 		.4byte	0x241
 918 015c 08       		.uleb128 0x8
 919 015d 54060000 		.4byte	.LASF28
 920 0161 07       		.byte	0x7
 921 0162 58       		.byte	0x58
 922 0163 62020000 		.4byte	0x262
 923 0167 00       		.byte	0
 924 0168 08       		.uleb128 0x8
 925 0169 AA050000 		.4byte	.LASF29
 926 016d 07       		.byte	0x7
 927 016e 5A       		.byte	0x5a
 928 016f 62020000 		.4byte	0x262
 929 0173 04       		.byte	0x4
 930 0174 08       		.uleb128 0x8
 931 0175 E7000000 		.4byte	.LASF30
 932 0179 07       		.byte	0x7
 933 017a 5C       		.byte	0x5c
 934 017b 09010000 		.4byte	0x109
 935 017f 08       		.byte	0x8
 936 0180 08       		.uleb128 0x8
 937 0181 62090000 		.4byte	.LASF31
 938 0185 07       		.byte	0x7
 939 0186 5D       		.byte	0x5d
 940 0187 1D030000 		.4byte	0x31d
 941 018b 0C       		.byte	0xc
 942 018c 08       		.uleb128 0x8
 943 018d 61020000 		.4byte	.LASF32
 944 0191 07       		.byte	0x7
 945 0192 5F       		.byte	0x5f
 946 0193 62020000 		.4byte	0x262
 947 0197 10       		.byte	0x10
 948 0198 08       		.uleb128 0x8
 949 0199 F2040000 		.4byte	.LASF33
 950 019d 07       		.byte	0x7
 951 019e 60       		.byte	0x60
 952 019f 62020000 		.4byte	0x262
 953 01a3 14       		.byte	0x14
 954 01a4 08       		.uleb128 0x8
 955 01a5 F5080000 		.4byte	.LASF34
 956 01a9 07       		.byte	0x7
 957 01aa 67       		.byte	0x67
 958 01ab 51050000 		.4byte	0x551
 959 01af 18       		.byte	0x18
 960 01b0 08       		.uleb128 0x8
 961 01b1 1F060000 		.4byte	.LASF35
 962 01b5 07       		.byte	0x7
 963 01b6 72       		.byte	0x72
 964 01b7 E8000000 		.4byte	0xe8
 965 01bb 1C       		.byte	0x1c
 966 01bc 08       		.uleb128 0x8
 967 01bd 72060000 		.4byte	.LASF36
 968 01c1 07       		.byte	0x7
 969 01c2 76       		.byte	0x76
ARM GAS  /tmp/ccBZqj2k.s 			page 18


 970 01c3 DD000000 		.4byte	0xdd
 971 01c7 1D       		.byte	0x1d
 972 01c8 08       		.uleb128 0x8
 973 01c9 AB080000 		.4byte	.LASF37
 974 01cd 07       		.byte	0x7
 975 01ce 7B       		.byte	0x7b
 976 01cf F3000000 		.4byte	0xf3
 977 01d3 1E       		.byte	0x1e
 978 01d4 08       		.uleb128 0x8
 979 01d5 27060000 		.4byte	.LASF38
 980 01d9 07       		.byte	0x7
 981 01da 81       		.byte	0x81
 982 01db FE000000 		.4byte	0xfe
 983 01df 1F       		.byte	0x1f
 984 01e0 08       		.uleb128 0x8
 985 01e1 A0070000 		.4byte	.LASF39
 986 01e5 07       		.byte	0x7
 987 01e6 88       		.byte	0x88
 988 01e7 40010000 		.4byte	0x140
 989 01eb 20       		.byte	0x20
 990 01ec 09       		.uleb128 0x9
 991 01ed 705F7500 		.ascii	"p_u\000"
 992 01f1 07       		.byte	0x7
 993 01f2 AD       		.byte	0xad
 994 01f3 1C050000 		.4byte	0x51c
 995 01f7 24       		.byte	0x24
 996 01f8 08       		.uleb128 0x8
 997 01f9 68090000 		.4byte	.LASF40
 998 01fd 07       		.byte	0x7
 999 01fe B2       		.byte	0xb2
 1000 01ff 88020000 		.4byte	0x288
 1001 0203 28       		.byte	0x28
 1002 0204 08       		.uleb128 0x8
 1003 0205 3D080000 		.4byte	.LASF41
 1004 0209 07       		.byte	0x7
 1005 020a B8       		.byte	0xb8
 1006 020b 68020000 		.4byte	0x268
 1007 020f 2C       		.byte	0x2c
 1008 0210 08       		.uleb128 0x8
 1009 0211 0D000000 		.4byte	.LASF42
 1010 0215 07       		.byte	0x7
 1011 0216 BC       		.byte	0xbc
 1012 0217 14010000 		.4byte	0x114
 1013 021b 34       		.byte	0x34
 1014 021c 08       		.uleb128 0x8
 1015 021d B5060000 		.4byte	.LASF43
 1016 0221 07       		.byte	0x7
 1017 0222 C2       		.byte	0xc2
 1018 0223 1F010000 		.4byte	0x11f
 1019 0227 38       		.byte	0x38
 1020 0228 08       		.uleb128 0x8
 1021 0229 0B060000 		.4byte	.LASF44
 1022 022d 07       		.byte	0x7
 1023 022e C9       		.byte	0xc9
 1024 022f 63050000 		.4byte	0x563
 1025 0233 3C       		.byte	0x3c
 1026 0234 08       		.uleb128 0x8
ARM GAS  /tmp/ccBZqj2k.s 			page 19


 1027 0235 77070000 		.4byte	.LASF45
 1028 0239 07       		.byte	0x7
 1029 023a CD       		.byte	0xcd
 1030 023b 09010000 		.4byte	0x109
 1031 023f 40       		.byte	0x40
 1032 0240 00       		.byte	0
 1033 0241 0A       		.uleb128 0xa
 1034 0242 08       		.byte	0x8
 1035 0243 06       		.byte	0x6
 1036 0244 5A       		.byte	0x5a
 1037 0245 62020000 		.4byte	0x262
 1038 0249 08       		.uleb128 0x8
 1039 024a 54060000 		.4byte	.LASF28
 1040 024e 06       		.byte	0x6
 1041 024f 5B       		.byte	0x5b
 1042 0250 62020000 		.4byte	0x262
 1043 0254 00       		.byte	0
 1044 0255 08       		.uleb128 0x8
 1045 0256 AA050000 		.4byte	.LASF29
 1046 025a 06       		.byte	0x6
 1047 025b 5D       		.byte	0x5d
 1048 025c 62020000 		.4byte	0x262
 1049 0260 04       		.byte	0x4
 1050 0261 00       		.byte	0
 1051 0262 0B       		.uleb128 0xb
 1052 0263 04       		.byte	0x4
 1053 0264 45010000 		.4byte	0x145
 1054 0268 03       		.uleb128 0x3
 1055 0269 10050000 		.4byte	.LASF46
 1056 026d 06       		.byte	0x6
 1057 026e 5F       		.byte	0x5f
 1058 026f 41020000 		.4byte	0x241
 1059 0273 0A       		.uleb128 0xa
 1060 0274 04       		.byte	0x4
 1061 0275 06       		.byte	0x6
 1062 0276 64       		.byte	0x64
 1063 0277 88020000 		.4byte	0x288
 1064 027b 08       		.uleb128 0x8
 1065 027c 54060000 		.4byte	.LASF28
 1066 0280 06       		.byte	0x6
 1067 0281 66       		.byte	0x66
 1068 0282 62020000 		.4byte	0x262
 1069 0286 00       		.byte	0
 1070 0287 00       		.byte	0
 1071 0288 03       		.uleb128 0x3
 1072 0289 F3030000 		.4byte	.LASF47
 1073 028d 06       		.byte	0x6
 1074 028e 69       		.byte	0x69
 1075 028f 73020000 		.4byte	0x273
 1076 0293 03       		.uleb128 0x3
 1077 0294 2F040000 		.4byte	.LASF48
 1078 0298 08       		.byte	0x8
 1079 0299 9D       		.byte	0x9d
 1080 029a CD000000 		.4byte	0xcd
 1081 029e 03       		.uleb128 0x3
 1082 029f C5020000 		.4byte	.LASF49
 1083 02a3 08       		.byte	0x8
ARM GAS  /tmp/ccBZqj2k.s 			page 20


 1084 02a4 A2       		.byte	0xa2
 1085 02a5 A9020000 		.4byte	0x2a9
 1086 02a9 0C       		.uleb128 0xc
 1087 02aa 04       		.byte	0x4
 1088 02ab 07       		.uleb128 0x7
 1089 02ac 36080000 		.4byte	.LASF50
 1090 02b0 24       		.byte	0x24
 1091 02b1 08       		.byte	0x8
 1092 02b2 B9       		.byte	0xb9
 1093 02b3 1D030000 		.4byte	0x31d
 1094 02b7 09       		.uleb128 0x9
 1095 02b8 723400   		.ascii	"r4\000"
 1096 02bb 08       		.byte	0x8
 1097 02bc BA       		.byte	0xba
 1098 02bd 9E020000 		.4byte	0x29e
 1099 02c1 00       		.byte	0
 1100 02c2 09       		.uleb128 0x9
 1101 02c3 723500   		.ascii	"r5\000"
 1102 02c6 08       		.byte	0x8
 1103 02c7 BB       		.byte	0xbb
 1104 02c8 9E020000 		.4byte	0x29e
 1105 02cc 04       		.byte	0x4
 1106 02cd 09       		.uleb128 0x9
 1107 02ce 723600   		.ascii	"r6\000"
 1108 02d1 08       		.byte	0x8
 1109 02d2 BC       		.byte	0xbc
 1110 02d3 9E020000 		.4byte	0x29e
 1111 02d7 08       		.byte	0x8
 1112 02d8 09       		.uleb128 0x9
 1113 02d9 723700   		.ascii	"r7\000"
 1114 02dc 08       		.byte	0x8
 1115 02dd BD       		.byte	0xbd
 1116 02de 9E020000 		.4byte	0x29e
 1117 02e2 0C       		.byte	0xc
 1118 02e3 09       		.uleb128 0x9
 1119 02e4 723800   		.ascii	"r8\000"
 1120 02e7 08       		.byte	0x8
 1121 02e8 BE       		.byte	0xbe
 1122 02e9 9E020000 		.4byte	0x29e
 1123 02ed 10       		.byte	0x10
 1124 02ee 09       		.uleb128 0x9
 1125 02ef 723900   		.ascii	"r9\000"
 1126 02f2 08       		.byte	0x8
 1127 02f3 BF       		.byte	0xbf
 1128 02f4 9E020000 		.4byte	0x29e
 1129 02f8 14       		.byte	0x14
 1130 02f9 09       		.uleb128 0x9
 1131 02fa 72313000 		.ascii	"r10\000"
 1132 02fe 08       		.byte	0x8
 1133 02ff C0       		.byte	0xc0
 1134 0300 9E020000 		.4byte	0x29e
 1135 0304 18       		.byte	0x18
 1136 0305 09       		.uleb128 0x9
 1137 0306 72313100 		.ascii	"r11\000"
 1138 030a 08       		.byte	0x8
 1139 030b C1       		.byte	0xc1
 1140 030c 9E020000 		.4byte	0x29e
ARM GAS  /tmp/ccBZqj2k.s 			page 21


 1141 0310 1C       		.byte	0x1c
 1142 0311 09       		.uleb128 0x9
 1143 0312 6C7200   		.ascii	"lr\000"
 1144 0315 08       		.byte	0x8
 1145 0316 C2       		.byte	0xc2
 1146 0317 9E020000 		.4byte	0x29e
 1147 031b 20       		.byte	0x20
 1148 031c 00       		.byte	0
 1149 031d 07       		.uleb128 0x7
 1150 031e 9A030000 		.4byte	.LASF51
 1151 0322 04       		.byte	0x4
 1152 0323 08       		.byte	0x8
 1153 0324 CA       		.byte	0xca
 1154 0325 36030000 		.4byte	0x336
 1155 0329 09       		.uleb128 0x9
 1156 032a 72313300 		.ascii	"r13\000"
 1157 032e 08       		.byte	0x8
 1158 032f CB       		.byte	0xcb
 1159 0330 36030000 		.4byte	0x336
 1160 0334 00       		.byte	0
 1161 0335 00       		.byte	0
 1162 0336 0B       		.uleb128 0xb
 1163 0337 04       		.byte	0x4
 1164 0338 AB020000 		.4byte	0x2ab
 1165 033c 03       		.uleb128 0x3
 1166 033d 68030000 		.4byte	.LASF52
 1167 0341 09       		.byte	0x9
 1168 0342 4E       		.byte	0x4e
 1169 0343 47030000 		.4byte	0x347
 1170 0347 0B       		.uleb128 0xb
 1171 0348 04       		.byte	0x4
 1172 0349 4D030000 		.4byte	0x34d
 1173 034d 0D       		.uleb128 0xd
 1174 034e 58030000 		.4byte	0x358
 1175 0352 0E       		.uleb128 0xe
 1176 0353 A9020000 		.4byte	0x2a9
 1177 0357 00       		.byte	0
 1178 0358 03       		.uleb128 0x3
 1179 0359 E7060000 		.4byte	.LASF53
 1180 035d 09       		.byte	0x9
 1181 035e 53       		.byte	0x53
 1182 035f 63030000 		.4byte	0x363
 1183 0363 07       		.uleb128 0x7
 1184 0364 E7060000 		.4byte	.LASF53
 1185 0368 14       		.byte	0x14
 1186 0369 09       		.byte	0x9
 1187 036a 5A       		.byte	0x5a
 1188 036b AC030000 		.4byte	0x3ac
 1189 036f 08       		.uleb128 0x8
 1190 0370 14030000 		.4byte	.LASF54
 1191 0374 09       		.byte	0x9
 1192 0375 5B       		.byte	0x5b
 1193 0376 AC030000 		.4byte	0x3ac
 1194 037a 00       		.byte	0
 1195 037b 08       		.uleb128 0x8
 1196 037c CE020000 		.4byte	.LASF55
 1197 0380 09       		.byte	0x9
ARM GAS  /tmp/ccBZqj2k.s 			page 22


 1198 0381 5D       		.byte	0x5d
 1199 0382 AC030000 		.4byte	0x3ac
 1200 0386 04       		.byte	0x4
 1201 0387 08       		.uleb128 0x8
 1202 0388 8F040000 		.4byte	.LASF56
 1203 038c 09       		.byte	0x9
 1204 038d 5F       		.byte	0x5f
 1205 038e 35010000 		.4byte	0x135
 1206 0392 08       		.byte	0x8
 1207 0393 08       		.uleb128 0x8
 1208 0394 C0040000 		.4byte	.LASF57
 1209 0398 09       		.byte	0x9
 1210 0399 60       		.byte	0x60
 1211 039a 3C030000 		.4byte	0x33c
 1212 039e 0C       		.byte	0xc
 1213 039f 08       		.uleb128 0x8
 1214 03a0 66080000 		.4byte	.LASF58
 1215 03a4 09       		.byte	0x9
 1216 03a5 62       		.byte	0x62
 1217 03a6 A9020000 		.4byte	0x2a9
 1218 03aa 10       		.byte	0x10
 1219 03ab 00       		.byte	0
 1220 03ac 0B       		.uleb128 0xb
 1221 03ad 04       		.byte	0x4
 1222 03ae 58030000 		.4byte	0x358
 1223 03b2 0A       		.uleb128 0xa
 1224 03b3 10       		.byte	0x10
 1225 03b4 09       		.byte	0x9
 1226 03b5 6C       		.byte	0x6c
 1227 03b6 EB030000 		.4byte	0x3eb
 1228 03ba 08       		.uleb128 0x8
 1229 03bb 14030000 		.4byte	.LASF54
 1230 03bf 09       		.byte	0x9
 1231 03c0 6D       		.byte	0x6d
 1232 03c1 AC030000 		.4byte	0x3ac
 1233 03c5 00       		.byte	0
 1234 03c6 08       		.uleb128 0x8
 1235 03c7 CE020000 		.4byte	.LASF55
 1236 03cb 09       		.byte	0x9
 1237 03cc 6F       		.byte	0x6f
 1238 03cd AC030000 		.4byte	0x3ac
 1239 03d1 04       		.byte	0x4
 1240 03d2 08       		.uleb128 0x8
 1241 03d3 8F040000 		.4byte	.LASF56
 1242 03d7 09       		.byte	0x9
 1243 03d8 71       		.byte	0x71
 1244 03d9 35010000 		.4byte	0x135
 1245 03dd 08       		.byte	0x8
 1246 03de 08       		.uleb128 0x8
 1247 03df FC080000 		.4byte	.LASF59
 1248 03e3 09       		.byte	0x9
 1249 03e4 72       		.byte	0x72
 1250 03e5 40010000 		.4byte	0x140
 1251 03e9 0C       		.byte	0xc
 1252 03ea 00       		.byte	0
 1253 03eb 03       		.uleb128 0x3
 1254 03ec 2F090000 		.4byte	.LASF60
ARM GAS  /tmp/ccBZqj2k.s 			page 23


 1255 03f0 09       		.byte	0x9
 1256 03f1 73       		.byte	0x73
 1257 03f2 B2030000 		.4byte	0x3b2
 1258 03f6 0F       		.uleb128 0xf
 1259 03f7 48000000 		.4byte	.LASF68
 1260 03fb 09       		.byte	0x9
 1261 03fc D1       		.byte	0xd1
 1262 03fd EB030000 		.4byte	0x3eb
 1263 0401 0A       		.uleb128 0xa
 1264 0402 1C       		.byte	0x1c
 1265 0403 0A       		.byte	0xa
 1266 0404 57       		.byte	0x57
 1267 0405 52040000 		.4byte	0x452
 1268 0409 08       		.uleb128 0x8
 1269 040a DF060000 		.4byte	.LASF61
 1270 040e 0A       		.byte	0xa
 1271 040f 58       		.byte	0x58
 1272 0410 68020000 		.4byte	0x268
 1273 0414 00       		.byte	0
 1274 0415 08       		.uleb128 0x8
 1275 0416 3D060000 		.4byte	.LASF62
 1276 041a 0A       		.byte	0xa
 1277 041b 59       		.byte	0x59
 1278 041c 09010000 		.4byte	0x109
 1279 0420 08       		.byte	0x8
 1280 0421 08       		.uleb128 0x8
 1281 0422 0A050000 		.4byte	.LASF63
 1282 0426 0A       		.byte	0xa
 1283 0427 5B       		.byte	0x5b
 1284 0428 1D030000 		.4byte	0x31d
 1285 042c 0C       		.byte	0xc
 1286 042d 08       		.uleb128 0x8
 1287 042e D4030000 		.4byte	.LASF64
 1288 0432 0A       		.byte	0xa
 1289 0433 5E       		.byte	0x5e
 1290 0434 62020000 		.4byte	0x262
 1291 0438 10       		.byte	0x10
 1292 0439 08       		.uleb128 0x8
 1293 043a 37050000 		.4byte	.LASF65
 1294 043e 0A       		.byte	0xa
 1295 043f 5F       		.byte	0x5f
 1296 0440 62020000 		.4byte	0x262
 1297 0444 14       		.byte	0x14
 1298 0445 08       		.uleb128 0x8
 1299 0446 2D050000 		.4byte	.LASF66
 1300 044a 0A       		.byte	0xa
 1301 044b 62       		.byte	0x62
 1302 044c 62020000 		.4byte	0x262
 1303 0450 18       		.byte	0x18
 1304 0451 00       		.byte	0
 1305 0452 03       		.uleb128 0x3
 1306 0453 B9080000 		.4byte	.LASF67
 1307 0457 0A       		.byte	0xa
 1308 0458 64       		.byte	0x64
 1309 0459 01040000 		.4byte	0x401
 1310 045d 0F       		.uleb128 0xf
 1311 045e CC080000 		.4byte	.LASF69
ARM GAS  /tmp/ccBZqj2k.s 			page 24


 1312 0462 0A       		.byte	0xa
 1313 0463 68       		.byte	0x68
 1314 0464 52040000 		.4byte	0x452
 1315 0468 07       		.uleb128 0x7
 1316 0469 16040000 		.4byte	.LASF70
 1317 046d 10       		.byte	0x10
 1318 046e 0B       		.byte	0xb
 1319 046f 25       		.byte	0x25
 1320 0470 99040000 		.4byte	0x499
 1321 0474 08       		.uleb128 0x8
 1322 0475 5A010000 		.4byte	.LASF71
 1323 0479 0B       		.byte	0xb
 1324 047a 26       		.byte	0x26
 1325 047b 68020000 		.4byte	0x268
 1326 047f 00       		.byte	0
 1327 0480 08       		.uleb128 0x8
 1328 0481 47090000 		.4byte	.LASF72
 1329 0485 0B       		.byte	0xb
 1330 0486 28       		.byte	0x28
 1331 0487 62020000 		.4byte	0x262
 1332 048b 08       		.byte	0x8
 1333 048c 08       		.uleb128 0x8
 1334 048d 66070000 		.4byte	.LASF73
 1335 0491 0B       		.byte	0xb
 1336 0492 2A       		.byte	0x2a
 1337 0493 99040000 		.4byte	0x499
 1338 0497 0C       		.byte	0xc
 1339 0498 00       		.byte	0
 1340 0499 0B       		.uleb128 0xb
 1341 049a 04       		.byte	0x4
 1342 049b 68040000 		.4byte	0x468
 1343 049f 03       		.uleb128 0x3
 1344 04a0 16040000 		.4byte	.LASF70
 1345 04a4 0B       		.byte	0xb
 1346 04a5 2C       		.byte	0x2c
 1347 04a6 68040000 		.4byte	0x468
 1348 04aa 03       		.uleb128 0x3
 1349 04ab E0080000 		.4byte	.LASF74
 1350 04af 0C       		.byte	0xc
 1351 04b0 25       		.byte	0x25
 1352 04b1 B5040000 		.4byte	0x4b5
 1353 04b5 07       		.uleb128 0x7
 1354 04b6 E0080000 		.4byte	.LASF74
 1355 04ba 10       		.byte	0x10
 1356 04bb 0C       		.byte	0xc
 1357 04bc 2A       		.byte	0x2a
 1358 04bd F2040000 		.4byte	0x4f2
 1359 04c1 08       		.uleb128 0x8
 1360 04c2 DC030000 		.4byte	.LASF75
 1361 04c6 0C       		.byte	0xc
 1362 04c7 2B       		.byte	0x2b
 1363 04c8 F2040000 		.4byte	0x4f2
 1364 04cc 00       		.byte	0
 1365 04cd 08       		.uleb128 0x8
 1366 04ce F6050000 		.4byte	.LASF76
 1367 04d2 0C       		.byte	0xc
 1368 04d3 2E       		.byte	0x2e
ARM GAS  /tmp/ccBZqj2k.s 			page 25


 1369 04d4 62020000 		.4byte	0x262
 1370 04d8 04       		.byte	0x4
 1371 04d9 08       		.uleb128 0x8
 1372 04da 3F050000 		.4byte	.LASF77
 1373 04de 0C       		.byte	0xc
 1374 04df 30       		.byte	0x30
 1375 04e0 1F010000 		.4byte	0x11f
 1376 04e4 08       		.byte	0x8
 1377 04e5 08       		.uleb128 0x8
 1378 04e6 02060000 		.4byte	.LASF78
 1379 04ea 0C       		.byte	0xc
 1380 04eb 33       		.byte	0x33
 1381 04ec 2A010000 		.4byte	0x12a
 1382 04f0 0C       		.byte	0xc
 1383 04f1 00       		.byte	0
 1384 04f2 0B       		.uleb128 0xb
 1385 04f3 04       		.byte	0x4
 1386 04f4 AA040000 		.4byte	0x4aa
 1387 04f8 07       		.uleb128 0x7
 1388 04f9 FB020000 		.4byte	.LASF79
 1389 04fd 04       		.byte	0x4
 1390 04fe 0C       		.byte	0xc
 1391 04ff 3A       		.byte	0x3a
 1392 0500 11050000 		.4byte	0x511
 1393 0504 08       		.uleb128 0x8
 1394 0505 07090000 		.4byte	.LASF80
 1395 0509 0C       		.byte	0xc
 1396 050a 3B       		.byte	0x3b
 1397 050b F2040000 		.4byte	0x4f2
 1398 050f 00       		.byte	0
 1399 0510 00       		.byte	0
 1400 0511 03       		.uleb128 0x3
 1401 0512 FB020000 		.4byte	.LASF79
 1402 0516 0C       		.byte	0xc
 1403 0517 3E       		.byte	0x3e
 1404 0518 F8040000 		.4byte	0x4f8
 1405 051c 10       		.uleb128 0x10
 1406 051d 04       		.byte	0x4
 1407 051e 07       		.byte	0x7
 1408 051f 8F       		.byte	0x8f
 1409 0520 51050000 		.4byte	0x551
 1410 0524 11       		.uleb128 0x11
 1411 0525 1A000000 		.4byte	.LASF81
 1412 0529 07       		.byte	0x7
 1413 052a 96       		.byte	0x96
 1414 052b 14010000 		.4byte	0x114
 1415 052f 11       		.uleb128 0x11
 1416 0530 C6000000 		.4byte	.LASF82
 1417 0534 07       		.byte	0x7
 1418 0535 9D       		.byte	0x9d
 1419 0536 14010000 		.4byte	0x114
 1420 053a 11       		.uleb128 0x11
 1421 053b EE080000 		.4byte	.LASF83
 1422 053f 07       		.byte	0x7
 1423 0540 A4       		.byte	0xa4
 1424 0541 A9020000 		.4byte	0x2a9
 1425 0545 11       		.uleb128 0x11
ARM GAS  /tmp/ccBZqj2k.s 			page 26


 1426 0546 4D060000 		.4byte	.LASF84
 1427 054a 07       		.byte	0x7
 1428 054b AB       		.byte	0xab
 1429 054c 1F010000 		.4byte	0x11f
 1430 0550 00       		.byte	0
 1431 0551 0B       		.uleb128 0xb
 1432 0552 04       		.byte	0x4
 1433 0553 5E050000 		.4byte	0x55e
 1434 0557 04       		.uleb128 0x4
 1435 0558 01       		.byte	0x1
 1436 0559 08       		.byte	0x8
 1437 055a 14070000 		.4byte	.LASF85
 1438 055e 06       		.uleb128 0x6
 1439 055f 57050000 		.4byte	0x557
 1440 0563 0B       		.uleb128 0xb
 1441 0564 04       		.byte	0x4
 1442 0565 9F040000 		.4byte	0x49f
 1443 0569 0B       		.uleb128 0xb
 1444 056a 04       		.byte	0x4
 1445 056b 6F050000 		.4byte	0x56f
 1446 056f 12       		.uleb128 0x12
 1447 0570 14010000 		.4byte	0x114
 1448 0574 7E050000 		.4byte	0x57e
 1449 0578 0E       		.uleb128 0xe
 1450 0579 A9020000 		.4byte	0x2a9
 1451 057d 00       		.byte	0
 1452 057e 0A       		.uleb128 0xa
 1453 057f 16       		.byte	0x16
 1454 0580 0D       		.byte	0xd
 1455 0581 25       		.byte	0x25
 1456 0582 5F060000 		.4byte	0x65f
 1457 0586 08       		.uleb128 0x8
 1458 0587 71030000 		.4byte	.LASF86
 1459 058b 0D       		.byte	0xd
 1460 058c 26       		.byte	0x26
 1461 058d 5F060000 		.4byte	0x65f
 1462 0591 00       		.byte	0
 1463 0592 08       		.uleb128 0x8
 1464 0593 70040000 		.4byte	.LASF87
 1465 0597 0D       		.byte	0xd
 1466 0598 27       		.byte	0x27
 1467 0599 A7000000 		.4byte	0xa7
 1468 059d 04       		.byte	0x4
 1469 059e 08       		.uleb128 0x8
 1470 059f 1D050000 		.4byte	.LASF88
 1471 05a3 0D       		.byte	0xd
 1472 05a4 28       		.byte	0x28
 1473 05a5 A7000000 		.4byte	0xa7
 1474 05a9 05       		.byte	0x5
 1475 05aa 08       		.uleb128 0x8
 1476 05ab 19090000 		.4byte	.LASF89
 1477 05af 0D       		.byte	0xd
 1478 05b0 29       		.byte	0x29
 1479 05b1 B7000000 		.4byte	0xb7
 1480 05b5 06       		.byte	0x6
 1481 05b6 08       		.uleb128 0x8
 1482 05b7 95050000 		.4byte	.LASF90
ARM GAS  /tmp/ccBZqj2k.s 			page 27


 1483 05bb 0D       		.byte	0xd
 1484 05bc 2A       		.byte	0x2a
 1485 05bd A7000000 		.4byte	0xa7
 1486 05c1 08       		.byte	0x8
 1487 05c2 08       		.uleb128 0x8
 1488 05c3 C8040000 		.4byte	.LASF91
 1489 05c7 0D       		.byte	0xd
 1490 05c8 2B       		.byte	0x2b
 1491 05c9 A7000000 		.4byte	0xa7
 1492 05cd 09       		.byte	0x9
 1493 05ce 08       		.uleb128 0x8
 1494 05cf B8000000 		.4byte	.LASF92
 1495 05d3 0D       		.byte	0xd
 1496 05d4 2C       		.byte	0x2c
 1497 05d5 A7000000 		.4byte	0xa7
 1498 05d9 0A       		.byte	0xa
 1499 05da 08       		.uleb128 0x8
 1500 05db D3060000 		.4byte	.LASF93
 1501 05df 0D       		.byte	0xd
 1502 05e0 2D       		.byte	0x2d
 1503 05e1 A7000000 		.4byte	0xa7
 1504 05e5 0B       		.byte	0xb
 1505 05e6 08       		.uleb128 0x8
 1506 05e7 93080000 		.4byte	.LASF94
 1507 05eb 0D       		.byte	0xd
 1508 05ec 2E       		.byte	0x2e
 1509 05ed A7000000 		.4byte	0xa7
 1510 05f1 0C       		.byte	0xc
 1511 05f2 08       		.uleb128 0x8
 1512 05f3 8F060000 		.4byte	.LASF95
 1513 05f7 0D       		.byte	0xd
 1514 05f8 2F       		.byte	0x2f
 1515 05f9 A7000000 		.4byte	0xa7
 1516 05fd 0D       		.byte	0xd
 1517 05fe 08       		.uleb128 0x8
 1518 05ff 00000000 		.4byte	.LASF96
 1519 0603 0D       		.byte	0xd
 1520 0604 30       		.byte	0x30
 1521 0605 A7000000 		.4byte	0xa7
 1522 0609 0E       		.byte	0xe
 1523 060a 08       		.uleb128 0x8
 1524 060b DD040000 		.4byte	.LASF97
 1525 060f 0D       		.byte	0xd
 1526 0610 31       		.byte	0x31
 1527 0611 A7000000 		.4byte	0xa7
 1528 0615 0F       		.byte	0xf
 1529 0616 08       		.uleb128 0x8
 1530 0617 2C010000 		.4byte	.LASF98
 1531 061b 0D       		.byte	0xd
 1532 061c 32       		.byte	0x32
 1533 061d A7000000 		.4byte	0xa7
 1534 0621 10       		.byte	0x10
 1535 0622 08       		.uleb128 0x8
 1536 0623 EE000000 		.4byte	.LASF99
 1537 0627 0D       		.byte	0xd
 1538 0628 34       		.byte	0x34
 1539 0629 A7000000 		.4byte	0xa7
ARM GAS  /tmp/ccBZqj2k.s 			page 28


 1540 062d 11       		.byte	0x11
 1541 062e 08       		.uleb128 0x8
 1542 062f 45010000 		.4byte	.LASF100
 1543 0633 0D       		.byte	0xd
 1544 0634 35       		.byte	0x35
 1545 0635 A7000000 		.4byte	0xa7
 1546 0639 12       		.byte	0x12
 1547 063a 08       		.uleb128 0x8
 1548 063b 78040000 		.4byte	.LASF101
 1549 063f 0D       		.byte	0xd
 1550 0640 36       		.byte	0x36
 1551 0641 A7000000 		.4byte	0xa7
 1552 0645 13       		.byte	0x13
 1553 0646 08       		.uleb128 0x8
 1554 0647 63060000 		.4byte	.LASF102
 1555 064b 0D       		.byte	0xd
 1556 064c 37       		.byte	0x37
 1557 064d A7000000 		.4byte	0xa7
 1558 0651 14       		.byte	0x14
 1559 0652 08       		.uleb128 0x8
 1560 0653 31060000 		.4byte	.LASF103
 1561 0657 0D       		.byte	0xd
 1562 0658 39       		.byte	0x39
 1563 0659 A7000000 		.4byte	0xa7
 1564 065d 15       		.byte	0x15
 1565 065e 00       		.byte	0
 1566 065f 13       		.uleb128 0x13
 1567 0660 57050000 		.4byte	0x557
 1568 0664 6F060000 		.4byte	0x66f
 1569 0668 14       		.uleb128 0x14
 1570 0669 6F060000 		.4byte	0x66f
 1571 066d 03       		.byte	0x3
 1572 066e 00       		.byte	0
 1573 066f 04       		.uleb128 0x4
 1574 0670 04       		.byte	0x4
 1575 0671 07       		.byte	0x7
 1576 0672 A0040000 		.4byte	.LASF104
 1577 0676 03       		.uleb128 0x3
 1578 0677 3D020000 		.4byte	.LASF105
 1579 067b 0D       		.byte	0xd
 1580 067c 3A       		.byte	0x3a
 1581 067d 7E050000 		.4byte	0x57e
 1582 0681 06       		.uleb128 0x6
 1583 0682 76060000 		.4byte	0x676
 1584 0686 0F       		.uleb128 0xf
 1585 0687 52030000 		.4byte	.LASF106
 1586 068b 0D       		.byte	0xd
 1587 068c 77       		.byte	0x77
 1588 068d 81060000 		.4byte	0x681
 1589 0691 03       		.uleb128 0x3
 1590 0692 22040000 		.4byte	.LASF107
 1591 0696 0E       		.byte	0xe
 1592 0697 30       		.byte	0x30
 1593 0698 9C060000 		.4byte	0x69c
 1594 069c 07       		.uleb128 0x7
 1595 069d 22040000 		.4byte	.LASF107
 1596 06a1 24       		.byte	0x24
ARM GAS  /tmp/ccBZqj2k.s 			page 29


 1597 06a2 0E       		.byte	0xe
 1598 06a3 3E       		.byte	0x3e
 1599 06a4 09070000 		.4byte	0x709
 1600 06a8 08       		.uleb128 0x8
 1601 06a9 08010000 		.4byte	.LASF108
 1602 06ad 0E       		.byte	0xe
 1603 06ae 3F       		.byte	0x3f
 1604 06af 68020000 		.4byte	0x268
 1605 06b3 00       		.byte	0
 1606 06b4 08       		.uleb128 0x8
 1607 06b5 B6040000 		.4byte	.LASF109
 1608 06b9 0E       		.byte	0xe
 1609 06ba 40       		.byte	0x40
 1610 06bb 2C000000 		.4byte	0x2c
 1611 06bf 08       		.byte	0x8
 1612 06c0 08       		.uleb128 0x8
 1613 06c1 26020000 		.4byte	.LASF110
 1614 06c5 0E       		.byte	0xe
 1615 06c6 41       		.byte	0x41
 1616 06c7 2B070000 		.4byte	0x72b
 1617 06cb 0C       		.byte	0xc
 1618 06cc 08       		.uleb128 0x8
 1619 06cd 61000000 		.4byte	.LASF111
 1620 06d1 0E       		.byte	0xe
 1621 06d2 42       		.byte	0x42
 1622 06d3 2B070000 		.4byte	0x72b
 1623 06d7 10       		.byte	0x10
 1624 06d8 08       		.uleb128 0x8
 1625 06d9 02050000 		.4byte	.LASF112
 1626 06dd 0E       		.byte	0xe
 1627 06de 44       		.byte	0x44
 1628 06df 2B070000 		.4byte	0x72b
 1629 06e3 14       		.byte	0x14
 1630 06e4 08       		.uleb128 0x8
 1631 06e5 B9050000 		.4byte	.LASF113
 1632 06e9 0E       		.byte	0xe
 1633 06ea 45       		.byte	0x45
 1634 06eb 2B070000 		.4byte	0x72b
 1635 06ef 18       		.byte	0x18
 1636 06f0 08       		.uleb128 0x8
 1637 06f1 C3080000 		.4byte	.LASF114
 1638 06f5 0E       		.byte	0xe
 1639 06f6 46       		.byte	0x46
 1640 06f7 09070000 		.4byte	0x709
 1641 06fb 1C       		.byte	0x1c
 1642 06fc 08       		.uleb128 0x8
 1643 06fd 36090000 		.4byte	.LASF115
 1644 0701 0E       		.byte	0xe
 1645 0702 47       		.byte	0x47
 1646 0703 A9020000 		.4byte	0x2a9
 1647 0707 20       		.byte	0x20
 1648 0708 00       		.byte	0
 1649 0709 03       		.uleb128 0x3
 1650 070a A0050000 		.4byte	.LASF116
 1651 070e 0E       		.byte	0xe
 1652 070f 33       		.byte	0x33
 1653 0710 14070000 		.4byte	0x714
ARM GAS  /tmp/ccBZqj2k.s 			page 30


 1654 0714 0B       		.uleb128 0xb
 1655 0715 04       		.byte	0x4
 1656 0716 1A070000 		.4byte	0x71a
 1657 071a 0D       		.uleb128 0xd
 1658 071b 25070000 		.4byte	0x725
 1659 071f 0E       		.uleb128 0xe
 1660 0720 25070000 		.4byte	0x725
 1661 0724 00       		.byte	0
 1662 0725 0B       		.uleb128 0xb
 1663 0726 04       		.byte	0x4
 1664 0727 91060000 		.4byte	0x691
 1665 072b 0B       		.uleb128 0xb
 1666 072c 04       		.byte	0x4
 1667 072d A7000000 		.4byte	0xa7
 1668 0731 03       		.uleb128 0x3
 1669 0732 0B040000 		.4byte	.LASF117
 1670 0736 0E       		.byte	0xe
 1671 0737 7B       		.byte	0x7b
 1672 0738 91060000 		.4byte	0x691
 1673 073c 03       		.uleb128 0x3
 1674 073d 27000000 		.4byte	.LASF118
 1675 0741 0E       		.byte	0xe
 1676 0742 EE       		.byte	0xee
 1677 0743 91060000 		.4byte	0x691
 1678 0747 12       		.uleb128 0x12
 1679 0748 2C000000 		.4byte	0x2c
 1680 074c 60070000 		.4byte	0x760
 1681 0750 0E       		.uleb128 0xe
 1682 0751 A9020000 		.4byte	0x2a9
 1683 0755 0E       		.uleb128 0xe
 1684 0756 60070000 		.4byte	0x760
 1685 075a 0E       		.uleb128 0xe
 1686 075b 2C000000 		.4byte	0x2c
 1687 075f 00       		.byte	0
 1688 0760 0B       		.uleb128 0xb
 1689 0761 04       		.byte	0x4
 1690 0762 B2000000 		.4byte	0xb2
 1691 0766 0B       		.uleb128 0xb
 1692 0767 04       		.byte	0x4
 1693 0768 47070000 		.4byte	0x747
 1694 076c 12       		.uleb128 0x12
 1695 076d 2C000000 		.4byte	0x2c
 1696 0771 85070000 		.4byte	0x785
 1697 0775 0E       		.uleb128 0xe
 1698 0776 A9020000 		.4byte	0x2a9
 1699 077a 0E       		.uleb128 0xe
 1700 077b 2B070000 		.4byte	0x72b
 1701 077f 0E       		.uleb128 0xe
 1702 0780 2C000000 		.4byte	0x2c
 1703 0784 00       		.byte	0
 1704 0785 0B       		.uleb128 0xb
 1705 0786 04       		.byte	0x4
 1706 0787 6C070000 		.4byte	0x76c
 1707 078b 12       		.uleb128 0x12
 1708 078c 14010000 		.4byte	0x114
 1709 0790 9F070000 		.4byte	0x79f
 1710 0794 0E       		.uleb128 0xe
ARM GAS  /tmp/ccBZqj2k.s 			page 31


 1711 0795 A9020000 		.4byte	0x2a9
 1712 0799 0E       		.uleb128 0xe
 1713 079a A7000000 		.4byte	0xa7
 1714 079e 00       		.byte	0
 1715 079f 0B       		.uleb128 0xb
 1716 07a0 04       		.byte	0x4
 1717 07a1 8B070000 		.4byte	0x78b
 1718 07a5 13       		.uleb128 0x13
 1719 07a6 93020000 		.4byte	0x293
 1720 07aa B5070000 		.4byte	0x7b5
 1721 07ae 14       		.uleb128 0x14
 1722 07af 6F060000 		.4byte	0x66f
 1723 07b3 26       		.byte	0x26
 1724 07b4 00       		.byte	0
 1725 07b5 0F       		.uleb128 0xf
 1726 07b6 69020000 		.4byte	.LASF119
 1727 07ba 0F       		.byte	0xf
 1728 07bb 82       		.byte	0x82
 1729 07bc A5070000 		.4byte	0x7a5
 1730 07c0 07       		.uleb128 0x7
 1731 07c1 4F000000 		.4byte	.LASF120
 1732 07c5 20       		.byte	0x20
 1733 07c6 10       		.byte	0x10
 1734 07c7 FD       		.byte	0xfd
 1735 07c8 33080000 		.4byte	0x833
 1736 07cc 08       		.uleb128 0x8
 1737 07cd B2020000 		.4byte	.LASF121
 1738 07d1 10       		.byte	0x10
 1739 07d2 FE       		.byte	0xfe
 1740 07d3 3E000000 		.4byte	0x3e
 1741 07d7 00       		.byte	0
 1742 07d8 08       		.uleb128 0x8
 1743 07d9 B2080000 		.4byte	.LASF122
 1744 07dd 10       		.byte	0x10
 1745 07de FF       		.byte	0xff
 1746 07df 3E000000 		.4byte	0x3e
 1747 07e3 04       		.byte	0x4
 1748 07e4 15       		.uleb128 0x15
 1749 07e5 24090000 		.4byte	.LASF123
 1750 07e9 10       		.byte	0x10
 1751 07ea 0001     		.2byte	0x100
 1752 07ec 3E000000 		.4byte	0x3e
 1753 07f0 08       		.byte	0x8
 1754 07f1 15       		.uleb128 0x15
 1755 07f2 D6020000 		.4byte	.LASF124
 1756 07f6 10       		.byte	0x10
 1757 07f7 0101     		.2byte	0x101
 1758 07f9 3E000000 		.4byte	0x3e
 1759 07fd 0C       		.byte	0xc
 1760 07fe 15       		.uleb128 0x15
 1761 07ff DE000000 		.4byte	.LASF125
 1762 0803 10       		.byte	0x10
 1763 0804 0201     		.2byte	0x102
 1764 0806 3E000000 		.4byte	0x3e
 1765 080a 10       		.byte	0x10
 1766 080b 15       		.uleb128 0x15
 1767 080c A9040000 		.4byte	.LASF126
ARM GAS  /tmp/ccBZqj2k.s 			page 32


 1768 0810 10       		.byte	0x10
 1769 0811 0301     		.2byte	0x103
 1770 0813 3E000000 		.4byte	0x3e
 1771 0817 14       		.byte	0x14
 1772 0818 15       		.uleb128 0x15
 1773 0819 07020000 		.4byte	.LASF127
 1774 081d 10       		.byte	0x10
 1775 081e 0401     		.2byte	0x104
 1776 0820 3E000000 		.4byte	0x3e
 1777 0824 18       		.byte	0x18
 1778 0825 15       		.uleb128 0x15
 1779 0826 7A090000 		.4byte	.LASF128
 1780 082a 10       		.byte	0x10
 1781 082b 0501     		.2byte	0x105
 1782 082d 3E000000 		.4byte	0x3e
 1783 0831 1C       		.byte	0x1c
 1784 0832 00       		.byte	0
 1785 0833 16       		.uleb128 0x16
 1786 0834 4F000000 		.4byte	.LASF120
 1787 0838 10       		.byte	0x10
 1788 0839 0801     		.2byte	0x108
 1789 083b C0070000 		.4byte	0x7c0
 1790 083f 12       		.uleb128 0x12
 1791 0840 14010000 		.4byte	0x114
 1792 0844 58080000 		.4byte	0x858
 1793 0848 0E       		.uleb128 0xe
 1794 0849 A9020000 		.4byte	0x2a9
 1795 084d 0E       		.uleb128 0xe
 1796 084e A7000000 		.4byte	0xa7
 1797 0852 0E       		.uleb128 0xe
 1798 0853 35010000 		.4byte	0x135
 1799 0857 00       		.byte	0
 1800 0858 0B       		.uleb128 0xb
 1801 0859 04       		.byte	0x4
 1802 085a 3F080000 		.4byte	0x83f
 1803 085e 12       		.uleb128 0x12
 1804 085f 14010000 		.4byte	0x114
 1805 0863 72080000 		.4byte	0x872
 1806 0867 0E       		.uleb128 0xe
 1807 0868 A9020000 		.4byte	0x2a9
 1808 086c 0E       		.uleb128 0xe
 1809 086d 35010000 		.4byte	0x135
 1810 0871 00       		.byte	0
 1811 0872 0B       		.uleb128 0xb
 1812 0873 04       		.byte	0x4
 1813 0874 5E080000 		.4byte	0x85e
 1814 0878 12       		.uleb128 0x12
 1815 0879 2C000000 		.4byte	0x2c
 1816 087d 96080000 		.4byte	0x896
 1817 0881 0E       		.uleb128 0xe
 1818 0882 A9020000 		.4byte	0x2a9
 1819 0886 0E       		.uleb128 0xe
 1820 0887 60070000 		.4byte	0x760
 1821 088b 0E       		.uleb128 0xe
 1822 088c 2C000000 		.4byte	0x2c
 1823 0890 0E       		.uleb128 0xe
 1824 0891 35010000 		.4byte	0x135
ARM GAS  /tmp/ccBZqj2k.s 			page 33


 1825 0895 00       		.byte	0
 1826 0896 0B       		.uleb128 0xb
 1827 0897 04       		.byte	0x4
 1828 0898 78080000 		.4byte	0x878
 1829 089c 12       		.uleb128 0x12
 1830 089d 2C000000 		.4byte	0x2c
 1831 08a1 BA080000 		.4byte	0x8ba
 1832 08a5 0E       		.uleb128 0xe
 1833 08a6 A9020000 		.4byte	0x2a9
 1834 08aa 0E       		.uleb128 0xe
 1835 08ab 2B070000 		.4byte	0x72b
 1836 08af 0E       		.uleb128 0xe
 1837 08b0 2C000000 		.4byte	0x2c
 1838 08b4 0E       		.uleb128 0xe
 1839 08b5 35010000 		.4byte	0x135
 1840 08b9 00       		.byte	0
 1841 08ba 0B       		.uleb128 0xb
 1842 08bb 04       		.byte	0x4
 1843 08bc 9C080000 		.4byte	0x89c
 1844 08c0 0A       		.uleb128 0xa
 1845 08c1 18       		.byte	0x18
 1846 08c2 11       		.byte	0x11
 1847 08c3 2A       		.byte	0x2a
 1848 08c4 11090000 		.4byte	0x911
 1849 08c8 08       		.uleb128 0x8
 1850 08c9 DA080000 		.4byte	.LASF129
 1851 08cd 11       		.byte	0x11
 1852 08ce 2F       		.byte	0x2f
 1853 08cf CD000000 		.4byte	0xcd
 1854 08d3 00       		.byte	0
 1855 08d4 08       		.uleb128 0x8
 1856 08d5 47050000 		.4byte	.LASF130
 1857 08d9 11       		.byte	0x11
 1858 08da 31       		.byte	0x31
 1859 08db 11090000 		.4byte	0x911
 1860 08df 04       		.byte	0x4
 1861 08e0 08       		.uleb128 0x8
 1862 08e1 C1030000 		.4byte	.LASF131
 1863 08e5 11       		.byte	0x11
 1864 08e6 32       		.byte	0x32
 1865 08e7 11090000 		.4byte	0x911
 1866 08eb 08       		.byte	0x8
 1867 08ec 08       		.uleb128 0x8
 1868 08ed 84040000 		.4byte	.LASF132
 1869 08f1 11       		.byte	0x11
 1870 08f2 33       		.byte	0x33
 1871 08f3 11090000 		.4byte	0x911
 1872 08f7 0C       		.byte	0xc
 1873 08f8 08       		.uleb128 0x8
 1874 08f9 4D050000 		.4byte	.LASF133
 1875 08fd 11       		.byte	0x11
 1876 08fe 34       		.byte	0x34
 1877 08ff 11090000 		.4byte	0x911
 1878 0903 10       		.byte	0x10
 1879 0904 08       		.uleb128 0x8
 1880 0905 44060000 		.4byte	.LASF134
 1881 0909 11       		.byte	0x11
ARM GAS  /tmp/ccBZqj2k.s 			page 34


 1882 090a 35       		.byte	0x35
 1883 090b 37000000 		.4byte	0x37
 1884 090f 14       		.byte	0x14
 1885 0910 00       		.byte	0
 1886 0911 0B       		.uleb128 0xb
 1887 0912 04       		.byte	0x4
 1888 0913 D8000000 		.4byte	0xd8
 1889 0917 03       		.uleb128 0x3
 1890 0918 B5030000 		.4byte	.LASF135
 1891 091c 11       		.byte	0x11
 1892 091d 37       		.byte	0x37
 1893 091e C0080000 		.4byte	0x8c0
 1894 0922 17       		.uleb128 0x17
 1895 0923 00       		.byte	0
 1896 0924 11       		.byte	0x11
 1897 0925 43       		.byte	0x43
 1898 0926 03       		.uleb128 0x3
 1899 0927 3D090000 		.4byte	.LASF136
 1900 092b 11       		.byte	0x11
 1901 092c 45       		.byte	0x45
 1902 092d 22090000 		.4byte	0x922
 1903 0931 06       		.uleb128 0x6
 1904 0932 26090000 		.4byte	0x926
 1905 0936 0F       		.uleb128 0xf
 1906 0937 25050000 		.4byte	.LASF137
 1907 093b 11       		.byte	0x11
 1908 093c 6D       		.byte	0x6d
 1909 093d 17090000 		.4byte	0x917
 1910 0941 0F       		.uleb128 0xf
 1911 0942 5B060000 		.4byte	.LASF138
 1912 0946 11       		.byte	0x11
 1913 0947 6E       		.byte	0x6e
 1914 0948 17090000 		.4byte	0x917
 1915 094c 0F       		.uleb128 0xf
 1916 094d 4F090000 		.4byte	.LASF139
 1917 0951 11       		.byte	0x11
 1918 0952 75       		.byte	0x75
 1919 0953 31090000 		.4byte	0x931
 1920 0957 18       		.uleb128 0x18
 1921 0958 01       		.byte	0x1
 1922 0959 55000000 		.4byte	0x55
 1923 095d 12       		.byte	0x12
 1924 095e 54       		.byte	0x54
 1925 095f 88090000 		.4byte	0x988
 1926 0963 19       		.uleb128 0x19
 1927 0964 C8010000 		.4byte	.LASF140
 1928 0968 00       		.byte	0
 1929 0969 19       		.uleb128 0x19
 1930 096a 97040000 		.4byte	.LASF141
 1931 096e 01       		.byte	0x1
 1932 096f 19       		.uleb128 0x19
 1933 0970 8C070000 		.4byte	.LASF142
 1934 0974 02       		.byte	0x2
 1935 0975 19       		.uleb128 0x19
 1936 0976 47020000 		.4byte	.LASF143
 1937 097a 03       		.byte	0x3
 1938 097b 19       		.uleb128 0x19
ARM GAS  /tmp/ccBZqj2k.s 			page 35


 1939 097c 01070000 		.4byte	.LASF144
 1940 0980 04       		.byte	0x4
 1941 0981 19       		.uleb128 0x19
 1942 0982 9C060000 		.4byte	.LASF145
 1943 0986 05       		.byte	0x5
 1944 0987 00       		.byte	0
 1945 0988 03       		.uleb128 0x3
 1946 0989 8A050000 		.4byte	.LASF146
 1947 098d 12       		.byte	0x12
 1948 098e 5B       		.byte	0x5b
 1949 098f 57090000 		.4byte	0x957
 1950 0993 03       		.uleb128 0x3
 1951 0994 96070000 		.4byte	.LASF147
 1952 0998 13       		.byte	0x13
 1953 0999 38       		.byte	0x38
 1954 099a 9E090000 		.4byte	0x99e
 1955 099e 07       		.uleb128 0x7
 1956 099f 96070000 		.4byte	.LASF147
 1957 09a3 40       		.byte	0x40
 1958 09a4 13       		.byte	0x13
 1959 09a5 62       		.byte	0x62
 1960 09a6 470A0000 		.4byte	0xa47
 1961 09aa 08       		.uleb128 0x8
 1962 09ab DD010000 		.4byte	.LASF148
 1963 09af 13       		.byte	0x13
 1964 09b0 64       		.byte	0x64
 1965 09b1 88090000 		.4byte	0x988
 1966 09b5 00       		.byte	0
 1967 09b6 08       		.uleb128 0x8
 1968 09b7 3D070000 		.4byte	.LASF149
 1969 09bb 13       		.byte	0x13
 1970 09bc 66       		.byte	0x66
 1971 09bd 880A0000 		.4byte	0xa88
 1972 09c1 04       		.byte	0x4
 1973 09c2 08       		.uleb128 0x8
 1974 09c3 32030000 		.4byte	.LASF150
 1975 09c7 13       		.byte	0x13
 1976 09c8 68       		.byte	0x68
 1977 09c9 470A0000 		.4byte	0xa47
 1978 09cd 08       		.byte	0x8
 1979 09ce 08       		.uleb128 0x8
 1980 09cf 01010000 		.4byte	.LASF151
 1981 09d3 13       		.byte	0x13
 1982 09d4 6A       		.byte	0x6a
 1983 09d5 8E0A0000 		.4byte	0xa8e
 1984 09d9 0C       		.byte	0xc
 1985 09da 08       		.uleb128 0x8
 1986 09db CC050000 		.4byte	.LASF152
 1987 09df 13       		.byte	0x13
 1988 09e0 6D       		.byte	0x6d
 1989 09e1 9F040000 		.4byte	0x49f
 1990 09e5 10       		.byte	0x10
 1991 09e6 08       		.uleb128 0x8
 1992 09e7 00020000 		.4byte	.LASF153
 1993 09eb 13       		.byte	0x13
 1994 09ec 77       		.byte	0x77
 1995 09ed 62020000 		.4byte	0x262
ARM GAS  /tmp/ccBZqj2k.s 			page 36


 1996 09f1 20       		.byte	0x20
 1997 09f2 08       		.uleb128 0x8
 1998 09f3 99010000 		.4byte	.LASF154
 1999 09f7 13       		.byte	0x13
 2000 09f8 7B       		.byte	0x7b
 2001 09f9 520A0000 		.4byte	0xa52
 2002 09fd 24       		.byte	0x24
 2003 09fe 08       		.uleb128 0x8
 2004 09ff 1C030000 		.4byte	.LASF155
 2005 0a03 13       		.byte	0x13
 2006 0a04 7F       		.byte	0x7f
 2007 0a05 60070000 		.4byte	0x760
 2008 0a09 28       		.byte	0x28
 2009 0a0a 08       		.uleb128 0x8
 2010 0a0b 72090000 		.4byte	.LASF156
 2011 0a0f 13       		.byte	0x13
 2012 0a10 83       		.byte	0x83
 2013 0a11 2C000000 		.4byte	0x2c
 2014 0a15 2C       		.byte	0x2c
 2015 0a16 08       		.uleb128 0x8
 2016 0a17 8D080000 		.4byte	.LASF157
 2017 0a1b 13       		.byte	0x13
 2018 0a1c 87       		.byte	0x87
 2019 0a1d 2C000000 		.4byte	0x2c
 2020 0a21 30       		.byte	0x30
 2021 0a22 08       		.uleb128 0x8
 2022 0a23 5B000000 		.4byte	.LASF158
 2023 0a27 13       		.byte	0x13
 2024 0a28 8B       		.byte	0x8b
 2025 0a29 2B070000 		.4byte	0x72b
 2026 0a2d 34       		.byte	0x34
 2027 0a2e 08       		.uleb128 0x8
 2028 0a2f FA040000 		.4byte	.LASF159
 2029 0a33 13       		.byte	0x13
 2030 0a34 8F       		.byte	0x8f
 2031 0a35 2C000000 		.4byte	0x2c
 2032 0a39 38       		.byte	0x38
 2033 0a3a 08       		.uleb128 0x8
 2034 0a3b 20020000 		.4byte	.LASF160
 2035 0a3f 13       		.byte	0x13
 2036 0a40 93       		.byte	0x93
 2037 0a41 2C000000 		.4byte	0x2c
 2038 0a45 3C       		.byte	0x3c
 2039 0a46 00       		.byte	0
 2040 0a47 03       		.uleb128 0x3
 2041 0a48 C1050000 		.4byte	.LASF161
 2042 0a4c 13       		.byte	0x13
 2043 0a4d 42       		.byte	0x42
 2044 0a4e CD000000 		.4byte	0xcd
 2045 0a52 03       		.uleb128 0x3
 2046 0a53 D3010000 		.4byte	.LASF162
 2047 0a57 13       		.byte	0x13
 2048 0a58 48       		.byte	0x48
 2049 0a59 B7000000 		.4byte	0xb7
 2050 0a5d 0B       		.uleb128 0xb
 2051 0a5e 04       		.byte	0x4
 2052 0a5f 93090000 		.4byte	0x993
ARM GAS  /tmp/ccBZqj2k.s 			page 37


 2053 0a63 0A       		.uleb128 0xa
 2054 0a64 04       		.byte	0x4
 2055 0a65 13       		.byte	0x13
 2056 0a66 57       		.byte	0x57
 2057 0a67 780A0000 		.4byte	0xa78
 2058 0a6b 08       		.uleb128 0x8
 2059 0a6c D4040000 		.4byte	.LASF163
 2060 0a70 13       		.byte	0x13
 2061 0a71 59       		.byte	0x59
 2062 0a72 CD000000 		.4byte	0xcd
 2063 0a76 00       		.byte	0
 2064 0a77 00       		.byte	0
 2065 0a78 03       		.uleb128 0x3
 2066 0a79 79080000 		.4byte	.LASF164
 2067 0a7d 13       		.byte	0x13
 2068 0a7e 5B       		.byte	0x5b
 2069 0a7f 630A0000 		.4byte	0xa63
 2070 0a83 06       		.uleb128 0x6
 2071 0a84 780A0000 		.4byte	0xa78
 2072 0a88 0B       		.uleb128 0xb
 2073 0a89 04       		.byte	0x4
 2074 0a8a 830A0000 		.4byte	0xa83
 2075 0a8e 0B       		.uleb128 0xb
 2076 0a8f 04       		.byte	0x4
 2077 0a90 33080000 		.4byte	0x833
 2078 0a94 0F       		.uleb128 0xf
 2079 0a95 F1020000 		.4byte	.LASF165
 2080 0a99 13       		.byte	0x13
 2081 0a9a A6       		.byte	0xa6
 2082 0a9b 93090000 		.4byte	0x993
 2083 0a9f 18       		.uleb128 0x18
 2084 0aa0 01       		.byte	0x1
 2085 0aa1 55000000 		.4byte	0x55
 2086 0aa5 14       		.byte	0x14
 2087 0aa6 5D       		.byte	0x5d
 2088 0aa7 BE0A0000 		.4byte	0xabe
 2089 0aab 19       		.uleb128 0x19
 2090 0aac C0060000 		.4byte	.LASF166
 2091 0ab0 00       		.byte	0
 2092 0ab1 19       		.uleb128 0x19
 2093 0ab2 52010000 		.4byte	.LASF167
 2094 0ab6 01       		.byte	0x1
 2095 0ab7 19       		.uleb128 0x19
 2096 0ab8 48080000 		.4byte	.LASF168
 2097 0abc 02       		.byte	0x2
 2098 0abd 00       		.byte	0
 2099 0abe 03       		.uleb128 0x3
 2100 0abf 83080000 		.4byte	.LASF169
 2101 0ac3 14       		.byte	0x14
 2102 0ac4 61       		.byte	0x61
 2103 0ac5 9F0A0000 		.4byte	0xa9f
 2104 0ac9 03       		.uleb128 0x3
 2105 0aca F4060000 		.4byte	.LASF170
 2106 0ace 14       		.byte	0x14
 2107 0acf 66       		.byte	0x66
 2108 0ad0 D40A0000 		.4byte	0xad4
 2109 0ad4 07       		.uleb128 0x7
ARM GAS  /tmp/ccBZqj2k.s 			page 38


 2110 0ad5 F4060000 		.4byte	.LASF170
 2111 0ad9 74       		.byte	0x74
 2112 0ada 14       		.byte	0x14
 2113 0adb 80       		.byte	0x80
 2114 0adc 330B0000 		.4byte	0xb33
 2115 0ae0 09       		.uleb128 0x9
 2116 0ae1 766D7400 		.ascii	"vmt\000"
 2117 0ae5 14       		.byte	0x14
 2118 0ae6 82       		.byte	0x82
 2119 0ae7 B00B0000 		.4byte	0xbb0
 2120 0aeb 00       		.byte	0
 2121 0aec 08       		.uleb128 0x8
 2122 0aed 94030000 		.4byte	.LASF171
 2123 0af1 14       		.byte	0x14
 2124 0af2 83       		.byte	0x83
 2125 0af3 11050000 		.4byte	0x511
 2126 0af7 04       		.byte	0x4
 2127 0af8 08       		.uleb128 0x8
 2128 0af9 DD010000 		.4byte	.LASF148
 2129 0afd 14       		.byte	0x14
 2130 0afe 83       		.byte	0x83
 2131 0aff BE0A0000 		.4byte	0xabe
 2132 0b03 08       		.byte	0x8
 2133 0b04 08       		.uleb128 0x8
 2134 0b05 39030000 		.4byte	.LASF172
 2135 0b09 14       		.byte	0x14
 2136 0b0a 83       		.byte	0x83
 2137 0b0b 31070000 		.4byte	0x731
 2138 0b0f 0C       		.byte	0xc
 2139 0b10 08       		.uleb128 0x8
 2140 0b11 CD030000 		.4byte	.LASF173
 2141 0b15 14       		.byte	0x14
 2142 0b16 83       		.byte	0x83
 2143 0b17 3C070000 		.4byte	0x73c
 2144 0b1b 30       		.byte	0x30
 2145 0b1c 09       		.uleb128 0x9
 2146 0b1d 696200   		.ascii	"ib\000"
 2147 0b20 14       		.byte	0x14
 2148 0b21 83       		.byte	0x83
 2149 0b22 B60B0000 		.4byte	0xbb6
 2150 0b26 54       		.byte	0x54
 2151 0b27 09       		.uleb128 0x9
 2152 0b28 6F6200   		.ascii	"ob\000"
 2153 0b2b 14       		.byte	0x14
 2154 0b2c 83       		.byte	0x83
 2155 0b2d B60B0000 		.4byte	0xbb6
 2156 0b31 64       		.byte	0x64
 2157 0b32 00       		.byte	0
 2158 0b33 1A       		.uleb128 0x1a
 2159 0b34 53443100 		.ascii	"SD1\000"
 2160 0b38 17       		.byte	0x17
 2161 0b39 62       		.byte	0x62
 2162 0b3a C90A0000 		.4byte	0xac9
 2163 0b3e 07       		.uleb128 0x7
 2164 0b3f 22030000 		.4byte	.LASF174
 2165 0b43 20       		.byte	0x20
 2166 0b44 14       		.byte	0x14
ARM GAS  /tmp/ccBZqj2k.s 			page 39


 2167 0b45 75       		.byte	0x75
 2168 0b46 AB0B0000 		.4byte	0xbab
 2169 0b4a 08       		.uleb128 0x8
 2170 0b4b 21000000 		.4byte	.LASF175
 2171 0b4f 14       		.byte	0x14
 2172 0b50 76       		.byte	0x76
 2173 0b51 66070000 		.4byte	0x766
 2174 0b55 00       		.byte	0
 2175 0b56 08       		.uleb128 0x8
 2176 0b57 0F070000 		.4byte	.LASF176
 2177 0b5b 14       		.byte	0x14
 2178 0b5c 76       		.byte	0x76
 2179 0b5d 85070000 		.4byte	0x785
 2180 0b61 04       		.byte	0x4
 2181 0b62 09       		.uleb128 0x9
 2182 0b63 70757400 		.ascii	"put\000"
 2183 0b67 14       		.byte	0x14
 2184 0b68 76       		.byte	0x76
 2185 0b69 9F070000 		.4byte	0x79f
 2186 0b6d 08       		.byte	0x8
 2187 0b6e 09       		.uleb128 0x9
 2188 0b6f 67657400 		.ascii	"get\000"
 2189 0b73 14       		.byte	0x14
 2190 0b74 76       		.byte	0x76
 2191 0b75 69050000 		.4byte	0x569
 2192 0b79 0C       		.byte	0xc
 2193 0b7a 08       		.uleb128 0x8
 2194 0b7b 8A040000 		.4byte	.LASF177
 2195 0b7f 14       		.byte	0x14
 2196 0b80 76       		.byte	0x76
 2197 0b81 58080000 		.4byte	0x858
 2198 0b85 10       		.byte	0x10
 2199 0b86 08       		.uleb128 0x8
 2200 0b87 63030000 		.4byte	.LASF178
 2201 0b8b 14       		.byte	0x14
 2202 0b8c 76       		.byte	0x76
 2203 0b8d 72080000 		.4byte	0x872
 2204 0b91 14       		.byte	0x14
 2205 0b92 08       		.uleb128 0x8
 2206 0b93 E4030000 		.4byte	.LASF179
 2207 0b97 14       		.byte	0x14
 2208 0b98 76       		.byte	0x76
 2209 0b99 96080000 		.4byte	0x896
 2210 0b9d 18       		.byte	0x18
 2211 0b9e 08       		.uleb128 0x8
 2212 0b9f FB000000 		.4byte	.LASF180
 2213 0ba3 14       		.byte	0x14
 2214 0ba4 76       		.byte	0x76
 2215 0ba5 BA080000 		.4byte	0x8ba
 2216 0ba9 1C       		.byte	0x1c
 2217 0baa 00       		.byte	0
 2218 0bab 06       		.uleb128 0x6
 2219 0bac 3E0B0000 		.4byte	0xb3e
 2220 0bb0 0B       		.uleb128 0xb
 2221 0bb1 04       		.byte	0x4
 2222 0bb2 AB0B0000 		.4byte	0xbab
 2223 0bb6 13       		.uleb128 0x13
ARM GAS  /tmp/ccBZqj2k.s 			page 40


 2224 0bb7 A7000000 		.4byte	0xa7
 2225 0bbb C60B0000 		.4byte	0xbc6
 2226 0bbf 14       		.uleb128 0x14
 2227 0bc0 6F060000 		.4byte	0x66f
 2228 0bc4 0F       		.byte	0xf
 2229 0bc5 00       		.byte	0
 2230 0bc6 18       		.uleb128 0x18
 2231 0bc7 01       		.byte	0x1
 2232 0bc8 55000000 		.4byte	0x55
 2233 0bcc 15       		.byte	0x15
 2234 0bcd 4E       		.byte	0x4e
 2235 0bce F10B0000 		.4byte	0xbf1
 2236 0bd2 19       		.uleb128 0x19
 2237 0bd3 5B080000 		.4byte	.LASF181
 2238 0bd7 00       		.byte	0
 2239 0bd8 19       		.uleb128 0x19
 2240 0bd9 3C010000 		.4byte	.LASF182
 2241 0bdd 01       		.byte	0x1
 2242 0bde 19       		.uleb128 0x19
 2243 0bdf 51080000 		.4byte	.LASF183
 2244 0be3 02       		.byte	0x2
 2245 0be4 19       		.uleb128 0x19
 2246 0be5 3D000000 		.4byte	.LASF184
 2247 0be9 03       		.byte	0x3
 2248 0bea 19       		.uleb128 0x19
 2249 0beb 30070000 		.4byte	.LASF185
 2250 0bef 04       		.byte	0x4
 2251 0bf0 00       		.byte	0
 2252 0bf1 03       		.uleb128 0x3
 2253 0bf2 5B070000 		.4byte	.LASF186
 2254 0bf6 15       		.byte	0x15
 2255 0bf7 54       		.byte	0x54
 2256 0bf8 C60B0000 		.4byte	0xbc6
 2257 0bfc 03       		.uleb128 0x3
 2258 0bfd CF000000 		.4byte	.LASF187
 2259 0c01 16       		.byte	0x16
 2260 0c02 35       		.byte	0x35
 2261 0c03 070C0000 		.4byte	0xc07
 2262 0c07 07       		.uleb128 0x7
 2263 0c08 CF000000 		.4byte	.LASF187
 2264 0c0c 28       		.byte	0x28
 2265 0c0d 16       		.byte	0x16
 2266 0c0e 7C       		.byte	0x7c
 2267 0c0f 680C0000 		.4byte	0xc68
 2268 0c13 08       		.uleb128 0x8
 2269 0c14 DD010000 		.4byte	.LASF148
 2270 0c18 16       		.byte	0x16
 2271 0c19 80       		.byte	0x80
 2272 0c1a F10B0000 		.4byte	0xbf1
 2273 0c1e 00       		.byte	0
 2274 0c1f 08       		.uleb128 0x8
 2275 0c20 3D070000 		.4byte	.LASF149
 2276 0c24 16       		.byte	0x16
 2277 0c25 84       		.byte	0x84
 2278 0c26 0F0D0000 		.4byte	0xd0f
 2279 0c2a 04       		.byte	0x4
 2280 0c2b 08       		.uleb128 0x8
ARM GAS  /tmp/ccBZqj2k.s 			page 41


 2281 0c2c 00020000 		.4byte	.LASF153
 2282 0c30 16       		.byte	0x16
 2283 0c31 89       		.byte	0x89
 2284 0c32 62020000 		.4byte	0x262
 2285 0c36 08       		.byte	0x8
 2286 0c37 08       		.uleb128 0x8
 2287 0c38 CC050000 		.4byte	.LASF152
 2288 0c3c 16       		.byte	0x16
 2289 0c3d 90       		.byte	0x90
 2290 0c3e 9F040000 		.4byte	0x49f
 2291 0c42 0C       		.byte	0xc
 2292 0c43 08       		.uleb128 0x8
 2293 0c44 5B000000 		.4byte	.LASF158
 2294 0c48 16       		.byte	0x16
 2295 0c49 98       		.byte	0x98
 2296 0c4a A9020000 		.4byte	0x2a9
 2297 0c4e 1C       		.byte	0x1c
 2298 0c4f 08       		.uleb128 0x8
 2299 0c50 1C030000 		.4byte	.LASF155
 2300 0c54 16       		.byte	0x16
 2301 0c55 9D       		.byte	0x9d
 2302 0c56 150D0000 		.4byte	0xd15
 2303 0c5a 20       		.byte	0x20
 2304 0c5b 08       		.uleb128 0x8
 2305 0c5c 80020000 		.4byte	.LASF188
 2306 0c60 16       		.byte	0x16
 2307 0c61 A2       		.byte	0xa2
 2308 0c62 2C000000 		.4byte	0x2c
 2309 0c66 24       		.byte	0x24
 2310 0c67 00       		.byte	0
 2311 0c68 03       		.uleb128 0x3
 2312 0c69 E3020000 		.4byte	.LASF189
 2313 0c6d 16       		.byte	0x16
 2314 0c6e 3D       		.byte	0x3d
 2315 0c6f 730C0000 		.4byte	0xc73
 2316 0c73 0B       		.uleb128 0xb
 2317 0c74 04       		.byte	0x4
 2318 0c75 790C0000 		.4byte	0xc79
 2319 0c79 0D       		.uleb128 0xd
 2320 0c7a 840C0000 		.4byte	0xc84
 2321 0c7e 0E       		.uleb128 0xe
 2322 0c7f 840C0000 		.4byte	0xc84
 2323 0c83 00       		.byte	0
 2324 0c84 0B       		.uleb128 0xb
 2325 0c85 04       		.byte	0x4
 2326 0c86 FC0B0000 		.4byte	0xbfc
 2327 0c8a 0A       		.uleb128 0xa
 2328 0c8b 10       		.byte	0x10
 2329 0c8c 16       		.byte	0x16
 2330 0c8d 44       		.byte	0x44
 2331 0c8e FF0C0000 		.4byte	0xcff
 2332 0c92 08       		.uleb128 0x8
 2333 0c93 79020000 		.4byte	.LASF190
 2334 0c97 16       		.byte	0x16
 2335 0c98 48       		.byte	0x48
 2336 0c99 680C0000 		.4byte	0xc68
 2337 0c9d 00       		.byte	0
ARM GAS  /tmp/ccBZqj2k.s 			page 42


 2338 0c9e 08       		.uleb128 0x8
 2339 0c9f 56050000 		.4byte	.LASF191
 2340 0ca3 16       		.byte	0x16
 2341 0ca4 4F       		.byte	0x4f
 2342 0ca5 A7000000 		.4byte	0xa7
 2343 0ca9 04       		.byte	0x4
 2344 0caa 08       		.uleb128 0x8
 2345 0cab 76050000 		.4byte	.LASF192
 2346 0caf 16       		.byte	0x16
 2347 0cb0 52       		.byte	0x52
 2348 0cb1 A7000000 		.4byte	0xa7
 2349 0cb5 05       		.byte	0x5
 2350 0cb6 08       		.uleb128 0x8
 2351 0cb7 7F030000 		.4byte	.LASF193
 2352 0cbb 16       		.byte	0x16
 2353 0cbc 58       		.byte	0x58
 2354 0cbd A7000000 		.4byte	0xa7
 2355 0cc1 06       		.byte	0x6
 2356 0cc2 08       		.uleb128 0x8
 2357 0cc3 86020000 		.4byte	.LASF194
 2358 0cc7 16       		.byte	0x16
 2359 0cc8 5E       		.byte	0x5e
 2360 0cc9 A7000000 		.4byte	0xa7
 2361 0ccd 07       		.byte	0x7
 2362 0cce 08       		.uleb128 0x8
 2363 0ccf 9C020000 		.4byte	.LASF195
 2364 0cd3 16       		.byte	0x16
 2365 0cd4 64       		.byte	0x64
 2366 0cd5 A7000000 		.4byte	0xa7
 2367 0cd9 08       		.byte	0x8
 2368 0cda 08       		.uleb128 0x8
 2369 0cdb 11020000 		.4byte	.LASF196
 2370 0cdf 16       		.byte	0x16
 2371 0ce0 6A       		.byte	0x6a
 2372 0ce1 A7000000 		.4byte	0xa7
 2373 0ce5 09       		.byte	0x9
 2374 0ce6 08       		.uleb128 0x8
 2375 0ce7 55020000 		.4byte	.LASF197
 2376 0ceb 16       		.byte	0x16
 2377 0cec 70       		.byte	0x70
 2378 0ced A7000000 		.4byte	0xa7
 2379 0cf1 0A       		.byte	0xa
 2380 0cf2 08       		.uleb128 0x8
 2381 0cf3 81060000 		.4byte	.LASF198
 2382 0cf7 16       		.byte	0x16
 2383 0cf8 73       		.byte	0x73
 2384 0cf9 CD000000 		.4byte	0xcd
 2385 0cfd 0C       		.byte	0xc
 2386 0cfe 00       		.byte	0
 2387 0cff 03       		.uleb128 0x3
 2388 0d00 0F090000 		.4byte	.LASF199
 2389 0d04 16       		.byte	0x16
 2390 0d05 75       		.byte	0x75
 2391 0d06 8A0C0000 		.4byte	0xc8a
 2392 0d0a 06       		.uleb128 0x6
 2393 0d0b FF0C0000 		.4byte	0xcff
 2394 0d0f 0B       		.uleb128 0xb
ARM GAS  /tmp/ccBZqj2k.s 			page 43


 2395 0d10 04       		.byte	0x4
 2396 0d11 0A0D0000 		.4byte	0xd0a
 2397 0d15 0B       		.uleb128 0xb
 2398 0d16 04       		.byte	0x4
 2399 0d17 1B0D0000 		.4byte	0xd1b
 2400 0d1b 1B       		.uleb128 0x1b
 2401 0d1c 0F       		.uleb128 0xf
 2402 0d1d 38020000 		.4byte	.LASF200
 2403 0d21 16       		.byte	0x16
 2404 0d22 B6       		.byte	0xb6
 2405 0d23 FC0B0000 		.4byte	0xbfc
 2406 0d27 1C       		.uleb128 0x1c
 2407 0d28 940A0000 		.4byte	0xa94
 2408 0d2c 01       		.byte	0x1
 2409 0d2d 2A       		.byte	0x2a
 2410 0d2e 05       		.uleb128 0x5
 2411 0d2f 03       		.byte	0x3
 2412 0d30 00000000 		.4byte	I2C0
 2413 0d34 1D       		.uleb128 0x1d
 2414 0d35 F6020000 		.4byte	.LASF201
 2415 0d39 01       		.byte	0x1
 2416 0d3a 2B       		.byte	0x2b
 2417 0d3b 93090000 		.4byte	0x993
 2418 0d3f 05       		.uleb128 0x5
 2419 0d40 03       		.byte	0x3
 2420 0d41 00000000 		.4byte	I2C1
 2421 0d45 1E       		.uleb128 0x1e
 2422 0d46 62010000 		.4byte	.LASF204
 2423 0d4a 01       		.byte	0x1
 2424 0d4b 0D01     		.2byte	0x10d
 2425 0d4d 14010000 		.4byte	0x114
 2426 0d51 00000000 		.4byte	.LFB13
 2427 0d55 CC000000 		.4byte	.LFE13-.LFB13
 2428 0d59 01       		.uleb128 0x1
 2429 0d5a 9C       		.byte	0x9c
 2430 0d5b 190E0000 		.4byte	0xe19
 2431 0d5f 1F       		.uleb128 0x1f
 2432 0d60 D9000000 		.4byte	.LASF202
 2433 0d64 01       		.byte	0x1
 2434 0d65 0D01     		.2byte	0x10d
 2435 0d67 5D0A0000 		.4byte	0xa5d
 2436 0d6b 00000000 		.4byte	.LLST12
 2437 0d6f 1F       		.uleb128 0x1f
 2438 0d70 99010000 		.4byte	.LASF154
 2439 0d74 01       		.byte	0x1
 2440 0d75 0D01     		.2byte	0x10d
 2441 0d77 520A0000 		.4byte	0xa52
 2442 0d7b 37000000 		.4byte	.LLST13
 2443 0d7f 1F       		.uleb128 0x1f
 2444 0d80 5B000000 		.4byte	.LASF158
 2445 0d84 01       		.byte	0x1
 2446 0d85 0E01     		.2byte	0x10e
 2447 0d87 2B070000 		.4byte	0x72b
 2448 0d8b 58000000 		.4byte	.LLST14
 2449 0d8f 1F       		.uleb128 0x1f
 2450 0d90 FA040000 		.4byte	.LASF159
 2451 0d94 01       		.byte	0x1
ARM GAS  /tmp/ccBZqj2k.s 			page 44


 2452 0d95 0E01     		.2byte	0x10e
 2453 0d97 2C000000 		.4byte	0x2c
 2454 0d9b 84000000 		.4byte	.LLST15
 2455 0d9f 20       		.uleb128 0x20
 2456 0da0 5B030000 		.4byte	.LASF203
 2457 0da4 01       		.byte	0x1
 2458 0da5 0F01     		.2byte	0x10f
 2459 0da7 35010000 		.4byte	0x135
 2460 0dab 02       		.uleb128 0x2
 2461 0dac 91       		.byte	0x91
 2462 0dad 00       		.sleb128 0
 2463 0dae 21       		.uleb128 0x21
 2464 0daf 767400   		.ascii	"vt\000"
 2465 0db2 01       		.byte	0x1
 2466 0db3 1001     		.2byte	0x110
 2467 0db5 58030000 		.4byte	0x358
 2468 0db9 02       		.uleb128 0x2
 2469 0dba 91       		.byte	0x91
 2470 0dbb 54       		.sleb128 -44
 2471 0dbc 22       		.uleb128 0x22
 2472 0dbd 01010000 		.4byte	.LASF151
 2473 0dc1 01       		.byte	0x1
 2474 0dc2 1F01     		.2byte	0x11f
 2475 0dc4 8E0A0000 		.4byte	0xa8e
 2476 0dc8 BC000000 		.4byte	.LLST16
 2477 0dcc 23       		.uleb128 0x23
 2478 0dcd 38000000 		.4byte	.LVL38
 2479 0dd1 0E110000 		.4byte	0x110e
 2480 0dd5 F50D0000 		.4byte	0xdf5
 2481 0dd9 24       		.uleb128 0x24
 2482 0dda 01       		.uleb128 0x1
 2483 0ddb 50       		.byte	0x50
 2484 0ddc 02       		.uleb128 0x2
 2485 0ddd 91       		.byte	0x91
 2486 0dde 4C       		.sleb128 -52
 2487 0ddf 24       		.uleb128 0x24
 2488 0de0 01       		.uleb128 0x1
 2489 0de1 51       		.byte	0x51
 2490 0de2 02       		.uleb128 0x2
 2491 0de3 75       		.byte	0x75
 2492 0de4 00       		.sleb128 0
 2493 0de5 24       		.uleb128 0x24
 2494 0de6 01       		.uleb128 0x1
 2495 0de7 52       		.byte	0x52
 2496 0de8 05       		.uleb128 0x5
 2497 0de9 03       		.byte	0x3
 2498 0dea 00000000 		.4byte	i2c_lld_safety_timeout
 2499 0dee 24       		.uleb128 0x24
 2500 0def 01       		.uleb128 0x1
 2501 0df0 53       		.byte	0x53
 2502 0df1 02       		.uleb128 0x2
 2503 0df2 74       		.byte	0x74
 2504 0df3 00       		.sleb128 0
 2505 0df4 00       		.byte	0
 2506 0df5 23       		.uleb128 0x23
 2507 0df6 8C000000 		.4byte	.LVL42
 2508 0dfa 19110000 		.4byte	0x1119
ARM GAS  /tmp/ccBZqj2k.s 			page 45


 2509 0dfe 080E0000 		.4byte	0xe08
 2510 0e02 24       		.uleb128 0x24
 2511 0e03 01       		.uleb128 0x1
 2512 0e04 50       		.byte	0x50
 2513 0e05 01       		.uleb128 0x1
 2514 0e06 32       		.byte	0x32
 2515 0e07 00       		.byte	0
 2516 0e08 25       		.uleb128 0x25
 2517 0e09 A8000000 		.4byte	.LVL43
 2518 0e0d 24110000 		.4byte	0x1124
 2519 0e11 24       		.uleb128 0x24
 2520 0e12 01       		.uleb128 0x1
 2521 0e13 50       		.byte	0x50
 2522 0e14 02       		.uleb128 0x2
 2523 0e15 91       		.byte	0x91
 2524 0e16 4C       		.sleb128 -52
 2525 0e17 00       		.byte	0
 2526 0e18 00       		.byte	0
 2527 0e19 26       		.uleb128 0x26
 2528 0e1a 9E010000 		.4byte	.LASF205
 2529 0e1e 01       		.byte	0x1
 2530 0e1f CD       		.byte	0xcd
 2531 0e20 14010000 		.4byte	0x114
 2532 0e24 00000000 		.4byte	.LFB12
 2533 0e28 3C010000 		.4byte	.LFE12-.LFB12
 2534 0e2c 01       		.uleb128 0x1
 2535 0e2d 9C       		.byte	0x9c
 2536 0e2e 510F0000 		.4byte	0xf51
 2537 0e32 27       		.uleb128 0x27
 2538 0e33 D9000000 		.4byte	.LASF202
 2539 0e37 01       		.byte	0x1
 2540 0e38 CD       		.byte	0xcd
 2541 0e39 5D0A0000 		.4byte	0xa5d
 2542 0e3d DB000000 		.4byte	.LLST17
 2543 0e41 27       		.uleb128 0x27
 2544 0e42 99010000 		.4byte	.LASF154
 2545 0e46 01       		.byte	0x1
 2546 0e47 CD       		.byte	0xcd
 2547 0e48 520A0000 		.4byte	0xa52
 2548 0e4c 12010000 		.4byte	.LLST18
 2549 0e50 27       		.uleb128 0x27
 2550 0e51 1C030000 		.4byte	.LASF155
 2551 0e55 01       		.byte	0x1
 2552 0e56 CE       		.byte	0xce
 2553 0e57 60070000 		.4byte	0x760
 2554 0e5b 33010000 		.4byte	.LLST19
 2555 0e5f 27       		.uleb128 0x27
 2556 0e60 72090000 		.4byte	.LASF156
 2557 0e64 01       		.byte	0x1
 2558 0e65 CE       		.byte	0xce
 2559 0e66 2C000000 		.4byte	0x2c
 2560 0e6a 5F010000 		.4byte	.LLST20
 2561 0e6e 28       		.uleb128 0x28
 2562 0e6f 5B000000 		.4byte	.LASF158
 2563 0e73 01       		.byte	0x1
 2564 0e74 CF       		.byte	0xcf
 2565 0e75 2B070000 		.4byte	0x72b
ARM GAS  /tmp/ccBZqj2k.s 			page 46


 2566 0e79 02       		.uleb128 0x2
 2567 0e7a 91       		.byte	0x91
 2568 0e7b 00       		.sleb128 0
 2569 0e7c 28       		.uleb128 0x28
 2570 0e7d FA040000 		.4byte	.LASF159
 2571 0e81 01       		.byte	0x1
 2572 0e82 CF       		.byte	0xcf
 2573 0e83 B2000000 		.4byte	0xb2
 2574 0e87 02       		.uleb128 0x2
 2575 0e88 91       		.byte	0x91
 2576 0e89 04       		.sleb128 4
 2577 0e8a 28       		.uleb128 0x28
 2578 0e8b 5B030000 		.4byte	.LASF203
 2579 0e8f 01       		.byte	0x1
 2580 0e90 D0       		.byte	0xd0
 2581 0e91 35010000 		.4byte	0x135
 2582 0e95 02       		.uleb128 0x2
 2583 0e96 91       		.byte	0x91
 2584 0e97 08       		.sleb128 8
 2585 0e98 29       		.uleb128 0x29
 2586 0e99 767400   		.ascii	"vt\000"
 2587 0e9c 01       		.byte	0x1
 2588 0e9d D1       		.byte	0xd1
 2589 0e9e 58030000 		.4byte	0x358
 2590 0ea2 02       		.uleb128 0x2
 2591 0ea3 91       		.byte	0x91
 2592 0ea4 4C       		.sleb128 -52
 2593 0ea5 2A       		.uleb128 0x2a
 2594 0ea6 01010000 		.4byte	.LASF151
 2595 0eaa 01       		.byte	0x1
 2596 0eab DF       		.byte	0xdf
 2597 0eac 8E0A0000 		.4byte	0xa8e
 2598 0eb0 97010000 		.4byte	.LLST21
 2599 0eb4 2A       		.uleb128 0x2a
 2600 0eb5 B2080000 		.4byte	.LASF122
 2601 0eb9 01       		.byte	0x1
 2602 0eba F1       		.byte	0xf1
 2603 0ebb 14010000 		.4byte	0x114
 2604 0ebf B6010000 		.4byte	.LLST22
 2605 0ec3 23       		.uleb128 0x23
 2606 0ec4 40000000 		.4byte	.LVL50
 2607 0ec8 0E110000 		.4byte	0x110e
 2608 0ecc EC0E0000 		.4byte	0xeec
 2609 0ed0 24       		.uleb128 0x24
 2610 0ed1 01       		.uleb128 0x1
 2611 0ed2 50       		.byte	0x50
 2612 0ed3 02       		.uleb128 0x2
 2613 0ed4 91       		.byte	0x91
 2614 0ed5 44       		.sleb128 -60
 2615 0ed6 24       		.uleb128 0x24
 2616 0ed7 01       		.uleb128 0x1
 2617 0ed8 51       		.byte	0x51
 2618 0ed9 02       		.uleb128 0x2
 2619 0eda 75       		.byte	0x75
 2620 0edb 00       		.sleb128 0
 2621 0edc 24       		.uleb128 0x24
 2622 0edd 01       		.uleb128 0x1
ARM GAS  /tmp/ccBZqj2k.s 			page 47


 2623 0ede 52       		.byte	0x52
 2624 0edf 05       		.uleb128 0x5
 2625 0ee0 03       		.byte	0x3
 2626 0ee1 00000000 		.4byte	i2c_lld_safety_timeout
 2627 0ee5 24       		.uleb128 0x24
 2628 0ee6 01       		.uleb128 0x1
 2629 0ee7 53       		.byte	0x53
 2630 0ee8 02       		.uleb128 0x2
 2631 0ee9 74       		.byte	0x74
 2632 0eea 00       		.sleb128 0
 2633 0eeb 00       		.byte	0
 2634 0eec 23       		.uleb128 0x23
 2635 0eed 9C000000 		.4byte	.LVL54
 2636 0ef1 19110000 		.4byte	0x1119
 2637 0ef5 FF0E0000 		.4byte	0xeff
 2638 0ef9 24       		.uleb128 0x24
 2639 0efa 01       		.uleb128 0x1
 2640 0efb 50       		.byte	0x50
 2641 0efc 01       		.uleb128 0x1
 2642 0efd 32       		.byte	0x32
 2643 0efe 00       		.byte	0
 2644 0eff 23       		.uleb128 0x23
 2645 0f00 B8000000 		.4byte	.LVL55
 2646 0f04 24110000 		.4byte	0x1124
 2647 0f08 130F0000 		.4byte	0xf13
 2648 0f0c 24       		.uleb128 0x24
 2649 0f0d 01       		.uleb128 0x1
 2650 0f0e 50       		.byte	0x50
 2651 0f0f 02       		.uleb128 0x2
 2652 0f10 91       		.byte	0x91
 2653 0f11 44       		.sleb128 -60
 2654 0f12 00       		.byte	0
 2655 0f13 23       		.uleb128 0x23
 2656 0f14 04010000 		.4byte	.LVL58
 2657 0f18 450D0000 		.4byte	0xd45
 2658 0f1c 400F0000 		.4byte	0xf40
 2659 0f20 24       		.uleb128 0x24
 2660 0f21 01       		.uleb128 0x1
 2661 0f22 50       		.byte	0x50
 2662 0f23 02       		.uleb128 0x2
 2663 0f24 74       		.byte	0x74
 2664 0f25 00       		.sleb128 0
 2665 0f26 24       		.uleb128 0x24
 2666 0f27 01       		.uleb128 0x1
 2667 0f28 51       		.byte	0x51
 2668 0f29 02       		.uleb128 0x2
 2669 0f2a 76       		.byte	0x76
 2670 0f2b 00       		.sleb128 0
 2671 0f2c 24       		.uleb128 0x24
 2672 0f2d 01       		.uleb128 0x1
 2673 0f2e 52       		.byte	0x52
 2674 0f2f 02       		.uleb128 0x2
 2675 0f30 78       		.byte	0x78
 2676 0f31 00       		.sleb128 0
 2677 0f32 24       		.uleb128 0x24
 2678 0f33 01       		.uleb128 0x1
 2679 0f34 53       		.byte	0x53
ARM GAS  /tmp/ccBZqj2k.s 			page 48


 2680 0f35 02       		.uleb128 0x2
 2681 0f36 77       		.byte	0x77
 2682 0f37 00       		.sleb128 0
 2683 0f38 24       		.uleb128 0x24
 2684 0f39 02       		.uleb128 0x2
 2685 0f3a 7D       		.byte	0x7d
 2686 0f3b 00       		.sleb128 0
 2687 0f3c 02       		.uleb128 0x2
 2688 0f3d 09       		.byte	0x9
 2689 0f3e FF       		.byte	0xff
 2690 0f3f 00       		.byte	0
 2691 0f40 25       		.uleb128 0x25
 2692 0f41 24010000 		.4byte	.LVL61
 2693 0f45 24110000 		.4byte	0x1124
 2694 0f49 24       		.uleb128 0x24
 2695 0f4a 01       		.uleb128 0x1
 2696 0f4b 50       		.byte	0x50
 2697 0f4c 02       		.uleb128 0x2
 2698 0f4d 91       		.byte	0x91
 2699 0f4e 44       		.sleb128 -60
 2700 0f4f 00       		.byte	0
 2701 0f50 00       		.byte	0
 2702 0f51 2B       		.uleb128 0x2b
 2703 0f52 3A040000 		.4byte	.LASF206
 2704 0f56 01       		.byte	0x1
 2705 0f57 B1       		.byte	0xb1
 2706 0f58 00000000 		.4byte	.LFB11
 2707 0f5c 34000000 		.4byte	.LFE11-.LFB11
 2708 0f60 01       		.uleb128 0x1
 2709 0f61 9C       		.byte	0x9c
 2710 0f62 A20F0000 		.4byte	0xfa2
 2711 0f66 27       		.uleb128 0x27
 2712 0f67 D9000000 		.4byte	.LASF202
 2713 0f6b 01       		.byte	0x1
 2714 0f6c B1       		.byte	0xb1
 2715 0f6d 5D0A0000 		.4byte	0xa5d
 2716 0f71 EA010000 		.4byte	.LLST11
 2717 0f75 23       		.uleb128 0x23
 2718 0f76 14000000 		.4byte	.LVL31
 2719 0f7a 2F110000 		.4byte	0x112f
 2720 0f7e 8D0F0000 		.4byte	0xf8d
 2721 0f82 24       		.uleb128 0x24
 2722 0f83 01       		.uleb128 0x1
 2723 0f84 50       		.byte	0x50
 2724 0f85 01       		.uleb128 0x1
 2725 0f86 32       		.byte	0x32
 2726 0f87 24       		.uleb128 0x24
 2727 0f88 01       		.uleb128 0x1
 2728 0f89 51       		.byte	0x51
 2729 0f8a 01       		.uleb128 0x1
 2730 0f8b 30       		.byte	0x30
 2731 0f8c 00       		.byte	0
 2732 0f8d 25       		.uleb128 0x25
 2733 0f8e 20000000 		.4byte	.LVL32
 2734 0f92 2F110000 		.4byte	0x112f
 2735 0f96 24       		.uleb128 0x24
 2736 0f97 01       		.uleb128 0x1
ARM GAS  /tmp/ccBZqj2k.s 			page 49


 2737 0f98 50       		.byte	0x50
 2738 0f99 01       		.uleb128 0x1
 2739 0f9a 33       		.byte	0x33
 2740 0f9b 24       		.uleb128 0x24
 2741 0f9c 01       		.uleb128 0x1
 2742 0f9d 51       		.byte	0x51
 2743 0f9e 01       		.uleb128 0x1
 2744 0f9f 30       		.byte	0x30
 2745 0fa0 00       		.byte	0
 2746 0fa1 00       		.byte	0
 2747 0fa2 2C       		.uleb128 0x2c
 2748 0fa3 D2050000 		.4byte	.LASF207
 2749 0fa7 01       		.byte	0x1
 2750 0fa8 99       		.byte	0x99
 2751 0fa9 00000000 		.4byte	.LFB10
 2752 0fad 68000000 		.4byte	.LFE10-.LFB10
 2753 0fb1 01       		.uleb128 0x1
 2754 0fb2 9C       		.byte	0x9c
 2755 0fb3 02100000 		.4byte	0x1002
 2756 0fb7 27       		.uleb128 0x27
 2757 0fb8 D9000000 		.4byte	.LASF202
 2758 0fbc 01       		.byte	0x1
 2759 0fbd 99       		.byte	0x99
 2760 0fbe 5D0A0000 		.4byte	0xa5d
 2761 0fc2 08020000 		.4byte	.LLST9
 2762 0fc6 2A       		.uleb128 0x2a
 2763 0fc7 1C040000 		.4byte	.LASF208
 2764 0fcb 01       		.byte	0x1
 2765 0fcc A3       		.byte	0xa3
 2766 0fcd CD000000 		.4byte	0xcd
 2767 0fd1 26020000 		.4byte	.LLST10
 2768 0fd5 23       		.uleb128 0x23
 2769 0fd6 14000000 		.4byte	.LVL24
 2770 0fda 2F110000 		.4byte	0x112f
 2771 0fde ED0F0000 		.4byte	0xfed
 2772 0fe2 24       		.uleb128 0x24
 2773 0fe3 01       		.uleb128 0x1
 2774 0fe4 50       		.byte	0x50
 2775 0fe5 01       		.uleb128 0x1
 2776 0fe6 32       		.byte	0x32
 2777 0fe7 24       		.uleb128 0x24
 2778 0fe8 01       		.uleb128 0x1
 2779 0fe9 51       		.byte	0x51
 2780 0fea 01       		.uleb128 0x1
 2781 0feb 34       		.byte	0x34
 2782 0fec 00       		.byte	0
 2783 0fed 25       		.uleb128 0x25
 2784 0fee 20000000 		.4byte	.LVL25
 2785 0ff2 2F110000 		.4byte	0x112f
 2786 0ff6 24       		.uleb128 0x24
 2787 0ff7 01       		.uleb128 0x1
 2788 0ff8 50       		.byte	0x50
 2789 0ff9 01       		.uleb128 0x1
 2790 0ffa 33       		.byte	0x33
 2791 0ffb 24       		.uleb128 0x24
 2792 0ffc 01       		.uleb128 0x1
 2793 0ffd 51       		.byte	0x51
ARM GAS  /tmp/ccBZqj2k.s 			page 50


 2794 0ffe 01       		.uleb128 0x1
 2795 0fff 34       		.byte	0x34
 2796 1000 00       		.byte	0
 2797 1001 00       		.byte	0
 2798 1002 2B       		.uleb128 0x2b
 2799 1003 9E080000 		.4byte	.LASF209
 2800 1007 01       		.byte	0x1
 2801 1008 8D       		.byte	0x8d
 2802 1009 00000000 		.4byte	.LFB9
 2803 100d 1C000000 		.4byte	.LFE9-.LFB9
 2804 1011 01       		.uleb128 0x1
 2805 1012 9C       		.byte	0x9c
 2806 1013 2B100000 		.4byte	0x102b
 2807 1017 2D       		.uleb128 0x2d
 2808 1018 14000000 		.4byte	.LVL21
 2809 101c 3B110000 		.4byte	0x113b
 2810 1020 24       		.uleb128 0x24
 2811 1021 01       		.uleb128 0x1
 2812 1022 50       		.byte	0x50
 2813 1023 05       		.uleb128 0x5
 2814 1024 03       		.byte	0x3
 2815 1025 00000000 		.4byte	I2C0
 2816 1029 00       		.byte	0
 2817 102a 00       		.byte	0
 2818 102b 2B       		.uleb128 0x2b
 2819 102c 81010000 		.4byte	.LASF210
 2820 1030 01       		.byte	0x1
 2821 1031 6A       		.byte	0x6a
 2822 1032 00000000 		.4byte	.LFB8
 2823 1036 48010000 		.4byte	.LFE8-.LFB8
 2824 103a 01       		.uleb128 0x1
 2825 103b 9C       		.byte	0x9c
 2826 103c B0100000 		.4byte	0x10b0
 2827 1040 27       		.uleb128 0x27
 2828 1041 D9000000 		.4byte	.LASF202
 2829 1045 01       		.byte	0x1
 2830 1046 6A       		.byte	0x6a
 2831 1047 5D0A0000 		.4byte	0xa5d
 2832 104b 44020000 		.4byte	.LLST4
 2833 104f 2A       		.uleb128 0x2a
 2834 1050 01010000 		.4byte	.LASF151
 2835 1054 01       		.byte	0x1
 2836 1055 6C       		.byte	0x6c
 2837 1056 8E0A0000 		.4byte	0xa8e
 2838 105a 89020000 		.4byte	.LLST5
 2839 105e 2A       		.uleb128 0x2a
 2840 105f B2080000 		.4byte	.LASF122
 2841 1063 01       		.byte	0x1
 2842 1064 6D       		.byte	0x6d
 2843 1065 CD000000 		.4byte	0xcd
 2844 1069 CD020000 		.4byte	.LLST6
 2845 106d 2E       		.uleb128 0x2e
 2846 106e 1C000000 		.4byte	.LBB5
 2847 1072 18000000 		.4byte	.LBE5-.LBB5
 2848 1076 92100000 		.4byte	0x1092
 2849 107a 2F       		.uleb128 0x2f
 2850 107b 747000   		.ascii	"tp\000"
ARM GAS  /tmp/ccBZqj2k.s 			page 51


 2851 107e 01       		.byte	0x1
 2852 107f 71       		.byte	0x71
 2853 1080 62020000 		.4byte	0x262
 2854 1084 01030000 		.4byte	.LLST7
 2855 1088 30       		.uleb128 0x30
 2856 1089 34000000 		.4byte	.LVL13
 2857 108d 46110000 		.4byte	0x1146
 2858 1091 00       		.byte	0
 2859 1092 31       		.uleb128 0x31
 2860 1093 20000000 		.4byte	.Ldebug_ranges0+0x20
 2861 1097 2F       		.uleb128 0x2f
 2862 1098 747000   		.ascii	"tp\000"
 2863 109b 01       		.byte	0x1
 2864 109c 78       		.byte	0x78
 2865 109d 62020000 		.4byte	0x262
 2866 10a1 14030000 		.4byte	.LLST8
 2867 10a5 30       		.uleb128 0x30
 2868 10a6 AC000000 		.4byte	.LVL17
 2869 10aa 46110000 		.4byte	0x1146
 2870 10ae 00       		.byte	0
 2871 10af 00       		.byte	0
 2872 10b0 32       		.uleb128 0x32
 2873 10b1 19070000 		.4byte	.LASF220
 2874 10b5 01       		.byte	0x1
 2875 10b6 4F       		.byte	0x4f
 2876 10b7 00000000 		.4byte	.LFB7
 2877 10bb 74000000 		.4byte	.LFE7-.LFB7
 2878 10bf 01       		.uleb128 0x1
 2879 10c0 9C       		.byte	0x9c
 2880 10c1 0E110000 		.4byte	0x110e
 2881 10c5 33       		.uleb128 0x33
 2882 10c6 7000     		.ascii	"p\000"
 2883 10c8 01       		.byte	0x1
 2884 10c9 4F       		.byte	0x4f
 2885 10ca A9020000 		.4byte	0x2a9
 2886 10ce 27030000 		.4byte	.LLST0
 2887 10d2 2A       		.uleb128 0x2a
 2888 10d3 D9000000 		.4byte	.LASF202
 2889 10d7 01       		.byte	0x1
 2890 10d8 50       		.byte	0x50
 2891 10d9 5D0A0000 		.4byte	0xa5d
 2892 10dd 53030000 		.4byte	.LLST1
 2893 10e1 31       		.uleb128 0x31
 2894 10e2 00000000 		.4byte	.Ldebug_ranges0+0
 2895 10e6 2A       		.uleb128 0x2a
 2896 10e7 01010000 		.4byte	.LASF151
 2897 10eb 01       		.byte	0x1
 2898 10ec 53       		.byte	0x53
 2899 10ed 8E0A0000 		.4byte	0xa8e
 2900 10f1 7F030000 		.4byte	.LLST2
 2901 10f5 2F       		.uleb128 0x2f
 2902 10f6 747000   		.ascii	"tp\000"
 2903 10f9 01       		.byte	0x1
 2904 10fa 5E       		.byte	0x5e
 2905 10fb 62020000 		.4byte	0x262
 2906 10ff 92030000 		.4byte	.LLST3
 2907 1103 30       		.uleb128 0x30
ARM GAS  /tmp/ccBZqj2k.s 			page 52


 2908 1104 70000000 		.4byte	.LVL4
 2909 1108 46110000 		.4byte	0x1146
 2910 110c 00       		.byte	0
 2911 110d 00       		.byte	0
 2912 110e 34       		.uleb128 0x34
 2913 110f E9040000 		.4byte	.LASF211
 2914 1113 E9040000 		.4byte	.LASF211
 2915 1117 09       		.byte	0x9
 2916 1118 DA       		.byte	0xda
 2917 1119 34       		.uleb128 0x34
 2918 111a A7060000 		.4byte	.LASF212
 2919 111e A7060000 		.4byte	.LASF212
 2920 1122 0A       		.byte	0xa
 2921 1123 8C       		.byte	0x8c
 2922 1124 34       		.uleb128 0x34
 2923 1125 EC010000 		.4byte	.LASF213
 2924 1129 EC010000 		.4byte	.LASF213
 2925 112d 09       		.byte	0x9
 2926 112e DB       		.byte	0xdb
 2927 112f 35       		.uleb128 0x35
 2928 1130 63050000 		.4byte	.LASF214
 2929 1134 63050000 		.4byte	.LASF214
 2930 1138 10       		.byte	0x10
 2931 1139 8C01     		.2byte	0x18c
 2932 113b 34       		.uleb128 0x34
 2933 113c 28080000 		.4byte	.LASF215
 2934 1140 28080000 		.4byte	.LASF215
 2935 1144 12       		.byte	0x12
 2936 1145 7A       		.byte	0x7a
 2937 1146 34       		.uleb128 0x34
 2938 1147 4F070000 		.4byte	.LASF216
 2939 114b 4F070000 		.4byte	.LASF216
 2940 114f 0A       		.byte	0xa
 2941 1150 89       		.byte	0x89
 2942 1151 00       		.byte	0
 2943              		.section	.debug_abbrev,"",%progbits
 2944              	.Ldebug_abbrev0:
 2945 0000 01       		.uleb128 0x1
 2946 0001 11       		.uleb128 0x11
 2947 0002 01       		.byte	0x1
 2948 0003 25       		.uleb128 0x25
 2949 0004 0E       		.uleb128 0xe
 2950 0005 13       		.uleb128 0x13
 2951 0006 0B       		.uleb128 0xb
 2952 0007 03       		.uleb128 0x3
 2953 0008 0E       		.uleb128 0xe
 2954 0009 1B       		.uleb128 0x1b
 2955 000a 0E       		.uleb128 0xe
 2956 000b 55       		.uleb128 0x55
 2957 000c 17       		.uleb128 0x17
 2958 000d 11       		.uleb128 0x11
 2959 000e 01       		.uleb128 0x1
 2960 000f 10       		.uleb128 0x10
 2961 0010 17       		.uleb128 0x17
 2962 0011 00       		.byte	0
 2963 0012 00       		.byte	0
 2964 0013 02       		.uleb128 0x2
ARM GAS  /tmp/ccBZqj2k.s 			page 53


 2965 0014 24       		.uleb128 0x24
 2966 0015 00       		.byte	0
 2967 0016 0B       		.uleb128 0xb
 2968 0017 0B       		.uleb128 0xb
 2969 0018 3E       		.uleb128 0x3e
 2970 0019 0B       		.uleb128 0xb
 2971 001a 03       		.uleb128 0x3
 2972 001b 08       		.uleb128 0x8
 2973 001c 00       		.byte	0
 2974 001d 00       		.byte	0
 2975 001e 03       		.uleb128 0x3
 2976 001f 16       		.uleb128 0x16
 2977 0020 00       		.byte	0
 2978 0021 03       		.uleb128 0x3
 2979 0022 0E       		.uleb128 0xe
 2980 0023 3A       		.uleb128 0x3a
 2981 0024 0B       		.uleb128 0xb
 2982 0025 3B       		.uleb128 0x3b
 2983 0026 0B       		.uleb128 0xb
 2984 0027 49       		.uleb128 0x49
 2985 0028 13       		.uleb128 0x13
 2986 0029 00       		.byte	0
 2987 002a 00       		.byte	0
 2988 002b 04       		.uleb128 0x4
 2989 002c 24       		.uleb128 0x24
 2990 002d 00       		.byte	0
 2991 002e 0B       		.uleb128 0xb
 2992 002f 0B       		.uleb128 0xb
 2993 0030 3E       		.uleb128 0x3e
 2994 0031 0B       		.uleb128 0xb
 2995 0032 03       		.uleb128 0x3
 2996 0033 0E       		.uleb128 0xe
 2997 0034 00       		.byte	0
 2998 0035 00       		.byte	0
 2999 0036 05       		.uleb128 0x5
 3000 0037 35       		.uleb128 0x35
 3001 0038 00       		.byte	0
 3002 0039 49       		.uleb128 0x49
 3003 003a 13       		.uleb128 0x13
 3004 003b 00       		.byte	0
 3005 003c 00       		.byte	0
 3006 003d 06       		.uleb128 0x6
 3007 003e 26       		.uleb128 0x26
 3008 003f 00       		.byte	0
 3009 0040 49       		.uleb128 0x49
 3010 0041 13       		.uleb128 0x13
 3011 0042 00       		.byte	0
 3012 0043 00       		.byte	0
 3013 0044 07       		.uleb128 0x7
 3014 0045 13       		.uleb128 0x13
 3015 0046 01       		.byte	0x1
 3016 0047 03       		.uleb128 0x3
 3017 0048 0E       		.uleb128 0xe
 3018 0049 0B       		.uleb128 0xb
 3019 004a 0B       		.uleb128 0xb
 3020 004b 3A       		.uleb128 0x3a
 3021 004c 0B       		.uleb128 0xb
ARM GAS  /tmp/ccBZqj2k.s 			page 54


 3022 004d 3B       		.uleb128 0x3b
 3023 004e 0B       		.uleb128 0xb
 3024 004f 01       		.uleb128 0x1
 3025 0050 13       		.uleb128 0x13
 3026 0051 00       		.byte	0
 3027 0052 00       		.byte	0
 3028 0053 08       		.uleb128 0x8
 3029 0054 0D       		.uleb128 0xd
 3030 0055 00       		.byte	0
 3031 0056 03       		.uleb128 0x3
 3032 0057 0E       		.uleb128 0xe
 3033 0058 3A       		.uleb128 0x3a
 3034 0059 0B       		.uleb128 0xb
 3035 005a 3B       		.uleb128 0x3b
 3036 005b 0B       		.uleb128 0xb
 3037 005c 49       		.uleb128 0x49
 3038 005d 13       		.uleb128 0x13
 3039 005e 38       		.uleb128 0x38
 3040 005f 0B       		.uleb128 0xb
 3041 0060 00       		.byte	0
 3042 0061 00       		.byte	0
 3043 0062 09       		.uleb128 0x9
 3044 0063 0D       		.uleb128 0xd
 3045 0064 00       		.byte	0
 3046 0065 03       		.uleb128 0x3
 3047 0066 08       		.uleb128 0x8
 3048 0067 3A       		.uleb128 0x3a
 3049 0068 0B       		.uleb128 0xb
 3050 0069 3B       		.uleb128 0x3b
 3051 006a 0B       		.uleb128 0xb
 3052 006b 49       		.uleb128 0x49
 3053 006c 13       		.uleb128 0x13
 3054 006d 38       		.uleb128 0x38
 3055 006e 0B       		.uleb128 0xb
 3056 006f 00       		.byte	0
 3057 0070 00       		.byte	0
 3058 0071 0A       		.uleb128 0xa
 3059 0072 13       		.uleb128 0x13
 3060 0073 01       		.byte	0x1
 3061 0074 0B       		.uleb128 0xb
 3062 0075 0B       		.uleb128 0xb
 3063 0076 3A       		.uleb128 0x3a
 3064 0077 0B       		.uleb128 0xb
 3065 0078 3B       		.uleb128 0x3b
 3066 0079 0B       		.uleb128 0xb
 3067 007a 01       		.uleb128 0x1
 3068 007b 13       		.uleb128 0x13
 3069 007c 00       		.byte	0
 3070 007d 00       		.byte	0
 3071 007e 0B       		.uleb128 0xb
 3072 007f 0F       		.uleb128 0xf
 3073 0080 00       		.byte	0
 3074 0081 0B       		.uleb128 0xb
 3075 0082 0B       		.uleb128 0xb
 3076 0083 49       		.uleb128 0x49
 3077 0084 13       		.uleb128 0x13
 3078 0085 00       		.byte	0
ARM GAS  /tmp/ccBZqj2k.s 			page 55


 3079 0086 00       		.byte	0
 3080 0087 0C       		.uleb128 0xc
 3081 0088 0F       		.uleb128 0xf
 3082 0089 00       		.byte	0
 3083 008a 0B       		.uleb128 0xb
 3084 008b 0B       		.uleb128 0xb
 3085 008c 00       		.byte	0
 3086 008d 00       		.byte	0
 3087 008e 0D       		.uleb128 0xd
 3088 008f 15       		.uleb128 0x15
 3089 0090 01       		.byte	0x1
 3090 0091 27       		.uleb128 0x27
 3091 0092 19       		.uleb128 0x19
 3092 0093 01       		.uleb128 0x1
 3093 0094 13       		.uleb128 0x13
 3094 0095 00       		.byte	0
 3095 0096 00       		.byte	0
 3096 0097 0E       		.uleb128 0xe
 3097 0098 05       		.uleb128 0x5
 3098 0099 00       		.byte	0
 3099 009a 49       		.uleb128 0x49
 3100 009b 13       		.uleb128 0x13
 3101 009c 00       		.byte	0
 3102 009d 00       		.byte	0
 3103 009e 0F       		.uleb128 0xf
 3104 009f 34       		.uleb128 0x34
 3105 00a0 00       		.byte	0
 3106 00a1 03       		.uleb128 0x3
 3107 00a2 0E       		.uleb128 0xe
 3108 00a3 3A       		.uleb128 0x3a
 3109 00a4 0B       		.uleb128 0xb
 3110 00a5 3B       		.uleb128 0x3b
 3111 00a6 0B       		.uleb128 0xb
 3112 00a7 49       		.uleb128 0x49
 3113 00a8 13       		.uleb128 0x13
 3114 00a9 3F       		.uleb128 0x3f
 3115 00aa 19       		.uleb128 0x19
 3116 00ab 3C       		.uleb128 0x3c
 3117 00ac 19       		.uleb128 0x19
 3118 00ad 00       		.byte	0
 3119 00ae 00       		.byte	0
 3120 00af 10       		.uleb128 0x10
 3121 00b0 17       		.uleb128 0x17
 3122 00b1 01       		.byte	0x1
 3123 00b2 0B       		.uleb128 0xb
 3124 00b3 0B       		.uleb128 0xb
 3125 00b4 3A       		.uleb128 0x3a
 3126 00b5 0B       		.uleb128 0xb
 3127 00b6 3B       		.uleb128 0x3b
 3128 00b7 0B       		.uleb128 0xb
 3129 00b8 01       		.uleb128 0x1
 3130 00b9 13       		.uleb128 0x13
 3131 00ba 00       		.byte	0
 3132 00bb 00       		.byte	0
 3133 00bc 11       		.uleb128 0x11
 3134 00bd 0D       		.uleb128 0xd
 3135 00be 00       		.byte	0
ARM GAS  /tmp/ccBZqj2k.s 			page 56


 3136 00bf 03       		.uleb128 0x3
 3137 00c0 0E       		.uleb128 0xe
 3138 00c1 3A       		.uleb128 0x3a
 3139 00c2 0B       		.uleb128 0xb
 3140 00c3 3B       		.uleb128 0x3b
 3141 00c4 0B       		.uleb128 0xb
 3142 00c5 49       		.uleb128 0x49
 3143 00c6 13       		.uleb128 0x13
 3144 00c7 00       		.byte	0
 3145 00c8 00       		.byte	0
 3146 00c9 12       		.uleb128 0x12
 3147 00ca 15       		.uleb128 0x15
 3148 00cb 01       		.byte	0x1
 3149 00cc 27       		.uleb128 0x27
 3150 00cd 19       		.uleb128 0x19
 3151 00ce 49       		.uleb128 0x49
 3152 00cf 13       		.uleb128 0x13
 3153 00d0 01       		.uleb128 0x1
 3154 00d1 13       		.uleb128 0x13
 3155 00d2 00       		.byte	0
 3156 00d3 00       		.byte	0
 3157 00d4 13       		.uleb128 0x13
 3158 00d5 01       		.uleb128 0x1
 3159 00d6 01       		.byte	0x1
 3160 00d7 49       		.uleb128 0x49
 3161 00d8 13       		.uleb128 0x13
 3162 00d9 01       		.uleb128 0x1
 3163 00da 13       		.uleb128 0x13
 3164 00db 00       		.byte	0
 3165 00dc 00       		.byte	0
 3166 00dd 14       		.uleb128 0x14
 3167 00de 21       		.uleb128 0x21
 3168 00df 00       		.byte	0
 3169 00e0 49       		.uleb128 0x49
 3170 00e1 13       		.uleb128 0x13
 3171 00e2 2F       		.uleb128 0x2f
 3172 00e3 0B       		.uleb128 0xb
 3173 00e4 00       		.byte	0
 3174 00e5 00       		.byte	0
 3175 00e6 15       		.uleb128 0x15
 3176 00e7 0D       		.uleb128 0xd
 3177 00e8 00       		.byte	0
 3178 00e9 03       		.uleb128 0x3
 3179 00ea 0E       		.uleb128 0xe
 3180 00eb 3A       		.uleb128 0x3a
 3181 00ec 0B       		.uleb128 0xb
 3182 00ed 3B       		.uleb128 0x3b
 3183 00ee 05       		.uleb128 0x5
 3184 00ef 49       		.uleb128 0x49
 3185 00f0 13       		.uleb128 0x13
 3186 00f1 38       		.uleb128 0x38
 3187 00f2 0B       		.uleb128 0xb
 3188 00f3 00       		.byte	0
 3189 00f4 00       		.byte	0
 3190 00f5 16       		.uleb128 0x16
 3191 00f6 16       		.uleb128 0x16
 3192 00f7 00       		.byte	0
ARM GAS  /tmp/ccBZqj2k.s 			page 57


 3193 00f8 03       		.uleb128 0x3
 3194 00f9 0E       		.uleb128 0xe
 3195 00fa 3A       		.uleb128 0x3a
 3196 00fb 0B       		.uleb128 0xb
 3197 00fc 3B       		.uleb128 0x3b
 3198 00fd 05       		.uleb128 0x5
 3199 00fe 49       		.uleb128 0x49
 3200 00ff 13       		.uleb128 0x13
 3201 0100 00       		.byte	0
 3202 0101 00       		.byte	0
 3203 0102 17       		.uleb128 0x17
 3204 0103 13       		.uleb128 0x13
 3205 0104 00       		.byte	0
 3206 0105 0B       		.uleb128 0xb
 3207 0106 0B       		.uleb128 0xb
 3208 0107 3A       		.uleb128 0x3a
 3209 0108 0B       		.uleb128 0xb
 3210 0109 3B       		.uleb128 0x3b
 3211 010a 0B       		.uleb128 0xb
 3212 010b 00       		.byte	0
 3213 010c 00       		.byte	0
 3214 010d 18       		.uleb128 0x18
 3215 010e 04       		.uleb128 0x4
 3216 010f 01       		.byte	0x1
 3217 0110 0B       		.uleb128 0xb
 3218 0111 0B       		.uleb128 0xb
 3219 0112 49       		.uleb128 0x49
 3220 0113 13       		.uleb128 0x13
 3221 0114 3A       		.uleb128 0x3a
 3222 0115 0B       		.uleb128 0xb
 3223 0116 3B       		.uleb128 0x3b
 3224 0117 0B       		.uleb128 0xb
 3225 0118 01       		.uleb128 0x1
 3226 0119 13       		.uleb128 0x13
 3227 011a 00       		.byte	0
 3228 011b 00       		.byte	0
 3229 011c 19       		.uleb128 0x19
 3230 011d 28       		.uleb128 0x28
 3231 011e 00       		.byte	0
 3232 011f 03       		.uleb128 0x3
 3233 0120 0E       		.uleb128 0xe
 3234 0121 1C       		.uleb128 0x1c
 3235 0122 0B       		.uleb128 0xb
 3236 0123 00       		.byte	0
 3237 0124 00       		.byte	0
 3238 0125 1A       		.uleb128 0x1a
 3239 0126 34       		.uleb128 0x34
 3240 0127 00       		.byte	0
 3241 0128 03       		.uleb128 0x3
 3242 0129 08       		.uleb128 0x8
 3243 012a 3A       		.uleb128 0x3a
 3244 012b 0B       		.uleb128 0xb
 3245 012c 3B       		.uleb128 0x3b
 3246 012d 0B       		.uleb128 0xb
 3247 012e 49       		.uleb128 0x49
 3248 012f 13       		.uleb128 0x13
 3249 0130 3F       		.uleb128 0x3f
ARM GAS  /tmp/ccBZqj2k.s 			page 58


 3250 0131 19       		.uleb128 0x19
 3251 0132 3C       		.uleb128 0x3c
 3252 0133 19       		.uleb128 0x19
 3253 0134 00       		.byte	0
 3254 0135 00       		.byte	0
 3255 0136 1B       		.uleb128 0x1b
 3256 0137 26       		.uleb128 0x26
 3257 0138 00       		.byte	0
 3258 0139 00       		.byte	0
 3259 013a 00       		.byte	0
 3260 013b 1C       		.uleb128 0x1c
 3261 013c 34       		.uleb128 0x34
 3262 013d 00       		.byte	0
 3263 013e 47       		.uleb128 0x47
 3264 013f 13       		.uleb128 0x13
 3265 0140 3A       		.uleb128 0x3a
 3266 0141 0B       		.uleb128 0xb
 3267 0142 3B       		.uleb128 0x3b
 3268 0143 0B       		.uleb128 0xb
 3269 0144 02       		.uleb128 0x2
 3270 0145 18       		.uleb128 0x18
 3271 0146 00       		.byte	0
 3272 0147 00       		.byte	0
 3273 0148 1D       		.uleb128 0x1d
 3274 0149 34       		.uleb128 0x34
 3275 014a 00       		.byte	0
 3276 014b 03       		.uleb128 0x3
 3277 014c 0E       		.uleb128 0xe
 3278 014d 3A       		.uleb128 0x3a
 3279 014e 0B       		.uleb128 0xb
 3280 014f 3B       		.uleb128 0x3b
 3281 0150 0B       		.uleb128 0xb
 3282 0151 49       		.uleb128 0x49
 3283 0152 13       		.uleb128 0x13
 3284 0153 3F       		.uleb128 0x3f
 3285 0154 19       		.uleb128 0x19
 3286 0155 02       		.uleb128 0x2
 3287 0156 18       		.uleb128 0x18
 3288 0157 00       		.byte	0
 3289 0158 00       		.byte	0
 3290 0159 1E       		.uleb128 0x1e
 3291 015a 2E       		.uleb128 0x2e
 3292 015b 01       		.byte	0x1
 3293 015c 3F       		.uleb128 0x3f
 3294 015d 19       		.uleb128 0x19
 3295 015e 03       		.uleb128 0x3
 3296 015f 0E       		.uleb128 0xe
 3297 0160 3A       		.uleb128 0x3a
 3298 0161 0B       		.uleb128 0xb
 3299 0162 3B       		.uleb128 0x3b
 3300 0163 05       		.uleb128 0x5
 3301 0164 27       		.uleb128 0x27
 3302 0165 19       		.uleb128 0x19
 3303 0166 49       		.uleb128 0x49
 3304 0167 13       		.uleb128 0x13
 3305 0168 11       		.uleb128 0x11
 3306 0169 01       		.uleb128 0x1
ARM GAS  /tmp/ccBZqj2k.s 			page 59


 3307 016a 12       		.uleb128 0x12
 3308 016b 06       		.uleb128 0x6
 3309 016c 40       		.uleb128 0x40
 3310 016d 18       		.uleb128 0x18
 3311 016e 9742     		.uleb128 0x2117
 3312 0170 19       		.uleb128 0x19
 3313 0171 01       		.uleb128 0x1
 3314 0172 13       		.uleb128 0x13
 3315 0173 00       		.byte	0
 3316 0174 00       		.byte	0
 3317 0175 1F       		.uleb128 0x1f
 3318 0176 05       		.uleb128 0x5
 3319 0177 00       		.byte	0
 3320 0178 03       		.uleb128 0x3
 3321 0179 0E       		.uleb128 0xe
 3322 017a 3A       		.uleb128 0x3a
 3323 017b 0B       		.uleb128 0xb
 3324 017c 3B       		.uleb128 0x3b
 3325 017d 05       		.uleb128 0x5
 3326 017e 49       		.uleb128 0x49
 3327 017f 13       		.uleb128 0x13
 3328 0180 02       		.uleb128 0x2
 3329 0181 17       		.uleb128 0x17
 3330 0182 00       		.byte	0
 3331 0183 00       		.byte	0
 3332 0184 20       		.uleb128 0x20
 3333 0185 05       		.uleb128 0x5
 3334 0186 00       		.byte	0
 3335 0187 03       		.uleb128 0x3
 3336 0188 0E       		.uleb128 0xe
 3337 0189 3A       		.uleb128 0x3a
 3338 018a 0B       		.uleb128 0xb
 3339 018b 3B       		.uleb128 0x3b
 3340 018c 05       		.uleb128 0x5
 3341 018d 49       		.uleb128 0x49
 3342 018e 13       		.uleb128 0x13
 3343 018f 02       		.uleb128 0x2
 3344 0190 18       		.uleb128 0x18
 3345 0191 00       		.byte	0
 3346 0192 00       		.byte	0
 3347 0193 21       		.uleb128 0x21
 3348 0194 34       		.uleb128 0x34
 3349 0195 00       		.byte	0
 3350 0196 03       		.uleb128 0x3
 3351 0197 08       		.uleb128 0x8
 3352 0198 3A       		.uleb128 0x3a
 3353 0199 0B       		.uleb128 0xb
 3354 019a 3B       		.uleb128 0x3b
 3355 019b 05       		.uleb128 0x5
 3356 019c 49       		.uleb128 0x49
 3357 019d 13       		.uleb128 0x13
 3358 019e 02       		.uleb128 0x2
 3359 019f 18       		.uleb128 0x18
 3360 01a0 00       		.byte	0
 3361 01a1 00       		.byte	0
 3362 01a2 22       		.uleb128 0x22
 3363 01a3 34       		.uleb128 0x34
ARM GAS  /tmp/ccBZqj2k.s 			page 60


 3364 01a4 00       		.byte	0
 3365 01a5 03       		.uleb128 0x3
 3366 01a6 0E       		.uleb128 0xe
 3367 01a7 3A       		.uleb128 0x3a
 3368 01a8 0B       		.uleb128 0xb
 3369 01a9 3B       		.uleb128 0x3b
 3370 01aa 05       		.uleb128 0x5
 3371 01ab 49       		.uleb128 0x49
 3372 01ac 13       		.uleb128 0x13
 3373 01ad 02       		.uleb128 0x2
 3374 01ae 17       		.uleb128 0x17
 3375 01af 00       		.byte	0
 3376 01b0 00       		.byte	0
 3377 01b1 23       		.uleb128 0x23
 3378 01b2 898201   		.uleb128 0x4109
 3379 01b5 01       		.byte	0x1
 3380 01b6 11       		.uleb128 0x11
 3381 01b7 01       		.uleb128 0x1
 3382 01b8 31       		.uleb128 0x31
 3383 01b9 13       		.uleb128 0x13
 3384 01ba 01       		.uleb128 0x1
 3385 01bb 13       		.uleb128 0x13
 3386 01bc 00       		.byte	0
 3387 01bd 00       		.byte	0
 3388 01be 24       		.uleb128 0x24
 3389 01bf 8A8201   		.uleb128 0x410a
 3390 01c2 00       		.byte	0
 3391 01c3 02       		.uleb128 0x2
 3392 01c4 18       		.uleb128 0x18
 3393 01c5 9142     		.uleb128 0x2111
 3394 01c7 18       		.uleb128 0x18
 3395 01c8 00       		.byte	0
 3396 01c9 00       		.byte	0
 3397 01ca 25       		.uleb128 0x25
 3398 01cb 898201   		.uleb128 0x4109
 3399 01ce 01       		.byte	0x1
 3400 01cf 11       		.uleb128 0x11
 3401 01d0 01       		.uleb128 0x1
 3402 01d1 31       		.uleb128 0x31
 3403 01d2 13       		.uleb128 0x13
 3404 01d3 00       		.byte	0
 3405 01d4 00       		.byte	0
 3406 01d5 26       		.uleb128 0x26
 3407 01d6 2E       		.uleb128 0x2e
 3408 01d7 01       		.byte	0x1
 3409 01d8 3F       		.uleb128 0x3f
 3410 01d9 19       		.uleb128 0x19
 3411 01da 03       		.uleb128 0x3
 3412 01db 0E       		.uleb128 0xe
 3413 01dc 3A       		.uleb128 0x3a
 3414 01dd 0B       		.uleb128 0xb
 3415 01de 3B       		.uleb128 0x3b
 3416 01df 0B       		.uleb128 0xb
 3417 01e0 27       		.uleb128 0x27
 3418 01e1 19       		.uleb128 0x19
 3419 01e2 49       		.uleb128 0x49
 3420 01e3 13       		.uleb128 0x13
ARM GAS  /tmp/ccBZqj2k.s 			page 61


 3421 01e4 11       		.uleb128 0x11
 3422 01e5 01       		.uleb128 0x1
 3423 01e6 12       		.uleb128 0x12
 3424 01e7 06       		.uleb128 0x6
 3425 01e8 40       		.uleb128 0x40
 3426 01e9 18       		.uleb128 0x18
 3427 01ea 9742     		.uleb128 0x2117
 3428 01ec 19       		.uleb128 0x19
 3429 01ed 01       		.uleb128 0x1
 3430 01ee 13       		.uleb128 0x13
 3431 01ef 00       		.byte	0
 3432 01f0 00       		.byte	0
 3433 01f1 27       		.uleb128 0x27
 3434 01f2 05       		.uleb128 0x5
 3435 01f3 00       		.byte	0
 3436 01f4 03       		.uleb128 0x3
 3437 01f5 0E       		.uleb128 0xe
 3438 01f6 3A       		.uleb128 0x3a
 3439 01f7 0B       		.uleb128 0xb
 3440 01f8 3B       		.uleb128 0x3b
 3441 01f9 0B       		.uleb128 0xb
 3442 01fa 49       		.uleb128 0x49
 3443 01fb 13       		.uleb128 0x13
 3444 01fc 02       		.uleb128 0x2
 3445 01fd 17       		.uleb128 0x17
 3446 01fe 00       		.byte	0
 3447 01ff 00       		.byte	0
 3448 0200 28       		.uleb128 0x28
 3449 0201 05       		.uleb128 0x5
 3450 0202 00       		.byte	0
 3451 0203 03       		.uleb128 0x3
 3452 0204 0E       		.uleb128 0xe
 3453 0205 3A       		.uleb128 0x3a
 3454 0206 0B       		.uleb128 0xb
 3455 0207 3B       		.uleb128 0x3b
 3456 0208 0B       		.uleb128 0xb
 3457 0209 49       		.uleb128 0x49
 3458 020a 13       		.uleb128 0x13
 3459 020b 02       		.uleb128 0x2
 3460 020c 18       		.uleb128 0x18
 3461 020d 00       		.byte	0
 3462 020e 00       		.byte	0
 3463 020f 29       		.uleb128 0x29
 3464 0210 34       		.uleb128 0x34
 3465 0211 00       		.byte	0
 3466 0212 03       		.uleb128 0x3
 3467 0213 08       		.uleb128 0x8
 3468 0214 3A       		.uleb128 0x3a
 3469 0215 0B       		.uleb128 0xb
 3470 0216 3B       		.uleb128 0x3b
 3471 0217 0B       		.uleb128 0xb
 3472 0218 49       		.uleb128 0x49
 3473 0219 13       		.uleb128 0x13
 3474 021a 02       		.uleb128 0x2
 3475 021b 18       		.uleb128 0x18
 3476 021c 00       		.byte	0
 3477 021d 00       		.byte	0
ARM GAS  /tmp/ccBZqj2k.s 			page 62


 3478 021e 2A       		.uleb128 0x2a
 3479 021f 34       		.uleb128 0x34
 3480 0220 00       		.byte	0
 3481 0221 03       		.uleb128 0x3
 3482 0222 0E       		.uleb128 0xe
 3483 0223 3A       		.uleb128 0x3a
 3484 0224 0B       		.uleb128 0xb
 3485 0225 3B       		.uleb128 0x3b
 3486 0226 0B       		.uleb128 0xb
 3487 0227 49       		.uleb128 0x49
 3488 0228 13       		.uleb128 0x13
 3489 0229 02       		.uleb128 0x2
 3490 022a 17       		.uleb128 0x17
 3491 022b 00       		.byte	0
 3492 022c 00       		.byte	0
 3493 022d 2B       		.uleb128 0x2b
 3494 022e 2E       		.uleb128 0x2e
 3495 022f 01       		.byte	0x1
 3496 0230 3F       		.uleb128 0x3f
 3497 0231 19       		.uleb128 0x19
 3498 0232 03       		.uleb128 0x3
 3499 0233 0E       		.uleb128 0xe
 3500 0234 3A       		.uleb128 0x3a
 3501 0235 0B       		.uleb128 0xb
 3502 0236 3B       		.uleb128 0x3b
 3503 0237 0B       		.uleb128 0xb
 3504 0238 27       		.uleb128 0x27
 3505 0239 19       		.uleb128 0x19
 3506 023a 11       		.uleb128 0x11
 3507 023b 01       		.uleb128 0x1
 3508 023c 12       		.uleb128 0x12
 3509 023d 06       		.uleb128 0x6
 3510 023e 40       		.uleb128 0x40
 3511 023f 18       		.uleb128 0x18
 3512 0240 9742     		.uleb128 0x2117
 3513 0242 19       		.uleb128 0x19
 3514 0243 01       		.uleb128 0x1
 3515 0244 13       		.uleb128 0x13
 3516 0245 00       		.byte	0
 3517 0246 00       		.byte	0
 3518 0247 2C       		.uleb128 0x2c
 3519 0248 2E       		.uleb128 0x2e
 3520 0249 01       		.byte	0x1
 3521 024a 3F       		.uleb128 0x3f
 3522 024b 19       		.uleb128 0x19
 3523 024c 03       		.uleb128 0x3
 3524 024d 0E       		.uleb128 0xe
 3525 024e 3A       		.uleb128 0x3a
 3526 024f 0B       		.uleb128 0xb
 3527 0250 3B       		.uleb128 0x3b
 3528 0251 0B       		.uleb128 0xb
 3529 0252 27       		.uleb128 0x27
 3530 0253 19       		.uleb128 0x19
 3531 0254 11       		.uleb128 0x11
 3532 0255 01       		.uleb128 0x1
 3533 0256 12       		.uleb128 0x12
 3534 0257 06       		.uleb128 0x6
ARM GAS  /tmp/ccBZqj2k.s 			page 63


 3535 0258 40       		.uleb128 0x40
 3536 0259 18       		.uleb128 0x18
 3537 025a 9642     		.uleb128 0x2116
 3538 025c 19       		.uleb128 0x19
 3539 025d 01       		.uleb128 0x1
 3540 025e 13       		.uleb128 0x13
 3541 025f 00       		.byte	0
 3542 0260 00       		.byte	0
 3543 0261 2D       		.uleb128 0x2d
 3544 0262 898201   		.uleb128 0x4109
 3545 0265 01       		.byte	0x1
 3546 0266 11       		.uleb128 0x11
 3547 0267 01       		.uleb128 0x1
 3548 0268 9542     		.uleb128 0x2115
 3549 026a 19       		.uleb128 0x19
 3550 026b 31       		.uleb128 0x31
 3551 026c 13       		.uleb128 0x13
 3552 026d 00       		.byte	0
 3553 026e 00       		.byte	0
 3554 026f 2E       		.uleb128 0x2e
 3555 0270 0B       		.uleb128 0xb
 3556 0271 01       		.byte	0x1
 3557 0272 11       		.uleb128 0x11
 3558 0273 01       		.uleb128 0x1
 3559 0274 12       		.uleb128 0x12
 3560 0275 06       		.uleb128 0x6
 3561 0276 01       		.uleb128 0x1
 3562 0277 13       		.uleb128 0x13
 3563 0278 00       		.byte	0
 3564 0279 00       		.byte	0
 3565 027a 2F       		.uleb128 0x2f
 3566 027b 34       		.uleb128 0x34
 3567 027c 00       		.byte	0
 3568 027d 03       		.uleb128 0x3
 3569 027e 08       		.uleb128 0x8
 3570 027f 3A       		.uleb128 0x3a
 3571 0280 0B       		.uleb128 0xb
 3572 0281 3B       		.uleb128 0x3b
 3573 0282 0B       		.uleb128 0xb
 3574 0283 49       		.uleb128 0x49
 3575 0284 13       		.uleb128 0x13
 3576 0285 02       		.uleb128 0x2
 3577 0286 17       		.uleb128 0x17
 3578 0287 00       		.byte	0
 3579 0288 00       		.byte	0
 3580 0289 30       		.uleb128 0x30
 3581 028a 898201   		.uleb128 0x4109
 3582 028d 00       		.byte	0
 3583 028e 11       		.uleb128 0x11
 3584 028f 01       		.uleb128 0x1
 3585 0290 9542     		.uleb128 0x2115
 3586 0292 19       		.uleb128 0x19
 3587 0293 31       		.uleb128 0x31
 3588 0294 13       		.uleb128 0x13
 3589 0295 00       		.byte	0
 3590 0296 00       		.byte	0
 3591 0297 31       		.uleb128 0x31
ARM GAS  /tmp/ccBZqj2k.s 			page 64


 3592 0298 0B       		.uleb128 0xb
 3593 0299 01       		.byte	0x1
 3594 029a 55       		.uleb128 0x55
 3595 029b 17       		.uleb128 0x17
 3596 029c 00       		.byte	0
 3597 029d 00       		.byte	0
 3598 029e 32       		.uleb128 0x32
 3599 029f 2E       		.uleb128 0x2e
 3600 02a0 01       		.byte	0x1
 3601 02a1 03       		.uleb128 0x3
 3602 02a2 0E       		.uleb128 0xe
 3603 02a3 3A       		.uleb128 0x3a
 3604 02a4 0B       		.uleb128 0xb
 3605 02a5 3B       		.uleb128 0x3b
 3606 02a6 0B       		.uleb128 0xb
 3607 02a7 27       		.uleb128 0x27
 3608 02a8 19       		.uleb128 0x19
 3609 02a9 11       		.uleb128 0x11
 3610 02aa 01       		.uleb128 0x1
 3611 02ab 12       		.uleb128 0x12
 3612 02ac 06       		.uleb128 0x6
 3613 02ad 40       		.uleb128 0x40
 3614 02ae 18       		.uleb128 0x18
 3615 02af 9742     		.uleb128 0x2117
 3616 02b1 19       		.uleb128 0x19
 3617 02b2 01       		.uleb128 0x1
 3618 02b3 13       		.uleb128 0x13
 3619 02b4 00       		.byte	0
 3620 02b5 00       		.byte	0
 3621 02b6 33       		.uleb128 0x33
 3622 02b7 05       		.uleb128 0x5
 3623 02b8 00       		.byte	0
 3624 02b9 03       		.uleb128 0x3
 3625 02ba 08       		.uleb128 0x8
 3626 02bb 3A       		.uleb128 0x3a
 3627 02bc 0B       		.uleb128 0xb
 3628 02bd 3B       		.uleb128 0x3b
 3629 02be 0B       		.uleb128 0xb
 3630 02bf 49       		.uleb128 0x49
 3631 02c0 13       		.uleb128 0x13
 3632 02c1 02       		.uleb128 0x2
 3633 02c2 17       		.uleb128 0x17
 3634 02c3 00       		.byte	0
 3635 02c4 00       		.byte	0
 3636 02c5 34       		.uleb128 0x34
 3637 02c6 2E       		.uleb128 0x2e
 3638 02c7 00       		.byte	0
 3639 02c8 3F       		.uleb128 0x3f
 3640 02c9 19       		.uleb128 0x19
 3641 02ca 3C       		.uleb128 0x3c
 3642 02cb 19       		.uleb128 0x19
 3643 02cc 6E       		.uleb128 0x6e
 3644 02cd 0E       		.uleb128 0xe
 3645 02ce 03       		.uleb128 0x3
 3646 02cf 0E       		.uleb128 0xe
 3647 02d0 3A       		.uleb128 0x3a
 3648 02d1 0B       		.uleb128 0xb
ARM GAS  /tmp/ccBZqj2k.s 			page 65


 3649 02d2 3B       		.uleb128 0x3b
 3650 02d3 0B       		.uleb128 0xb
 3651 02d4 00       		.byte	0
 3652 02d5 00       		.byte	0
 3653 02d6 35       		.uleb128 0x35
 3654 02d7 2E       		.uleb128 0x2e
 3655 02d8 00       		.byte	0
 3656 02d9 3F       		.uleb128 0x3f
 3657 02da 19       		.uleb128 0x19
 3658 02db 3C       		.uleb128 0x3c
 3659 02dc 19       		.uleb128 0x19
 3660 02dd 6E       		.uleb128 0x6e
 3661 02de 0E       		.uleb128 0xe
 3662 02df 03       		.uleb128 0x3
 3663 02e0 0E       		.uleb128 0xe
 3664 02e1 3A       		.uleb128 0x3a
 3665 02e2 0B       		.uleb128 0xb
 3666 02e3 3B       		.uleb128 0x3b
 3667 02e4 05       		.uleb128 0x5
 3668 02e5 00       		.byte	0
 3669 02e6 00       		.byte	0
 3670 02e7 00       		.byte	0
 3671              		.section	.debug_loc,"",%progbits
 3672              	.Ldebug_loc0:
 3673              	.LLST12:
 3674 0000 00000000 		.4byte	.LVL33
 3675 0004 34000000 		.4byte	.LVL37
 3676 0008 0100     		.2byte	0x1
 3677 000a 50       		.byte	0x50
 3678 000b 34000000 		.4byte	.LVL37
 3679 000f 37000000 		.4byte	.LVL38-1
 3680 0013 0100     		.2byte	0x1
 3681 0015 53       		.byte	0x53
 3682 0016 37000000 		.4byte	.LVL38-1
 3683 001a BC000000 		.4byte	.LVL44
 3684 001e 0100     		.2byte	0x1
 3685 0020 54       		.byte	0x54
 3686 0021 BC000000 		.4byte	.LVL44
 3687 0025 CC000000 		.4byte	.LFE13
 3688 0029 0400     		.2byte	0x4
 3689 002b F3       		.byte	0xf3
 3690 002c 01       		.uleb128 0x1
 3691 002d 50       		.byte	0x50
 3692 002e 9F       		.byte	0x9f
 3693 002f 00000000 		.4byte	0
 3694 0033 00000000 		.4byte	0
 3695              	.LLST13:
 3696 0037 00000000 		.4byte	.LVL33
 3697 003b 30000000 		.4byte	.LVL36
 3698 003f 0100     		.2byte	0x1
 3699 0041 51       		.byte	0x51
 3700 0042 30000000 		.4byte	.LVL36
 3701 0046 CC000000 		.4byte	.LFE13
 3702 004a 0400     		.2byte	0x4
 3703 004c F3       		.byte	0xf3
 3704 004d 01       		.uleb128 0x1
 3705 004e 51       		.byte	0x51
ARM GAS  /tmp/ccBZqj2k.s 			page 66


 3706 004f 9F       		.byte	0x9f
 3707 0050 00000000 		.4byte	0
 3708 0054 00000000 		.4byte	0
 3709              	.LLST14:
 3710 0058 00000000 		.4byte	.LVL33
 3711 005c 2C000000 		.4byte	.LVL35
 3712 0060 0100     		.2byte	0x1
 3713 0062 52       		.byte	0x52
 3714 0063 2C000000 		.4byte	.LVL35
 3715 0067 BC000000 		.4byte	.LVL44
 3716 006b 0100     		.2byte	0x1
 3717 006d 58       		.byte	0x58
 3718 006e BC000000 		.4byte	.LVL44
 3719 0072 CC000000 		.4byte	.LFE13
 3720 0076 0400     		.2byte	0x4
 3721 0078 F3       		.byte	0xf3
 3722 0079 01       		.uleb128 0x1
 3723 007a 52       		.byte	0x52
 3724 007b 9F       		.byte	0x9f
 3725 007c 00000000 		.4byte	0
 3726 0080 00000000 		.4byte	0
 3727              	.LLST15:
 3728 0084 00000000 		.4byte	.LVL33
 3729 0088 28000000 		.4byte	.LVL34
 3730 008c 0100     		.2byte	0x1
 3731 008e 53       		.byte	0x53
 3732 008f 28000000 		.4byte	.LVL34
 3733 0093 7C000000 		.4byte	.LVL40
 3734 0097 0100     		.2byte	0x1
 3735 0099 56       		.byte	0x56
 3736 009a 7C000000 		.4byte	.LVL40
 3737 009e 8B000000 		.4byte	.LVL42-1
 3738 00a2 0200     		.2byte	0x2
 3739 00a4 74       		.byte	0x74
 3740 00a5 38       		.sleb128 56
 3741 00a6 8B000000 		.4byte	.LVL42-1
 3742 00aa CC000000 		.4byte	.LFE13
 3743 00ae 0400     		.2byte	0x4
 3744 00b0 F3       		.byte	0xf3
 3745 00b1 01       		.uleb128 0x1
 3746 00b2 53       		.byte	0x53
 3747 00b3 9F       		.byte	0x9f
 3748 00b4 00000000 		.4byte	0
 3749 00b8 00000000 		.4byte	0
 3750              	.LLST16:
 3751 00bc 40000000 		.4byte	.LVL39
 3752 00c0 84000000 		.4byte	.LVL41
 3753 00c4 0100     		.2byte	0x1
 3754 00c6 53       		.byte	0x53
 3755 00c7 84000000 		.4byte	.LVL41
 3756 00cb 8B000000 		.4byte	.LVL42-1
 3757 00cf 0200     		.2byte	0x2
 3758 00d1 74       		.byte	0x74
 3759 00d2 0C       		.sleb128 12
 3760 00d3 00000000 		.4byte	0
 3761 00d7 00000000 		.4byte	0
 3762              	.LLST17:
ARM GAS  /tmp/ccBZqj2k.s 			page 67


 3763 00db 00000000 		.4byte	.LVL45
 3764 00df 3C000000 		.4byte	.LVL49
 3765 00e3 0100     		.2byte	0x1
 3766 00e5 50       		.byte	0x50
 3767 00e6 3C000000 		.4byte	.LVL49
 3768 00ea 3F000000 		.4byte	.LVL50-1
 3769 00ee 0100     		.2byte	0x1
 3770 00f0 53       		.byte	0x53
 3771 00f1 3F000000 		.4byte	.LVL50-1
 3772 00f5 30010000 		.4byte	.LVL62
 3773 00f9 0100     		.2byte	0x1
 3774 00fb 54       		.byte	0x54
 3775 00fc 30010000 		.4byte	.LVL62
 3776 0100 3C010000 		.4byte	.LFE12
 3777 0104 0400     		.2byte	0x4
 3778 0106 F3       		.byte	0xf3
 3779 0107 01       		.uleb128 0x1
 3780 0108 50       		.byte	0x50
 3781 0109 9F       		.byte	0x9f
 3782 010a 00000000 		.4byte	0
 3783 010e 00000000 		.4byte	0
 3784              	.LLST18:
 3785 0112 00000000 		.4byte	.LVL45
 3786 0116 38000000 		.4byte	.LVL48
 3787 011a 0100     		.2byte	0x1
 3788 011c 51       		.byte	0x51
 3789 011d 38000000 		.4byte	.LVL48
 3790 0121 3C010000 		.4byte	.LFE12
 3791 0125 0400     		.2byte	0x4
 3792 0127 F3       		.byte	0xf3
 3793 0128 01       		.uleb128 0x1
 3794 0129 51       		.byte	0x51
 3795 012a 9F       		.byte	0x9f
 3796 012b 00000000 		.4byte	0
 3797 012f 00000000 		.4byte	0
 3798              	.LLST19:
 3799 0133 00000000 		.4byte	.LVL45
 3800 0137 34000000 		.4byte	.LVL47
 3801 013b 0100     		.2byte	0x1
 3802 013d 52       		.byte	0x52
 3803 013e 34000000 		.4byte	.LVL47
 3804 0142 30010000 		.4byte	.LVL62
 3805 0146 0100     		.2byte	0x1
 3806 0148 5A       		.byte	0x5a
 3807 0149 30010000 		.4byte	.LVL62
 3808 014d 3C010000 		.4byte	.LFE12
 3809 0151 0400     		.2byte	0x4
 3810 0153 F3       		.byte	0xf3
 3811 0154 01       		.uleb128 0x1
 3812 0155 52       		.byte	0x52
 3813 0156 9F       		.byte	0x9f
 3814 0157 00000000 		.4byte	0
 3815 015b 00000000 		.4byte	0
 3816              	.LLST20:
 3817 015f 00000000 		.4byte	.LVL45
 3818 0163 30000000 		.4byte	.LVL46
 3819 0167 0100     		.2byte	0x1
ARM GAS  /tmp/ccBZqj2k.s 			page 68


 3820 0169 53       		.byte	0x53
 3821 016a 30000000 		.4byte	.LVL46
 3822 016e 8C000000 		.4byte	.LVL52
 3823 0172 0100     		.2byte	0x1
 3824 0174 59       		.byte	0x59
 3825 0175 8C000000 		.4byte	.LVL52
 3826 0179 9B000000 		.4byte	.LVL54-1
 3827 017d 0200     		.2byte	0x2
 3828 017f 74       		.byte	0x74
 3829 0180 2C       		.sleb128 44
 3830 0181 9B000000 		.4byte	.LVL54-1
 3831 0185 3C010000 		.4byte	.LFE12
 3832 0189 0400     		.2byte	0x4
 3833 018b F3       		.byte	0xf3
 3834 018c 01       		.uleb128 0x1
 3835 018d 53       		.byte	0x53
 3836 018e 9F       		.byte	0x9f
 3837 018f 00000000 		.4byte	0
 3838 0193 00000000 		.4byte	0
 3839              	.LLST21:
 3840 0197 48000000 		.4byte	.LVL51
 3841 019b 94000000 		.4byte	.LVL53
 3842 019f 0100     		.2byte	0x1
 3843 01a1 53       		.byte	0x53
 3844 01a2 94000000 		.4byte	.LVL53
 3845 01a6 9B000000 		.4byte	.LVL54-1
 3846 01aa 0200     		.2byte	0x2
 3847 01ac 74       		.byte	0x74
 3848 01ad 0C       		.sleb128 12
 3849 01ae 00000000 		.4byte	0
 3850 01b2 00000000 		.4byte	0
 3851              	.LLST22:
 3852 01b6 C8000000 		.4byte	.LVL56
 3853 01ba 0C010000 		.4byte	.LVL59
 3854 01be 0100     		.2byte	0x1
 3855 01c0 59       		.byte	0x59
 3856 01c1 0C010000 		.4byte	.LVL59
 3857 01c5 20010000 		.4byte	.LVL60
 3858 01c9 0100     		.2byte	0x1
 3859 01cb 50       		.byte	0x50
 3860 01cc 20010000 		.4byte	.LVL60
 3861 01d0 30010000 		.4byte	.LVL62
 3862 01d4 0100     		.2byte	0x1
 3863 01d6 59       		.byte	0x59
 3864 01d7 30010000 		.4byte	.LVL62
 3865 01db 3C010000 		.4byte	.LFE12
 3866 01df 0100     		.2byte	0x1
 3867 01e1 50       		.byte	0x50
 3868 01e2 00000000 		.4byte	0
 3869 01e6 00000000 		.4byte	0
 3870              	.LLST11:
 3871 01ea 00000000 		.4byte	.LVL29
 3872 01ee 10000000 		.4byte	.LVL30
 3873 01f2 0100     		.2byte	0x1
 3874 01f4 50       		.byte	0x50
 3875 01f5 10000000 		.4byte	.LVL30
 3876 01f9 34000000 		.4byte	.LFE11
ARM GAS  /tmp/ccBZqj2k.s 			page 69


 3877 01fd 0100     		.2byte	0x1
 3878 01ff 54       		.byte	0x54
 3879 0200 00000000 		.4byte	0
 3880 0204 00000000 		.4byte	0
 3881              	.LLST9:
 3882 0208 00000000 		.4byte	.LVL22
 3883 020c 10000000 		.4byte	.LVL23
 3884 0210 0100     		.2byte	0x1
 3885 0212 50       		.byte	0x50
 3886 0213 10000000 		.4byte	.LVL23
 3887 0217 68000000 		.4byte	.LFE10
 3888 021b 0100     		.2byte	0x1
 3889 021d 54       		.byte	0x54
 3890 021e 00000000 		.4byte	0
 3891 0222 00000000 		.4byte	0
 3892              	.LLST10:
 3893 0226 2C000000 		.4byte	.LVL26
 3894 022a 3F000000 		.4byte	.LVL27-1
 3895 022e 0100     		.2byte	0x1
 3896 0230 51       		.byte	0x51
 3897 0231 58000000 		.4byte	.LVL28
 3898 0235 68000000 		.4byte	.LFE10
 3899 0239 0100     		.2byte	0x1
 3900 023b 51       		.byte	0x51
 3901 023c 00000000 		.4byte	0
 3902 0240 00000000 		.4byte	0
 3903              	.LLST4:
 3904 0244 00000000 		.4byte	.LVL5
 3905 0248 2C000000 		.4byte	.LVL11
 3906 024c 0100     		.2byte	0x1
 3907 024e 50       		.byte	0x50
 3908 024f 2C000000 		.4byte	.LVL11
 3909 0253 34000000 		.4byte	.LVL13
 3910 0257 0400     		.2byte	0x4
 3911 0259 F3       		.byte	0xf3
 3912 025a 01       		.uleb128 0x1
 3913 025b 50       		.byte	0x50
 3914 025c 9F       		.byte	0x9f
 3915 025d 34000000 		.4byte	.LVL13
 3916 0261 A4000000 		.4byte	.LVL16
 3917 0265 0100     		.2byte	0x1
 3918 0267 50       		.byte	0x50
 3919 0268 A4000000 		.4byte	.LVL16
 3920 026c AC000000 		.4byte	.LVL17
 3921 0270 0400     		.2byte	0x4
 3922 0272 F3       		.byte	0xf3
 3923 0273 01       		.uleb128 0x1
 3924 0274 50       		.byte	0x50
 3925 0275 9F       		.byte	0x9f
 3926 0276 AC000000 		.4byte	.LVL17
 3927 027a 48010000 		.4byte	.LFE8
 3928 027e 0100     		.2byte	0x1
 3929 0280 50       		.byte	0x50
 3930 0281 00000000 		.4byte	0
 3931 0285 00000000 		.4byte	0
 3932              	.LLST5:
 3933 0289 04000000 		.4byte	.LVL6
ARM GAS  /tmp/ccBZqj2k.s 			page 70


 3934 028d 24000000 		.4byte	.LVL10
 3935 0291 0100     		.2byte	0x1
 3936 0293 52       		.byte	0x52
 3937 0294 24000000 		.4byte	.LVL10
 3938 0298 2C000000 		.4byte	.LVL11
 3939 029c 0200     		.2byte	0x2
 3940 029e 70       		.byte	0x70
 3941 029f 0C       		.sleb128 12
 3942 02a0 2C000000 		.4byte	.LVL11
 3943 02a4 30000000 		.4byte	.LVL12
 3944 02a8 0500     		.2byte	0x5
 3945 02aa F3       		.byte	0xf3
 3946 02ab 01       		.uleb128 0x1
 3947 02ac 50       		.byte	0x50
 3948 02ad 23       		.byte	0x23
 3949 02ae 0C       		.uleb128 0xc
 3950 02af 34000000 		.4byte	.LVL13
 3951 02b3 AB000000 		.4byte	.LVL17-1
 3952 02b7 0100     		.2byte	0x1
 3953 02b9 52       		.byte	0x52
 3954 02ba AC000000 		.4byte	.LVL17
 3955 02be 48010000 		.4byte	.LFE8
 3956 02c2 0100     		.2byte	0x1
 3957 02c4 52       		.byte	0x52
 3958 02c5 00000000 		.4byte	0
 3959 02c9 00000000 		.4byte	0
 3960              	.LLST6:
 3961 02cd 08000000 		.4byte	.LVL7
 3962 02d1 20000000 		.4byte	.LVL9
 3963 02d5 0100     		.2byte	0x1
 3964 02d7 51       		.byte	0x51
 3965 02d8 34000000 		.4byte	.LVL13
 3966 02dc 50000000 		.4byte	.LVL14
 3967 02e0 0100     		.2byte	0x1
 3968 02e2 51       		.byte	0x51
 3969 02e3 AC000000 		.4byte	.LVL17
 3970 02e7 DC000000 		.4byte	.LVL18
 3971 02eb 0100     		.2byte	0x1
 3972 02ed 51       		.byte	0x51
 3973 02ee F8000000 		.4byte	.LVL19
 3974 02f2 18010000 		.4byte	.LVL20
 3975 02f6 0100     		.2byte	0x1
 3976 02f8 51       		.byte	0x51
 3977 02f9 00000000 		.4byte	0
 3978 02fd 00000000 		.4byte	0
 3979              	.LLST7:
 3980 0301 1C000000 		.4byte	.LVL8
 3981 0305 33000000 		.4byte	.LVL13-1
 3982 0309 0100     		.2byte	0x1
 3983 030b 53       		.byte	0x53
 3984 030c 00000000 		.4byte	0
 3985 0310 00000000 		.4byte	0
 3986              	.LLST8:
 3987 0314 98000000 		.4byte	.LVL15
 3988 0318 AB000000 		.4byte	.LVL17-1
 3989 031c 0100     		.2byte	0x1
 3990 031e 53       		.byte	0x53
ARM GAS  /tmp/ccBZqj2k.s 			page 71


 3991 031f 00000000 		.4byte	0
 3992 0323 00000000 		.4byte	0
 3993              	.LLST0:
 3994 0327 00000000 		.4byte	.LVL0
 3995 032b 18000000 		.4byte	.LVL2
 3996 032f 0100     		.2byte	0x1
 3997 0331 50       		.byte	0x50
 3998 0332 18000000 		.4byte	.LVL2
 3999 0336 6F000000 		.4byte	.LVL4-1
 4000 033a 0100     		.2byte	0x1
 4001 033c 53       		.byte	0x53
 4002 033d 6F000000 		.4byte	.LVL4-1
 4003 0341 74000000 		.4byte	.LFE7
 4004 0345 0400     		.2byte	0x4
 4005 0347 F3       		.byte	0xf3
 4006 0348 01       		.uleb128 0x1
 4007 0349 50       		.byte	0x50
 4008 034a 9F       		.byte	0x9f
 4009 034b 00000000 		.4byte	0
 4010 034f 00000000 		.4byte	0
 4011              	.LLST1:
 4012 0353 00000000 		.4byte	.LVL0
 4013 0357 18000000 		.4byte	.LVL2
 4014 035b 0100     		.2byte	0x1
 4015 035d 50       		.byte	0x50
 4016 035e 18000000 		.4byte	.LVL2
 4017 0362 6F000000 		.4byte	.LVL4-1
 4018 0366 0100     		.2byte	0x1
 4019 0368 53       		.byte	0x53
 4020 0369 6F000000 		.4byte	.LVL4-1
 4021 036d 74000000 		.4byte	.LFE7
 4022 0371 0400     		.2byte	0x4
 4023 0373 F3       		.byte	0xf3
 4024 0374 01       		.uleb128 0x1
 4025 0375 50       		.byte	0x50
 4026 0376 9F       		.byte	0x9f
 4027 0377 00000000 		.4byte	0
 4028 037b 00000000 		.4byte	0
 4029              	.LLST2:
 4030 037f 14000000 		.4byte	.LVL1
 4031 0383 6F000000 		.4byte	.LVL4-1
 4032 0387 0100     		.2byte	0x1
 4033 0389 52       		.byte	0x52
 4034 038a 00000000 		.4byte	0
 4035 038e 00000000 		.4byte	0
 4036              	.LLST3:
 4037 0392 5C000000 		.4byte	.LVL3
 4038 0396 6F000000 		.4byte	.LVL4-1
 4039 039a 0100     		.2byte	0x1
 4040 039c 51       		.byte	0x51
 4041 039d 00000000 		.4byte	0
 4042 03a1 00000000 		.4byte	0
 4043              		.section	.debug_aranges,"",%progbits
 4044 0000 4C000000 		.4byte	0x4c
 4045 0004 0200     		.2byte	0x2
 4046 0006 00000000 		.4byte	.Ldebug_info0
 4047 000a 04       		.byte	0x4
ARM GAS  /tmp/ccBZqj2k.s 			page 72


 4048 000b 00       		.byte	0
 4049 000c 0000     		.2byte	0
 4050 000e 0000     		.2byte	0
 4051 0010 00000000 		.4byte	.LFB7
 4052 0014 74000000 		.4byte	.LFE7-.LFB7
 4053 0018 00000000 		.4byte	.LFB8
 4054 001c 48010000 		.4byte	.LFE8-.LFB8
 4055 0020 00000000 		.4byte	.LFB9
 4056 0024 1C000000 		.4byte	.LFE9-.LFB9
 4057 0028 00000000 		.4byte	.LFB10
 4058 002c 68000000 		.4byte	.LFE10-.LFB10
 4059 0030 00000000 		.4byte	.LFB11
 4060 0034 34000000 		.4byte	.LFE11-.LFB11
 4061 0038 00000000 		.4byte	.LFB13
 4062 003c CC000000 		.4byte	.LFE13-.LFB13
 4063 0040 00000000 		.4byte	.LFB12
 4064 0044 3C010000 		.4byte	.LFE12-.LFB12
 4065 0048 00000000 		.4byte	0
 4066 004c 00000000 		.4byte	0
 4067              		.section	.debug_ranges,"",%progbits
 4068              	.Ldebug_ranges0:
 4069 0000 10000000 		.4byte	.LBB2
 4070 0004 18000000 		.4byte	.LBE2
 4071 0008 1C000000 		.4byte	.LBB3
 4072 000c 68000000 		.4byte	.LBE3
 4073 0010 6C000000 		.4byte	.LBB4
 4074 0014 74000000 		.4byte	.LBE4
 4075 0018 00000000 		.4byte	0
 4076 001c 00000000 		.4byte	0
 4077 0020 98000000 		.4byte	.LBB6
 4078 0024 A4000000 		.4byte	.LBE6
 4079 0028 A8000000 		.4byte	.LBB7
 4080 002c AC000000 		.4byte	.LBE7
 4081 0030 00000000 		.4byte	0
 4082 0034 00000000 		.4byte	0
 4083 0038 00000000 		.4byte	.LFB7
 4084 003c 74000000 		.4byte	.LFE7
 4085 0040 00000000 		.4byte	.LFB8
 4086 0044 48010000 		.4byte	.LFE8
 4087 0048 00000000 		.4byte	.LFB9
 4088 004c 1C000000 		.4byte	.LFE9
 4089 0050 00000000 		.4byte	.LFB10
 4090 0054 68000000 		.4byte	.LFE10
 4091 0058 00000000 		.4byte	.LFB11
 4092 005c 34000000 		.4byte	.LFE11
 4093 0060 00000000 		.4byte	.LFB13
 4094 0064 CC000000 		.4byte	.LFE13
 4095 0068 00000000 		.4byte	.LFB12
 4096 006c 3C010000 		.4byte	.LFE12
 4097 0070 00000000 		.4byte	0
 4098 0074 00000000 		.4byte	0
 4099              		.section	.debug_line,"",%progbits
 4100              	.Ldebug_line0:
 4101 0000 38030000 		.section	.debug_str,"MS",%progbits,1
 4101      0200F901 
 4101      00000201 
 4101      FB0E0D00 
ARM GAS  /tmp/ccBZqj2k.s 			page 73


 4101      01010101 
 4102              	.LASF96:
 4103 0000 63665F6F 		.ascii	"cf_off_older\000"
 4103      66665F6F 
 4103      6C646572 
 4103      00
 4104              	.LASF42:
 4105 000d 705F6D73 		.ascii	"p_msg\000"
 4105      6700
 4106              	.LASF2:
 4107 0013 73697A65 		.ascii	"size_t\000"
 4107      5F7400
 4108              	.LASF81:
 4109 001a 7264796D 		.ascii	"rdymsg\000"
 4109      736700
 4110              	.LASF175:
 4111 0021 77726974 		.ascii	"write\000"
 4111      6500
 4112              	.LASF118:
 4113 0027 4F757470 		.ascii	"OutputQueue\000"
 4113      75745175 
 4113      65756500 
 4114              	.LASF3:
 4115 0033 5F5F7569 		.ascii	"__uint8_t\000"
 4115      6E74385F 
 4115      7400
 4116              	.LASF184:
 4117 003d 5350495F 		.ascii	"SPI_ACTIVE\000"
 4117      41435449 
 4117      564500
 4118              	.LASF68:
 4119 0048 76746C69 		.ascii	"vtlist\000"
 4119      737400
 4120              	.LASF120:
 4121 004f 62736364 		.ascii	"bscdevice_t\000"
 4121      65766963 
 4121      655F7400 
 4122              	.LASF158:
 4123 005b 72786275 		.ascii	"rxbuf\000"
 4123      6600
 4124              	.LASF111:
 4125 0061 715F746F 		.ascii	"q_top\000"
 4125      7000
 4126              	.LASF13:
 4127 0067 6C6F6E67 		.ascii	"long long unsigned int\000"
 4127      206C6F6E 
 4127      6720756E 
 4127      7369676E 
 4127      65642069 
 4128              	.LASF219:
 4129 007e 2F686F6D 		.ascii	"/home/lmr/Downloads/ChibiOS-RPi/ChibiOS-RPi/demos/P"
 4129      652F6C6D 
 4129      722F446F 
 4129      776E6C6F 
 4129      6164732F 
 4130 00b1 726F6A65 		.ascii	"roject\000"
 4130      637400
ARM GAS  /tmp/ccBZqj2k.s 			page 74


 4131              	.LASF92:
 4132 00b8 63685F74 		.ascii	"ch_threadsize\000"
 4132      68726561 
 4132      6473697A 
 4132      6500
 4133              	.LASF82:
 4134 00c6 65786974 		.ascii	"exitcode\000"
 4134      636F6465 
 4134      00
 4135              	.LASF187:
 4136 00cf 53504944 		.ascii	"SPIDriver\000"
 4136      72697665 
 4136      7200
 4137              	.LASF202:
 4138 00d9 69326370 		.ascii	"i2cp\000"
 4138      00
 4139              	.LASF125:
 4140 00de 64617461 		.ascii	"dataFifo\000"
 4140      4669666F 
 4140      00
 4141              	.LASF30:
 4142 00e7 705F7072 		.ascii	"p_prio\000"
 4142      696F00
 4143              	.LASF99:
 4144 00ee 63665F6F 		.ascii	"cf_off_state\000"
 4144      66665F73 
 4144      74617465 
 4144      00
 4145              	.LASF180:
 4146 00fb 72656164 		.ascii	"readt\000"
 4146      7400
 4147              	.LASF151:
 4148 0101 64657669 		.ascii	"device\000"
 4148      636500
 4149              	.LASF108:
 4150 0108 715F7761 		.ascii	"q_waiting\000"
 4150      6974696E 
 4150      6700
 4151              	.LASF12:
 4152 0112 6C6F6E67 		.ascii	"long long int\000"
 4152      206C6F6E 
 4152      6720696E 
 4152      7400
 4153              	.LASF1:
 4154 0120 7369676E 		.ascii	"signed char\000"
 4154      65642063 
 4154      68617200 
 4155              	.LASF98:
 4156 012c 63665F6F 		.ascii	"cf_off_stklimit\000"
 4156      66665F73 
 4156      746B6C69 
 4156      6D697400 
 4157              	.LASF182:
 4158 013c 5350495F 		.ascii	"SPI_STOP\000"
 4158      53544F50 
 4158      00
 4159              	.LASF100:
ARM GAS  /tmp/ccBZqj2k.s 			page 75


 4160 0145 63665F6F 		.ascii	"cf_off_flags\000"
 4160      66665F66 
 4160      6C616773 
 4160      00
 4161              	.LASF167:
 4162 0152 53445F53 		.ascii	"SD_STOP\000"
 4162      544F5000 
 4163              	.LASF71:
 4164 015a 6D5F7175 		.ascii	"m_queue\000"
 4164      65756500 
 4165              	.LASF204:
 4166 0162 6932635F 		.ascii	"i2c_lld_master_receive_timeout\000"
 4166      6C6C645F 
 4166      6D617374 
 4166      65725F72 
 4166      65636569 
 4167              	.LASF210:
 4168 0181 6932635F 		.ascii	"i2c_lld_serve_interrupt\000"
 4168      6C6C645F 
 4168      73657276 
 4168      655F696E 
 4168      74657272 
 4169              	.LASF154:
 4170 0199 61646472 		.ascii	"addr\000"
 4170      00
 4171              	.LASF205:
 4172 019e 6932635F 		.ascii	"i2c_lld_master_transmit_timeout\000"
 4172      6C6C645F 
 4172      6D617374 
 4172      65725F74 
 4172      72616E73 
 4173              	.LASF21:
 4174 01be 74736C69 		.ascii	"tslices_t\000"
 4174      6365735F 
 4174      7400
 4175              	.LASF140:
 4176 01c8 4932435F 		.ascii	"I2C_UNINIT\000"
 4176      554E494E 
 4176      495400
 4177              	.LASF162:
 4178 01d3 69326361 		.ascii	"i2caddr_t\000"
 4178      6464725F 
 4178      7400
 4179              	.LASF148:
 4180 01dd 73746174 		.ascii	"state\000"
 4180      6500
 4181              	.LASF9:
 4182 01e3 6C6F6E67 		.ascii	"long int\000"
 4182      20696E74 
 4182      00
 4183              	.LASF213:
 4184 01ec 63685654 		.ascii	"chVTResetI\000"
 4184      52657365 
 4184      744900
 4185              	.LASF19:
 4186 01f7 74737461 		.ascii	"tstate_t\000"
 4186      74655F74 
ARM GAS  /tmp/ccBZqj2k.s 			page 76


 4186      00
 4187              	.LASF153:
 4188 0200 74687265 		.ascii	"thread\000"
 4188      616400
 4189              	.LASF127:
 4190 0207 64617461 		.ascii	"dataDelay\000"
 4190      44656C61 
 4190      7900
 4191              	.LASF196:
 4192 0211 636C6F63 		.ascii	"clock_polarity\000"
 4192      6B5F706F 
 4192      6C617269 
 4192      747900
 4193              	.LASF160:
 4194 0220 72786964 		.ascii	"rxidx\000"
 4194      7800
 4195              	.LASF110:
 4196 0226 715F6275 		.ascii	"q_buffer\000"
 4196      66666572 
 4196      00
 4197              	.LASF15:
 4198 022f 75696E74 		.ascii	"uint16_t\000"
 4198      31365F74 
 4198      00
 4199              	.LASF200:
 4200 0238 53504930 		.ascii	"SPI0\000"
 4200      00
 4201              	.LASF105:
 4202 023d 63686465 		.ascii	"chdebug_t\000"
 4202      6275675F 
 4202      7400
 4203              	.LASF143:
 4204 0247 4932435F 		.ascii	"I2C_ACTIVE_TX\000"
 4204      41435449 
 4204      56455F54 
 4204      5800
 4205              	.LASF197:
 4206 0255 636C6F63 		.ascii	"clock_phase\000"
 4206      6B5F7068 
 4206      61736500 
 4207              	.LASF32:
 4208 0261 705F6E65 		.ascii	"p_newer\000"
 4208      77657200 
 4209              	.LASF119:
 4210 0269 5F69646C 		.ascii	"_idle_thread_wa\000"
 4210      655F7468 
 4210      72656164 
 4210      5F776100 
 4211              	.LASF190:
 4212 0279 656E645F 		.ascii	"end_cb\000"
 4212      636200
 4213              	.LASF188:
 4214 0280 7478636E 		.ascii	"txcnt\000"
 4214      7400
 4215              	.LASF194:
 4216 0286 63686970 		.ascii	"chip_select_polarity0\000"
 4216      5F73656C 
ARM GAS  /tmp/ccBZqj2k.s 			page 77


 4216      6563745F 
 4216      706F6C61 
 4216      72697479 
 4217              	.LASF195:
 4218 029c 63686970 		.ascii	"chip_select_polarity1\000"
 4218      5F73656C 
 4218      6563745F 
 4218      706F6C61 
 4218      72697479 
 4219              	.LASF121:
 4220 02b2 636F6E74 		.ascii	"control\000"
 4220      726F6C00 
 4221              	.LASF10:
 4222 02ba 5F5F7569 		.ascii	"__uint32_t\000"
 4222      6E743332 
 4222      5F7400
 4223              	.LASF49:
 4224 02c5 72656761 		.ascii	"regarm_t\000"
 4224      726D5F74 
 4224      00
 4225              	.LASF55:
 4226 02ce 76745F70 		.ascii	"vt_prev\000"
 4226      72657600 
 4227              	.LASF124:
 4228 02d6 736C6176 		.ascii	"slaveAddress\000"
 4228      65416464 
 4228      72657373 
 4228      00
 4229              	.LASF189:
 4230 02e3 73706963 		.ascii	"spicallback_t\000"
 4230      616C6C62 
 4230      61636B5F 
 4230      7400
 4231              	.LASF165:
 4232 02f1 49324330 		.ascii	"I2C0\000"
 4232      00
 4233              	.LASF201:
 4234 02f6 49324331 		.ascii	"I2C1\000"
 4234      00
 4235              	.LASF79:
 4236 02fb 4576656E 		.ascii	"EventSource\000"
 4236      74536F75 
 4236      72636500 
 4237              	.LASF0:
 4238 0307 756E7369 		.ascii	"unsigned int\000"
 4238      676E6564 
 4238      20696E74 
 4238      00
 4239              	.LASF54:
 4240 0314 76745F6E 		.ascii	"vt_next\000"
 4240      65787400 
 4241              	.LASF155:
 4242 031c 74786275 		.ascii	"txbuf\000"
 4242      6600
 4243              	.LASF174:
 4244 0322 53657269 		.ascii	"SerialDriverVMT\000"
 4244      616C4472 
ARM GAS  /tmp/ccBZqj2k.s 			page 78


 4244      69766572 
 4244      564D5400 
 4245              	.LASF150:
 4246 0332 6572726F 		.ascii	"errors\000"
 4246      727300
 4247              	.LASF172:
 4248 0339 69717565 		.ascii	"iqueue\000"
 4248      756500
 4249              	.LASF11:
 4250 0340 6C6F6E67 		.ascii	"long unsigned int\000"
 4250      20756E73 
 4250      69676E65 
 4250      6420696E 
 4250      7400
 4251              	.LASF106:
 4252 0352 63685F64 		.ascii	"ch_debug\000"
 4252      65627567 
 4252      00
 4253              	.LASF203:
 4254 035b 74696D65 		.ascii	"timeout\000"
 4254      6F757400 
 4255              	.LASF178:
 4256 0363 67657474 		.ascii	"gett\000"
 4256      00
 4257              	.LASF52:
 4258 0368 76746675 		.ascii	"vtfunc_t\000"
 4258      6E635F74 
 4258      00
 4259              	.LASF86:
 4260 0371 63685F69 		.ascii	"ch_identifier\000"
 4260      64656E74 
 4260      69666965 
 4260      7200
 4261              	.LASF193:
 4262 037f 63686970 		.ascii	"chip_select_polarity\000"
 4262      5F73656C 
 4262      6563745F 
 4262      706F6C61 
 4262      72697479 
 4263              	.LASF171:
 4264 0394 6576656E 		.ascii	"event\000"
 4264      7400
 4265              	.LASF51:
 4266 039a 636F6E74 		.ascii	"context\000"
 4266      65787400 
 4267              	.LASF7:
 4268 03a2 73686F72 		.ascii	"short unsigned int\000"
 4268      7420756E 
 4268      7369676E 
 4268      65642069 
 4268      6E7400
 4269              	.LASF135:
 4270 03b5 6770696F 		.ascii	"gpio_port_t\000"
 4270      5F706F72 
 4270      745F7400 
 4271              	.LASF131:
 4272 03c1 6770636C 		.ascii	"gpclr\000"
ARM GAS  /tmp/ccBZqj2k.s 			page 79


 4272      7200
 4273              	.LASF23:
 4274 03c7 6D73675F 		.ascii	"msg_t\000"
 4274      7400
 4275              	.LASF173:
 4276 03cd 6F717565 		.ascii	"oqueue\000"
 4276      756500
 4277              	.LASF64:
 4278 03d4 725F6E65 		.ascii	"r_newer\000"
 4278      77657200 
 4279              	.LASF75:
 4280 03dc 656C5F6E 		.ascii	"el_next\000"
 4280      65787400 
 4281              	.LASF179:
 4282 03e4 77726974 		.ascii	"writet\000"
 4282      657400
 4283              	.LASF18:
 4284 03eb 746D6F64 		.ascii	"tmode_t\000"
 4284      655F7400 
 4285              	.LASF47:
 4286 03f3 54687265 		.ascii	"ThreadsList\000"
 4286      6164734C 
 4286      69737400 
 4287              	.LASF24:
 4288 03ff 6576656E 		.ascii	"eventmask_t\000"
 4288      746D6173 
 4288      6B5F7400 
 4289              	.LASF117:
 4290 040b 496E7075 		.ascii	"InputQueue\000"
 4290      74517565 
 4290      756500
 4291              	.LASF70:
 4292 0416 4D757465 		.ascii	"Mutex\000"
 4292      7800
 4293              	.LASF208:
 4294 041c 73706565 		.ascii	"speed\000"
 4294      6400
 4295              	.LASF107:
 4296 0422 47656E65 		.ascii	"GenericQueue\000"
 4296      72696351 
 4296      75657565 
 4296      00
 4297              	.LASF48:
 4298 042f 73746B61 		.ascii	"stkalign_t\000"
 4298      6C69676E 
 4298      5F7400
 4299              	.LASF206:
 4300 043a 6932635F 		.ascii	"i2c_lld_stop\000"
 4300      6C6C645F 
 4300      73746F70 
 4300      00
 4301              	.LASF218:
 4302 0447 2E2E2F2E 		.ascii	"../../os/hal/platforms/BCM2835/i2c_lld.c\000"
 4302      2E2F6F73 
 4302      2F68616C 
 4302      2F706C61 
 4302      74666F72 
ARM GAS  /tmp/ccBZqj2k.s 			page 80


 4303              	.LASF87:
 4304 0470 63685F7A 		.ascii	"ch_zero\000"
 4304      65726F00 
 4305              	.LASF101:
 4306 0478 63665F6F 		.ascii	"cf_off_refs\000"
 4306      66665F72 
 4306      65667300 
 4307              	.LASF132:
 4308 0484 67706C65 		.ascii	"gplev\000"
 4308      7600
 4309              	.LASF177:
 4310 048a 70757474 		.ascii	"putt\000"
 4310      00
 4311              	.LASF56:
 4312 048f 76745F74 		.ascii	"vt_time\000"
 4312      696D6500 
 4313              	.LASF141:
 4314 0497 4932435F 		.ascii	"I2C_STOP\000"
 4314      53544F50 
 4314      00
 4315              	.LASF104:
 4316 04a0 73697A65 		.ascii	"sizetype\000"
 4316      74797065 
 4316      00
 4317              	.LASF126:
 4318 04a9 636C6F63 		.ascii	"clockDivider\000"
 4318      6B446976 
 4318      69646572 
 4318      00
 4319              	.LASF109:
 4320 04b6 715F636F 		.ascii	"q_counter\000"
 4320      756E7465 
 4320      7200
 4321              	.LASF57:
 4322 04c0 76745F66 		.ascii	"vt_func\000"
 4322      756E6300 
 4323              	.LASF91:
 4324 04c8 63685F74 		.ascii	"ch_timesize\000"
 4324      696D6573 
 4324      697A6500 
 4325              	.LASF163:
 4326 04d4 69635F73 		.ascii	"ic_speed\000"
 4326      70656564 
 4326      00
 4327              	.LASF97:
 4328 04dd 63665F6F 		.ascii	"cf_off_name\000"
 4328      66665F6E 
 4328      616D6500 
 4329              	.LASF211:
 4330 04e9 63685654 		.ascii	"chVTSetI\000"
 4330      53657449 
 4330      00
 4331              	.LASF33:
 4332 04f2 705F6F6C 		.ascii	"p_older\000"
 4332      64657200 
 4333              	.LASF159:
 4334 04fa 72786279 		.ascii	"rxbytes\000"
ARM GAS  /tmp/ccBZqj2k.s 			page 81


 4334      74657300 
 4335              	.LASF112:
 4336 0502 715F7772 		.ascii	"q_wrptr\000"
 4336      70747200 
 4337              	.LASF63:
 4338 050a 725F6374 		.ascii	"r_ctx\000"
 4338      7800
 4339              	.LASF46:
 4340 0510 54687265 		.ascii	"ThreadsQueue\000"
 4340      61647351 
 4340      75657565 
 4340      00
 4341              	.LASF88:
 4342 051d 63685F73 		.ascii	"ch_size\000"
 4342      697A6500 
 4343              	.LASF137:
 4344 0525 494F504F 		.ascii	"IOPORT0\000"
 4344      52543000 
 4345              	.LASF66:
 4346 052d 725F6375 		.ascii	"r_current\000"
 4346      7272656E 
 4346      7400
 4347              	.LASF65:
 4348 0537 725F6F6C 		.ascii	"r_older\000"
 4348      64657200 
 4349              	.LASF77:
 4350 053f 656C5F6D 		.ascii	"el_mask\000"
 4350      61736B00 
 4351              	.LASF130:
 4352 0547 67707365 		.ascii	"gpset\000"
 4352      7400
 4353              	.LASF133:
 4354 054d 67707075 		.ascii	"gppudclk\000"
 4354      64636C6B 
 4354      00
 4355              	.LASF191:
 4356 0556 6C6F7373 		.ascii	"lossiEnabled\000"
 4356      69456E61 
 4356      626C6564 
 4356      00
 4357              	.LASF214:
 4358 0563 62636D32 		.ascii	"bcm2835_gpio_fnsel\000"
 4358      3833355F 
 4358      6770696F 
 4358      5F666E73 
 4358      656C00
 4359              	.LASF192:
 4360 0576 63686970 		.ascii	"chip_select\000"
 4360      5F73656C 
 4360      65637400 
 4361              	.LASF20:
 4362 0582 74726566 		.ascii	"trefs_t\000"
 4362      735F7400 
 4363              	.LASF146:
 4364 058a 69326373 		.ascii	"i2cstate_t\000"
 4364      74617465 
 4364      5F7400
ARM GAS  /tmp/ccBZqj2k.s 			page 82


 4365              	.LASF90:
 4366 0595 63685F70 		.ascii	"ch_ptrsize\000"
 4366      74727369 
 4366      7A6500
 4367              	.LASF116:
 4368 05a0 716E6F74 		.ascii	"qnotify_t\000"
 4368      6966795F 
 4368      7400
 4369              	.LASF29:
 4370 05aa 705F7072 		.ascii	"p_prev\000"
 4370      657600
 4371              	.LASF22:
 4372 05b1 74707269 		.ascii	"tprio_t\000"
 4372      6F5F7400 
 4373              	.LASF113:
 4374 05b9 715F7264 		.ascii	"q_rdptr\000"
 4374      70747200 
 4375              	.LASF161:
 4376 05c1 69326366 		.ascii	"i2cflags_t\000"
 4376      6C616773 
 4376      5F7400
 4377              	.LASF152:
 4378 05cc 6D757465 		.ascii	"mutex\000"
 4378      7800
 4379              	.LASF207:
 4380 05d2 6932635F 		.ascii	"i2c_lld_start\000"
 4380      6C6C645F 
 4380      73746172 
 4380      7400
 4381              	.LASF16:
 4382 05e0 696E7433 		.ascii	"int32_t\000"
 4382      325F7400 
 4383              	.LASF4:
 4384 05e8 756E7369 		.ascii	"unsigned char\000"
 4384      676E6564 
 4384      20636861 
 4384      7200
 4385              	.LASF76:
 4386 05f6 656C5F6C 		.ascii	"el_listener\000"
 4386      69737465 
 4386      6E657200 
 4387              	.LASF78:
 4388 0602 656C5F66 		.ascii	"el_flags\000"
 4388      6C616773 
 4388      00
 4389              	.LASF44:
 4390 060b 705F6D74 		.ascii	"p_mtxlist\000"
 4390      786C6973 
 4390      7400
 4391              	.LASF5:
 4392 0615 73686F72 		.ascii	"short int\000"
 4392      7420696E 
 4392      7400
 4393              	.LASF35:
 4394 061f 705F7374 		.ascii	"p_state\000"
 4394      61746500 
 4395              	.LASF38:
ARM GAS  /tmp/ccBZqj2k.s 			page 83


 4396 0627 705F7072 		.ascii	"p_preempt\000"
 4396      65656D70 
 4396      7400
 4397              	.LASF103:
 4398 0631 63665F6F 		.ascii	"cf_off_time\000"
 4398      66665F74 
 4398      696D6500 
 4399              	.LASF62:
 4400 063d 725F7072 		.ascii	"r_prio\000"
 4400      696F00
 4401              	.LASF134:
 4402 0644 70696E5F 		.ascii	"pin_base\000"
 4402      62617365 
 4402      00
 4403              	.LASF84:
 4404 064d 65776D61 		.ascii	"ewmask\000"
 4404      736B00
 4405              	.LASF28:
 4406 0654 705F6E65 		.ascii	"p_next\000"
 4406      787400
 4407              	.LASF138:
 4408 065b 494F504F 		.ascii	"IOPORT1\000"
 4408      52543100 
 4409              	.LASF102:
 4410 0663 63665F6F 		.ascii	"cf_off_preempt\000"
 4410      66665F70 
 4410      7265656D 
 4410      707400
 4411              	.LASF36:
 4412 0672 705F666C 		.ascii	"p_flags\000"
 4412      61677300 
 4413              	.LASF27:
 4414 067a 54687265 		.ascii	"Thread\000"
 4414      616400
 4415              	.LASF198:
 4416 0681 636C6F63 		.ascii	"clock_divider\000"
 4416      6B5F6469 
 4416      76696465 
 4416      7200
 4417              	.LASF95:
 4418 068f 63665F6F 		.ascii	"cf_off_newer\000"
 4418      66665F6E 
 4418      65776572 
 4418      00
 4419              	.LASF145:
 4420 069c 4932435F 		.ascii	"I2C_LOCKED\000"
 4420      4C4F434B 
 4420      454400
 4421              	.LASF212:
 4422 06a7 63685363 		.ascii	"chSchGoSleepS\000"
 4422      68476F53 
 4422      6C656570 
 4422      5300
 4423              	.LASF43:
 4424 06b5 705F6570 		.ascii	"p_epending\000"
 4424      656E6469 
 4424      6E6700
ARM GAS  /tmp/ccBZqj2k.s 			page 84


 4425              	.LASF166:
 4426 06c0 53445F55 		.ascii	"SD_UNINIT\000"
 4426      4E494E49 
 4426      5400
 4427              	.LASF17:
 4428 06ca 75696E74 		.ascii	"uint32_t\000"
 4428      33325F74 
 4428      00
 4429              	.LASF93:
 4430 06d3 63665F6F 		.ascii	"cf_off_prio\000"
 4430      66665F70 
 4430      72696F00 
 4431              	.LASF61:
 4432 06df 725F7175 		.ascii	"r_queue\000"
 4432      65756500 
 4433              	.LASF53:
 4434 06e7 56697274 		.ascii	"VirtualTimer\000"
 4434      75616C54 
 4434      696D6572 
 4434      00
 4435              	.LASF170:
 4436 06f4 53657269 		.ascii	"SerialDriver\000"
 4436      616C4472 
 4436      69766572 
 4436      00
 4437              	.LASF144:
 4438 0701 4932435F 		.ascii	"I2C_ACTIVE_RX\000"
 4438      41435449 
 4438      56455F52 
 4438      5800
 4439              	.LASF176:
 4440 070f 72656164 		.ascii	"read\000"
 4440      00
 4441              	.LASF85:
 4442 0714 63686172 		.ascii	"char\000"
 4442      00
 4443              	.LASF220:
 4444 0719 6932635F 		.ascii	"i2c_lld_safety_timeout\000"
 4444      6C6C645F 
 4444      73616665 
 4444      74795F74 
 4444      696D656F 
 4445              	.LASF185:
 4446 0730 5350495F 		.ascii	"SPI_COMPLETE\000"
 4446      434F4D50 
 4446      4C455445 
 4446      00
 4447              	.LASF149:
 4448 073d 636F6E66 		.ascii	"config\000"
 4448      696700
 4449              	.LASF6:
 4450 0744 5F5F7569 		.ascii	"__uint16_t\000"
 4450      6E743136 
 4450      5F7400
 4451              	.LASF216:
 4452 074f 63685363 		.ascii	"chSchReadyI\000"
 4452      68526561 
ARM GAS  /tmp/ccBZqj2k.s 			page 85


 4452      64794900 
 4453              	.LASF186:
 4454 075b 73706973 		.ascii	"spistate_t\000"
 4454      74617465 
 4454      5F7400
 4455              	.LASF73:
 4456 0766 6D5F6E65 		.ascii	"m_next\000"
 4456      787400
 4457              	.LASF26:
 4458 076d 73797374 		.ascii	"systime_t\000"
 4458      696D655F 
 4458      7400
 4459              	.LASF45:
 4460 0777 705F7265 		.ascii	"p_realprio\000"
 4460      616C7072 
 4460      696F00
 4461              	.LASF8:
 4462 0782 5F5F696E 		.ascii	"__int32_t\000"
 4462      7433325F 
 4462      7400
 4463              	.LASF142:
 4464 078c 4932435F 		.ascii	"I2C_READY\000"
 4464      52454144 
 4464      5900
 4465              	.LASF147:
 4466 0796 49324344 		.ascii	"I2CDriver\000"
 4466      72697665 
 4466      7200
 4467              	.LASF39:
 4468 07a0 705F7469 		.ascii	"p_time\000"
 4468      6D6500
 4469              	.LASF217:
 4470 07a7 474E5520 		.ascii	"GNU C11 6.3.1 20170620 -mcpu=arm1176jz-s -mno-thumb"
 4470      43313120 
 4470      362E332E 
 4470      31203230 
 4470      31373036 
 4471 07da 2D696E74 		.ascii	"-interwork -ggdb -O2 -fomit-frame-pointer -ffunctio"
 4471      6572776F 
 4471      726B202D 
 4471      67676462 
 4471      202D4F32 
 4472 080d 6E2D7365 		.ascii	"n-sections -fdata-sections\000"
 4472      6374696F 
 4472      6E73202D 
 4472      66646174 
 4472      612D7365 
 4473              	.LASF215:
 4474 0828 6932634F 		.ascii	"i2cObjectInit\000"
 4474      626A6563 
 4474      74496E69 
 4474      7400
 4475              	.LASF50:
 4476 0836 696E7463 		.ascii	"intctx\000"
 4476      747800
 4477              	.LASF41:
 4478 083d 705F6D73 		.ascii	"p_msgqueue\000"
ARM GAS  /tmp/ccBZqj2k.s 			page 86


 4478      67717565 
 4478      756500
 4479              	.LASF168:
 4480 0848 53445F52 		.ascii	"SD_READY\000"
 4480      45414459 
 4480      00
 4481              	.LASF183:
 4482 0851 5350495F 		.ascii	"SPI_READY\000"
 4482      52454144 
 4482      5900
 4483              	.LASF181:
 4484 085b 5350495F 		.ascii	"SPI_UNINIT\000"
 4484      554E494E 
 4484      495400
 4485              	.LASF58:
 4486 0866 76745F70 		.ascii	"vt_par\000"
 4486      617200
 4487              	.LASF25:
 4488 086d 666C6167 		.ascii	"flagsmask_t\000"
 4488      736D6173 
 4488      6B5F7400 
 4489              	.LASF164:
 4490 0879 49324343 		.ascii	"I2CConfig\000"
 4490      6F6E6669 
 4490      6700
 4491              	.LASF169:
 4492 0883 73647374 		.ascii	"sdstate_t\000"
 4492      6174655F 
 4492      7400
 4493              	.LASF157:
 4494 088d 74786964 		.ascii	"txidx\000"
 4494      7800
 4495              	.LASF94:
 4496 0893 63665F6F 		.ascii	"cf_off_ctx\000"
 4496      66665F63 
 4496      747800
 4497              	.LASF209:
 4498 089e 6932635F 		.ascii	"i2c_lld_init\000"
 4498      6C6C645F 
 4498      696E6974 
 4498      00
 4499              	.LASF37:
 4500 08ab 705F7265 		.ascii	"p_refs\000"
 4500      667300
 4501              	.LASF122:
 4502 08b2 73746174 		.ascii	"status\000"
 4502      757300
 4503              	.LASF67:
 4504 08b9 52656164 		.ascii	"ReadyList\000"
 4504      794C6973 
 4504      7400
 4505              	.LASF114:
 4506 08c3 715F6E6F 		.ascii	"q_notify\000"
 4506      74696679 
 4506      00
 4507              	.LASF69:
 4508 08cc 726C6973 		.ascii	"rlist\000"
ARM GAS  /tmp/ccBZqj2k.s 			page 87


 4508      7400
 4509              	.LASF14:
 4510 08d2 75696E74 		.ascii	"uint8_t\000"
 4510      385F7400 
 4511              	.LASF129:
 4512 08da 6C617463 		.ascii	"latch\000"
 4512      6800
 4513              	.LASF74:
 4514 08e0 4576656E 		.ascii	"EventListener\000"
 4514      744C6973 
 4514      74656E65 
 4514      7200
 4515              	.LASF83:
 4516 08ee 77746F62 		.ascii	"wtobjp\000"
 4516      6A7000
 4517              	.LASF34:
 4518 08f5 705F6E61 		.ascii	"p_name\000"
 4518      6D6500
 4519              	.LASF59:
 4520 08fc 76745F73 		.ascii	"vt_systime\000"
 4520      79737469 
 4520      6D6500
 4521              	.LASF80:
 4522 0907 65735F6E 		.ascii	"es_next\000"
 4522      65787400 
 4523              	.LASF199:
 4524 090f 53504943 		.ascii	"SPIConfig\000"
 4524      6F6E6669 
 4524      6700
 4525              	.LASF89:
 4526 0919 63685F76 		.ascii	"ch_version\000"
 4526      65727369 
 4526      6F6E00
 4527              	.LASF123:
 4528 0924 64617461 		.ascii	"dataLength\000"
 4528      4C656E67 
 4528      746800
 4529              	.LASF60:
 4530 092f 56544C69 		.ascii	"VTList\000"
 4530      737400
 4531              	.LASF115:
 4532 0936 715F6C69 		.ascii	"q_link\000"
 4532      6E6B00
 4533              	.LASF136:
 4534 093d 50414C43 		.ascii	"PALConfig\000"
 4534      6F6E6669 
 4534      6700
 4535              	.LASF72:
 4536 0947 6D5F6F77 		.ascii	"m_owner\000"
 4536      6E657200 
 4537              	.LASF139:
 4538 094f 70616C5F 		.ascii	"pal_default_config\000"
 4538      64656661 
 4538      756C745F 
 4538      636F6E66 
 4538      696700
 4539              	.LASF31:
ARM GAS  /tmp/ccBZqj2k.s 			page 88


 4540 0962 705F6374 		.ascii	"p_ctx\000"
 4540      7800
 4541              	.LASF40:
 4542 0968 705F7761 		.ascii	"p_waiting\000"
 4542      6974696E 
 4542      6700
 4543              	.LASF156:
 4544 0972 74786279 		.ascii	"txbytes\000"
 4544      74657300 
 4545              	.LASF128:
 4546 097a 636C6F63 		.ascii	"clockStretchTimeout\000"
 4546      6B537472 
 4546      65746368 
 4546      54696D65 
 4546      6F757400 
 4547              		.ident	"GCC: (15:6.3.1+svn253039-1build1) 6.3.1 20170620"
ARM GAS  /tmp/ccBZqj2k.s 			page 89


DEFINED SYMBOLS
                            *ABS*:0000000000000000 i2c_lld.c
     /tmp/ccBZqj2k.s:16     .text.i2c_lld_safety_timeout:0000000000000000 $a
     /tmp/ccBZqj2k.s:21     .text.i2c_lld_safety_timeout:0000000000000000 i2c_lld_safety_timeout
     /tmp/ccBZqj2k.s:96     .text.i2c_lld_safety_timeout:0000000000000070 $d
     /tmp/ccBZqj2k.s:102    .text.i2c_lld_serve_interrupt:0000000000000000 $a
     /tmp/ccBZqj2k.s:108    .text.i2c_lld_serve_interrupt:0000000000000000 i2c_lld_serve_interrupt
     /tmp/ccBZqj2k.s:265    .text.i2c_lld_serve_interrupt:0000000000000144 $d
     /tmp/ccBZqj2k.s:270    .text.i2c_lld_init:0000000000000000 $a
     /tmp/ccBZqj2k.s:276    .text.i2c_lld_init:0000000000000000 i2c_lld_init
     /tmp/ccBZqj2k.s:296    .text.i2c_lld_init:0000000000000014 $d
                            *COM*:0000000000000040 I2C0
     /tmp/ccBZqj2k.s:303    .text.i2c_lld_start:0000000000000000 $a
     /tmp/ccBZqj2k.s:309    .text.i2c_lld_start:0000000000000000 i2c_lld_start
     /tmp/ccBZqj2k.s:363    .text.i2c_lld_start:0000000000000060 $d
     /tmp/ccBZqj2k.s:369    .text.i2c_lld_stop:0000000000000000 $a
     /tmp/ccBZqj2k.s:375    .text.i2c_lld_stop:0000000000000000 i2c_lld_stop
     /tmp/ccBZqj2k.s:409    .text.i2c_lld_master_receive_timeout:0000000000000000 $a
     /tmp/ccBZqj2k.s:415    .text.i2c_lld_master_receive_timeout:0000000000000000 i2c_lld_master_receive_timeout
     /tmp/ccBZqj2k.s:536    .text.i2c_lld_master_receive_timeout:00000000000000bc $d
     /tmp/ccBZqj2k.s:544    .text.i2c_lld_master_transmit_timeout:0000000000000000 $a
     /tmp/ccBZqj2k.s:550    .text.i2c_lld_master_transmit_timeout:0000000000000000 i2c_lld_master_transmit_timeout
     /tmp/ccBZqj2k.s:723    .text.i2c_lld_master_transmit_timeout:0000000000000130 $d
                            *COM*:0000000000000040 I2C1
                     .debug_frame:0000000000000010 $d

UNDEFINED SYMBOLS
chSchReadyI
i2cObjectInit
__aeabi_uidiv
bcm2835_gpio_fnsel
chVTSetI
chSchGoSleepS
chVTResetI
rlist
