ARM GAS  /tmp/ccqcjI2o.s 			page 1


   1              		.cpu arm1176jz-s
   2              		.eabi_attribute 20, 1
   3              		.eabi_attribute 21, 1
   4              		.eabi_attribute 23, 3
   5              		.eabi_attribute 24, 1
   6              		.eabi_attribute 25, 1
   7              		.eabi_attribute 26, 1
   8              		.eabi_attribute 30, 2
   9              		.eabi_attribute 34, 1
  10              		.eabi_attribute 18, 4
  11              		.file	"pal_lld.c"
  12              		.text
  13              	.Ltext0:
  14              		.cfi_sections	.debug_frame
  15              		.section	.text.set_gpio_in.isra.0,"ax",%progbits
  16              		.align	2
  17              		.syntax unified
  18              		.arm
  19              		.fpu softvfp
  20              		.type	set_gpio_in.isra.0, %function
  21              	set_gpio_in.isra.0:
  22              	.LFB12:
  23              		.file 1 "../../os/hal/platforms/BCM2835/pal_lld.c"
  24              		.loc 1 64 0
  25              		.cfi_startproc
  26              		@ args = 0, pretend = 0, frame = 0
  27              		@ frame_needed = 0, uses_anonymous_args = 0
  28              	.LVL0:
  29 0000 F0412DE9 		push	{r4, r5, r6, r7, r8, lr}
  30              		.cfi_def_cfa_offset 24
  31              		.cfi_offset 4, -24
  32              		.cfi_offset 5, -20
  33              		.cfi_offset 6, -16
  34              		.cfi_offset 7, -12
  35              		.cfi_offset 8, -8
  36              		.cfi_offset 14, -4
  37              		.loc 1 66 0
  38 0004 0040A0E3 		mov	r4, #0
  39              		.loc 1 64 0
  40 0008 0070A0E1 		mov	r7, r0
  41 000c 0150A0E1 		mov	r5, r1
  42              	.LBB3:
  43              		.loc 1 69 0
  44 0010 0460A0E1 		mov	r6, r4
  45 0014 030000EA 		b	.L3
  46              	.LVL1:
  47              	.L2:
  48              	.LBE3:
  49              		.loc 1 66 0
  50 0018 014084E2 		add	r4, r4, #1
  51              	.LVL2:
  52 001c 200054E3 		cmp	r4, #32
  53              	.LBB4:
  54              		.loc 1 70 0
  55 0020 A550A0E1 		lsr	r5, r5, #1
  56              	.LVL3:
  57              	.LBE4:
ARM GAS  /tmp/ccqcjI2o.s 			page 2


  58              		.loc 1 66 0
  59 0024 0900000A 		beq	.L10
  60              	.LVL4:
  61              	.L3:
  62              	.LBB5:
  63              		.loc 1 68 0
  64 0028 010015E3 		tst	r5, #1
  65 002c F9FFFF0A 		beq	.L2
  66              		.loc 1 69 0
  67 0030 000097E5 		ldr	r0, [r7]
  68 0034 0610A0E1 		mov	r1, r6
  69 0038 000084E0 		add	r0, r4, r0
  70              	.LBE5:
  71              		.loc 1 66 0
  72 003c 014084E2 		add	r4, r4, #1
  73              	.LVL5:
  74              	.LBB6:
  75              		.loc 1 69 0
  76 0040 FEFFFFEB 		bl	bcm2835_gpio_fnsel
  77              	.LVL6:
  78              	.LBE6:
  79              		.loc 1 66 0
  80 0044 200054E3 		cmp	r4, #32
  81              	.LBB7:
  82              		.loc 1 70 0
  83 0048 A550A0E1 		lsr	r5, r5, #1
  84              	.LVL7:
  85              	.LBE7:
  86              		.loc 1 66 0
  87 004c F5FFFF1A 		bne	.L3
  88              	.L10:
  89              		.loc 1 72 0
  90 0050 F081BDE8 		pop	{r4, r5, r6, r7, r8, pc}
  91              		.cfi_endproc
  92              	.LFE12:
  93              		.size	set_gpio_in.isra.0, .-set_gpio_in.isra.0
  94              		.section	.text.set_gpio_pud.isra.1,"ax",%progbits
  95              		.align	2
  96              		.syntax unified
  97              		.arm
  98              		.fpu softvfp
  99              		.type	set_gpio_pud.isra.1, %function
 100              	set_gpio_pud.isra.1:
 101              	.LFB13:
 102              		.loc 1 54 0
 103              		.cfi_startproc
 104              		@ args = 0, pretend = 0, frame = 0
 105              		@ frame_needed = 0, uses_anonymous_args = 0
 106              	.LVL8:
 107 0000 70402DE9 		push	{r4, r5, r6, lr}
 108              		.cfi_def_cfa_offset 16
 109              		.cfi_offset 4, -16
 110              		.cfi_offset 5, -12
 111              		.cfi_offset 6, -8
 112              		.cfi_offset 14, -4
 113              		.loc 1 54 0
 114 0004 0050A0E1 		mov	r5, r0
ARM GAS  /tmp/ccqcjI2o.s 			page 3


 115 0008 0160A0E1 		mov	r6, r1
 116              		.loc 1 56 0
 117 000c 2C409FE5 		ldr	r4, .L13
 118              		.loc 1 57 0
 119 0010 9600A0E3 		mov	r0, #150
 120              		.loc 1 56 0
 121 0014 942084E5 		str	r2, [r4, #148]
 122              		.loc 1 57 0
 123 0018 FEFFFFEB 		bl	bcm2835_delay
 124              	.LVL9:
 125              		.loc 1 58 0
 126 001c 003095E5 		ldr	r3, [r5]
 127              		.loc 1 59 0
 128 0020 9600A0E3 		mov	r0, #150
 129              		.loc 1 58 0
 130 0024 006083E5 		str	r6, [r3]
 131              		.loc 1 59 0
 132 0028 FEFFFFEB 		bl	bcm2835_delay
 133              	.LVL10:
 134              		.loc 1 60 0
 135 002c 0030A0E3 		mov	r3, #0
 136              		.loc 1 61 0
 137 0030 002095E5 		ldr	r2, [r5]
 138              		.loc 1 60 0
 139 0034 943084E5 		str	r3, [r4, #148]
 140              		.loc 1 61 0
 141 0038 003082E5 		str	r3, [r2]
 142 003c 7080BDE8 		pop	{r4, r5, r6, pc}
 143              	.L14:
 144              		.align	2
 145              	.L13:
 146 0040 00002020 		.word	538968064
 147              		.cfi_endproc
 148              	.LFE13:
 149              		.size	set_gpio_pud.isra.1, .-set_gpio_pud.isra.1
 150              		.section	.text._pal_lld_init,"ax",%progbits
 151              		.align	2
 152              		.global	_pal_lld_init
 153              		.syntax unified
 154              		.arm
 155              		.fpu softvfp
 156              		.type	_pal_lld_init, %function
 157              	_pal_lld_init:
 158              	.LFB9:
 159              		.loc 1 82 0
 160              		.cfi_startproc
 161              		@ args = 0, pretend = 0, frame = 0
 162              		@ frame_needed = 0, uses_anonymous_args = 0
 163              	.LVL11:
 164              		.loc 1 86 0
 165 0000 60309FE5 		ldr	r3, .L17
 166              		.loc 1 82 0
 167 0004 10402DE9 		push	{r4, lr}
 168              		.cfi_def_cfa_offset 8
 169              		.cfi_offset 4, -8
 170              		.cfi_offset 14, -4
 171              		.loc 1 88 0
ARM GAS  /tmp/ccqcjI2o.s 			page 4


 172 0008 5CC09FE5 		ldr	ip, .L17+4
 173              		.loc 1 87 0
 174 000c 5CE09FE5 		ldr	lr, .L17+8
 175              		.loc 1 89 0
 176 0010 5C209FE5 		ldr	r2, .L17+12
 177              		.loc 1 86 0
 178 0014 5C409FE5 		ldr	r4, .L17+16
 179              		.loc 1 90 0
 180 0018 140083E2 		add	r0, r3, #20
 181              	.LVL12:
 182 001c 0010E0E3 		mvn	r1, #0
 183              		.loc 1 87 0
 184 0020 104083E9 		stmib	r3, {r4, lr}
 185              		.loc 1 88 0
 186 0024 0CC083E5 		str	ip, [r3, #12]
 187              		.loc 1 89 0
 188 0028 102083E5 		str	r2, [r3, #16]
 189              		.loc 1 90 0
 190 002c FEFFFFEB 		bl	set_gpio_in.isra.0
 191              	.LVL13:
 192              		.loc 1 92 0
 193 0030 44309FE5 		ldr	r3, .L17+20
 194              		.loc 1 96 0
 195 0034 2010A0E3 		mov	r1, #32
 196 0038 0300A0E1 		mov	r0, r3
 197              		.loc 1 93 0
 198 003c 3CE09FE5 		ldr	lr, .L17+24
 199              		.loc 1 92 0
 200 0040 044084E2 		add	r4, r4, #4
 201              		.loc 1 94 0
 202 0044 38C09FE5 		ldr	ip, .L17+28
 203              		.loc 1 95 0
 204 0048 38209FE5 		ldr	r2, .L17+32
 205              		.loc 1 96 0
 206 004c 1410A0E5 		str	r1, [r0, #20]!
 207              		.loc 1 93 0
 208 0050 104083E9 		stmib	r3, {r4, lr}
 209              		.loc 1 98 0
 210 0054 1040BDE8 		pop	{r4, lr}
 211              		.cfi_restore 14
 212              		.cfi_restore 4
 213              		.cfi_def_cfa_offset 0
 214              		.loc 1 97 0
 215 0058 0010E0E3 		mvn	r1, #0
 216              		.loc 1 94 0
 217 005c 0CC083E5 		str	ip, [r3, #12]
 218              		.loc 1 95 0
 219 0060 102083E5 		str	r2, [r3, #16]
 220              		.loc 1 97 0
 221 0064 FEFFFFEA 		b	set_gpio_in.isra.0
 222              	.LVL14:
 223              	.L18:
 224              		.align	2
 225              	.L17:
 226 0068 00000000 		.word	IOPORT0
 227 006c 34002020 		.word	538968116
 228 0070 28002020 		.word	538968104
ARM GAS  /tmp/ccqcjI2o.s 			page 5


 229 0074 98002020 		.word	538968216
 230 0078 1C002020 		.word	538968092
 231 007c 00000000 		.word	IOPORT1
 232 0080 2C002020 		.word	538968108
 233 0084 38002020 		.word	538968120
 234 0088 9C002020 		.word	538968220
 235              		.cfi_endproc
 236              	.LFE9:
 237              		.size	_pal_lld_init, .-_pal_lld_init
 238              		.section	.text._pal_lld_setgroupmode,"ax",%progbits
 239              		.align	2
 240              		.global	_pal_lld_setgroupmode
 241              		.syntax unified
 242              		.arm
 243              		.fpu softvfp
 244              		.type	_pal_lld_setgroupmode, %function
 245              	_pal_lld_setgroupmode:
 246              	.LFB10:
 247              		.loc 1 100 0
 248              		.cfi_startproc
 249              		@ args = 0, pretend = 0, frame = 0
 250              		@ frame_needed = 0, uses_anonymous_args = 0
 251              	.LVL15:
 252              		.loc 1 102 0
 253 0000 040052E3 		cmp	r2, #4
 254              		.loc 1 100 0
 255 0004 F0412DE9 		push	{r4, r5, r6, r7, r8, lr}
 256              		.cfi_def_cfa_offset 24
 257              		.cfi_offset 4, -24
 258              		.cfi_offset 5, -20
 259              		.cfi_offset 6, -16
 260              		.cfi_offset 7, -12
 261              		.cfi_offset 8, -8
 262              		.cfi_offset 14, -4
 263              		.loc 1 100 0
 264 0008 0060A0E1 		mov	r6, r0
 265 000c 0150A0E1 		mov	r5, r1
 266              		.loc 1 102 0
 267 0010 2B00000A 		beq	.L21
 268 0014 1100008A 		bhi	.L22
 269 0018 020052E3 		cmp	r2, #2
 270 001c 0800000A 		beq	.L23
 271 0020 030052E3 		cmp	r2, #3
 272 0024 2D00001A 		bne	.L36
 273              		.loc 1 108 0
 274 0028 140080E2 		add	r0, r0, #20
 275              	.LVL16:
 276 002c FEFFFFEB 		bl	set_gpio_in.isra.0
 277              	.LVL17:
 278              		.loc 1 109 0
 279 0030 0510A0E1 		mov	r1, r5
 280 0034 100086E2 		add	r0, r6, #16
 281 0038 0220A0E3 		mov	r2, #2
 282              		.loc 1 126 0
 283 003c F041BDE8 		pop	{r4, r5, r6, r7, r8, lr}
 284              		.cfi_remember_state
 285              		.cfi_restore 14
ARM GAS  /tmp/ccqcjI2o.s 			page 6


 286              		.cfi_restore 8
 287              		.cfi_restore 7
 288              		.cfi_restore 6
 289              		.cfi_restore 5
 290              		.cfi_restore 4
 291              		.cfi_def_cfa_offset 0
 292              	.LVL18:
 293              		.loc 1 109 0
 294 0040 FEFFFFEA 		b	set_gpio_pud.isra.1
 295              	.LVL19:
 296              	.L23:
 297              		.cfi_restore_state
 298              		.loc 1 104 0
 299 0044 140080E2 		add	r0, r0, #20
 300              	.LVL20:
 301 0048 FEFFFFEB 		bl	set_gpio_in.isra.0
 302              	.LVL21:
 303              		.loc 1 105 0
 304 004c 0510A0E1 		mov	r1, r5
 305 0050 100086E2 		add	r0, r6, #16
 306 0054 0020A0E3 		mov	r2, #0
 307              		.loc 1 126 0
 308 0058 F041BDE8 		pop	{r4, r5, r6, r7, r8, lr}
 309              		.cfi_remember_state
 310              		.cfi_restore 14
 311              		.cfi_restore 8
 312              		.cfi_restore 7
 313              		.cfi_restore 6
 314              		.cfi_restore 5
 315              		.cfi_restore 4
 316              		.cfi_def_cfa_offset 0
 317              	.LVL22:
 318              		.loc 1 105 0
 319 005c FEFFFFEA 		b	set_gpio_pud.isra.1
 320              	.LVL23:
 321              	.L22:
 322              		.cfi_restore_state
 323              		.loc 1 102 0
 324 0060 060052E3 		cmp	r2, #6
 325 0064 F081BD38 		popcc	{r4, r5, r6, r7, r8, pc}
 326 0068 070052E3 		cmp	r2, #7
 327 006c 0200009A 		bls	.L25
 328 0070 FF0052E3 		cmp	r2, #255
 329 0074 0000000A 		beq	.L25
 330 0078 F081BDE8 		pop	{r4, r5, r6, r7, r8, pc}
 331              	.L25:
 332 007c 0040A0E3 		mov	r4, #0
 333              	.LBB8:
 334              		.loc 1 121 0
 335 0080 0170A0E3 		mov	r7, #1
 336 0084 030000EA 		b	.L27
 337              	.LVL24:
 338              	.L26:
 339              	.LBE8:
 340              		.loc 1 118 0 discriminator 2
 341 0088 014084E2 		add	r4, r4, #1
 342              	.LVL25:
ARM GAS  /tmp/ccqcjI2o.s 			page 7


 343 008c 200054E3 		cmp	r4, #32
 344              	.LBB9:
 345              		.loc 1 122 0 discriminator 2
 346 0090 A550A0E1 		lsr	r5, r5, #1
 347              	.LVL26:
 348              	.LBE9:
 349              		.loc 1 118 0 discriminator 2
 350 0094 0900000A 		beq	.L37
 351              	.LVL27:
 352              	.L27:
 353              	.LBB10:
 354              		.loc 1 120 0
 355 0098 010015E3 		tst	r5, #1
 356 009c F9FFFF0A 		beq	.L26
 357              		.loc 1 121 0
 358 00a0 140096E5 		ldr	r0, [r6, #20]
 359 00a4 0710A0E1 		mov	r1, r7
 360 00a8 000084E0 		add	r0, r4, r0
 361              	.LBE10:
 362              		.loc 1 118 0
 363 00ac 014084E2 		add	r4, r4, #1
 364              	.LVL28:
 365              	.LBB11:
 366              		.loc 1 121 0
 367 00b0 FEFFFFEB 		bl	bcm2835_gpio_fnsel
 368              	.LVL29:
 369              	.LBE11:
 370              		.loc 1 118 0
 371 00b4 200054E3 		cmp	r4, #32
 372              	.LBB12:
 373              		.loc 1 122 0
 374 00b8 A550A0E1 		lsr	r5, r5, #1
 375              	.LVL30:
 376              	.LBE12:
 377              		.loc 1 118 0
 378 00bc F5FFFF1A 		bne	.L27
 379              	.L37:
 380 00c0 F081BDE8 		pop	{r4, r5, r6, r7, r8, pc}
 381              	.LVL31:
 382              	.L21:
 383              		.loc 1 112 0
 384 00c4 140080E2 		add	r0, r0, #20
 385              	.LVL32:
 386 00c8 FEFFFFEB 		bl	set_gpio_in.isra.0
 387              	.LVL33:
 388              		.loc 1 113 0
 389 00cc 0510A0E1 		mov	r1, r5
 390 00d0 100086E2 		add	r0, r6, #16
 391 00d4 0120A0E3 		mov	r2, #1
 392              		.loc 1 126 0
 393 00d8 F041BDE8 		pop	{r4, r5, r6, r7, r8, lr}
 394              		.cfi_remember_state
 395              		.cfi_restore 14
 396              		.cfi_restore 8
 397              		.cfi_restore 7
 398              		.cfi_restore 6
 399              		.cfi_restore 5
ARM GAS  /tmp/ccqcjI2o.s 			page 8


 400              		.cfi_restore 4
 401              		.cfi_def_cfa_offset 0
 402              	.LVL34:
 403              		.loc 1 113 0
 404 00dc FEFFFFEA 		b	set_gpio_pud.isra.1
 405              	.LVL35:
 406              	.L36:
 407              		.cfi_restore_state
 408 00e0 F081BDE8 		pop	{r4, r5, r6, r7, r8, pc}
 409              		.cfi_endproc
 410              	.LFE10:
 411              		.size	_pal_lld_setgroupmode, .-_pal_lld_setgroupmode
 412              		.section	.text._pal_lld_writeport,"ax",%progbits
 413              		.align	2
 414              		.global	_pal_lld_writeport
 415              		.syntax unified
 416              		.arm
 417              		.fpu softvfp
 418              		.type	_pal_lld_writeport, %function
 419              	_pal_lld_writeport:
 420              	.LFB11:
 421              		.loc 1 128 0
 422              		.cfi_startproc
 423              		@ args = 0, pretend = 0, frame = 0
 424              		@ frame_needed = 0, uses_anonymous_args = 0
 425              		@ link register save eliminated.
 426              	.LVL36:
 427              		.loc 1 130 0
 428 0000 0120E0E1 		mvn	r2, r1
 429              		.loc 1 129 0
 430 0004 04C090E5 		ldr	ip, [r0, #4]
 431              		.loc 1 130 0
 432 0008 083090E5 		ldr	r3, [r0, #8]
 433              		.loc 1 129 0
 434 000c 001080E5 		str	r1, [r0]
 435 0010 00108CE5 		str	r1, [ip]
 436              		.loc 1 130 0
 437 0014 002083E5 		str	r2, [r3]
 438 0018 1EFF2FE1 		bx	lr
 439              		.cfi_endproc
 440              	.LFE11:
 441              		.size	_pal_lld_writeport, .-_pal_lld_writeport
 442              		.comm	IOPORT1,24,4
 443              		.comm	IOPORT0,24,4
 444              		.text
 445              	.Letext0:
 446              		.file 2 "/usr/lib/gcc/arm-none-eabi/6.3.1/include/stddef.h"
 447              		.file 3 "/usr/include/newlib/machine/_default_types.h"
 448              		.file 4 "/usr/include/newlib/sys/_stdint.h"
 449              		.file 5 "../../os/ports/GCC/ARM/chtypes.h"
 450              		.file 6 "../../os/kernel/include/chlists.h"
 451              		.file 7 "../../os/kernel/include/chthreads.h"
 452              		.file 8 "../../os/ports/GCC/ARM/chcore.h"
 453              		.file 9 "../../os/kernel/include/chvt.h"
 454              		.file 10 "../../os/kernel/include/chschd.h"
 455              		.file 11 "../../os/kernel/include/chmtx.h"
 456              		.file 12 "../../os/kernel/include/chevents.h"
ARM GAS  /tmp/ccqcjI2o.s 			page 9


 457              		.file 13 "../../os/kernel/include/chregistry.h"
 458              		.file 14 "../../os/kernel/include/chqueues.h"
 459              		.file 15 "../../os/kernel/include/ch.h"
 460              		.file 16 "../../os/hal/platforms/BCM2835/bcm2835.h"
 461              		.file 17 "../../os/hal/platforms/BCM2835/pal_lld.h"
 462              		.file 18 "../../os/hal/include/i2c.h"
 463              		.file 19 "../../os/hal/platforms/BCM2835/i2c_lld.h"
 464              		.file 20 "../../os/hal/include/serial.h"
 465              		.file 21 "../../os/hal/include/spi.h"
 466              		.file 22 "../../os/hal/platforms/BCM2835/spi_lld.h"
 467              		.file 23 "../../os/hal/platforms/BCM2835/serial_lld.h"