ARM GAS  /tmp/ccx8QAjq.s 			page 1


   1              		.cpu arm1176jz-s
   2              		.eabi_attribute 20, 1
   3              		.eabi_attribute 21, 1
   4              		.eabi_attribute 23, 3
   5              		.eabi_attribute 24, 1
   6              		.eabi_attribute 25, 1
   7              		.eabi_attribute 26, 1
   8              		.eabi_attribute 30, 2
   9              		.eabi_attribute 34, 1
  10              		.eabi_attribute 18, 4
  11              		.file	"serial_lld.c"
  12              		.text
  13              	.Ltext0:
  14              		.cfi_sections	.debug_frame
  15              		.section	.text.output_notify,"ax",%progbits
  16              		.align	2
  17              		.syntax unified
  18              		.arm
  19              		.fpu softvfp
  20              		.type	output_notify, %function
  21              	output_notify:
  22              	.LFB7:
  23              		.file 1 "../../os/hal/platforms/BCM2835/serial_lld.c"
  24              		.loc 1 59 0
  25              		.cfi_startproc
  26              		@ args = 0, pretend = 0, frame = 0
  27              		@ frame_needed = 0, uses_anonymous_args = 0
  28              		@ link register save eliminated.
  29              	.LVL0:
  30              		.loc 1 62 0
  31 0000 0C209FE5 		ldr	r2, .L2
  32 0004 443092E5 		ldr	r3, [r2, #68]
  33 0008 023083E3 		orr	r3, r3, #2
  34 000c 443082E5 		str	r3, [r2, #68]
  35 0010 1EFF2FE1 		bx	lr
  36              	.L3:
  37              		.align	2
  38              	.L2:
  39 0014 00502120 		.word	539054080
  40              		.cfi_endproc
  41              	.LFE7:
  42              		.size	output_notify, .-output_notify
  43              		.section	.text.sd_lld_serve_interrupt,"ax",%progbits
  44              		.align	2
  45              		.global	sd_lld_serve_interrupt
  46              		.syntax unified
  47              		.arm
  48              		.fpu softvfp
  49              		.type	sd_lld_serve_interrupt, %function
  50              	sd_lld_serve_interrupt:
  51              	.LFB8:
  52              		.loc 1 69 0
  53              		.cfi_startproc
  54              		@ args = 0, pretend = 0, frame = 0
  55              		@ frame_needed = 0, uses_anonymous_args = 0
  56              	.LVL1:
  57              		.loc 1 70 0
ARM GAS  /tmp/ccx8QAjq.s 			page 2


  58 0000 9C209FE5 		ldr	r2, .L25
  59              		.loc 1 69 0
  60 0004 70402DE9 		push	{r4, r5, r6, lr}
  61              		.cfi_def_cfa_offset 16
  62              		.cfi_offset 4, -16
  63              		.cfi_offset 5, -12
  64              		.cfi_offset 6, -8
  65              		.cfi_offset 14, -4
  66              		.loc 1 70 0
  67 0008 483092E5 		ldr	r3, [r2, #72]
  68              		.loc 1 69 0
  69 000c 0050A0E1 		mov	r5, r0
  70              		.loc 1 70 0
  71 0010 073003E2 		and	r3, r3, #7
  72 0014 040053E3 		cmp	r3, #4
  73 0018 1100000A 		beq	.L5
  74              	.LVL2:
  75              	.L9:
  76              		.loc 1 79 0
  77 001c 80409FE5 		ldr	r4, .L25
  78 0020 483094E5 		ldr	r3, [r4, #72]
  79 0024 073003E2 		and	r3, r3, #7
  80 0028 020053E3 		cmp	r3, #2
  81 002c 7080BD18 		popne	{r4, r5, r6, pc}
  82              	.L6:
  83              	.LBB15:
  84              		.loc 1 81 0 discriminator 1
  85 0030 543094E5 		ldr	r3, [r4, #84]
  86 0034 200013E3 		tst	r3, #32
  87 0038 FCFFFF0A 		beq	.L6
  88              		.loc 1 82 0
  89 003c 0500A0E1 		mov	r0, r5
  90 0040 FEFFFFEB 		bl	sdRequestDataI
  91              	.LVL3:
  92              		.loc 1 83 0
  93 0044 000050E3 		cmp	r0, #0
  94              	.LBB16:
  95              	.LBB17:
  96              		.loc 1 174 0
  97 0048 54209FA5 		ldrge	r2, .L25
  98              	.LBE17:
  99              	.LBE16:
 100              		.loc 1 83 0
 101 004c 100000BA 		blt	.L24
 102              	.L11:
 103              	.LBB19:
 104              	.LBB18:
 105              		.loc 1 174 0
 106 0050 543092E5 		ldr	r3, [r2, #84]
 107 0054 200013E3 		tst	r3, #32
 108 0058 FCFFFF0A 		beq	.L11
 109              		.loc 1 175 0
 110 005c 400082E5 		str	r0, [r2, #64]
 111 0060 7080BDE8 		pop	{r4, r5, r6, pc}
 112              	.LVL4:
 113              	.L5:
 114              	.LBE18:
ARM GAS  /tmp/ccx8QAjq.s 			page 3


 115              	.LBE19:
 116              	.LBE15:
 117              		.loc 1 72 0 discriminator 1
 118 0064 543092E5 		ldr	r3, [r2, #84]
 119 0068 010013E3 		tst	r3, #1
 120 006c FCFFFF0A 		beq	.L5
 121              		.loc 1 74 0 discriminator 1
 122 0070 2C409FE5 		ldr	r4, .L25
 123              	.LVL5:
 124              	.L17:
 125 0074 401094E5 		ldr	r1, [r4, #64]
 126 0078 0500A0E1 		mov	r0, r5
 127 007c 7110EFE6 		uxtb	r1, r1
 128 0080 FEFFFFEB 		bl	sdIncomingDataI
 129              	.LVL6:
 130              		.loc 1 75 0 discriminator 1
 131 0084 543094E5 		ldr	r3, [r4, #84]
 132 0088 010013E3 		tst	r3, #1
 133 008c F8FFFF1A 		bne	.L17
 134 0090 E1FFFFEA 		b	.L9
 135              	.LVL7:
 136              	.L24:
 137              	.LBB20:
 138              		.loc 1 85 0
 139 0094 443094E5 		ldr	r3, [r4, #68]
 140 0098 0230C3E3 		bic	r3, r3, #2
 141 009c 443084E5 		str	r3, [r4, #68]
 142 00a0 7080BDE8 		pop	{r4, r5, r6, pc}
 143              	.L26:
 144              		.align	2
 145              	.L25:
 146 00a4 00502120 		.word	539054080
 147              	.LBE20:
 148              		.cfi_endproc
 149              	.LFE8:
 150              		.size	sd_lld_serve_interrupt, .-sd_lld_serve_interrupt
 151              		.section	.text.sd_lld_init,"ax",%progbits
 152              		.align	2
 153              		.global	sd_lld_init
 154              		.syntax unified
 155              		.arm
 156              		.fpu softvfp
 157              		.type	sd_lld_init, %function
 158              	sd_lld_init:
 159              	.LFB9:
 160              		.loc 1 103 0
 161              		.cfi_startproc
 162              		@ args = 0, pretend = 0, frame = 0
 163              		@ frame_needed = 0, uses_anonymous_args = 0
 164              		@ link register save eliminated.
 165              		.loc 1 104 0
 166 0000 08209FE5 		ldr	r2, .L28
 167 0004 0010A0E3 		mov	r1, #0
 168 0008 04009FE5 		ldr	r0, .L28+4
 169 000c FEFFFFEA 		b	sdObjectInit
 170              	.LVL8:
 171              	.L29:
ARM GAS  /tmp/ccx8QAjq.s 			page 4


 172              		.align	2
 173              	.L28:
 174 0010 00000000 		.word	output_notify
 175 0014 00000000 		.word	SD1
 176              		.cfi_endproc
 177              	.LFE9:
 178              		.size	sd_lld_init, .-sd_lld_init
 179              		.global	__aeabi_uidiv
 180              		.section	.text.sd_lld_start,"ax",%progbits
 181              		.align	2
 182              		.global	sd_lld_start
 183              		.syntax unified
 184              		.arm
 185              		.fpu softvfp
 186              		.type	sd_lld_start, %function
 187              	sd_lld_start:
 188              	.LFB10:
 189              		.loc 1 117 0
 190              		.cfi_startproc
 191              		@ args = 0, pretend = 0, frame = 0
 192              		@ frame_needed = 0, uses_anonymous_args = 0
 193              	.LVL9:
 194 0000 F0472DE9 		push	{r4, r5, r6, r7, r8, r9, r10, lr}
 195              		.cfi_def_cfa_offset 32
 196              		.cfi_offset 4, -32
 197              		.cfi_offset 5, -28
 198              		.cfi_offset 6, -24
 199              		.cfi_offset 7, -20
 200              		.cfi_offset 8, -16
 201              		.cfi_offset 9, -12
 202              		.cfi_offset 10, -8
 203              		.cfi_offset 14, -4
 204              		.loc 1 127 0
 205 0004 0050A0E3 		mov	r5, #0
 206              		.loc 1 121 0
 207 0008 A0309FE5 		ldr	r3, .L33
 208 000c 050051E1 		cmp	r1, r5
 209 0010 0310A001 		moveq	r1, r3
 210              	.LVL10:
 211              		.loc 1 131 0
 212 0014 0520A0E3 		mov	r2, #5
 213              		.loc 1 132 0
 214 0018 C630A0E3 		mov	r3, #198
 215              		.loc 1 129 0
 216 001c 0390A0E3 		mov	r9, #3
 217              		.loc 1 123 0
 218 0020 0282A0E3 		mov	r8, #536870912
 219              		.loc 1 125 0
 220 0024 0100A0E3 		mov	r0, #1
 221              	.LVL11:
 222 0028 84409FE5 		ldr	r4, .L33+4
 223              		.loc 1 123 0
 224 002c 84709FE5 		ldr	r7, .L33+8
 225              		.loc 1 138 0
 226 0030 84609FE5 		ldr	r6, .L33+12
 227              		.loc 1 123 0
 228 0034 1C8287E5 		str	r8, [r7, #540]
ARM GAS  /tmp/ccx8QAjq.s 			page 5


 229              		.loc 1 125 0
 230 0038 040084E5 		str	r0, [r4, #4]
 231              		.loc 1 127 0
 232 003c 445084E5 		str	r5, [r4, #68]
 233              		.loc 1 128 0
 234 0040 605084E5 		str	r5, [r4, #96]
 235              		.loc 1 129 0
 236 0044 4C9084E5 		str	r9, [r4, #76]
 237              		.loc 1 130 0
 238 0048 505084E5 		str	r5, [r4, #80]
 239              		.loc 1 131 0
 240 004c 442084E5 		str	r2, [r4, #68]
 241              		.loc 1 132 0
 242 0050 483084E5 		str	r3, [r4, #72]
 243              		.loc 1 133 0
 244 0054 001091E5 		ldr	r1, [r1]
 245              	.LVL12:
 246 0058 60009FE5 		ldr	r0, .L33+16
 247 005c 1119A0E1 		lsl	r1, r1, r9
 248 0060 FEFFFFEB 		bl	__aeabi_uidiv
 249              	.LVL13:
 250 0064 010040E2 		sub	r0, r0, #1
 251 0068 680084E5 		str	r0, [r4, #104]
 252              		.loc 1 135 0
 253 006c 0210A0E3 		mov	r1, #2
 254 0070 0E00A0E3 		mov	r0, #14
 255 0074 FEFFFFEB 		bl	bcm2835_gpio_fnsel
 256              	.LVL14:
 257              		.loc 1 136 0
 258 0078 0210A0E3 		mov	r1, #2
 259 007c 0F00A0E3 		mov	r0, #15
 260 0080 FEFFFFEB 		bl	bcm2835_gpio_fnsel
 261              	.LVL15:
 262              		.loc 1 139 0
 263 0084 9600A0E3 		mov	r0, #150
 264              		.loc 1 138 0
 265 0088 945086E5 		str	r5, [r6, #148]
 266              		.loc 1 139 0
 267 008c FEFFFFEB 		bl	bcm2835_delay
 268              	.LVL16:
 269              		.loc 1 140 0
 270 0090 0339A0E3 		mov	r3, #49152
 271              		.loc 1 141 0
 272 0094 9600A0E3 		mov	r0, #150
 273              		.loc 1 140 0
 274 0098 983086E5 		str	r3, [r6, #152]
 275              		.loc 1 141 0
 276 009c FEFFFFEB 		bl	bcm2835_delay
 277              	.LVL17:
 278              		.loc 1 142 0
 279 00a0 985086E5 		str	r5, [r6, #152]
 280              		.loc 1 144 0
 281 00a4 609084E5 		str	r9, [r4, #96]
 282              		.loc 1 146 0
 283 00a8 108287E5 		str	r8, [r7, #528]
 284 00ac F087BDE8 		pop	{r4, r5, r6, r7, r8, r9, r10, pc}
 285              	.L34:
ARM GAS  /tmp/ccx8QAjq.s 			page 6


 286              		.align	2
 287              	.L33:
 288 00b0 00000000 		.word	.LANCHOR0
 289 00b4 00502120 		.word	539054080
 290 00b8 00B00020 		.word	536915968
 291 00bc 00002020 		.word	538968064
 292 00c0 80B2E60E 		.word	250000000
 293              		.cfi_endproc
 294              	.LFE10:
 295              		.size	sd_lld_start, .-sd_lld_start
 296              		.section	.text.sd_lld_stop,"ax",%progbits
 297              		.align	2
 298              		.global	sd_lld_stop
 299              		.syntax unified
 300              		.arm
 301              		.fpu softvfp
 302              		.type	sd_lld_stop, %function
 303              	sd_lld_stop:
 304              	.LFB11:
 305              		.loc 1 158 0
 306              		.cfi_startproc
 307              		@ args = 0, pretend = 0, frame = 0
 308              		@ frame_needed = 0, uses_anonymous_args = 0
 309              	.LVL18:
 310              		.loc 1 161 0
 311 0000 28209FE5 		ldr	r2, .L37
 312              		.loc 1 158 0
 313 0004 10402DE9 		push	{r4, lr}
 314              		.cfi_def_cfa_offset 8
 315              		.cfi_offset 4, -8
 316              		.cfi_offset 14, -4
 317              		.loc 1 161 0
 318 0008 1C3292E5 		ldr	r3, [r2, #540]
 319              		.loc 1 162 0
 320 000c 0010A0E3 		mov	r1, #0
 321              		.loc 1 161 0
 322 0010 023283E3 		orr	r3, r3, #536870912
 323              		.loc 1 162 0
 324 0014 0E00A0E3 		mov	r0, #14
 325              	.LVL19:
 326              		.loc 1 161 0
 327 0018 1C3282E5 		str	r3, [r2, #540]
 328              		.loc 1 162 0
 329 001c FEFFFFEB 		bl	bcm2835_gpio_fnsel
 330              	.LVL20:
 331              		.loc 1 164 0
 332 0020 1040BDE8 		pop	{r4, lr}
 333              		.cfi_restore 14
 334              		.cfi_restore 4
 335              		.cfi_def_cfa_offset 0
 336              		.loc 1 163 0
 337 0024 0010A0E3 		mov	r1, #0
 338 0028 0F00A0E3 		mov	r0, #15
 339 002c FEFFFFEA 		b	bcm2835_gpio_fnsel
 340              	.LVL21:
 341              	.L38:
 342              		.align	2
ARM GAS  /tmp/ccx8QAjq.s 			page 7


 343              	.L37:
 344 0030 00B00020 		.word	536915968
 345              		.cfi_endproc
 346              	.LFE11:
 347              		.size	sd_lld_stop, .-sd_lld_stop
 348              		.section	.text.mini_uart_recv,"ax",%progbits
 349              		.align	2
 350              		.global	mini_uart_recv
 351              		.syntax unified
 352              		.arm
 353              		.fpu softvfp
 354              		.type	mini_uart_recv, %function
 355              	mini_uart_recv:
 356              	.LFB12:
 357              		.loc 1 167 0
 358              		.cfi_startproc
 359              		@ args = 0, pretend = 0, frame = 0
 360              		@ frame_needed = 0, uses_anonymous_args = 0
 361              		@ link register save eliminated.
 362              		.loc 1 168 0
 363 0000 14209FE5 		ldr	r2, .L43
 364              	.L40:
 365              		.loc 1 168 0 is_stmt 0 discriminator 1
 366 0004 543092E5 		ldr	r3, [r2, #84]
 367 0008 010013E3 		tst	r3, #1
 368 000c FCFFFF0A 		beq	.L40
 369              		.loc 1 169 0 is_stmt 1
 370 0010 400092E5 		ldr	r0, [r2, #64]
 371              		.loc 1 170 0
 372 0014 7000EFE6 		uxtb	r0, r0
 373 0018 1EFF2FE1 		bx	lr
 374              	.L44:
 375              		.align	2
 376              	.L43:
 377 001c 00502120 		.word	539054080
 378              		.cfi_endproc
 379              	.LFE12:
 380              		.size	mini_uart_recv, .-mini_uart_recv
 381              		.section	.text.mini_uart_send,"ax",%progbits
 382              		.align	2
 383              		.global	mini_uart_send
 384              		.syntax unified
 385              		.arm
 386              		.fpu softvfp
 387              		.type	mini_uart_send, %function
 388              	mini_uart_send:
 389              	.LFB13:
 390              		.loc 1 173 0
 391              		.cfi_startproc
 392              		@ args = 0, pretend = 0, frame = 0
 393              		@ frame_needed = 0, uses_anonymous_args = 0
 394              		@ link register save eliminated.
 395              	.LVL22:
 396              		.loc 1 174 0
 397 0000 10209FE5 		ldr	r2, .L49
 398              	.L46:
 399              		.loc 1 174 0 is_stmt 0 discriminator 1
ARM GAS  /tmp/ccx8QAjq.s 			page 8


 400 0004 543092E5 		ldr	r3, [r2, #84]
 401 0008 200013E3 		tst	r3, #32
 402 000c FCFFFF0A 		beq	.L46
 403              		.loc 1 175 0 is_stmt 1
 404 0010 400082E5 		str	r0, [r2, #64]
 405 0014 1EFF2FE1 		bx	lr
 406              	.L50:
 407              		.align	2
 408              	.L49:
 409 0018 00502120 		.word	539054080
 410              		.cfi_endproc
 411              	.LFE13:
 412              		.size	mini_uart_send, .-mini_uart_send
 413              		.section	.text.mini_uart_sendstr,"ax",%progbits
 414              		.align	2
 415              		.global	mini_uart_sendstr
 416              		.syntax unified
 417              		.arm
 418              		.fpu softvfp
 419              		.type	mini_uart_sendstr, %function
 420              	mini_uart_sendstr:
 421              	.LFB14:
 422              		.loc 1 179 0
 423              		.cfi_startproc
 424              		@ args = 0, pretend = 0, frame = 0
 425              		@ frame_needed = 0, uses_anonymous_args = 0
 426              		@ link register save eliminated.
 427              	.LVL23:
 428              		.loc 1 181 0
 429 0000 0010D0E5 		ldrb	r1, [r0]	@ zero_extendqisi2
 430 0004 010080E2 		add	r0, r0, #1
 431              	.LVL24:
 432 0008 000051E3 		cmp	r1, #0
 433 000c 1EFF2F01 		bxeq	lr
 434              	.LBB21:
 435              	.LBB22:
 436              		.loc 1 174 0 discriminator 2
 437 0010 1C209FE5 		ldr	r2, .L59
 438              	.LVL25:
 439              	.L53:
 440              		.loc 1 174 0 is_stmt 0
 441 0014 543092E5 		ldr	r3, [r2, #84]
 442 0018 200013E3 		tst	r3, #32
 443 001c FCFFFF0A 		beq	.L53
 444              		.loc 1 175 0 is_stmt 1
 445 0020 401082E5 		str	r1, [r2, #64]
 446              	.LVL26:
 447              	.LBE22:
 448              	.LBE21:
 449              		.loc 1 181 0
 450 0024 0110D0E4 		ldrb	r1, [r0], #1	@ zero_extendqisi2
 451              	.LVL27:
 452 0028 000051E3 		cmp	r1, #0
 453 002c F8FFFF1A 		bne	.L53
 454 0030 1EFF2FE1 		bx	lr
 455              	.L60:
 456              		.align	2
ARM GAS  /tmp/ccx8QAjq.s 			page 9


 457              	.L59:
 458 0034 00502120 		.word	539054080
 459              		.cfi_endproc
 460              	.LFE14:
 461              		.size	mini_uart_sendstr, .-mini_uart_sendstr
 462              		.section	.text.mini_uart_sendhex,"ax",%progbits
 463              		.align	2
 464              		.global	mini_uart_sendhex
 465              		.syntax unified
 466              		.arm
 467              		.fpu softvfp
 468              		.type	mini_uart_sendhex, %function
 469              	mini_uart_sendhex:
 470              	.LFB15:
 471              		.loc 1 185 0
 472              		.cfi_startproc
 473              		@ args = 0, pretend = 0, frame = 0
 474              		@ frame_needed = 0, uses_anonymous_args = 0
 475              	.LVL28:
 476 0000 04E02DE5 		str	lr, [sp, #-4]!
 477              		.cfi_def_cfa_offset 4
 478              		.cfi_offset 14, -4
 479              		.loc 1 189 0
 480 0004 20E0A0E3 		mov	lr, #32
 481              	.LBB23:
 482              	.LBB24:
 483              		.loc 1 174 0
 484 0008 80209FE5 		ldr	r2, .L84
 485              	.LVL29:
 486              	.L65:
 487              	.LBE24:
 488              	.LBE23:
 489              		.loc 1 192 0
 490 000c 04E04EE2 		sub	lr, lr, #4
 491              	.LVL30:
 492              		.loc 1 193 0
 493 0010 303EA0E1 		lsr	r3, r0, lr
 494 0014 0F3003E2 		and	r3, r3, #15
 495              	.LVL31:
 496              		.loc 1 194 0
 497 0018 090053E3 		cmp	r3, #9
 498              		.loc 1 195 0
 499 001c 37C08382 		addhi	ip, r3, #55
 500              	.LVL32:
 501              		.loc 1 197 0
 502 0020 30C08392 		addls	ip, r3, #48
 503              	.LVL33:
 504              	.L64:
 505              	.LBB27:
 506              	.LBB25:
 507              		.loc 1 174 0
 508 0024 543092E5 		ldr	r3, [r2, #84]
 509 0028 200013E3 		tst	r3, #32
 510 002c FCFFFF0A 		beq	.L64
 511              	.LBE25:
 512              	.LBE27:
 513              		.loc 1 199 0
ARM GAS  /tmp/ccx8QAjq.s 			page 10


 514 0030 00005EE3 		cmp	lr, #0
 515              	.LBB28:
 516              	.LBB26:
 517              		.loc 1 175 0
 518 0034 40C082E5 		str	ip, [r2, #64]
 519              	.LVL34:
 520              	.LBE26:
 521              	.LBE28:
 522              		.loc 1 199 0
 523 0038 F3FFFF1A 		bne	.L65
 524              	.LBB29:
 525              	.LBB30:
 526              		.loc 1 174 0
 527 003c 4C209FE5 		ldr	r2, .L84
 528              	.L66:
 529 0040 543092E5 		ldr	r3, [r2, #84]
 530 0044 200013E3 		tst	r3, #32
 531 0048 FCFFFF0A 		beq	.L66
 532              		.loc 1 175 0
 533 004c 2030A0E3 		mov	r3, #32
 534              	.LBE30:
 535              	.LBE29:
 536              		.loc 1 204 0
 537 0050 000051E3 		cmp	r1, #0
 538              	.LBB32:
 539              	.LBB31:
 540              		.loc 1 175 0
 541 0054 403082E5 		str	r3, [r2, #64]
 542              	.LBE31:
 543              	.LBE32:
 544              		.loc 1 204 0
 545 0058 04F09D04 		ldreq	pc, [sp], #4
 546              	.LBB33:
 547              	.LBB34:
 548              		.loc 1 174 0
 549 005c 2C109FE5 		ldr	r1, .L84
 550              	.LVL35:
 551              	.L77:
 552 0060 543091E5 		ldr	r3, [r1, #84]
 553 0064 200013E3 		tst	r3, #32
 554 0068 FCFFFF0A 		beq	.L77
 555              		.loc 1 175 0
 556 006c 0D30A0E3 		mov	r3, #13
 557              	.LBE34:
 558              	.LBE33:
 559              	.LBB36:
 560              	.LBB37:
 561              		.loc 1 174 0
 562 0070 18209FE5 		ldr	r2, .L84
 563              	.LBE37:
 564              	.LBE36:
 565              	.LBB39:
 566              	.LBB35:
 567              		.loc 1 175 0
 568 0074 403081E5 		str	r3, [r1, #64]
 569              	.L69:
 570              	.LBE35:
ARM GAS  /tmp/ccx8QAjq.s 			page 11


 571              	.LBE39:
 572              	.LBB40:
 573              	.LBB38:
 574              		.loc 1 174 0
 575 0078 543092E5 		ldr	r3, [r2, #84]
 576 007c 200013E3 		tst	r3, #32
 577 0080 FCFFFF0A 		beq	.L69
 578              		.loc 1 175 0
 579 0084 0A30A0E3 		mov	r3, #10
 580 0088 403082E5 		str	r3, [r2, #64]
 581 008c 04F09DE4 		ldr	pc, [sp], #4
 582              	.L85:
 583              		.align	2
 584              	.L84:
 585 0090 00502120 		.word	539054080
 586              	.LBE38:
 587              	.LBE40:
 588              		.cfi_endproc
 589              	.LFE15:
 590              		.size	mini_uart_sendhex, .-mini_uart_sendhex
 591              		.comm	SD1,116,4
 592              		.section	.rodata.default_config,"a",%progbits
 593              		.align	2
 594              		.set	.LANCHOR0,. + 0
 595              		.type	default_config, %object
 596              		.size	default_config, 4
 597              	default_config:
 598 0000 00C20100 		.word	115200
 599              		.text
 600              	.Letext0:
 601              		.file 2 "/usr/lib/gcc/arm-none-eabi/6.3.1/include/stddef.h"
 602              		.file 3 "/usr/include/newlib/machine/_default_types.h"
 603              		.file 4 "/usr/include/newlib/sys/_stdint.h"
 604              		.file 5 "../../os/ports/GCC/ARM/chtypes.h"
 605              		.file 6 "../../os/kernel/include/chlists.h"
 606              		.file 7 "../../os/kernel/include/chthreads.h"
 607              		.file 8 "../../os/ports/GCC/ARM/chcore.h"
 608              		.file 9 "../../os/kernel/include/chvt.h"
 609              		.file 10 "../../os/kernel/include/chschd.h"
 610              		.file 11 "../../os/kernel/include/chmtx.h"
 611              		.file 12 "../../os/kernel/include/chevents.h"
 612              		.file 13 "../../os/kernel/include/chregistry.h"
 613              		.file 14 "../../os/kernel/include/chqueues.h"
 614              		.file 15 "../../os/kernel/include/ch.h"
 615              		.file 16 "../../os/hal/platforms/BCM2835/bcm2835.h"
 616              		.file 17 "../../os/hal/platforms/BCM2835/pal_lld.h"
 617              		.file 18 "../../os/hal/include/i2c.h"
 618              		.file 19 "../../os/hal/platforms/BCM2835/i2c_lld.h"
 619              		.file 20 "../../os/hal/include/serial.h"
 620              		.file 21 "../../os/hal/platforms/BCM2835/serial_lld.h"
 621              		.file 22 "../../os/hal/include/spi.h"
 622              		.file 23 "../../os/hal/platforms/BCM2835/spi_lld.h"