ARM GAS  /tmp/ccUWkYJa.s 			page 1


   1              		.cpu arm1176jz-s
   2              		.eabi_attribute 20, 1
   3              		.eabi_attribute 21, 1
   4              		.eabi_attribute 23, 3
   5              		.eabi_attribute 24, 1
   6              		.eabi_attribute 25, 1
   7              		.eabi_attribute 26, 1
   8              		.eabi_attribute 30, 2
   9              		.eabi_attribute 34, 1
  10              		.eabi_attribute 18, 4
  11              		.file	"spi.c"
  12              		.text
  13              	.Ltext0:
  14              		.cfi_sections	.debug_frame
  15              		.section	.text.spiInit,"ax",%progbits
  16              		.align	2
  17              		.global	spiInit
  18              		.syntax unified
  19              		.arm
  20              		.fpu softvfp
  21              		.type	spiInit, %function
  22              	spiInit:
  23              	.LFB7:
  24              		.file 1 "../../os/hal/src/spi.c"
  25              		.loc 1 61 0
  26              		.cfi_startproc
  27              		@ args = 0, pretend = 0, frame = 0
  28              		@ frame_needed = 0, uses_anonymous_args = 0
  29              		@ link register save eliminated.
  30              		.loc 1 63 0
  31 0000 FEFFFFEA 		b	spi_lld_init
  32              	.LVL0:
  33              		.cfi_endproc
  34              	.LFE7:
  35              		.size	spiInit, .-spiInit
  36              		.section	.text.spiObjectInit,"ax",%progbits
  37              		.align	2
  38              		.global	spiObjectInit
  39              		.syntax unified
  40              		.arm
  41              		.fpu softvfp
  42              		.type	spiObjectInit, %function
  43              	spiObjectInit:
  44              	.LFB8:
  45              		.loc 1 73 0
  46              		.cfi_startproc
  47              		@ args = 0, pretend = 0, frame = 0
  48              		@ frame_needed = 0, uses_anonymous_args = 0
  49              		@ link register save eliminated.
  50              	.LVL1:
  51              		.loc 1 76 0
  52 0000 0030A0E3 		mov	r3, #0
  53              		.loc 1 75 0
  54 0004 0120A0E3 		mov	r2, #1
  55              		.loc 1 76 0
  56 0008 043080E5 		str	r3, [r0, #4]
  57              		.loc 1 75 0
ARM GAS  /tmp/ccUWkYJa.s 			page 2


  58 000c 0020C0E5 		strb	r2, [r0]
  59              		.loc 1 78 0
  60 0010 083080E5 		str	r3, [r0, #8]
  61              		.loc 1 82 0
  62 0014 0C0080E2 		add	r0, r0, #12
  63              	.LVL2:
  64 0018 FEFFFFEA 		b	chMtxInit
  65              	.LVL3:
  66              		.cfi_endproc
  67              	.LFE8:
  68              		.size	spiObjectInit, .-spiObjectInit
  69              		.section	.text.spiStart,"ax",%progbits
  70              		.align	2
  71              		.global	spiStart
  72              		.syntax unified
  73              		.arm
  74              		.fpu softvfp
  75              		.type	spiStart, %function
  76              	spiStart:
  77              	.LFB9:
  78              		.loc 1 100 0
  79              		.cfi_startproc
  80              		@ args = 0, pretend = 0, frame = 0
  81              		@ frame_needed = 0, uses_anonymous_args = 0
  82              	.LVL4:
  83 0000 10402DE9 		push	{r4, lr}
  84              		.cfi_def_cfa_offset 8
  85              		.cfi_offset 4, -8
  86              		.cfi_offset 14, -4
  87              		.loc 1 100 0
  88 0004 0040A0E1 		mov	r4, r0
  89              		.loc 1 104 0
  90              		.syntax divided
  91              	@ 104 "../../os/hal/src/spi.c" 1
  92 0008 9FF021E3 		msr     CPSR_c, #0x9F
  93              	@ 0 "" 2
  94              		.loc 1 107 0
  95              		.arm
  96              		.syntax unified
  97 000c 041080E5 		str	r1, [r0, #4]
  98              		.loc 1 108 0
  99 0010 FEFFFFEB 		bl	spi_lld_start
 100              	.LVL5:
 101              		.loc 1 109 0
 102 0014 0230A0E3 		mov	r3, #2
 103 0018 0030C4E5 		strb	r3, [r4]
 104              		.loc 1 110 0
 105              		.syntax divided
 106              	@ 110 "../../os/hal/src/spi.c" 1
 107 001c 1FF021E3 		msr     CPSR_c, #0x1F
 108              	@ 0 "" 2
 109              		.arm
 110              		.syntax unified
 111 0020 1080BDE8 		pop	{r4, pc}
 112              		.cfi_endproc
 113              	.LFE9:
 114              		.size	spiStart, .-spiStart
ARM GAS  /tmp/ccUWkYJa.s 			page 3


 115              		.section	.text.spiStop,"ax",%progbits
 116              		.align	2
 117              		.global	spiStop
 118              		.syntax unified
 119              		.arm
 120              		.fpu softvfp
 121              		.type	spiStop, %function
 122              	spiStop:
 123              	.LFB10:
 124              		.loc 1 122 0
 125              		.cfi_startproc
 126              		@ args = 0, pretend = 0, frame = 0
 127              		@ frame_needed = 0, uses_anonymous_args = 0
 128              	.LVL6:
 129 0000 10402DE9 		push	{r4, lr}
 130              		.cfi_def_cfa_offset 8
 131              		.cfi_offset 4, -8
 132              		.cfi_offset 14, -4
 133              		.loc 1 122 0
 134 0004 0040A0E1 		mov	r4, r0
 135              		.loc 1 126 0
 136              		.syntax divided
 137              	@ 126 "../../os/hal/src/spi.c" 1
 138 0008 9FF021E3 		msr     CPSR_c, #0x9F
 139              	@ 0 "" 2
 140              		.loc 1 129 0
 141              		.arm
 142              		.syntax unified
 143 000c FEFFFFEB 		bl	spi_lld_unselect
 144              	.LVL7:
 145              		.loc 1 130 0
 146 0010 0400A0E1 		mov	r0, r4
 147 0014 FEFFFFEB 		bl	spi_lld_stop
 148              	.LVL8:
 149              		.loc 1 131 0
 150 0018 0130A0E3 		mov	r3, #1
 151 001c 0030C4E5 		strb	r3, [r4]
 152              		.loc 1 132 0
 153              		.syntax divided
 154              	@ 132 "../../os/hal/src/spi.c" 1
 155 0020 1FF021E3 		msr     CPSR_c, #0x1F
 156              	@ 0 "" 2
 157              		.arm
 158              		.syntax unified
 159 0024 1080BDE8 		pop	{r4, pc}
 160              		.cfi_endproc
 161              	.LFE10:
 162              		.size	spiStop, .-spiStop
 163              		.section	.text.spiSelect,"ax",%progbits
 164              		.align	2
 165              		.global	spiSelect
 166              		.syntax unified
 167              		.arm
 168              		.fpu softvfp
 169              		.type	spiSelect, %function
 170              	spiSelect:
 171              	.LFB11:
ARM GAS  /tmp/ccUWkYJa.s 			page 4


 172              		.loc 1 142 0
 173              		.cfi_startproc
 174              		@ args = 0, pretend = 0, frame = 0
 175              		@ frame_needed = 0, uses_anonymous_args = 0
 176              	.LVL9:
 177 0000 10402DE9 		push	{r4, lr}
 178              		.cfi_def_cfa_offset 8
 179              		.cfi_offset 4, -8
 180              		.cfi_offset 14, -4
 181              		.loc 1 146 0
 182              		.syntax divided
 183              	@ 146 "../../os/hal/src/spi.c" 1
 184 0004 9FF021E3 		msr     CPSR_c, #0x9F
 185              	@ 0 "" 2
 186              		.loc 1 148 0
 187              		.arm
 188              		.syntax unified
 189 0008 FEFFFFEB 		bl	spi_lld_select
 190              	.LVL10:
 191              		.loc 1 149 0
 192              		.syntax divided
 193              	@ 149 "../../os/hal/src/spi.c" 1
 194 000c 1FF021E3 		msr     CPSR_c, #0x1F
 195              	@ 0 "" 2
 196              		.arm
 197              		.syntax unified
 198 0010 1080BDE8 		pop	{r4, pc}
 199              		.cfi_endproc
 200              	.LFE11:
 201              		.size	spiSelect, .-spiSelect
 202              		.section	.text.spiUnselect,"ax",%progbits
 203              		.align	2
 204              		.global	spiUnselect
 205              		.syntax unified
 206              		.arm
 207              		.fpu softvfp
 208              		.type	spiUnselect, %function
 209              	spiUnselect:
 210              	.LFB12:
 211              		.loc 1 160 0
 212              		.cfi_startproc
 213              		@ args = 0, pretend = 0, frame = 0
 214              		@ frame_needed = 0, uses_anonymous_args = 0
 215              	.LVL11:
 216 0000 10402DE9 		push	{r4, lr}
 217              		.cfi_def_cfa_offset 8
 218              		.cfi_offset 4, -8
 219              		.cfi_offset 14, -4
 220              		.loc 1 164 0
 221              		.syntax divided
 222              	@ 164 "../../os/hal/src/spi.c" 1
 223 0004 9FF021E3 		msr     CPSR_c, #0x9F
 224              	@ 0 "" 2
 225              		.loc 1 166 0
 226              		.arm
 227              		.syntax unified
 228 0008 FEFFFFEB 		bl	spi_lld_unselect
ARM GAS  /tmp/ccUWkYJa.s 			page 5


 229              	.LVL12:
 230              		.loc 1 167 0
 231              		.syntax divided
 232              	@ 167 "../../os/hal/src/spi.c" 1
 233 000c 1FF021E3 		msr     CPSR_c, #0x1F
 234              	@ 0 "" 2
 235              		.arm
 236              		.syntax unified
 237 0010 1080BDE8 		pop	{r4, pc}
 238              		.cfi_endproc
 239              	.LFE12:
 240              		.size	spiUnselect, .-spiUnselect
 241              		.section	.text.spiStartIgnore,"ax",%progbits
 242              		.align	2
 243              		.global	spiStartIgnore
 244              		.syntax unified
 245              		.arm
 246              		.fpu softvfp
 247              		.type	spiStartIgnore, %function
 248              	spiStartIgnore:
 249              	.LFB13:
 250              		.loc 1 183 0
 251              		.cfi_startproc
 252              		@ args = 0, pretend = 0, frame = 0
 253              		@ frame_needed = 0, uses_anonymous_args = 0
 254              	.LVL13:
 255 0000 10402DE9 		push	{r4, lr}
 256              		.cfi_def_cfa_offset 8
 257              		.cfi_offset 4, -8
 258              		.cfi_offset 14, -4
 259              		.loc 1 187 0
 260              		.syntax divided
 261              	@ 187 "../../os/hal/src/spi.c" 1
 262 0004 9FF021E3 		msr     CPSR_c, #0x9F
 263              	@ 0 "" 2
 264              		.loc 1 189 0
 265              		.arm
 266              		.syntax unified
 267 0008 0320A0E3 		mov	r2, #3
 268 000c 0020C0E5 		strb	r2, [r0]
 269 0010 FEFFFFEB 		bl	spi_lld_ignore
 270              	.LVL14:
 271              		.loc 1 190 0
 272              		.syntax divided
 273              	@ 190 "../../os/hal/src/spi.c" 1
 274 0014 1FF021E3 		msr     CPSR_c, #0x1F
 275              	@ 0 "" 2
 276              		.arm
 277              		.syntax unified
 278 0018 1080BDE8 		pop	{r4, pc}
 279              		.cfi_endproc
 280              	.LFE13:
 281              		.size	spiStartIgnore, .-spiStartIgnore
 282              		.section	.text.spiStartExchange,"ax",%progbits
 283              		.align	2
 284              		.global	spiStartExchange
 285              		.syntax unified
ARM GAS  /tmp/ccUWkYJa.s 			page 6


 286              		.arm
 287              		.fpu softvfp
 288              		.type	spiStartExchange, %function
 289              	spiStartExchange:
 290              	.LFB14:
 291              		.loc 1 211 0
 292              		.cfi_startproc
 293              		@ args = 0, pretend = 0, frame = 0
 294              		@ frame_needed = 0, uses_anonymous_args = 0
 295              	.LVL15:
 296 0000 10402DE9 		push	{r4, lr}
 297              		.cfi_def_cfa_offset 8
 298              		.cfi_offset 4, -8
 299              		.cfi_offset 14, -4
 300              		.loc 1 216 0
 301              		.syntax divided
 302              	@ 216 "../../os/hal/src/spi.c" 1
 303 0004 9FF021E3 		msr     CPSR_c, #0x9F
 304              	@ 0 "" 2
 305              		.loc 1 218 0
 306              		.arm
 307              		.syntax unified
 308 0008 03E0A0E3 		mov	lr, #3
 309 000c 00E0C0E5 		strb	lr, [r0]
 310 0010 FEFFFFEB 		bl	spi_lld_exchange
 311              	.LVL16:
 312              		.loc 1 219 0
 313              		.syntax divided
 314              	@ 219 "../../os/hal/src/spi.c" 1
 315 0014 1FF021E3 		msr     CPSR_c, #0x1F
 316              	@ 0 "" 2
 317              		.arm
 318              		.syntax unified
 319 0018 1080BDE8 		pop	{r4, pc}
 320              		.cfi_endproc
 321              	.LFE14:
 322              		.size	spiStartExchange, .-spiStartExchange
 323              		.section	.text.spiStartSend,"ax",%progbits
 324              		.align	2
 325              		.global	spiStartSend
 326              		.syntax unified
 327              		.arm
 328              		.fpu softvfp
 329              		.type	spiStartSend, %function
 330              	spiStartSend:
 331              	.LFB15:
 332              		.loc 1 237 0
 333              		.cfi_startproc
 334              		@ args = 0, pretend = 0, frame = 0
 335              		@ frame_needed = 0, uses_anonymous_args = 0
 336              	.LVL17:
 337 0000 10402DE9 		push	{r4, lr}
 338              		.cfi_def_cfa_offset 8
 339              		.cfi_offset 4, -8
 340              		.cfi_offset 14, -4
 341              		.loc 1 242 0
 342              		.syntax divided
ARM GAS  /tmp/ccUWkYJa.s 			page 7


 343              	@ 242 "../../os/hal/src/spi.c" 1
 344 0004 9FF021E3 		msr     CPSR_c, #0x9F
 345              	@ 0 "" 2
 346              		.loc 1 244 0
 347              		.arm
 348              		.syntax unified
 349 0008 03C0A0E3 		mov	ip, #3
 350 000c 00C0C0E5 		strb	ip, [r0]
 351 0010 FEFFFFEB 		bl	spi_lld_send
 352              	.LVL18:
 353              		.loc 1 245 0
 354              		.syntax divided
 355              	@ 245 "../../os/hal/src/spi.c" 1
 356 0014 1FF021E3 		msr     CPSR_c, #0x1F
 357              	@ 0 "" 2
 358              		.arm
 359              		.syntax unified
 360 0018 1080BDE8 		pop	{r4, pc}
 361              		.cfi_endproc
 362              	.LFE15:
 363              		.size	spiStartSend, .-spiStartSend
 364              		.section	.text.spiStartReceive,"ax",%progbits
 365              		.align	2
 366              		.global	spiStartReceive
 367              		.syntax unified
 368              		.arm
 369              		.fpu softvfp
 370              		.type	spiStartReceive, %function
 371              	spiStartReceive:
 372              	.LFB16:
 373              		.loc 1 263 0
 374              		.cfi_startproc
 375              		@ args = 0, pretend = 0, frame = 0
 376              		@ frame_needed = 0, uses_anonymous_args = 0
 377              	.LVL19:
 378 0000 10402DE9 		push	{r4, lr}
 379              		.cfi_def_cfa_offset 8
 380              		.cfi_offset 4, -8
 381              		.cfi_offset 14, -4
 382              		.loc 1 268 0
 383              		.syntax divided
 384              	@ 268 "../../os/hal/src/spi.c" 1
 385 0004 9FF021E3 		msr     CPSR_c, #0x9F
 386              	@ 0 "" 2
 387              		.loc 1 270 0
 388              		.arm
 389              		.syntax unified
 390 0008 03C0A0E3 		mov	ip, #3
 391 000c 00C0C0E5 		strb	ip, [r0]
 392 0010 FEFFFFEB 		bl	spi_lld_receive
 393              	.LVL20:
 394              		.loc 1 271 0
 395              		.syntax divided
 396              	@ 271 "../../os/hal/src/spi.c" 1
 397 0014 1FF021E3 		msr     CPSR_c, #0x1F
 398              	@ 0 "" 2
 399              		.arm
ARM GAS  /tmp/ccUWkYJa.s 			page 8


 400              		.syntax unified
 401 0018 1080BDE8 		pop	{r4, pc}
 402              		.cfi_endproc
 403              	.LFE16:
 404              		.size	spiStartReceive, .-spiStartReceive
 405              		.section	.text.spiIgnore,"ax",%progbits
 406              		.align	2
 407              		.global	spiIgnore
 408              		.syntax unified
 409              		.arm
 410              		.fpu softvfp
 411              		.type	spiIgnore, %function
 412              	spiIgnore:
 413              	.LFB17:
 414              		.loc 1 289 0
 415              		.cfi_startproc
 416              		@ args = 0, pretend = 0, frame = 0
 417              		@ frame_needed = 0, uses_anonymous_args = 0
 418              	.LVL21:
 419 0000 10402DE9 		push	{r4, lr}
 420              		.cfi_def_cfa_offset 8
 421              		.cfi_offset 4, -8
 422              		.cfi_offset 14, -4
 423              		.loc 1 289 0
 424 0004 0040A0E1 		mov	r4, r0
 425              		.loc 1 293 0
 426              		.syntax divided
 427              	@ 293 "../../os/hal/src/spi.c" 1
 428 0008 9FF021E3 		msr     CPSR_c, #0x9F
 429              	@ 0 "" 2
 430              		.loc 1 296 0
 431              		.arm
 432              		.syntax unified
 433 000c 0330A0E3 		mov	r3, #3
 434 0010 0030C0E5 		strb	r3, [r0]
 435 0014 FEFFFFEB 		bl	spi_lld_ignore
 436              	.LVL22:
 437              		.loc 1 297 0
 438 0018 14309FE5 		ldr	r3, .L21
 439 001c 0200A0E3 		mov	r0, #2
 440 0020 183093E5 		ldr	r3, [r3, #24]
 441 0024 083084E5 		str	r3, [r4, #8]
 442 0028 FEFFFFEB 		bl	chSchGoSleepS
 443              	.LVL23:
 444              		.loc 1 298 0
 445              		.syntax divided
 446              	@ 298 "../../os/hal/src/spi.c" 1
 447 002c 1FF021E3 		msr     CPSR_c, #0x1F
 448              	@ 0 "" 2
 449              		.arm
 450              		.syntax unified
 451 0030 1080BDE8 		pop	{r4, pc}
 452              	.L22:
 453              		.align	2
 454              	.L21:
 455 0034 00000000 		.word	rlist
 456              		.cfi_endproc
ARM GAS  /tmp/ccUWkYJa.s 			page 9


 457              	.LFE17:
 458              		.size	spiIgnore, .-spiIgnore
 459              		.section	.text.spiExchange,"ax",%progbits
 460              		.align	2
 461              		.global	spiExchange
 462              		.syntax unified
 463              		.arm
 464              		.fpu softvfp
 465              		.type	spiExchange, %function
 466              	spiExchange:
 467              	.LFB18:
 468              		.loc 1 320 0
 469              		.cfi_startproc
 470              		@ args = 0, pretend = 0, frame = 0
 471              		@ frame_needed = 0, uses_anonymous_args = 0
 472              	.LVL24:
 473 0000 10402DE9 		push	{r4, lr}
 474              		.cfi_def_cfa_offset 8
 475              		.cfi_offset 4, -8
 476              		.cfi_offset 14, -4
 477              		.loc 1 320 0
 478 0004 0040A0E1 		mov	r4, r0
 479              		.loc 1 325 0
 480              		.syntax divided
 481              	@ 325 "../../os/hal/src/spi.c" 1
 482 0008 9FF021E3 		msr     CPSR_c, #0x9F
 483              	@ 0 "" 2
 484              		.loc 1 329 0
 485              		.arm
 486              		.syntax unified
 487 000c 03C0A0E3 		mov	ip, #3
 488 0010 00C0C0E5 		strb	ip, [r0]
 489 0014 FEFFFFEB 		bl	spi_lld_exchange
 490              	.LVL25:
 491              		.loc 1 330 0
 492 0018 14309FE5 		ldr	r3, .L25
 493 001c 0200A0E3 		mov	r0, #2
 494 0020 183093E5 		ldr	r3, [r3, #24]
 495 0024 083084E5 		str	r3, [r4, #8]
 496 0028 FEFFFFEB 		bl	chSchGoSleepS
 497              	.LVL26:
 498              		.loc 1 331 0
 499              		.syntax divided
 500              	@ 331 "../../os/hal/src/spi.c" 1
 501 002c 1FF021E3 		msr     CPSR_c, #0x1F
 502              	@ 0 "" 2
 503              		.arm
 504              		.syntax unified
 505 0030 1080BDE8 		pop	{r4, pc}
 506              	.L26:
 507              		.align	2
 508              	.L25:
 509 0034 00000000 		.word	rlist
 510              		.cfi_endproc
 511              	.LFE18:
 512              		.size	spiExchange, .-spiExchange
 513              		.section	.text.spiSend,"ax",%progbits
ARM GAS  /tmp/ccUWkYJa.s 			page 10


 514              		.align	2
 515              		.global	spiSend
 516              		.syntax unified
 517              		.arm
 518              		.fpu softvfp
 519              		.type	spiSend, %function
 520              	spiSend:
 521              	.LFB19:
 522              		.loc 1 350 0
 523              		.cfi_startproc
 524              		@ args = 0, pretend = 0, frame = 0
 525              		@ frame_needed = 0, uses_anonymous_args = 0
 526              	.LVL27:
 527 0000 10402DE9 		push	{r4, lr}
 528              		.cfi_def_cfa_offset 8
 529              		.cfi_offset 4, -8
 530              		.cfi_offset 14, -4
 531              		.loc 1 350 0
 532 0004 0040A0E1 		mov	r4, r0
 533              		.loc 1 354 0
 534              		.syntax divided
 535              	@ 354 "../../os/hal/src/spi.c" 1
 536 0008 9FF021E3 		msr     CPSR_c, #0x9F
 537              	@ 0 "" 2
 538              		.loc 1 357 0
 539              		.arm
 540              		.syntax unified
 541 000c 0330A0E3 		mov	r3, #3
 542 0010 0030C0E5 		strb	r3, [r0]
 543 0014 FEFFFFEB 		bl	spi_lld_send
 544              	.LVL28:
 545              		.loc 1 358 0
 546 0018 14309FE5 		ldr	r3, .L29
 547 001c 0200A0E3 		mov	r0, #2
 548 0020 183093E5 		ldr	r3, [r3, #24]
 549 0024 083084E5 		str	r3, [r4, #8]
 550 0028 FEFFFFEB 		bl	chSchGoSleepS
 551              	.LVL29:
 552              		.loc 1 359 0
 553              		.syntax divided
 554              	@ 359 "../../os/hal/src/spi.c" 1
 555 002c 1FF021E3 		msr     CPSR_c, #0x1F
 556              	@ 0 "" 2
 557              		.arm
 558              		.syntax unified
 559 0030 1080BDE8 		pop	{r4, pc}
 560              	.L30:
 561              		.align	2
 562              	.L29:
 563 0034 00000000 		.word	rlist
 564              		.cfi_endproc
 565              	.LFE19:
 566              		.size	spiSend, .-spiSend
 567              		.section	.text.spiReceive,"ax",%progbits
 568              		.align	2
 569              		.global	spiReceive
 570              		.syntax unified
ARM GAS  /tmp/ccUWkYJa.s 			page 11


 571              		.arm
 572              		.fpu softvfp
 573              		.type	spiReceive, %function
 574              	spiReceive:
 575              	.LFB20:
 576              		.loc 1 378 0
 577              		.cfi_startproc
 578              		@ args = 0, pretend = 0, frame = 0
 579              		@ frame_needed = 0, uses_anonymous_args = 0
 580              	.LVL30:
 581 0000 10402DE9 		push	{r4, lr}
 582              		.cfi_def_cfa_offset 8
 583              		.cfi_offset 4, -8
 584              		.cfi_offset 14, -4
 585              		.loc 1 378 0
 586 0004 0040A0E1 		mov	r4, r0
 587              		.loc 1 383 0
 588              		.syntax divided
 589              	@ 383 "../../os/hal/src/spi.c" 1
 590 0008 9FF021E3 		msr     CPSR_c, #0x9F
 591              	@ 0 "" 2
 592              		.loc 1 387 0
 593              		.arm
 594              		.syntax unified
 595 000c 0330A0E3 		mov	r3, #3
 596 0010 0030C0E5 		strb	r3, [r0]
 597 0014 FEFFFFEB 		bl	spi_lld_receive
 598              	.LVL31:
 599              		.loc 1 388 0
 600 0018 14309FE5 		ldr	r3, .L33
 601 001c 0200A0E3 		mov	r0, #2
 602 0020 183093E5 		ldr	r3, [r3, #24]
 603 0024 083084E5 		str	r3, [r4, #8]
 604 0028 FEFFFFEB 		bl	chSchGoSleepS
 605              	.LVL32:
 606              		.loc 1 389 0
 607              		.syntax divided
 608              	@ 389 "../../os/hal/src/spi.c" 1
 609 002c 1FF021E3 		msr     CPSR_c, #0x1F
 610              	@ 0 "" 2
 611              		.arm
 612              		.syntax unified
 613 0030 1080BDE8 		pop	{r4, pc}
 614              	.L34:
 615              		.align	2
 616              	.L33:
 617 0034 00000000 		.word	rlist
 618              		.cfi_endproc
 619              	.LFE20:
 620              		.size	spiReceive, .-spiReceive
 621              		.section	.text.spiAcquireBus,"ax",%progbits
 622              		.align	2
 623              		.global	spiAcquireBus
 624              		.syntax unified
 625              		.arm
 626              		.fpu softvfp
 627              		.type	spiAcquireBus, %function
ARM GAS  /tmp/ccUWkYJa.s 			page 12


 628              	spiAcquireBus:
 629              	.LFB21:
 630              		.loc 1 405 0
 631              		.cfi_startproc
 632              		@ args = 0, pretend = 0, frame = 0
 633              		@ frame_needed = 0, uses_anonymous_args = 0
 634              		@ link register save eliminated.
 635              	.LVL33:
 636              		.loc 1 410 0
 637 0000 0C0080E2 		add	r0, r0, #12
 638              	.LVL34:
 639 0004 FEFFFFEA 		b	chMtxLock
 640              	.LVL35:
 641              		.cfi_endproc
 642              	.LFE21:
 643              		.size	spiAcquireBus, .-spiAcquireBus
 644              		.section	.text.spiReleaseBus,"ax",%progbits
 645              		.align	2
 646              		.global	spiReleaseBus
 647              		.syntax unified
 648              		.arm
 649              		.fpu softvfp
 650              		.type	spiReleaseBus, %function
 651              	spiReleaseBus:
 652              	.LFB22:
 653              		.loc 1 425 0
 654              		.cfi_startproc
 655              		@ args = 0, pretend = 0, frame = 0
 656              		@ frame_needed = 0, uses_anonymous_args = 0
 657              		@ link register save eliminated.
 658              	.LVL36:
 659              		.loc 1 431 0
 660 0000 FEFFFFEA 		b	chMtxUnlock
 661              	.LVL37:
 662              		.cfi_endproc
 663              	.LFE22:
 664              		.size	spiReleaseBus, .-spiReleaseBus
 665              		.text
 666              	.Letext0:
 667              		.file 2 "/usr/lib/gcc/arm-none-eabi/6.3.1/include/stddef.h"
 668              		.file 3 "/usr/include/newlib/machine/_default_types.h"
 669              		.file 4 "/usr/include/newlib/sys/_stdint.h"
 670              		.file 5 "../../os/ports/GCC/ARM/chtypes.h"
 671              		.file 6 "../../os/kernel/include/chlists.h"
 672              		.file 7 "../../os/kernel/include/chthreads.h"
 673              		.file 8 "../../os/ports/GCC/ARM/chcore.h"
 674              		.file 9 "../../os/kernel/include/chvt.h"
 675              		.file 10 "../../os/kernel/include/chschd.h"
 676              		.file 11 "../../os/kernel/include/chmtx.h"
 677              		.file 12 "../../os/kernel/include/chevents.h"
 678              		.file 13 "../../os/kernel/include/chregistry.h"
 679              		.file 14 "../../os/kernel/include/chqueues.h"
 680              		.file 15 "../../os/kernel/include/ch.h"
 681              		.file 16 "../../os/hal/platforms/BCM2835/bcm2835.h"
 682              		.file 17 "../../os/hal/platforms/BCM2835/pal_lld.h"
 683              		.file 18 "../../os/hal/include/i2c.h"
 684              		.file 19 "../../os/hal/platforms/BCM2835/i2c_lld.h"
ARM GAS  /tmp/ccUWkYJa.s 			page 13


 685              		.file 20 "../../os/hal/include/serial.h"
 686              		.file 21 "../../os/hal/include/spi.h"
 687              		.file 22 "../../os/hal/platforms/BCM2835/spi_lld.h"
 688              		.file 23 "../../os/hal/platforms/BCM2835/serial_lld.h"