ARM GAS  /tmp/ccUIGOEp.s 			page 1


   1              		.cpu arm1176jz-s
   2              		.eabi_attribute 20, 1
   3              		.eabi_attribute 21, 1
   4              		.eabi_attribute 23, 3
   5              		.eabi_attribute 24, 1
   6              		.eabi_attribute 25, 1
   7              		.eabi_attribute 26, 1
   8              		.eabi_attribute 30, 2
   9              		.eabi_attribute 34, 1
  10              		.eabi_attribute 18, 4
  11              		.file	"spi_lld.c"
  12              		.text
  13              	.Ltext0:
  14              		.cfi_sections	.debug_frame
  15              		.section	.text.spi_lld_serve_interrupt,"ax",%progbits
  16              		.align	2
  17              		.global	spi_lld_serve_interrupt
  18              		.syntax unified
  19              		.arm
  20              		.fpu softvfp
  21              		.type	spi_lld_serve_interrupt, %function
  22              	spi_lld_serve_interrupt:
  23              	.LFB7:
  24              		.file 1 "../../os/hal/platforms/BCM2835/spi_lld.c"
  25              		.loc 1 75 0
  26              		.cfi_startproc
  27              		@ args = 0, pretend = 0, frame = 0
  28              		@ frame_needed = 0, uses_anonymous_args = 0
  29              	.LVL0:
  30              		.loc 1 76 0
  31 0000 98319FE5 		ldr	r3, .L55
  32 0004 083293E5 		ldr	r3, [r3, #520]
  33 0008 010513E3 		tst	r3, #4194304
  34 000c 1EFF2F01 		bxeq	lr
  35              		.loc 1 77 0
  36 0010 8C319FE5 		ldr	r3, .L55+4
  37              		.loc 1 75 0
  38 0014 10402DE9 		push	{r4, lr}
  39              		.cfi_def_cfa_offset 8
  40              		.cfi_offset 4, -8
  41              		.cfi_offset 14, -4
  42              		.loc 1 77 0
  43 0018 002093E5 		ldr	r2, [r3]
  44 001c 0040A0E1 		mov	r4, r0
  45 0020 010812E3 		tst	r2, #65536
  46 0024 1900000A 		beq	.L4
  47              	.LVL1:
  48              	.LBB8:
  49              		.loc 1 79 0
  50 0028 242090E5 		ldr	r2, [r0, #36]
  51 002c 000052E3 		cmp	r2, #0
  52 0030 2700000A 		beq	.L13
  53              		.loc 1 81 0
  54 0034 041090E5 		ldr	r1, [r0, #4]
  55 0038 0410D1E5 		ldrb	r1, [r1, #4]	@ zero_extendqisi2
  56 003c 000051E3 		cmp	r1, #0
  57 0040 3F00000A 		beq	.L6
ARM GAS  /tmp/ccUIGOEp.s 			page 2


  58              	.LBB9:
  59              		.loc 1 84 0
  60 0044 001093E5 		ldr	r1, [r3]
  61              		.loc 1 83 0
  62 0048 20C090E5 		ldr	ip, [r0, #32]
  63              	.LVL2:
  64              		.loc 1 84 0
  65 004c 010711E3 		tst	r1, #262144
  66 0050 0E00000A 		beq	.L4
  67 0054 0C10A0E1 		mov	r1, ip
  68              		.loc 1 85 0
  69 0058 00E0A0E3 		mov	lr, #0
  70 005c 010000EA 		b	.L10
  71              	.LVL3:
  72              	.L52:
  73              		.loc 1 84 0 discriminator 1
  74 0060 000052E3 		cmp	r2, #0
  75 0064 0800000A 		beq	.L50
  76              	.L10:
  77              	.LVL4:
  78              		.loc 1 85 0
  79 0068 00005CE3 		cmp	ip, #0
  80 006c 0E00A001 		moveq	r0, lr
  81 0070 B000D111 		ldrhne	r0, [r1]
  82 0074 02108112 		addne	r1, r1, #2
  83              	.LVL5:
  84 0078 040083E5 		str	r0, [r3, #4]
  85              		.loc 1 84 0
  86 007c 000093E5 		ldr	r0, [r3]
  87              		.loc 1 86 0
  88 0080 022042E2 		sub	r2, r2, #2
  89              		.loc 1 84 0
  90 0084 010710E3 		tst	r0, #262144
  91 0088 F4FFFF1A 		bne	.L52
  92              	.L50:
  93 008c 242084E5 		str	r2, [r4, #36]
  94              	.LVL6:
  95              	.L4:
  96              	.LBE9:
  97              	.LBE8:
  98              		.loc 1 106 0
  99 0090 0C319FE5 		ldr	r3, .L55+4
 100 0094 002093E5 		ldr	r2, [r3]
 101 0098 020712E3 		tst	r2, #524288
 102 009c 0400001A 		bne	.L19
 103              	.L53:
 104 00a0 1080BDE8 		pop	{r4, pc}
 105              	.L20:
 106              	.LBB13:
 107              		.loc 1 107 0 discriminator 4
 108 00a4 1C2094E5 		ldr	r2, [r4, #28]
 109 00a8 041093E5 		ldr	r1, [r3, #4]
 110              	.LVL7:
 111 00ac 000052E3 		cmp	r2, #0
 112              	.LVL8:
 113 00b0 0010C215 		strbne	r1, [r2]
 114              	.LVL9:
ARM GAS  /tmp/ccUIGOEp.s 			page 3


 115              	.L19:
 116              	.LBE13:
 117              		.loc 1 107 0 is_stmt 0 discriminator 3
 118 00b4 002093E5 		ldr	r2, [r3]
 119 00b8 020812E3 		tst	r2, #131072
 120 00bc F8FFFF1A 		bne	.L20
 121 00c0 1080BDE8 		pop	{r4, pc}
 122              	.LVL10:
 123              	.L14:
 124              	.LBB14:
 125              	.LBB10:
 126              		.loc 1 99 0 is_stmt 1 discriminator 4
 127 00c4 1C2094E5 		ldr	r2, [r4, #28]
 128 00c8 041093E5 		ldr	r1, [r3, #4]
 129              	.LVL11:
 130 00cc 000052E3 		cmp	r2, #0
 131              	.LVL12:
 132 00d0 0010C215 		strbne	r1, [r2]
 133              	.LVL13:
 134              	.L13:
 135              	.LBE10:
 136              		.loc 1 99 0 is_stmt 0 discriminator 3
 137 00d4 002093E5 		ldr	r2, [r3]
 138 00d8 020812E3 		tst	r2, #131072
 139 00dc F8FFFF1A 		bne	.L14
 140              		.loc 1 102 0 is_stmt 1
 141 00e0 041094E5 		ldr	r1, [r4, #4]
 142              		.loc 1 101 0
 143 00e4 002093E5 		ldr	r2, [r3]
 144              		.loc 1 102 0
 145 00e8 001091E5 		ldr	r1, [r1]
 146              		.loc 1 101 0
 147 00ec 1A2DC2E3 		bic	r2, r2, #1664
 148              		.loc 1 102 0
 149 00f0 000051E3 		cmp	r1, #0
 150              		.loc 1 101 0
 151 00f4 002083E5 		str	r2, [r3]
 152              		.loc 1 102 0
 153 00f8 2500000A 		beq	.L15
 154              		.loc 1 102 0 is_stmt 0 discriminator 1
 155 00fc 0430A0E3 		mov	r3, #4
 156 0100 0400A0E1 		mov	r0, r4
 157              	.LVL14:
 158 0104 0030C4E5 		strb	r3, [r4]
 159 0108 31FF2FE1 		blx	r1
 160              	.LVL15:
 161 010c 0030D4E5 		ldrb	r3, [r4]	@ zero_extendqisi2
 162 0110 040053E3 		cmp	r3, #4
 163 0114 1E00000A 		beq	.L15
 164              	.L16:
 165              		.loc 1 102 0 discriminator 4
 166 0118 080094E5 		ldr	r0, [r4, #8]
 167 011c 000050E3 		cmp	r0, #0
 168 0120 DAFFFF0A 		beq	.L4
 169              	.LVL16:
 170              	.LBB11:
 171              		.loc 1 102 0 discriminator 5
ARM GAS  /tmp/ccUIGOEp.s 			page 4


 172 0124 0030A0E3 		mov	r3, #0
 173 0128 083084E5 		str	r3, [r4, #8]
 174 012c FEFFFFEB 		bl	chSchReadyI
 175              	.LVL17:
 176              	.LBE11:
 177              	.LBE14:
 178              		.loc 1 106 0 is_stmt 1 discriminator 5
 179 0130 6C309FE5 		ldr	r3, .L55+4
 180 0134 002093E5 		ldr	r2, [r3]
 181 0138 020712E3 		tst	r2, #524288
 182 013c DCFFFF1A 		bne	.L19
 183 0140 D6FFFFEA 		b	.L53
 184              	.LVL18:
 185              	.L6:
 186              	.LBB15:
 187              	.LBB12:
 188              		.loc 1 91 0
 189 0144 000093E5 		ldr	r0, [r3]
 190              	.LVL19:
 191              		.loc 1 90 0
 192 0148 20C094E5 		ldr	ip, [r4, #32]
 193              	.LVL20:
 194              		.loc 1 91 0
 195 014c 010710E3 		tst	r0, #262144
 196 0150 CEFFFF0A 		beq	.L4
 197              		.loc 1 92 0
 198 0154 01E0A0E1 		mov	lr, r1
 199              		.loc 1 91 0
 200 0158 0C10A0E1 		mov	r1, ip
 201 015c 010000EA 		b	.L12
 202              	.LVL21:
 203              	.L54:
 204              		.loc 1 91 0 is_stmt 0 discriminator 1
 205 0160 000052E3 		cmp	r2, #0
 206 0164 C9FFFF0A 		beq	.L4
 207              	.L12:
 208              	.LVL22:
 209              		.loc 1 92 0 is_stmt 1
 210 0168 00005CE3 		cmp	ip, #0
 211 016c 0E00A001 		moveq	r0, lr
 212 0170 0000D115 		ldrbne	r0, [r1]	@ zero_extendqisi2
 213              		.loc 1 93 0
 214 0174 012042E2 		sub	r2, r2, #1
 215              		.loc 1 92 0
 216 0178 040083E5 		str	r0, [r3, #4]
 217              		.loc 1 91 0
 218 017c 000093E5 		ldr	r0, [r3]
 219              		.loc 1 92 0
 220 0180 01108112 		addne	r1, r1, #1
 221              	.LVL23:
 222              		.loc 1 91 0
 223 0184 010710E3 		tst	r0, #262144
 224              		.loc 1 93 0
 225 0188 242084E5 		str	r2, [r4, #36]
 226              		.loc 1 91 0
 227 018c F3FFFF1A 		bne	.L54
 228 0190 BEFFFFEA 		b	.L4
ARM GAS  /tmp/ccUIGOEp.s 			page 5


 229              	.LVL24:
 230              	.L15:
 231              	.LBE12:
 232              		.loc 1 102 0 discriminator 3
 233 0194 0230A0E3 		mov	r3, #2
 234 0198 0030C4E5 		strb	r3, [r4]
 235 019c DDFFFFEA 		b	.L16
 236              	.L56:
 237              		.align	2
 238              	.L55:
 239 01a0 00B00020 		.word	536915968
 240 01a4 00402020 		.word	538984448
 241              	.LBE15:
 242              		.cfi_endproc
 243              	.LFE7:
 244              		.size	spi_lld_serve_interrupt, .-spi_lld_serve_interrupt
 245              		.section	.text.spi_lld_init,"ax",%progbits
 246              		.align	2
 247              		.global	spi_lld_init
 248              		.syntax unified
 249              		.arm
 250              		.fpu softvfp
 251              		.type	spi_lld_init, %function
 252              	spi_lld_init:
 253              	.LFB8:
 254              		.loc 1 121 0
 255              		.cfi_startproc
 256              		@ args = 0, pretend = 0, frame = 0
 257              		@ frame_needed = 0, uses_anonymous_args = 0
 258              		@ link register save eliminated.
 259              		.loc 1 122 0
 260 0000 00009FE5 		ldr	r0, .L58
 261 0004 FEFFFFEA 		b	spiObjectInit
 262              	.LVL25:
 263              	.L59:
 264              		.align	2
 265              	.L58:
 266 0008 00000000 		.word	SPI0
 267              		.cfi_endproc
 268              	.LFE8:
 269              		.size	spi_lld_init, .-spi_lld_init
 270              		.section	.text.spi_lld_start,"ax",%progbits
 271              		.align	2
 272              		.global	spi_lld_start
 273              		.syntax unified
 274              		.arm
 275              		.fpu softvfp
 276              		.type	spi_lld_start, %function
 277              	spi_lld_start:
 278              	.LFB9:
 279              		.loc 1 132 0
 280              		.cfi_startproc
 281              		@ args = 0, pretend = 0, frame = 0
 282              		@ frame_needed = 0, uses_anonymous_args = 0
 283              	.LVL26:
 284 0000 10402DE9 		push	{r4, lr}
 285              		.cfi_def_cfa_offset 8
ARM GAS  /tmp/ccUIGOEp.s 			page 6


 286              		.cfi_offset 4, -8
 287              		.cfi_offset 14, -4
 288              		.loc 1 132 0
 289 0004 0040A0E1 		mov	r4, r0
 290              		.loc 1 135 0
 291 0008 AC209FE5 		ldr	r2, .L84
 292              		.loc 1 138 0
 293 000c 0410A0E3 		mov	r1, #4
 294              		.loc 1 135 0
 295 0010 203292E5 		ldr	r3, [r2, #544]
 296              		.loc 1 138 0
 297 0014 0700A0E3 		mov	r0, #7
 298              	.LVL27:
 299              		.loc 1 135 0
 300 0018 013583E3 		orr	r3, r3, #4194304
 301 001c 203282E5 		str	r3, [r2, #544]
 302              		.loc 1 138 0
 303 0020 FEFFFFEB 		bl	bcm2835_gpio_fnsel
 304              	.LVL28:
 305              		.loc 1 139 0
 306 0024 0410A0E3 		mov	r1, #4
 307 0028 0800A0E3 		mov	r0, #8
 308 002c FEFFFFEB 		bl	bcm2835_gpio_fnsel
 309              	.LVL29:
 310              		.loc 1 140 0
 311 0030 0410A0E3 		mov	r1, #4
 312 0034 0900A0E3 		mov	r0, #9
 313 0038 FEFFFFEB 		bl	bcm2835_gpio_fnsel
 314              	.LVL30:
 315              		.loc 1 141 0
 316 003c 0410A0E3 		mov	r1, #4
 317 0040 0A00A0E3 		mov	r0, #10
 318 0044 FEFFFFEB 		bl	bcm2835_gpio_fnsel
 319              	.LVL31:
 320              		.loc 1 142 0
 321 0048 0410A0E3 		mov	r1, #4
 322 004c 0B00A0E3 		mov	r0, #11
 323 0050 FEFFFFEB 		bl	bcm2835_gpio_fnsel
 324              	.LVL32:
 325              		.loc 1 149 0
 326 0054 042094E5 		ldr	r2, [r4, #4]
 327              	.LVL33:
 328              		.loc 1 151 0
 329 0058 0930D2E5 		ldrb	r3, [r2, #9]	@ zero_extendqisi2
 330              		.loc 1 154 0
 331 005c 0A10D2E5 		ldrb	r1, [r2, #10]	@ zero_extendqisi2
 332              		.loc 1 152 0
 333 0060 000053E3 		cmp	r3, #0
 334 0064 0830A013 		movne	r3, #8
 335 0068 0030A003 		moveq	r3, #0
 336              	.LVL34:
 337              		.loc 1 154 0
 338 006c 000051E3 		cmp	r1, #0
 339              		.loc 1 157 0
 340 0070 0610D2E5 		ldrb	r1, [r2, #6]	@ zero_extendqisi2
 341              		.loc 1 155 0
 342 0074 04308313 		orrne	r3, r3, #4
ARM GAS  /tmp/ccUIGOEp.s 			page 7


 343              	.LVL35:
 344              		.loc 1 157 0
 345 0078 000051E3 		cmp	r1, #0
 346              		.loc 1 160 0
 347 007c 0710D2E5 		ldrb	r1, [r2, #7]	@ zero_extendqisi2
 348              		.loc 1 158 0
 349 0080 40308313 		orrne	r3, r3, #64
 350              	.LVL36:
 351              		.loc 1 160 0
 352 0084 000051E3 		cmp	r1, #0
 353              		.loc 1 163 0
 354 0088 0810D2E5 		ldrb	r1, [r2, #8]	@ zero_extendqisi2
 355              		.loc 1 161 0
 356 008c 02368313 		orrne	r3, r3, #2097152
 357              	.LVL37:
 358              		.loc 1 163 0
 359 0090 000051E3 		cmp	r1, #0
 360              		.loc 1 166 0
 361 0094 0410D2E5 		ldrb	r1, [r2, #4]	@ zero_extendqisi2
 362              		.loc 1 164 0
 363 0098 01358313 		orrne	r3, r3, #4194304
 364              	.LVL38:
 365              		.loc 1 166 0
 366 009c 000051E3 		cmp	r1, #0
 367              		.loc 1 167 0
 368 00a0 023A8313 		orrne	r3, r3, #8192
 369              	.LVL39:
 370              		.loc 1 170 0
 371 00a4 14109FE5 		ldr	r1, .L84+4
 372 00a8 303083E3 		orr	r3, r3, #48
 373              	.LVL40:
 374 00ac 003081E5 		str	r3, [r1]
 375              	.LVL41:
 376              		.loc 1 172 0
 377 00b0 0C3092E5 		ldr	r3, [r2, #12]
 378 00b4 083081E5 		str	r3, [r1, #8]
 379 00b8 1080BDE8 		pop	{r4, pc}
 380              	.L85:
 381              		.align	2
 382              	.L84:
 383 00bc 00B00020 		.word	536915968
 384 00c0 00402020 		.word	538984448
 385              		.cfi_endproc
 386              	.LFE9:
 387              		.size	spi_lld_start, .-spi_lld_start
 388              		.section	.text.spi_lld_stop,"ax",%progbits
 389              		.align	2
 390              		.global	spi_lld_stop
 391              		.syntax unified
 392              		.arm
 393              		.fpu softvfp
 394              		.type	spi_lld_stop, %function
 395              	spi_lld_stop:
 396              	.LFB10:
 397              		.loc 1 182 0
 398              		.cfi_startproc
 399              		@ args = 0, pretend = 0, frame = 0
ARM GAS  /tmp/ccUIGOEp.s 			page 8


 400              		@ frame_needed = 0, uses_anonymous_args = 0
 401              	.LVL42:
 402              		.loc 1 185 0
 403 0000 4C209FE5 		ldr	r2, .L88
 404              		.loc 1 182 0
 405 0004 10402DE9 		push	{r4, lr}
 406              		.cfi_def_cfa_offset 8
 407              		.cfi_offset 4, -8
 408              		.cfi_offset 14, -4
 409              		.loc 1 185 0
 410 0008 203292E5 		ldr	r3, [r2, #544]
 411              		.loc 1 188 0
 412 000c 0010A0E3 		mov	r1, #0
 413              		.loc 1 185 0
 414 0010 013583E3 		orr	r3, r3, #4194304
 415 0014 203282E5 		str	r3, [r2, #544]
 416              		.loc 1 188 0
 417 0018 0700A0E3 		mov	r0, #7
 418              	.LVL43:
 419 001c FEFFFFEB 		bl	bcm2835_gpio_fnsel
 420              	.LVL44:
 421              		.loc 1 189 0
 422 0020 0010A0E3 		mov	r1, #0
 423 0024 0800A0E3 		mov	r0, #8
 424 0028 FEFFFFEB 		bl	bcm2835_gpio_fnsel
 425              	.LVL45:
 426              		.loc 1 190 0
 427 002c 0010A0E3 		mov	r1, #0
 428 0030 0900A0E3 		mov	r0, #9
 429 0034 FEFFFFEB 		bl	bcm2835_gpio_fnsel
 430              	.LVL46:
 431              		.loc 1 191 0
 432 0038 0010A0E3 		mov	r1, #0
 433 003c 0A00A0E3 		mov	r0, #10
 434 0040 FEFFFFEB 		bl	bcm2835_gpio_fnsel
 435              	.LVL47:
 436              		.loc 1 193 0
 437 0044 1040BDE8 		pop	{r4, lr}
 438              		.cfi_restore 14
 439              		.cfi_restore 4
 440              		.cfi_def_cfa_offset 0
 441              		.loc 1 192 0
 442 0048 0010A0E3 		mov	r1, #0
 443 004c 0B00A0E3 		mov	r0, #11
 444 0050 FEFFFFEA 		b	bcm2835_gpio_fnsel
 445              	.LVL48:
 446              	.L89:
 447              		.align	2
 448              	.L88:
 449 0054 00B00020 		.word	536915968
 450              		.cfi_endproc
 451              	.LFE10:
 452              		.size	spi_lld_stop, .-spi_lld_stop
 453              		.section	.text.spi_lld_select,"ax",%progbits
 454              		.align	2
 455              		.global	spi_lld_select
 456              		.syntax unified
ARM GAS  /tmp/ccUIGOEp.s 			page 9


 457              		.arm
 458              		.fpu softvfp
 459              		.type	spi_lld_select, %function
 460              	spi_lld_select:
 461              	.LFB11:
 462              		.loc 1 202 0
 463              		.cfi_startproc
 464              		@ args = 0, pretend = 0, frame = 0
 465              		@ frame_needed = 0, uses_anonymous_args = 0
 466              		@ link register save eliminated.
 467              	.LVL49:
 468              		.loc 1 205 0
 469 0000 043090E5 		ldr	r3, [r0, #4]
 470              		.loc 1 203 0
 471 0004 18109FE5 		ldr	r1, .L91
 472              		.loc 1 205 0
 473 0008 0530D3E5 		ldrb	r3, [r3, #5]	@ zero_extendqisi2
 474              		.loc 1 203 0
 475 000c 002091E5 		ldr	r2, [r1]
 476              	.LVL50:
 477              		.loc 1 205 0
 478 0010 033003E2 		and	r3, r3, #3
 479              		.loc 1 204 0
 480 0014 0320C2E3 		bic	r2, r2, #3
 481              	.LVL51:
 482              		.loc 1 205 0
 483 0018 023083E1 		orr	r3, r3, r2
 484              	.LVL52:
 485              		.loc 1 206 0
 486 001c 003081E5 		str	r3, [r1]
 487 0020 1EFF2FE1 		bx	lr
 488              	.L92:
 489              		.align	2
 490              	.L91:
 491 0024 00402020 		.word	538984448
 492              		.cfi_endproc
 493              	.LFE11:
 494              		.size	spi_lld_select, .-spi_lld_select
 495              		.section	.text.spi_lld_unselect,"ax",%progbits
 496              		.align	2
 497              		.global	spi_lld_unselect
 498              		.syntax unified
 499              		.arm
 500              		.fpu softvfp
 501              		.type	spi_lld_unselect, %function
 502              	spi_lld_unselect:
 503              	.LFB12:
 504              		.loc 1 217 0
 505              		.cfi_startproc
 506              		@ args = 0, pretend = 0, frame = 0
 507              		@ frame_needed = 0, uses_anonymous_args = 0
 508              		@ link register save eliminated.
 509              	.LVL53:
 510              		.loc 1 223 0
 511 0000 0C209FE5 		ldr	r2, .L94
 512 0004 003092E5 		ldr	r3, [r2]
 513 0008 0330C3E3 		bic	r3, r3, #3
ARM GAS  /tmp/ccUIGOEp.s 			page 10


 514 000c 003082E5 		str	r3, [r2]
 515 0010 1EFF2FE1 		bx	lr
 516              	.L95:
 517              		.align	2
 518              	.L94:
 519 0014 00402020 		.word	538984448
 520              		.cfi_endproc
 521              	.LFE12:
 522              		.size	spi_lld_unselect, .-spi_lld_unselect
 523              		.section	.text.spi_lld_ignore,"ax",%progbits
 524              		.align	2
 525              		.global	spi_lld_ignore
 526              		.syntax unified
 527              		.arm
 528              		.fpu softvfp
 529              		.type	spi_lld_ignore, %function
 530              	spi_lld_ignore:
 531              	.LFB13:
 532              		.loc 1 237 0
 533              		.cfi_startproc
 534              		@ args = 0, pretend = 0, frame = 0
 535              		@ frame_needed = 0, uses_anonymous_args = 0
 536              	.LVL54:
 537 0000 04E02DE5 		str	lr, [sp, #-4]!
 538              		.cfi_def_cfa_offset 4
 539              		.cfi_offset 14, -4
 540              	.LBB16:
 541              	.LBB17:
 542              		.loc 1 261 0
 543 0004 00E0A0E3 		mov	lr, #0
 544              		.loc 1 259 0
 545 0008 34309FE5 		ldr	r3, .L98
 546              		.loc 1 267 0
 547 000c 34C09FE5 		ldr	ip, .L98+4
 548              		.loc 1 259 0
 549 0010 002093E5 		ldr	r2, [r3]
 550 0014 302082E3 		orr	r2, r2, #48
 551 0018 002083E5 		str	r2, [r3]
 552              		.loc 1 266 0
 553 001c 002093E5 		ldr	r2, [r3]
 554              		.loc 1 262 0
 555 0020 241080E5 		str	r1, [r0, #36]
 556              		.loc 1 266 0
 557 0024 1A2D82E3 		orr	r2, r2, #1664
 558              		.loc 1 261 0
 559 0028 20E080E5 		str	lr, [r0, #32]
 560              		.loc 1 263 0
 561 002c 1CE080E5 		str	lr, [r0, #28]
 562              		.loc 1 266 0
 563 0030 002083E5 		str	r2, [r3]
 564              		.loc 1 267 0
 565 0034 14329CE5 		ldr	r3, [ip, #532]
 566 0038 013583E3 		orr	r3, r3, #4194304
 567 003c 14328CE5 		str	r3, [ip, #532]
 568              	.LVL55:
 569 0040 04F09DE4 		ldr	pc, [sp], #4
 570              	.L99:
ARM GAS  /tmp/ccUIGOEp.s 			page 11


 571              		.align	2
 572              	.L98:
 573 0044 00402020 		.word	538984448
 574 0048 00B00020 		.word	536915968
 575              	.LBE17:
 576              	.LBE16:
 577              		.cfi_endproc
 578              	.LFE13:
 579              		.size	spi_lld_ignore, .-spi_lld_ignore
 580              		.section	.text.spi_lld_exchange,"ax",%progbits
 581              		.align	2
 582              		.global	spi_lld_exchange
 583              		.syntax unified
 584              		.arm
 585              		.fpu softvfp
 586              		.type	spi_lld_exchange, %function
 587              	spi_lld_exchange:
 588              	.LFB14:
 589              		.loc 1 257 0
 590              		.cfi_startproc
 591              		@ args = 0, pretend = 0, frame = 0
 592              		@ frame_needed = 0, uses_anonymous_args = 0
 593              	.LVL56:
 594              		.loc 1 259 0
 595 0000 38C09FE5 		ldr	ip, .L102
 596              		.loc 1 257 0
 597 0004 10402DE9 		push	{r4, lr}
 598              		.cfi_def_cfa_offset 8
 599              		.cfi_offset 4, -8
 600              		.cfi_offset 14, -4
 601              		.loc 1 259 0
 602 0008 00E09CE5 		ldr	lr, [ip]
 603              		.loc 1 267 0
 604 000c 30409FE5 		ldr	r4, .L102+4
 605              		.loc 1 259 0
 606 0010 30E08EE3 		orr	lr, lr, #48
 607 0014 00E08CE5 		str	lr, [ip]
 608              		.loc 1 266 0
 609 0018 00E09CE5 		ldr	lr, [ip]
 610              		.loc 1 263 0
 611 001c 1C3080E5 		str	r3, [r0, #28]
 612              		.loc 1 266 0
 613 0020 1AED8EE3 		orr	lr, lr, #1664
 614              		.loc 1 261 0
 615 0024 202080E5 		str	r2, [r0, #32]
 616              		.loc 1 262 0
 617 0028 241080E5 		str	r1, [r0, #36]
 618              		.loc 1 266 0
 619 002c 00E08CE5 		str	lr, [ip]
 620              		.loc 1 267 0
 621 0030 143294E5 		ldr	r3, [r4, #532]
 622              	.LVL57:
 623 0034 013583E3 		orr	r3, r3, #4194304
 624 0038 143284E5 		str	r3, [r4, #532]
 625 003c 1080BDE8 		pop	{r4, pc}
 626              	.L103:
 627              		.align	2
ARM GAS  /tmp/ccUIGOEp.s 			page 12


 628              	.L102:
 629 0040 00402020 		.word	538984448
 630 0044 00B00020 		.word	536915968
 631              		.cfi_endproc
 632              	.LFE14:
 633              		.size	spi_lld_exchange, .-spi_lld_exchange
 634              		.section	.text.spi_lld_send,"ax",%progbits
 635              		.align	2
 636              		.global	spi_lld_send
 637              		.syntax unified
 638              		.arm
 639              		.fpu softvfp
 640              		.type	spi_lld_send, %function
 641              	spi_lld_send:
 642              	.LFB15:
 643              		.loc 1 283 0
 644              		.cfi_startproc
 645              		@ args = 0, pretend = 0, frame = 0
 646              		@ frame_needed = 0, uses_anonymous_args = 0
 647              	.LVL58:
 648 0000 10402DE9 		push	{r4, lr}
 649              		.cfi_def_cfa_offset 8
 650              		.cfi_offset 4, -8
 651              		.cfi_offset 14, -4
 652              	.LBB18:
 653              	.LBB19:
 654              		.loc 1 263 0
 655 0004 0040A0E3 		mov	r4, #0
 656              		.loc 1 259 0
 657 0008 34309FE5 		ldr	r3, .L106
 658              		.loc 1 267 0
 659 000c 34E09FE5 		ldr	lr, .L106+4
 660              		.loc 1 259 0
 661 0010 00C093E5 		ldr	ip, [r3]
 662 0014 30C08CE3 		orr	ip, ip, #48
 663 0018 00C083E5 		str	ip, [r3]
 664              		.loc 1 266 0
 665 001c 00C093E5 		ldr	ip, [r3]
 666              		.loc 1 261 0
 667 0020 202080E5 		str	r2, [r0, #32]
 668              		.loc 1 266 0
 669 0024 1ACD8CE3 		orr	ip, ip, #1664
 670              		.loc 1 262 0
 671 0028 241080E5 		str	r1, [r0, #36]
 672              		.loc 1 263 0
 673 002c 1C4080E5 		str	r4, [r0, #28]
 674              		.loc 1 266 0
 675 0030 00C083E5 		str	ip, [r3]
 676              		.loc 1 267 0
 677 0034 14329EE5 		ldr	r3, [lr, #532]
 678 0038 013583E3 		orr	r3, r3, #4194304
 679 003c 14328EE5 		str	r3, [lr, #532]
 680              	.LVL59:
 681 0040 1080BDE8 		pop	{r4, pc}
 682              	.L107:
 683              		.align	2
 684              	.L106:
ARM GAS  /tmp/ccUIGOEp.s 			page 13


 685 0044 00402020 		.word	538984448
 686 0048 00B00020 		.word	536915968
 687              	.LBE19:
 688              	.LBE18:
 689              		.cfi_endproc
 690              	.LFE15:
 691              		.size	spi_lld_send, .-spi_lld_send
 692              		.section	.text.spi_lld_receive,"ax",%progbits
 693              		.align	2
 694              		.global	spi_lld_receive
 695              		.syntax unified
 696              		.arm
 697              		.fpu softvfp
 698              		.type	spi_lld_receive, %function
 699              	spi_lld_receive:
 700              	.LFB16:
 701              		.loc 1 300 0
 702              		.cfi_startproc
 703              		@ args = 0, pretend = 0, frame = 0
 704              		@ frame_needed = 0, uses_anonymous_args = 0
 705              	.LVL60:
 706 0000 10402DE9 		push	{r4, lr}
 707              		.cfi_def_cfa_offset 8
 708              		.cfi_offset 4, -8
 709              		.cfi_offset 14, -4
 710              	.LBB20:
 711              	.LBB21:
 712              		.loc 1 261 0
 713 0004 0040A0E3 		mov	r4, #0
 714              		.loc 1 259 0
 715 0008 34309FE5 		ldr	r3, .L110
 716              		.loc 1 267 0
 717 000c 34E09FE5 		ldr	lr, .L110+4
 718              		.loc 1 259 0
 719 0010 00C093E5 		ldr	ip, [r3]
 720 0014 30C08CE3 		orr	ip, ip, #48
 721 0018 00C083E5 		str	ip, [r3]
 722              		.loc 1 266 0
 723 001c 00C093E5 		ldr	ip, [r3]
 724              		.loc 1 262 0
 725 0020 241080E5 		str	r1, [r0, #36]
 726              		.loc 1 266 0
 727 0024 1ACD8CE3 		orr	ip, ip, #1664
 728              		.loc 1 263 0
 729 0028 1C2080E5 		str	r2, [r0, #28]
 730              		.loc 1 261 0
 731 002c 204080E5 		str	r4, [r0, #32]
 732              		.loc 1 266 0
 733 0030 00C083E5 		str	ip, [r3]
 734              		.loc 1 267 0
 735 0034 14329EE5 		ldr	r3, [lr, #532]
 736 0038 013583E3 		orr	r3, r3, #4194304
 737 003c 14328EE5 		str	r3, [lr, #532]
 738              	.LVL61:
 739 0040 1080BDE8 		pop	{r4, pc}
 740              	.L111:
 741              		.align	2
ARM GAS  /tmp/ccUIGOEp.s 			page 14


 742              	.L110:
 743 0044 00402020 		.word	538984448
 744 0048 00B00020 		.word	536915968
 745              	.LBE21:
 746              	.LBE20:
 747              		.cfi_endproc
 748              	.LFE16:
 749              		.size	spi_lld_receive, .-spi_lld_receive
 750              		.section	.text.spi_lld_polled_exchange,"ax",%progbits
 751              		.align	2
 752              		.global	spi_lld_polled_exchange
 753              		.syntax unified
 754              		.arm
 755              		.fpu softvfp
 756              		.type	spi_lld_polled_exchange, %function
 757              	spi_lld_polled_exchange:
 758              	.LFB17:
 759              		.loc 1 316 0
 760              		.cfi_startproc
 761              		@ args = 0, pretend = 0, frame = 0
 762              		@ frame_needed = 0, uses_anonymous_args = 0
 763              		@ link register save eliminated.
 764              	.LVL62:
 765              		.loc 1 320 0
 766 0000 44309FE5 		ldr	r3, .L119
 767              		.loc 1 323 0
 768 0004 0300A0E1 		mov	r0, r3
 769              	.LVL63:
 770              		.loc 1 320 0
 771 0008 002093E5 		ldr	r2, [r3]
 772 000c B02082E3 		orr	r2, r2, #176
 773 0010 002083E5 		str	r2, [r3]
 774              	.L113:
 775              		.loc 1 323 0 discriminator 1
 776 0014 003090E5 		ldr	r3, [r0]
 777 0018 010713E3 		tst	r3, #262144
 778 001c FCFFFF0A 		beq	.L113
 779              		.loc 1 329 0
 780 0020 24209FE5 		ldr	r2, .L119
 781              		.loc 1 326 0
 782 0024 041080E5 		str	r1, [r0, #4]
 783              	.L114:
 784              		.loc 1 329 0 discriminator 1
 785 0028 003092E5 		ldr	r3, [r2]
 786 002c 010813E3 		tst	r3, #65536
 787 0030 FCFFFF0A 		beq	.L114
 788              		.loc 1 332 0
 789 0034 040092E5 		ldr	r0, [r2, #4]
 790              	.LVL64:
 791              		.loc 1 335 0
 792 0038 003092E5 		ldr	r3, [r2]
 793              		.loc 1 338 0
 794 003c 7000FFE6 		uxth	r0, r0
 795              		.loc 1 335 0
 796 0040 8030C3E3 		bic	r3, r3, #128
 797 0044 003082E5 		str	r3, [r2]
 798              		.loc 1 338 0
ARM GAS  /tmp/ccUIGOEp.s 			page 15


 799 0048 1EFF2FE1 		bx	lr
 800              	.L120:
 801              		.align	2
 802              	.L119:
 803 004c 00402020 		.word	538984448
 804              		.cfi_endproc
 805              	.LFE17:
 806              		.size	spi_lld_polled_exchange, .-spi_lld_polled_exchange
 807              		.comm	SPI0,40,4
 808              		.text
 809              	.Letext0:
 810              		.file 2 "/usr/lib/gcc/arm-none-eabi/6.3.1/include/stddef.h"
 811              		.file 3 "/usr/include/newlib/machine/_default_types.h"
 812              		.file 4 "/usr/include/newlib/sys/_stdint.h"
 813              		.file 5 "../../os/ports/GCC/ARM/chtypes.h"
 814              		.file 6 "../../os/kernel/include/chlists.h"
 815              		.file 7 "../../os/kernel/include/chthreads.h"
 816              		.file 8 "../../os/ports/GCC/ARM/chcore.h"
 817              		.file 9 "../../os/kernel/include/chvt.h"
 818              		.file 10 "../../os/kernel/include/chschd.h"
 819              		.file 11 "../../os/kernel/include/chmtx.h"
 820              		.file 12 "../../os/kernel/include/chevents.h"
 821              		.file 13 "../../os/kernel/include/chregistry.h"
 822              		.file 14 "../../os/kernel/include/chqueues.h"
 823              		.file 15 "../../os/kernel/include/ch.h"
 824              		.file 16 "../../os/hal/platforms/BCM2835/bcm2835.h"
 825              		.file 17 "../../os/hal/platforms/BCM2835/pal_lld.h"
 826              		.file 18 "../../os/hal/include/i2c.h"
 827              		.file 19 "../../os/hal/platforms/BCM2835/i2c_lld.h"
 828              		.file 20 "../../os/hal/include/serial.h"
 829              		.file 21 "../../os/hal/include/spi.h"
 830              		.file 22 "../../os/hal/platforms/BCM2835/spi_lld.h"
 831              		.file 23 "../../os/hal/platforms/BCM2835/serial_lld.h"