ARM GAS  /tmp/cctc61Pg.s 			page 1


   1              		.cpu arm1176jz-s
   2              		.eabi_attribute 20, 1
   3              		.eabi_attribute 21, 1
   4              		.eabi_attribute 23, 3
   5              		.eabi_attribute 24, 1
   6              		.eabi_attribute 25, 1
   7              		.eabi_attribute 26, 1
   8              		.eabi_attribute 30, 2
   9              		.eabi_attribute 34, 1
  10              		.eabi_attribute 18, 4
  11              		.file	"testheap.c"
  12              		.text
  13              	.Ltext0:
  14              		.cfi_sections	.debug_frame
  15              		.section	.text.heap1_execute,"ax",%progbits
  16              		.align	2
  17              		.syntax unified
  18              		.arm
  19              		.fpu softvfp
  20              		.type	heap1_execute, %function
  21              	heap1_execute:
  22              	.LFB8:
  23              		.file 1 "../../test/testheap.c"
  24              		.loc 1 73 0
  25              		.cfi_startproc
  26              		@ args = 0, pretend = 0, frame = 8
  27              		@ frame_needed = 0, uses_anonymous_args = 0
  28 0000 70402DE9 		push	{r4, r5, r6, lr}
  29              		.cfi_def_cfa_offset 16
  30              		.cfi_offset 4, -16
  31              		.cfi_offset 5, -12
  32              		.cfi_offset 6, -8
  33              		.cfi_offset 14, -4
  34 0004 08D04DE2 		sub	sp, sp, #8
  35              		.cfi_def_cfa_offset 24
  36              		.loc 1 78 0
  37 0008 FEFFFFEB 		bl	chCoreStatus
  38              	.LVL0:
  39              		.loc 1 84 0
  40 000c 04108DE2 		add	r1, sp, #4
  41 0010 0000A0E3 		mov	r0, #0
  42 0014 FEFFFFEB 		bl	chHeapStatus
  43              	.LVL1:
  44              		.loc 1 85 0
  45 0018 1010A0E3 		mov	r1, #16
  46 001c 0000A0E3 		mov	r0, #0
  47 0020 FEFFFFEB 		bl	chHeapAlloc
  48              	.LVL2:
  49              		.loc 1 86 0
  50 0024 001090E2 		adds	r1, r0, #0
  51 0028 0110A013 		movne	r1, #1
  52 002c 0040A0E1 		mov	r4, r0
  53 0030 0100A0E3 		mov	r0, #1
  54              	.LVL3:
  55 0034 FEFFFFEB 		bl	_test_assert
  56              	.LVL4:
  57 0038 005050E2 		subs	r5, r0, #0
ARM GAS  /tmp/cctc61Pg.s 			page 2


  58 003c 0100000A 		beq	.L9
  59              	.LVL5:
  60              	.L1:
  61              		.loc 1 144 0
  62 0040 08D08DE2 		add	sp, sp, #8
  63              		.cfi_remember_state
  64              		.cfi_def_cfa_offset 16
  65              		@ sp needed
  66 0044 7080BDE8 		pop	{r4, r5, r6, pc}
  67              	.LVL6:
  68              	.L9:
  69              		.cfi_restore_state
  70              		.loc 1 87 0
  71 0048 0400A0E1 		mov	r0, r4
  72 004c FEFFFFEB 		bl	chHeapFree
  73              	.LVL7:
  74              		.loc 1 88 0
  75 0050 FF10E0E3 		mvn	r1, #255
  76 0054 0500A0E1 		mov	r0, r5
  77 0058 FEFFFFEB 		bl	chHeapAlloc
  78              	.LVL8:
  79              		.loc 1 89 0
  80 005c 101F6FE1 		clz	r1, r0
  81 0060 0200A0E3 		mov	r0, #2
  82              	.LVL9:
  83 0064 A112A0E1 		lsr	r1, r1, #5
  84 0068 FEFFFFEB 		bl	_test_assert
  85              	.LVL10:
  86 006c 000050E3 		cmp	r0, #0
  87 0070 F2FFFF1A 		bne	.L1
  88              		.loc 1 92 0
  89 0074 04108DE2 		add	r1, sp, #4
  90 0078 CC029FE5 		ldr	r0, .L10
  91 007c FEFFFFEB 		bl	chHeapStatus
  92              	.LVL11:
  93              		.loc 1 95 0
  94 0080 1010A0E3 		mov	r1, #16
  95 0084 C0029FE5 		ldr	r0, .L10
  96 0088 FEFFFFEB 		bl	chHeapAlloc
  97              	.LVL12:
  98              		.loc 1 96 0
  99 008c 1010A0E3 		mov	r1, #16
 100              		.loc 1 95 0
 101 0090 0060A0E1 		mov	r6, r0
 102              	.LVL13:
 103              		.loc 1 96 0
 104 0094 B0029FE5 		ldr	r0, .L10
 105              	.LVL14:
 106 0098 FEFFFFEB 		bl	chHeapAlloc
 107              	.LVL15:
 108              		.loc 1 97 0
 109 009c 1010A0E3 		mov	r1, #16
 110              		.loc 1 96 0
 111 00a0 0050A0E1 		mov	r5, r0
 112              	.LVL16:
 113              		.loc 1 97 0
 114 00a4 A0029FE5 		ldr	r0, .L10
ARM GAS  /tmp/cctc61Pg.s 			page 3


 115              	.LVL17:
 116 00a8 FEFFFFEB 		bl	chHeapAlloc
 117              	.LVL18:
 118 00ac 0040A0E1 		mov	r4, r0
 119              	.LVL19:
 120              		.loc 1 98 0
 121 00b0 0600A0E1 		mov	r0, r6
 122              	.LVL20:
 123 00b4 FEFFFFEB 		bl	chHeapFree
 124              	.LVL21:
 125              		.loc 1 99 0
 126 00b8 0500A0E1 		mov	r0, r5
 127 00bc FEFFFFEB 		bl	chHeapFree
 128              	.LVL22:
 129              		.loc 1 100 0
 130 00c0 0400A0E1 		mov	r0, r4
 131 00c4 FEFFFFEB 		bl	chHeapFree
 132              	.LVL23:
 133              		.loc 1 101 0
 134 00c8 0D10A0E1 		mov	r1, sp
 135 00cc 78029FE5 		ldr	r0, .L10
 136 00d0 FEFFFFEB 		bl	chHeapStatus
 137              	.LVL24:
 138 00d4 011040E2 		sub	r1, r0, #1
 139 00d8 111F6FE1 		clz	r1, r1
 140 00dc 0300A0E3 		mov	r0, #3
 141 00e0 A112A0E1 		lsr	r1, r1, #5
 142 00e4 FEFFFFEB 		bl	_test_assert
 143              	.LVL25:
 144 00e8 000050E3 		cmp	r0, #0
 145 00ec D3FFFF1A 		bne	.L1
 146              		.loc 1 104 0
 147 00f0 1010A0E3 		mov	r1, #16
 148 00f4 50029FE5 		ldr	r0, .L10
 149 00f8 FEFFFFEB 		bl	chHeapAlloc
 150              	.LVL26:
 151              		.loc 1 105 0
 152 00fc 1010A0E3 		mov	r1, #16
 153              		.loc 1 104 0
 154 0100 0040A0E1 		mov	r4, r0
 155              	.LVL27:
 156              		.loc 1 105 0
 157 0104 40029FE5 		ldr	r0, .L10
 158              	.LVL28:
 159 0108 FEFFFFEB 		bl	chHeapAlloc
 160              	.LVL29:
 161 010c 0050A0E1 		mov	r5, r0
 162              	.LVL30:
 163              		.loc 1 106 0
 164 0110 1010A0E3 		mov	r1, #16
 165 0114 30029FE5 		ldr	r0, .L10
 166              	.LVL31:
 167 0118 FEFFFFEB 		bl	chHeapAlloc
 168              	.LVL32:
 169              		.loc 1 107 0
 170 011c FEFFFFEB 		bl	chHeapFree
 171              	.LVL33:
ARM GAS  /tmp/cctc61Pg.s 			page 4


 172              		.loc 1 108 0
 173 0120 0500A0E1 		mov	r0, r5
 174 0124 FEFFFFEB 		bl	chHeapFree
 175              	.LVL34:
 176              		.loc 1 109 0
 177 0128 0400A0E1 		mov	r0, r4
 178 012c FEFFFFEB 		bl	chHeapFree
 179              	.LVL35:
 180              		.loc 1 110 0
 181 0130 0D10A0E1 		mov	r1, sp
 182 0134 10029FE5 		ldr	r0, .L10
 183 0138 FEFFFFEB 		bl	chHeapStatus
 184              	.LVL36:
 185 013c 011040E2 		sub	r1, r0, #1
 186 0140 111F6FE1 		clz	r1, r1
 187 0144 0400A0E3 		mov	r0, #4
 188 0148 A112A0E1 		lsr	r1, r1, #5
 189 014c FEFFFFEB 		bl	_test_assert
 190              	.LVL37:
 191 0150 000050E3 		cmp	r0, #0
 192 0154 B9FFFF1A 		bne	.L1
 193              		.loc 1 113 0
 194 0158 1110A0E3 		mov	r1, #17
 195 015c E8019FE5 		ldr	r0, .L10
 196 0160 FEFFFFEB 		bl	chHeapAlloc
 197              	.LVL38:
 198              		.loc 1 114 0
 199 0164 1010A0E3 		mov	r1, #16
 200              		.loc 1 113 0
 201 0168 0040A0E1 		mov	r4, r0
 202              	.LVL39:
 203              		.loc 1 114 0
 204 016c D8019FE5 		ldr	r0, .L10
 205              	.LVL40:
 206 0170 FEFFFFEB 		bl	chHeapAlloc
 207              	.LVL41:
 208 0174 0050A0E1 		mov	r5, r0
 209              	.LVL42:
 210              		.loc 1 115 0
 211 0178 0400A0E1 		mov	r0, r4
 212              	.LVL43:
 213 017c FEFFFFEB 		bl	chHeapFree
 214              	.LVL44:
 215              		.loc 1 116 0
 216 0180 0D10A0E1 		mov	r1, sp
 217 0184 C0019FE5 		ldr	r0, .L10
 218 0188 FEFFFFEB 		bl	chHeapStatus
 219              	.LVL45:
 220 018c 021040E2 		sub	r1, r0, #2
 221 0190 111F6FE1 		clz	r1, r1
 222 0194 0500A0E3 		mov	r0, #5
 223 0198 A112A0E1 		lsr	r1, r1, #5
 224 019c FEFFFFEB 		bl	_test_assert
 225              	.LVL46:
 226 01a0 000050E3 		cmp	r0, #0
 227 01a4 A5FFFF1A 		bne	.L1
 228              		.loc 1 117 0
ARM GAS  /tmp/cctc61Pg.s 			page 5


 229 01a8 1010A0E3 		mov	r1, #16
 230 01ac 98019FE5 		ldr	r0, .L10
 231 01b0 FEFFFFEB 		bl	chHeapAlloc
 232              	.LVL47:
 233              		.loc 1 120 0
 234 01b4 0D10A0E1 		mov	r1, sp
 235              		.loc 1 117 0
 236 01b8 0040A0E1 		mov	r4, r0
 237              	.LVL48:
 238              		.loc 1 120 0
 239 01bc 88019FE5 		ldr	r0, .L10
 240              	.LVL49:
 241 01c0 FEFFFFEB 		bl	chHeapStatus
 242              	.LVL50:
 243 01c4 010050E3 		cmp	r0, #1
 244 01c8 0010A001 		moveq	r1, r0
 245 01cc 0500000A 		beq	.L5
 246              		.loc 1 120 0 is_stmt 0 discriminator 2
 247 01d0 0D10A0E1 		mov	r1, sp
 248 01d4 70019FE5 		ldr	r0, .L10
 249 01d8 FEFFFFEB 		bl	chHeapStatus
 250              	.LVL51:
 251 01dc 021040E2 		sub	r1, r0, #2
 252 01e0 111F6FE1 		clz	r1, r1
 253 01e4 A112A0E1 		lsr	r1, r1, #5
 254              	.L5:
 255              		.loc 1 120 0 discriminator 6
 256 01e8 0600A0E3 		mov	r0, #6
 257 01ec FEFFFFEB 		bl	_test_assert
 258              	.LVL52:
 259 01f0 000050E3 		cmp	r0, #0
 260 01f4 91FFFF1A 		bne	.L1
 261              		.loc 1 122 0 is_stmt 1
 262 01f8 0500A0E1 		mov	r0, r5
 263 01fc FEFFFFEB 		bl	chHeapFree
 264              	.LVL53:
 265              		.loc 1 123 0
 266 0200 0400A0E1 		mov	r0, r4
 267 0204 FEFFFFEB 		bl	chHeapFree
 268              	.LVL54:
 269              		.loc 1 124 0
 270 0208 0D10A0E1 		mov	r1, sp
 271 020c 38019FE5 		ldr	r0, .L10
 272 0210 FEFFFFEB 		bl	chHeapStatus
 273              	.LVL55:
 274 0214 011040E2 		sub	r1, r0, #1
 275 0218 111F6FE1 		clz	r1, r1
 276 021c 0700A0E3 		mov	r0, #7
 277 0220 A112A0E1 		lsr	r1, r1, #5
 278 0224 FEFFFFEB 		bl	_test_assert
 279              	.LVL56:
 280 0228 000050E3 		cmp	r0, #0
 281 022c 83FFFF1A 		bne	.L1
 282              		.loc 1 127 0
 283 0230 1010A0E3 		mov	r1, #16
 284 0234 10019FE5 		ldr	r0, .L10
 285 0238 FEFFFFEB 		bl	chHeapAlloc
ARM GAS  /tmp/cctc61Pg.s 			page 6


 286              	.LVL57:
 287              		.loc 1 128 0
 288 023c 1010A0E3 		mov	r1, #16
 289              		.loc 1 127 0
 290 0240 0050A0E1 		mov	r5, r0
 291              	.LVL58:
 292              		.loc 1 128 0
 293 0244 00019FE5 		ldr	r0, .L10
 294              	.LVL59:
 295 0248 FEFFFFEB 		bl	chHeapAlloc
 296              	.LVL60:
 297 024c 0040A0E1 		mov	r4, r0
 298              	.LVL61:
 299              		.loc 1 129 0
 300 0250 0500A0E1 		mov	r0, r5
 301              	.LVL62:
 302 0254 FEFFFFEB 		bl	chHeapFree
 303              	.LVL63:
 304              		.loc 1 130 0
 305 0258 0D10A0E1 		mov	r1, sp
 306 025c E8009FE5 		ldr	r0, .L10
 307 0260 FEFFFFEB 		bl	chHeapStatus
 308              	.LVL64:
 309 0264 021040E2 		sub	r1, r0, #2
 310 0268 111F6FE1 		clz	r1, r1
 311 026c 0800A0E3 		mov	r0, #8
 312 0270 A112A0E1 		lsr	r1, r1, #5
 313 0274 FEFFFFEB 		bl	_test_assert
 314              	.LVL65:
 315 0278 000050E3 		cmp	r0, #0
 316 027c 6FFFFF1A 		bne	.L1
 317              		.loc 1 131 0
 318 0280 2010A0E3 		mov	r1, #32
 319 0284 C0009FE5 		ldr	r0, .L10
 320 0288 FEFFFFEB 		bl	chHeapAlloc
 321              	.LVL66:
 322              		.loc 1 132 0
 323 028c FEFFFFEB 		bl	chHeapFree
 324              	.LVL67:
 325              		.loc 1 133 0
 326 0290 0400A0E1 		mov	r0, r4
 327 0294 FEFFFFEB 		bl	chHeapFree
 328              	.LVL68:
 329              		.loc 1 134 0
 330 0298 0D10A0E1 		mov	r1, sp
 331 029c A8009FE5 		ldr	r0, .L10
 332 02a0 FEFFFFEB 		bl	chHeapStatus
 333              	.LVL69:
 334 02a4 011040E2 		sub	r1, r0, #1
 335 02a8 111F6FE1 		clz	r1, r1
 336 02ac 0900A0E3 		mov	r0, #9
 337 02b0 A112A0E1 		lsr	r1, r1, #5
 338 02b4 FEFFFFEB 		bl	_test_assert
 339              	.LVL70:
 340 02b8 000050E3 		cmp	r0, #0
 341 02bc 5FFFFF1A 		bne	.L1
 342              		.loc 1 137 0
ARM GAS  /tmp/cctc61Pg.s 			page 7


 343 02c0 0D10A0E1 		mov	r1, sp
 344 02c4 80009FE5 		ldr	r0, .L10
 345 02c8 FEFFFFEB 		bl	chHeapStatus
 346              	.LVL71:
 347              		.loc 1 138 0
 348 02cc 00109DE5 		ldr	r1, [sp]
 349 02d0 74009FE5 		ldr	r0, .L10
 350 02d4 FEFFFFEB 		bl	chHeapAlloc
 351              	.LVL72:
 352              		.loc 1 139 0
 353 02d8 0D10A0E1 		mov	r1, sp
 354              		.loc 1 138 0
 355 02dc 0040A0E1 		mov	r4, r0
 356              	.LVL73:
 357              		.loc 1 139 0
 358 02e0 64009FE5 		ldr	r0, .L10
 359              	.LVL74:
 360 02e4 FEFFFFEB 		bl	chHeapStatus
 361              	.LVL75:
 362 02e8 101F6FE1 		clz	r1, r0
 363 02ec 0A00A0E3 		mov	r0, #10
 364 02f0 A112A0E1 		lsr	r1, r1, #5
 365 02f4 FEFFFFEB 		bl	_test_assert
 366              	.LVL76:
 367 02f8 000050E3 		cmp	r0, #0
 368 02fc 4FFFFF1A 		bne	.L1
 369              		.loc 1 140 0
 370 0300 0400A0E1 		mov	r0, r4
 371 0304 FEFFFFEB 		bl	chHeapFree
 372              	.LVL77:
 373              		.loc 1 142 0
 374 0308 0D10A0E1 		mov	r1, sp
 375 030c 38009FE5 		ldr	r0, .L10
 376 0310 FEFFFFEB 		bl	chHeapStatus
 377              	.LVL78:
 378 0314 011040E2 		sub	r1, r0, #1
 379 0318 111F6FE1 		clz	r1, r1
 380 031c 0B00A0E3 		mov	r0, #11
 381 0320 A112A0E1 		lsr	r1, r1, #5
 382 0324 FEFFFFEB 		bl	_test_assert
 383              	.LVL79:
 384 0328 000050E3 		cmp	r0, #0
 385 032c 43FFFF1A 		bne	.L1
 386              		.loc 1 143 0
 387 0330 0A009DE8 		ldm	sp, {r1, r3}
 388 0334 031041E0 		sub	r1, r1, r3
 389 0338 111F6FE1 		clz	r1, r1
 390 033c 0C00A0E3 		mov	r0, #12
 391 0340 A112A0E1 		lsr	r1, r1, #5
 392 0344 FEFFFFEB 		bl	_test_assert
 393              	.LVL80:
 394 0348 3CFFFFEA 		b	.L1
 395              	.L11:
 396              		.align	2
 397              	.L10:
 398 034c 00000000 		.word	.LANCHOR0
 399              		.cfi_endproc
ARM GAS  /tmp/cctc61Pg.s 			page 8


 400              	.LFE8:
 401              		.size	heap1_execute, .-heap1_execute
 402              		.section	.text.heap1_setup,"ax",%progbits
 403              		.align	2
 404              		.syntax unified
 405              		.arm
 406              		.fpu softvfp
 407              		.type	heap1_setup, %function
 408              	heap1_setup:
 409              	.LFB7:
 410              		.loc 1 68 0
 411              		.cfi_startproc
 412              		@ args = 0, pretend = 0, frame = 0
 413              		@ frame_needed = 0, uses_anonymous_args = 0
 414              		@ link register save eliminated.
 415              		.loc 1 70 0
 416 0000 08209FE5 		ldr	r2, .L13
 417 0004 08109FE5 		ldr	r1, .L13+4
 418 0008 08009FE5 		ldr	r0, .L13+8
 419 000c FEFFFFEA 		b	chHeapInit
 420              	.LVL81:
 421              	.L14:
 422              		.align	2
 423              	.L13:
 424 0010 78050000 		.word	1400
 425 0014 00000000 		.word	test
 426 0018 00000000 		.word	.LANCHOR0
 427              		.cfi_endproc
 428              	.LFE7:
 429              		.size	heap1_setup, .-heap1_setup
 430              		.global	patternheap
 431              		.global	testheap1
 432              		.section	.bss.test_heap,"aw",%nobits
 433              		.align	2
 434              		.set	.LANCHOR0,. + 0
 435              		.type	test_heap, %object
 436              		.size	test_heap, 28
 437              	test_heap:
 438 0000 00000000 		.space	28
 438      00000000 
 438      00000000 
 438      00000000 
 438      00000000 
 439              		.section	.rodata.patternheap,"a",%progbits
 440              		.align	2
 441              		.type	patternheap, %object
 442              		.size	patternheap, 8
 443              	patternheap:
 444 0000 00000000 		.word	testheap1
 445 0004 00000000 		.word	0
 446              		.section	.rodata.str1.4,"aMS",%progbits,1
 447              		.align	2
 448              	.LC0:
 449 0000 48656170 		.ascii	"Heap, allocation and fragmentation test\000"
 449      2C20616C 
 449      6C6F6361 
 449      74696F6E 
ARM GAS  /tmp/cctc61Pg.s 			page 9


 449      20616E64 
 450              		.section	.rodata.testheap1,"a",%progbits
 451              		.align	2
 452              		.type	testheap1, %object
 453              		.size	testheap1, 16
 454              	testheap1:
 455 0000 00000000 		.word	.LC0
 456 0004 00000000 		.word	heap1_setup
 457 0008 00000000 		.word	0
 458 000c 00000000 		.word	heap1_execute
 459              		.text
 460              	.Letext0:
 461              		.file 2 "/usr/lib/gcc/arm-none-eabi/6.3.1/include/stddef.h"
 462              		.file 3 "/usr/include/newlib/machine/_default_types.h"
 463              		.file 4 "/usr/include/newlib/sys/_stdint.h"
 464              		.file 5 "../../os/ports/GCC/ARM/chtypes.h"
 465              		.file 6 "../../os/kernel/include/chlists.h"
 466              		.file 7 "../../os/kernel/include/chthreads.h"
 467              		.file 8 "../../os/ports/GCC/ARM/chcore.h"
 468              		.file 9 "../../os/kernel/include/chvt.h"
 469              		.file 10 "../../os/kernel/include/chschd.h"
 470              		.file 11 "../../os/kernel/include/chmtx.h"
 471              		.file 12 "../../os/kernel/include/chmemcore.h"
 472              		.file 13 "../../os/kernel/include/chheap.h"
 473              		.file 14 "../../os/kernel/include/chregistry.h"
 474              		.file 15 "../../os/kernel/include/ch.h"
 475              		.file 16 "../../test/test.h"
 476              		.section	.debug_info,"",%progbits
 477              	.Ldebug_info0:
 478 0000 250E0000 		.4byte	0xe25
 479 0004 0400     		.2byte	0x4
 480 0006 00000000 		.4byte	.Ldebug_abbrev0
 481 000a 04       		.byte	0x4
 482 000b 01       		.uleb128 0x1
 483 000c B7040000 		.4byte	.LASF133
 484 0010 0C       		.byte	0xc
 485 0011 5C030000 		.4byte	.LASF134
 486 0015 49000000 		.4byte	.LASF135
 487 0019 00000000 		.4byte	.Ldebug_ranges0+0
 488 001d 00000000 		.4byte	0
 489 0021 00000000 		.4byte	.Ldebug_line0
 490 0025 02       		.uleb128 0x2
 491 0026 04       		.byte	0x4
 492 0027 05       		.byte	0x5
 493 0028 696E7400 		.ascii	"int\000"
 494 002c 03       		.uleb128 0x3
 495 002d 06000000 		.4byte	.LASF2
 496 0031 02       		.byte	0x2
 497 0032 D8       		.byte	0xd8
 498 0033 37000000 		.4byte	0x37
 499 0037 04       		.uleb128 0x4
 500 0038 04       		.byte	0x4
 501 0039 07       		.byte	0x7
 502 003a C0010000 		.4byte	.LASF0
 503 003e 04       		.uleb128 0x4
 504 003f 01       		.byte	0x1
 505 0040 06       		.byte	0x6
ARM GAS  /tmp/cctc61Pg.s 			page 10


 506 0041 ED000000 		.4byte	.LASF1
 507 0045 03       		.uleb128 0x3
 508 0046 14000000 		.4byte	.LASF3
 509 004a 03       		.byte	0x3
 510 004b 1D       		.byte	0x1d
 511 004c 50000000 		.4byte	0x50
 512 0050 04       		.uleb128 0x4
 513 0051 01       		.byte	0x1
 514 0052 08       		.byte	0x8
 515 0053 7A030000 		.4byte	.LASF4
 516 0057 04       		.uleb128 0x4
 517 0058 02       		.byte	0x2
 518 0059 05       		.byte	0x5
 519 005a 9D030000 		.4byte	.LASF5
 520 005e 03       		.uleb128 0x3
 521 005f 72040000 		.4byte	.LASF6
 522 0063 03       		.byte	0x3
 523 0064 2B       		.byte	0x2b
 524 0065 69000000 		.4byte	0x69
 525 0069 04       		.uleb128 0x4
 526 006a 02       		.byte	0x2
 527 006b 07       		.byte	0x7
 528 006c 36020000 		.4byte	.LASF7
 529 0070 03       		.uleb128 0x3
 530 0071 A6040000 		.4byte	.LASF8
 531 0075 03       		.byte	0x3
 532 0076 3F       		.byte	0x3f
 533 0077 7B000000 		.4byte	0x7b
 534 007b 04       		.uleb128 0x4
 535 007c 04       		.byte	0x4
 536 007d 05       		.byte	0x5
 537 007e 4C010000 		.4byte	.LASF9
 538 0082 03       		.uleb128 0x3
 539 0083 90010000 		.4byte	.LASF10
 540 0087 03       		.byte	0x3
 541 0088 41       		.byte	0x41
 542 0089 8D000000 		.4byte	0x8d
 543 008d 04       		.uleb128 0x4
 544 008e 04       		.byte	0x4
 545 008f 07       		.byte	0x7
 546 0090 E2010000 		.4byte	.LASF11
 547 0094 04       		.uleb128 0x4
 548 0095 08       		.byte	0x8
 549 0096 05       		.byte	0x5
 550 0097 DF000000 		.4byte	.LASF12
 551 009b 04       		.uleb128 0x4
 552 009c 08       		.byte	0x8
 553 009d 07       		.byte	0x7
 554 009e 32000000 		.4byte	.LASF13
 555 00a2 03       		.uleb128 0x3
 556 00a3 73050000 		.4byte	.LASF14
 557 00a7 04       		.byte	0x4
 558 00a8 18       		.byte	0x18
 559 00a9 45000000 		.4byte	0x45
 560 00ad 03       		.uleb128 0x3
 561 00ae 5E010000 		.4byte	.LASF15
 562 00b2 04       		.byte	0x4
ARM GAS  /tmp/cctc61Pg.s 			page 11


 563 00b3 24       		.byte	0x24
 564 00b4 5E000000 		.4byte	0x5e
 565 00b8 03       		.uleb128 0x3
 566 00b9 72030000 		.4byte	.LASF16
 567 00bd 04       		.byte	0x4
 568 00be 2C       		.byte	0x2c
 569 00bf 70000000 		.4byte	0x70
 570 00c3 03       		.uleb128 0x3
 571 00c4 31040000 		.4byte	.LASF17
 572 00c8 04       		.byte	0x4
 573 00c9 30       		.byte	0x30
 574 00ca 82000000 		.4byte	0x82
 575 00ce 03       		.uleb128 0x3
 576 00cf 1C010000 		.4byte	.LASF18
 577 00d3 05       		.byte	0x5
 578 00d4 29       		.byte	0x29
 579 00d5 B8000000 		.4byte	0xb8
 580 00d9 03       		.uleb128 0x3
 581 00da 5F020000 		.4byte	.LASF19
 582 00de 05       		.byte	0x5
 583 00df 2A       		.byte	0x2a
 584 00e0 A2000000 		.4byte	0xa2
 585 00e4 03       		.uleb128 0x3
 586 00e5 55010000 		.4byte	.LASF20
 587 00e9 05       		.byte	0x5
 588 00ea 2B       		.byte	0x2b
 589 00eb A2000000 		.4byte	0xa2
 590 00ef 03       		.uleb128 0x3
 591 00f0 32030000 		.4byte	.LASF21
 592 00f4 05       		.byte	0x5
 593 00f5 2C       		.byte	0x2c
 594 00f6 A2000000 		.4byte	0xa2
 595 00fa 03       		.uleb128 0x3
 596 00fb 42010000 		.4byte	.LASF22
 597 00ff 05       		.byte	0x5
 598 0100 2D       		.byte	0x2d
 599 0101 A2000000 		.4byte	0xa2
 600 0105 03       		.uleb128 0x3
 601 0106 54030000 		.4byte	.LASF23
 602 010a 05       		.byte	0x5
 603 010b 2E       		.byte	0x2e
 604 010c C3000000 		.4byte	0xc3
 605 0110 03       		.uleb128 0x3
 606 0111 49020000 		.4byte	.LASF24
 607 0115 05       		.byte	0x5
 608 0116 2F       		.byte	0x2f
 609 0117 B8000000 		.4byte	0xb8
 610 011b 03       		.uleb128 0x3
 611 011c 73020000 		.4byte	.LASF25
 612 0120 05       		.byte	0x5
 613 0121 31       		.byte	0x31
 614 0122 C3000000 		.4byte	0xc3
 615 0126 03       		.uleb128 0x3
 616 0127 91040000 		.4byte	.LASF26
 617 012b 05       		.byte	0x5
 618 012c 33       		.byte	0x33
 619 012d C3000000 		.4byte	0xc3
ARM GAS  /tmp/cctc61Pg.s 			page 12


 620 0131 05       		.uleb128 0x5
 621 0132 26010000 		.4byte	0x126
 622 0136 03       		.uleb128 0x3
 623 0137 FD030000 		.4byte	.LASF27
 624 013b 06       		.byte	0x6
 625 013c 23       		.byte	0x23
 626 013d 41010000 		.4byte	0x141
 627 0141 06       		.uleb128 0x6
 628 0142 FD030000 		.4byte	.LASF27
 629 0146 44       		.byte	0x44
 630 0147 07       		.byte	0x7
 631 0148 57       		.byte	0x57
 632 0149 32020000 		.4byte	0x232
 633 014d 07       		.uleb128 0x7
 634 014e DF030000 		.4byte	.LASF28
 635 0152 07       		.byte	0x7
 636 0153 58       		.byte	0x58
 637 0154 53020000 		.4byte	0x253
 638 0158 00       		.byte	0
 639 0159 07       		.uleb128 0x7
 640 015a 45030000 		.4byte	.LASF29
 641 015e 07       		.byte	0x7
 642 015f 5A       		.byte	0x5a
 643 0160 53020000 		.4byte	0x253
 644 0164 04       		.byte	0x4
 645 0165 07       		.uleb128 0x7
 646 0166 B6000000 		.4byte	.LASF30
 647 016a 07       		.byte	0x7
 648 016b 5C       		.byte	0x5c
 649 016c 05010000 		.4byte	0x105
 650 0170 08       		.byte	0x8
 651 0171 07       		.uleb128 0x7
 652 0172 C5050000 		.4byte	.LASF31
 653 0176 07       		.byte	0x7
 654 0177 5D       		.byte	0x5d
 655 0178 13030000 		.4byte	0x313
 656 017c 0C       		.byte	0xc
 657 017d 07       		.uleb128 0x7
 658 017e 78010000 		.4byte	.LASF32
 659 0182 07       		.byte	0x7
 660 0183 5F       		.byte	0x5f
 661 0184 53020000 		.4byte	0x253
 662 0188 10       		.byte	0x10
 663 0189 07       		.uleb128 0x7
 664 018a EC020000 		.4byte	.LASF33
 665 018e 07       		.byte	0x7
 666 018f 60       		.byte	0x60
 667 0190 53020000 		.4byte	0x253
 668 0194 14       		.byte	0x14
 669 0195 07       		.uleb128 0x7
 670 0196 8C050000 		.4byte	.LASF34
 671 019a 07       		.byte	0x7
 672 019b 67       		.byte	0x67
 673 019c 9C050000 		.4byte	0x59c
 674 01a0 18       		.byte	0x18
 675 01a1 07       		.uleb128 0x7
 676 01a2 A7030000 		.4byte	.LASF35
ARM GAS  /tmp/cctc61Pg.s 			page 13


 677 01a6 07       		.byte	0x7
 678 01a7 72       		.byte	0x72
 679 01a8 E4000000 		.4byte	0xe4
 680 01ac 1C       		.byte	0x1c
 681 01ad 07       		.uleb128 0x7
 682 01ae F5030000 		.4byte	.LASF36
 683 01b2 07       		.byte	0x7
 684 01b3 76       		.byte	0x76
 685 01b4 D9000000 		.4byte	0xd9
 686 01b8 1D       		.byte	0x1d
 687 01b9 07       		.uleb128 0x7
 688 01ba 5C050000 		.4byte	.LASF37
 689 01be 07       		.byte	0x7
 690 01bf 7B       		.byte	0x7b
 691 01c0 EF000000 		.4byte	0xef
 692 01c4 1E       		.byte	0x1e
 693 01c5 07       		.uleb128 0x7
 694 01c6 AF030000 		.4byte	.LASF38
 695 01ca 07       		.byte	0x7
 696 01cb 81       		.byte	0x81
 697 01cc FA000000 		.4byte	0xfa
 698 01d0 1F       		.byte	0x1f
 699 01d1 07       		.uleb128 0x7
 700 01d2 B0040000 		.4byte	.LASF39
 701 01d6 07       		.byte	0x7
 702 01d7 88       		.byte	0x88
 703 01d8 31010000 		.4byte	0x131
 704 01dc 20       		.byte	0x20
 705 01dd 08       		.uleb128 0x8
 706 01de 705F7500 		.ascii	"p_u\000"
 707 01e2 07       		.byte	0x7
 708 01e3 AD       		.byte	0xad
 709 01e4 67050000 		.4byte	0x567
 710 01e8 24       		.byte	0x24
 711 01e9 07       		.uleb128 0x7
 712 01ea CB050000 		.4byte	.LASF40
 713 01ee 07       		.byte	0x7
 714 01ef B2       		.byte	0xb2
 715 01f0 79020000 		.4byte	0x279
 716 01f4 28       		.byte	0x28
 717 01f5 07       		.uleb128 0x7
 718 01f6 3F050000 		.4byte	.LASF41
 719 01fa 07       		.byte	0x7
 720 01fb B8       		.byte	0xb8
 721 01fc 59020000 		.4byte	0x259
 722 0200 2C       		.byte	0x2c
 723 0201 07       		.uleb128 0x7
 724 0202 00000000 		.4byte	.LASF42
 725 0206 07       		.byte	0x7
 726 0207 BC       		.byte	0xbc
 727 0208 10010000 		.4byte	0x110
 728 020c 34       		.byte	0x34
 729 020d 07       		.uleb128 0x7
 730 020e 26040000 		.4byte	.LASF43
 731 0212 07       		.byte	0x7
 732 0213 C2       		.byte	0xc2
 733 0214 1B010000 		.4byte	0x11b
ARM GAS  /tmp/cctc61Pg.s 			page 14


 734 0218 38       		.byte	0x38
 735 0219 07       		.uleb128 0x7
 736 021a 93030000 		.4byte	.LASF44
 737 021e 07       		.byte	0x7
 738 021f C9       		.byte	0xc9
 739 0220 AE050000 		.4byte	0x5ae
 740 0224 3C       		.byte	0x3c
 741 0225 07       		.uleb128 0x7
 742 0226 9B040000 		.4byte	.LASF45
 743 022a 07       		.byte	0x7
 744 022b CD       		.byte	0xcd
 745 022c 05010000 		.4byte	0x105
 746 0230 40       		.byte	0x40
 747 0231 00       		.byte	0
 748 0232 09       		.uleb128 0x9
 749 0233 08       		.byte	0x8
 750 0234 06       		.byte	0x6
 751 0235 5A       		.byte	0x5a
 752 0236 53020000 		.4byte	0x253
 753 023a 07       		.uleb128 0x7
 754 023b DF030000 		.4byte	.LASF28
 755 023f 06       		.byte	0x6
 756 0240 5B       		.byte	0x5b
 757 0241 53020000 		.4byte	0x253
 758 0245 00       		.byte	0
 759 0246 07       		.uleb128 0x7
 760 0247 45030000 		.4byte	.LASF29
 761 024b 06       		.byte	0x6
 762 024c 5D       		.byte	0x5d
 763 024d 53020000 		.4byte	0x253
 764 0251 04       		.byte	0x4
 765 0252 00       		.byte	0
 766 0253 0A       		.uleb128 0xa
 767 0254 04       		.byte	0x4
 768 0255 36010000 		.4byte	0x136
 769 0259 03       		.uleb128 0x3
 770 025a FA020000 		.4byte	.LASF46
 771 025e 06       		.byte	0x6
 772 025f 5F       		.byte	0x5f
 773 0260 32020000 		.4byte	0x232
 774 0264 09       		.uleb128 0x9
 775 0265 04       		.byte	0x4
 776 0266 06       		.byte	0x6
 777 0267 64       		.byte	0x64
 778 0268 79020000 		.4byte	0x279
 779 026c 07       		.uleb128 0x7
 780 026d DF030000 		.4byte	.LASF28
 781 0271 06       		.byte	0x6
 782 0272 66       		.byte	0x66
 783 0273 53020000 		.4byte	0x253
 784 0277 00       		.byte	0
 785 0278 00       		.byte	0
 786 0279 03       		.uleb128 0x3
 787 027a 67020000 		.4byte	.LASF47
 788 027e 06       		.byte	0x6
 789 027f 69       		.byte	0x69
 790 0280 64020000 		.4byte	0x264
ARM GAS  /tmp/cctc61Pg.s 			page 15


 791 0284 03       		.uleb128 0x3
 792 0285 85020000 		.4byte	.LASF48
 793 0289 08       		.byte	0x8
 794 028a 9D       		.byte	0x9d
 795 028b C3000000 		.4byte	0xc3
 796 028f 03       		.uleb128 0x3
 797 0290 9B010000 		.4byte	.LASF49
 798 0294 08       		.byte	0x8
 799 0295 A2       		.byte	0xa2
 800 0296 9A020000 		.4byte	0x29a
 801 029a 0B       		.uleb128 0xb
 802 029b 04       		.byte	0x4
 803 029c 0C       		.uleb128 0xc
 804 029d 9A020000 		.4byte	0x29a
 805 02a1 06       		.uleb128 0x6
 806 02a2 38050000 		.4byte	.LASF50
 807 02a6 24       		.byte	0x24
 808 02a7 08       		.byte	0x8
 809 02a8 B9       		.byte	0xb9
 810 02a9 13030000 		.4byte	0x313
 811 02ad 08       		.uleb128 0x8
 812 02ae 723400   		.ascii	"r4\000"
 813 02b1 08       		.byte	0x8
 814 02b2 BA       		.byte	0xba
 815 02b3 8F020000 		.4byte	0x28f
 816 02b7 00       		.byte	0
 817 02b8 08       		.uleb128 0x8
 818 02b9 723500   		.ascii	"r5\000"
 819 02bc 08       		.byte	0x8
 820 02bd BB       		.byte	0xbb
 821 02be 8F020000 		.4byte	0x28f
 822 02c2 04       		.byte	0x4
 823 02c3 08       		.uleb128 0x8
 824 02c4 723600   		.ascii	"r6\000"
 825 02c7 08       		.byte	0x8
 826 02c8 BC       		.byte	0xbc
 827 02c9 8F020000 		.4byte	0x28f
 828 02cd 08       		.byte	0x8
 829 02ce 08       		.uleb128 0x8
 830 02cf 723700   		.ascii	"r7\000"
 831 02d2 08       		.byte	0x8
 832 02d3 BD       		.byte	0xbd
 833 02d4 8F020000 		.4byte	0x28f
 834 02d8 0C       		.byte	0xc
 835 02d9 08       		.uleb128 0x8
 836 02da 723800   		.ascii	"r8\000"
 837 02dd 08       		.byte	0x8
 838 02de BE       		.byte	0xbe
 839 02df 8F020000 		.4byte	0x28f
 840 02e3 10       		.byte	0x10
 841 02e4 08       		.uleb128 0x8
 842 02e5 723900   		.ascii	"r9\000"
 843 02e8 08       		.byte	0x8
 844 02e9 BF       		.byte	0xbf
 845 02ea 8F020000 		.4byte	0x28f
 846 02ee 14       		.byte	0x14
 847 02ef 08       		.uleb128 0x8
ARM GAS  /tmp/cctc61Pg.s 			page 16


 848 02f0 72313000 		.ascii	"r10\000"
 849 02f4 08       		.byte	0x8
 850 02f5 C0       		.byte	0xc0
 851 02f6 8F020000 		.4byte	0x28f
 852 02fa 18       		.byte	0x18
 853 02fb 08       		.uleb128 0x8
 854 02fc 72313100 		.ascii	"r11\000"
 855 0300 08       		.byte	0x8
 856 0301 C1       		.byte	0xc1
 857 0302 8F020000 		.4byte	0x28f
 858 0306 1C       		.byte	0x1c
 859 0307 08       		.uleb128 0x8
 860 0308 6C7200   		.ascii	"lr\000"
 861 030b 08       		.byte	0x8
 862 030c C2       		.byte	0xc2
 863 030d 8F020000 		.4byte	0x28f
 864 0311 20       		.byte	0x20
 865 0312 00       		.byte	0
 866 0313 06       		.uleb128 0x6
 867 0314 29020000 		.4byte	.LASF51
 868 0318 04       		.byte	0x4
 869 0319 08       		.byte	0x8
 870 031a CA       		.byte	0xca
 871 031b 2C030000 		.4byte	0x32c
 872 031f 08       		.uleb128 0x8
 873 0320 72313300 		.ascii	"r13\000"
 874 0324 08       		.byte	0x8
 875 0325 CB       		.byte	0xcb
 876 0326 2C030000 		.4byte	0x32c
 877 032a 00       		.byte	0
 878 032b 00       		.byte	0
 879 032c 0A       		.uleb128 0xa
 880 032d 04       		.byte	0x4
 881 032e A1020000 		.4byte	0x2a1
 882 0332 03       		.uleb128 0x3
 883 0333 0D020000 		.4byte	.LASF52
 884 0337 09       		.byte	0x9
 885 0338 4E       		.byte	0x4e
 886 0339 3D030000 		.4byte	0x33d
 887 033d 0A       		.uleb128 0xa
 888 033e 04       		.byte	0x4
 889 033f 43030000 		.4byte	0x343
 890 0343 0D       		.uleb128 0xd
 891 0344 4E030000 		.4byte	0x34e
 892 0348 0E       		.uleb128 0xe
 893 0349 9A020000 		.4byte	0x29a
 894 034d 00       		.byte	0
 895 034e 03       		.uleb128 0x3
 896 034f 4E040000 		.4byte	.LASF53
 897 0353 09       		.byte	0x9
 898 0354 53       		.byte	0x53
 899 0355 59030000 		.4byte	0x359
 900 0359 06       		.uleb128 0x6
 901 035a 4E040000 		.4byte	.LASF53
 902 035e 14       		.byte	0x14
 903 035f 09       		.byte	0x9
 904 0360 5A       		.byte	0x5a
ARM GAS  /tmp/cctc61Pg.s 			page 17


 905 0361 A2030000 		.4byte	0x3a2
 906 0365 07       		.uleb128 0x7
 907 0366 CD010000 		.4byte	.LASF54
 908 036a 09       		.byte	0x9
 909 036b 5B       		.byte	0x5b
 910 036c A2030000 		.4byte	0x3a2
 911 0370 00       		.byte	0
 912 0371 07       		.uleb128 0x7
 913 0372 A4010000 		.4byte	.LASF55
 914 0376 09       		.byte	0x9
 915 0377 5D       		.byte	0x5d
 916 0378 A2030000 		.4byte	0x3a2
 917 037c 04       		.byte	0x4
 918 037d 07       		.uleb128 0x7
 919 037e AE020000 		.4byte	.LASF56
 920 0382 09       		.byte	0x9
 921 0383 5F       		.byte	0x5f
 922 0384 26010000 		.4byte	0x126
 923 0388 08       		.byte	0x8
 924 0389 07       		.uleb128 0x7
 925 038a BF020000 		.4byte	.LASF57
 926 038e 09       		.byte	0x9
 927 038f 60       		.byte	0x60
 928 0390 32030000 		.4byte	0x332
 929 0394 0C       		.byte	0xc
 930 0395 07       		.uleb128 0x7
 931 0396 4A050000 		.4byte	.LASF58
 932 039a 09       		.byte	0x9
 933 039b 62       		.byte	0x62
 934 039c 9A020000 		.4byte	0x29a
 935 03a0 10       		.byte	0x10
 936 03a1 00       		.byte	0
 937 03a2 0A       		.uleb128 0xa
 938 03a3 04       		.byte	0x4
 939 03a4 4E030000 		.4byte	0x34e
 940 03a8 09       		.uleb128 0x9
 941 03a9 10       		.byte	0x10
 942 03aa 09       		.byte	0x9
 943 03ab 6C       		.byte	0x6c
 944 03ac E1030000 		.4byte	0x3e1
 945 03b0 07       		.uleb128 0x7
 946 03b1 CD010000 		.4byte	.LASF54
 947 03b5 09       		.byte	0x9
 948 03b6 6D       		.byte	0x6d
 949 03b7 A2030000 		.4byte	0x3a2
 950 03bb 00       		.byte	0
 951 03bc 07       		.uleb128 0x7
 952 03bd A4010000 		.4byte	.LASF55
 953 03c1 09       		.byte	0x9
 954 03c2 6F       		.byte	0x6f
 955 03c3 A2030000 		.4byte	0x3a2
 956 03c7 04       		.byte	0x4
 957 03c8 07       		.uleb128 0x7
 958 03c9 AE020000 		.4byte	.LASF56
 959 03cd 09       		.byte	0x9
 960 03ce 71       		.byte	0x71
 961 03cf 26010000 		.4byte	0x126
ARM GAS  /tmp/cctc61Pg.s 			page 18


 962 03d3 08       		.byte	0x8
 963 03d4 07       		.uleb128 0x7
 964 03d5 A0050000 		.4byte	.LASF59
 965 03d9 09       		.byte	0x9
 966 03da 72       		.byte	0x72
 967 03db 31010000 		.4byte	0x131
 968 03df 0C       		.byte	0xc
 969 03e0 00       		.byte	0
 970 03e1 03       		.uleb128 0x3
 971 03e2 B6050000 		.4byte	.LASF60
 972 03e6 09       		.byte	0x9
 973 03e7 73       		.byte	0x73
 974 03e8 A8030000 		.4byte	0x3a8
 975 03ec 0F       		.uleb128 0xf
 976 03ed 1E000000 		.4byte	.LASF68
 977 03f1 09       		.byte	0x9
 978 03f2 D1       		.byte	0xd1
 979 03f3 E1030000 		.4byte	0x3e1
 980 03f7 09       		.uleb128 0x9
 981 03f8 1C       		.byte	0x1c
 982 03f9 0A       		.byte	0xa
 983 03fa 57       		.byte	0x57
 984 03fb 48040000 		.4byte	0x448
 985 03ff 07       		.uleb128 0x7
 986 0400 46040000 		.4byte	.LASF61
 987 0404 0A       		.byte	0xa
 988 0405 58       		.byte	0x58
 989 0406 59020000 		.4byte	0x259
 990 040a 00       		.byte	0
 991 040b 07       		.uleb128 0x7
 992 040c C5030000 		.4byte	.LASF62
 993 0410 0A       		.byte	0xa
 994 0411 59       		.byte	0x59
 995 0412 05010000 		.4byte	0x105
 996 0416 08       		.byte	0x8
 997 0417 07       		.uleb128 0x7
 998 0418 F4020000 		.4byte	.LASF63
 999 041c 0A       		.byte	0xa
 1000 041d 5B       		.byte	0x5b
 1001 041e 13030000 		.4byte	0x313
 1002 0422 0C       		.byte	0xc
 1003 0423 07       		.uleb128 0x7
 1004 0424 4F020000 		.4byte	.LASF64
 1005 0428 0A       		.byte	0xa
 1006 0429 5E       		.byte	0x5e
 1007 042a 53020000 		.4byte	0x253
 1008 042e 10       		.byte	0x10
 1009 042f 07       		.uleb128 0x7
 1010 0430 1F030000 		.4byte	.LASF65
 1011 0434 0A       		.byte	0xa
 1012 0435 5F       		.byte	0x5f
 1013 0436 53020000 		.4byte	0x253
 1014 043a 14       		.byte	0x14
 1015 043b 07       		.uleb128 0x7
 1016 043c 15030000 		.4byte	.LASF66
 1017 0440 0A       		.byte	0xa
 1018 0441 62       		.byte	0x62
ARM GAS  /tmp/cctc61Pg.s 			page 19


 1019 0442 53020000 		.4byte	0x253
 1020 0446 18       		.byte	0x18
 1021 0447 00       		.byte	0
 1022 0448 03       		.uleb128 0x3
 1023 0449 63050000 		.4byte	.LASF67
 1024 044d 0A       		.byte	0xa
 1025 044e 64       		.byte	0x64
 1026 044f F7030000 		.4byte	0x3f7
 1027 0453 0F       		.uleb128 0xf
 1028 0454 6D050000 		.4byte	.LASF69
 1029 0458 0A       		.byte	0xa
 1030 0459 68       		.byte	0x68
 1031 045a 48040000 		.4byte	0x448
 1032 045e 06       		.uleb128 0x6
 1033 045f 7F020000 		.4byte	.LASF70
 1034 0463 10       		.byte	0x10
 1035 0464 0B       		.byte	0xb
 1036 0465 25       		.byte	0x25
 1037 0466 8F040000 		.4byte	0x48f
 1038 046a 07       		.uleb128 0x7
 1039 046b 23010000 		.4byte	.LASF71
 1040 046f 0B       		.byte	0xb
 1041 0470 26       		.byte	0x26
 1042 0471 59020000 		.4byte	0x259
 1043 0475 00       		.byte	0
 1044 0476 07       		.uleb128 0x7
 1045 0477 BD050000 		.4byte	.LASF72
 1046 047b 0B       		.byte	0xb
 1047 047c 28       		.byte	0x28
 1048 047d 53020000 		.4byte	0x253
 1049 0481 08       		.byte	0x8
 1050 0482 07       		.uleb128 0x7
 1051 0483 8A040000 		.4byte	.LASF73
 1052 0487 0B       		.byte	0xb
 1053 0488 2A       		.byte	0x2a
 1054 0489 8F040000 		.4byte	0x48f
 1055 048d 0C       		.byte	0xc
 1056 048e 00       		.byte	0
 1057 048f 0A       		.uleb128 0xa
 1058 0490 04       		.byte	0x4
 1059 0491 5E040000 		.4byte	0x45e
 1060 0495 03       		.uleb128 0x3
 1061 0496 7F020000 		.4byte	.LASF70
 1062 049a 0B       		.byte	0xb
 1063 049b 2C       		.byte	0x2c
 1064 049c 5E040000 		.4byte	0x45e
 1065 04a0 03       		.uleb128 0x3
 1066 04a1 25000000 		.4byte	.LASF74
 1067 04a5 0C       		.byte	0xc
 1068 04a6 25       		.byte	0x25
 1069 04a7 AB040000 		.4byte	0x4ab
 1070 04ab 0A       		.uleb128 0xa
 1071 04ac 04       		.byte	0x4
 1072 04ad B1040000 		.4byte	0x4b1
 1073 04b1 10       		.uleb128 0x10
 1074 04b2 9A020000 		.4byte	0x29a
 1075 04b6 C0040000 		.4byte	0x4c0
ARM GAS  /tmp/cctc61Pg.s 			page 20


 1076 04ba 0E       		.uleb128 0xe
 1077 04bb 2C000000 		.4byte	0x2c
 1078 04bf 00       		.byte	0
 1079 04c0 03       		.uleb128 0x3
 1080 04c1 27030000 		.4byte	.LASF75
 1081 04c5 0D       		.byte	0xd
 1082 04c6 2D       		.byte	0x2d
 1083 04c7 CB040000 		.4byte	0x4cb
 1084 04cb 06       		.uleb128 0x6
 1085 04cc D5050000 		.4byte	.LASF76
 1086 04d0 1C       		.byte	0x1c
 1087 04d1 0D       		.byte	0xd
 1088 04d2 40       		.byte	0x40
 1089 04d3 FC040000 		.4byte	0x4fc
 1090 04d7 07       		.uleb128 0x7
 1091 04d8 88030000 		.4byte	.LASF77
 1092 04dc 0D       		.byte	0xd
 1093 04dd 41       		.byte	0x41
 1094 04de A0040000 		.4byte	0x4a0
 1095 04e2 00       		.byte	0
 1096 04e3 07       		.uleb128 0x7
 1097 04e4 9A000000 		.4byte	.LASF78
 1098 04e8 0D       		.byte	0xd
 1099 04e9 43       		.byte	0x43
 1100 04ea 1B050000 		.4byte	0x51b
 1101 04ee 04       		.byte	0x4
 1102 04ef 07       		.uleb128 0x7
 1103 04f0 F9000000 		.4byte	.LASF79
 1104 04f4 0D       		.byte	0xd
 1105 04f5 45       		.byte	0x45
 1106 04f6 95040000 		.4byte	0x495
 1107 04fa 0C       		.byte	0xc
 1108 04fb 00       		.byte	0
 1109 04fc 11       		.uleb128 0x11
 1110 04fd 04       		.byte	0x4
 1111 04fe 0D       		.byte	0xd
 1112 04ff 35       		.byte	0x35
 1113 0500 1B050000 		.4byte	0x51b
 1114 0504 12       		.uleb128 0x12
 1115 0505 B1000000 		.4byte	.LASF80
 1116 0509 0D       		.byte	0xd
 1117 050a 36       		.byte	0x36
 1118 050b 3C050000 		.4byte	0x53c
 1119 050f 12       		.uleb128 0x12
 1120 0510 5B040000 		.4byte	.LASF81
 1121 0514 0D       		.byte	0xd
 1122 0515 37       		.byte	0x37
 1123 0516 42050000 		.4byte	0x542
 1124 051a 00       		.byte	0
 1125 051b 13       		.uleb128 0x13
 1126 051c CC030000 		.4byte	.LASF116
 1127 0520 08       		.byte	0x8
 1128 0521 0D       		.byte	0xd
 1129 0522 32       		.byte	0x32
 1130 0523 3C050000 		.4byte	0x53c
 1131 0527 12       		.uleb128 0x12
 1132 0528 BA010000 		.4byte	.LASF82
ARM GAS  /tmp/cctc61Pg.s 			page 21


 1133 052c 0D       		.byte	0xd
 1134 052d 33       		.byte	0x33
 1135 052e 84020000 		.4byte	0x284
 1136 0532 14       		.uleb128 0x14
 1137 0533 6800     		.ascii	"h\000"
 1138 0535 0D       		.byte	0xd
 1139 0536 3A       		.byte	0x3a
 1140 0537 48050000 		.4byte	0x548
 1141 053b 00       		.byte	0
 1142 053c 0A       		.uleb128 0xa
 1143 053d 04       		.byte	0x4
 1144 053e 1B050000 		.4byte	0x51b
 1145 0542 0A       		.uleb128 0xa
 1146 0543 04       		.byte	0x4
 1147 0544 C0040000 		.4byte	0x4c0
 1148 0548 09       		.uleb128 0x9
 1149 0549 08       		.byte	0x8
 1150 054a 0D       		.byte	0xd
 1151 054b 34       		.byte	0x34
 1152 054c 67050000 		.4byte	0x567
 1153 0550 08       		.uleb128 0x8
 1154 0551 7500     		.ascii	"u\000"
 1155 0553 0D       		.byte	0xd
 1156 0554 38       		.byte	0x38
 1157 0555 FC040000 		.4byte	0x4fc
 1158 0559 00       		.byte	0
 1159 055a 07       		.uleb128 0x7
 1160 055b 31020000 		.4byte	.LASF83
 1161 055f 0D       		.byte	0xd
 1162 0560 39       		.byte	0x39
 1163 0561 2C000000 		.4byte	0x2c
 1164 0565 04       		.byte	0x4
 1165 0566 00       		.byte	0
 1166 0567 11       		.uleb128 0x11
 1167 0568 04       		.byte	0x4
 1168 0569 07       		.byte	0x7
 1169 056a 8F       		.byte	0x8f
 1170 056b 9C050000 		.4byte	0x59c
 1171 056f 12       		.uleb128 0x12
 1172 0570 0D000000 		.4byte	.LASF84
 1173 0574 07       		.byte	0x7
 1174 0575 96       		.byte	0x96
 1175 0576 10010000 		.4byte	0x110
 1176 057a 12       		.uleb128 0x12
 1177 057b 91000000 		.4byte	.LASF85
 1178 057f 07       		.byte	0x7
 1179 0580 9D       		.byte	0x9d
 1180 0581 10010000 		.4byte	0x110
 1181 0585 12       		.uleb128 0x12
 1182 0586 85050000 		.4byte	.LASF86
 1183 058a 07       		.byte	0x7
 1184 058b A4       		.byte	0xa4
 1185 058c 9A020000 		.4byte	0x29a
 1186 0590 12       		.uleb128 0x12
 1187 0591 D8030000 		.4byte	.LASF87
 1188 0595 07       		.byte	0x7
 1189 0596 AB       		.byte	0xab
ARM GAS  /tmp/cctc61Pg.s 			page 22


 1190 0597 1B010000 		.4byte	0x11b
 1191 059b 00       		.byte	0
 1192 059c 0A       		.uleb128 0xa
 1193 059d 04       		.byte	0x4
 1194 059e A9050000 		.4byte	0x5a9
 1195 05a2 04       		.uleb128 0x4
 1196 05a3 01       		.byte	0x1
 1197 05a4 08       		.byte	0x8
 1198 05a5 60040000 		.4byte	.LASF88
 1199 05a9 0C       		.uleb128 0xc
 1200 05aa A2050000 		.4byte	0x5a2
 1201 05ae 0A       		.uleb128 0xa
 1202 05af 04       		.byte	0x4
 1203 05b0 95040000 		.4byte	0x495
 1204 05b4 09       		.uleb128 0x9
 1205 05b5 16       		.byte	0x16
 1206 05b6 0E       		.byte	0xe
 1207 05b7 25       		.byte	0x25
 1208 05b8 95060000 		.4byte	0x695
 1209 05bc 07       		.uleb128 0x7
 1210 05bd 16020000 		.4byte	.LASF89
 1211 05c1 0E       		.byte	0xe
 1212 05c2 26       		.byte	0x26
 1213 05c3 95060000 		.4byte	0x695
 1214 05c7 00       		.byte	0
 1215 05c8 07       		.uleb128 0x7
 1216 05c9 9A020000 		.4byte	.LASF90
 1217 05cd 0E       		.byte	0xe
 1218 05ce 27       		.byte	0x27
 1219 05cf A2000000 		.4byte	0xa2
 1220 05d3 04       		.byte	0x4
 1221 05d4 07       		.uleb128 0x7
 1222 05d5 07030000 		.4byte	.LASF91
 1223 05d9 0E       		.byte	0xe
 1224 05da 28       		.byte	0x28
 1225 05db A2000000 		.4byte	0xa2
 1226 05df 05       		.byte	0x5
 1227 05e0 07       		.uleb128 0x7
 1228 05e1 AB050000 		.4byte	.LASF92
 1229 05e5 0E       		.byte	0xe
 1230 05e6 29       		.byte	0x29
 1231 05e7 AD000000 		.4byte	0xad
 1232 05eb 06       		.byte	0x6
 1233 05ec 07       		.uleb128 0x7
 1234 05ed 3A030000 		.4byte	.LASF93
 1235 05f1 0E       		.byte	0xe
 1236 05f2 2A       		.byte	0x2a
 1237 05f3 A2000000 		.4byte	0xa2
 1238 05f7 08       		.byte	0x8
 1239 05f8 07       		.uleb128 0x7
 1240 05f9 C7020000 		.4byte	.LASF94
 1241 05fd 0E       		.byte	0xe
 1242 05fe 2B       		.byte	0x2b
 1243 05ff A2000000 		.4byte	0xa2
 1244 0603 09       		.byte	0x9
 1245 0604 07       		.uleb128 0x7
 1246 0605 83000000 		.4byte	.LASF95
ARM GAS  /tmp/cctc61Pg.s 			page 23


 1247 0609 0E       		.byte	0xe
 1248 060a 2C       		.byte	0x2c
 1249 060b A2000000 		.4byte	0xa2
 1250 060f 0A       		.byte	0xa
 1251 0610 07       		.uleb128 0x7
 1252 0611 3A040000 		.4byte	.LASF96
 1253 0615 0E       		.byte	0xe
 1254 0616 2D       		.byte	0x2d
 1255 0617 A2000000 		.4byte	0xa2
 1256 061b 0B       		.byte	0xb
 1257 061c 07       		.uleb128 0x7
 1258 061d 51050000 		.4byte	.LASF97
 1259 0621 0E       		.byte	0xe
 1260 0622 2E       		.byte	0x2e
 1261 0623 A2000000 		.4byte	0xa2
 1262 0627 0C       		.byte	0xc
 1263 0628 07       		.uleb128 0x7
 1264 0629 10040000 		.4byte	.LASF98
 1265 062d 0E       		.byte	0xe
 1266 062e 2F       		.byte	0x2f
 1267 062f A2000000 		.4byte	0xa2
 1268 0633 0D       		.byte	0xd
 1269 0634 07       		.uleb128 0x7
 1270 0635 D5010000 		.4byte	.LASF99
 1271 0639 0E       		.byte	0xe
 1272 063a 30       		.byte	0x30
 1273 063b A2000000 		.4byte	0xa2
 1274 063f 0E       		.byte	0xe
 1275 0640 07       		.uleb128 0x7
 1276 0641 E0020000 		.4byte	.LASF100
 1277 0645 0E       		.byte	0xe
 1278 0646 31       		.byte	0x31
 1279 0647 A2000000 		.4byte	0xa2
 1280 064b 0F       		.byte	0xf
 1281 064c 07       		.uleb128 0x7
 1282 064d FF000000 		.4byte	.LASF101
 1283 0651 0E       		.byte	0xe
 1284 0652 32       		.byte	0x32
 1285 0653 A2000000 		.4byte	0xa2
 1286 0657 10       		.byte	0x10
 1287 0658 07       		.uleb128 0x7
 1288 0659 BD000000 		.4byte	.LASF102
 1289 065d 0E       		.byte	0xe
 1290 065e 34       		.byte	0x34
 1291 065f A2000000 		.4byte	0xa2
 1292 0663 11       		.byte	0x11
 1293 0664 07       		.uleb128 0x7
 1294 0665 0F010000 		.4byte	.LASF103
 1295 0669 0E       		.byte	0xe
 1296 066a 35       		.byte	0x35
 1297 066b A2000000 		.4byte	0xa2
 1298 066f 12       		.byte	0x12
 1299 0670 07       		.uleb128 0x7
 1300 0671 A2020000 		.4byte	.LASF104
 1301 0675 0E       		.byte	0xe
 1302 0676 36       		.byte	0x36
 1303 0677 A2000000 		.4byte	0xa2
ARM GAS  /tmp/cctc61Pg.s 			page 24


 1304 067b 13       		.byte	0x13
 1305 067c 07       		.uleb128 0x7
 1306 067d E6030000 		.4byte	.LASF105
 1307 0681 0E       		.byte	0xe
 1308 0682 37       		.byte	0x37
 1309 0683 A2000000 		.4byte	0xa2
 1310 0687 14       		.byte	0x14
 1311 0688 07       		.uleb128 0x7
 1312 0689 B9030000 		.4byte	.LASF106
 1313 068d 0E       		.byte	0xe
 1314 068e 39       		.byte	0x39
 1315 068f A2000000 		.4byte	0xa2
 1316 0693 15       		.byte	0x15
 1317 0694 00       		.byte	0
 1318 0695 15       		.uleb128 0x15
 1319 0696 A2050000 		.4byte	0x5a2
 1320 069a A5060000 		.4byte	0x6a5
 1321 069e 16       		.uleb128 0x16
 1322 069f A5060000 		.4byte	0x6a5
 1323 06a3 03       		.byte	0x3
 1324 06a4 00       		.byte	0
 1325 06a5 04       		.uleb128 0x4
 1326 06a6 04       		.byte	0x4
 1327 06a7 07       		.byte	0x7
 1328 06a8 B6020000 		.4byte	.LASF107
 1329 06ac 03       		.uleb128 0x3
 1330 06ad 67010000 		.4byte	.LASF108
 1331 06b1 0E       		.byte	0xe
 1332 06b2 3A       		.byte	0x3a
 1333 06b3 B4050000 		.4byte	0x5b4
 1334 06b7 0C       		.uleb128 0xc
 1335 06b8 AC060000 		.4byte	0x6ac
 1336 06bc 0F       		.uleb128 0xf
 1337 06bd F4010000 		.4byte	.LASF109
 1338 06c1 0E       		.byte	0xe
 1339 06c2 77       		.byte	0x77
 1340 06c3 B7060000 		.4byte	0x6b7
 1341 06c7 15       		.uleb128 0x15
 1342 06c8 84020000 		.4byte	0x284
 1343 06cc D7060000 		.4byte	0x6d7
 1344 06d0 16       		.uleb128 0x16
 1345 06d1 A5060000 		.4byte	0x6a5
 1346 06d5 26       		.byte	0x26
 1347 06d6 00       		.byte	0
 1348 06d7 0F       		.uleb128 0xf
 1349 06d8 80010000 		.4byte	.LASF110
 1350 06dc 0F       		.byte	0xf
 1351 06dd 82       		.byte	0x82
 1352 06de C7060000 		.4byte	0x6c7
 1353 06e2 06       		.uleb128 0x6
 1354 06e3 1D040000 		.4byte	.LASF111
 1355 06e7 10       		.byte	0x10
 1356 06e8 10       		.byte	0x10
 1357 06e9 3F       		.byte	0x3f
 1358 06ea 1F070000 		.4byte	0x71f
 1359 06ee 07       		.uleb128 0x7
 1360 06ef 24020000 		.4byte	.LASF112
ARM GAS  /tmp/cctc61Pg.s 			page 25


 1361 06f3 10       		.byte	0x10
 1362 06f4 40       		.byte	0x40
 1363 06f5 9C050000 		.4byte	0x59c
 1364 06f9 00       		.byte	0
 1365 06fa 07       		.uleb128 0x7
 1366 06fb 0F030000 		.4byte	.LASF113
 1367 06ff 10       		.byte	0x10
 1368 0700 41       		.byte	0x41
 1369 0701 25070000 		.4byte	0x725
 1370 0705 04       		.byte	0x4
 1371 0706 07       		.uleb128 0x7
 1372 0707 CA000000 		.4byte	.LASF114
 1373 070b 10       		.byte	0x10
 1374 070c 42       		.byte	0x42
 1375 070d 25070000 		.4byte	0x725
 1376 0711 08       		.byte	0x8
 1377 0712 07       		.uleb128 0x7
 1378 0713 4C030000 		.4byte	.LASF115
 1379 0717 10       		.byte	0x10
 1380 0718 43       		.byte	0x43
 1381 0719 25070000 		.4byte	0x725
 1382 071d 0C       		.byte	0xc
 1383 071e 00       		.byte	0
 1384 071f 0C       		.uleb128 0xc
 1385 0720 E2060000 		.4byte	0x6e2
 1386 0724 17       		.uleb128 0x17
 1387 0725 0A       		.uleb128 0xa
 1388 0726 04       		.byte	0x4
 1389 0727 24070000 		.4byte	0x724
 1390 072b 18       		.uleb128 0x18
 1391 072c 7805     		.2byte	0x578
 1392 072e 10       		.byte	0x10
 1393 072f 48       		.byte	0x48
 1394 0730 70070000 		.4byte	0x770
 1395 0734 08       		.uleb128 0x8
 1396 0735 543000   		.ascii	"T0\000"
 1397 0738 10       		.byte	0x10
 1398 0739 49       		.byte	0x49
 1399 073a 70070000 		.4byte	0x770
 1400 073e 00       		.byte	0
 1401 073f 19       		.uleb128 0x19
 1402 0740 543100   		.ascii	"T1\000"
 1403 0743 10       		.byte	0x10
 1404 0744 4A       		.byte	0x4a
 1405 0745 70070000 		.4byte	0x770
 1406 0749 1801     		.2byte	0x118
 1407 074b 19       		.uleb128 0x19
 1408 074c 543200   		.ascii	"T2\000"
 1409 074f 10       		.byte	0x10
 1410 0750 4B       		.byte	0x4b
 1411 0751 70070000 		.4byte	0x770
 1412 0755 3002     		.2byte	0x230
 1413 0757 19       		.uleb128 0x19
 1414 0758 543300   		.ascii	"T3\000"
 1415 075b 10       		.byte	0x10
 1416 075c 4C       		.byte	0x4c
 1417 075d 70070000 		.4byte	0x770
ARM GAS  /tmp/cctc61Pg.s 			page 26


 1418 0761 4803     		.2byte	0x348
 1419 0763 19       		.uleb128 0x19
 1420 0764 543400   		.ascii	"T4\000"
 1421 0767 10       		.byte	0x10
 1422 0768 4D       		.byte	0x4d
 1423 0769 70070000 		.4byte	0x770
 1424 076d 6004     		.2byte	0x460
 1425 076f 00       		.byte	0
 1426 0770 15       		.uleb128 0x15
 1427 0771 84020000 		.4byte	0x284
 1428 0775 80070000 		.4byte	0x780
 1429 0779 16       		.uleb128 0x16
 1430 077a A5060000 		.4byte	0x6a5
 1431 077e 45       		.byte	0x45
 1432 077f 00       		.byte	0
 1433 0780 1A       		.uleb128 0x1a
 1434 0781 65040000 		.4byte	.LASF117
 1435 0785 7805     		.2byte	0x578
 1436 0787 10       		.byte	0x10
 1437 0788 47       		.byte	0x47
 1438 0789 A3070000 		.4byte	0x7a3
 1439 078d 14       		.uleb128 0x14
 1440 078e 776100   		.ascii	"wa\000"
 1441 0791 10       		.byte	0x10
 1442 0792 4E       		.byte	0x4e
 1443 0793 2B070000 		.4byte	0x72b
 1444 0797 12       		.uleb128 0x12
 1445 0798 71010000 		.4byte	.LASF118
 1446 079c 10       		.byte	0x10
 1447 079d 4F       		.byte	0x4f
 1448 079e A3070000 		.4byte	0x7a3
 1449 07a2 00       		.byte	0
 1450 07a3 15       		.uleb128 0x15
 1451 07a4 A2000000 		.4byte	0xa2
 1452 07a8 B4070000 		.4byte	0x7b4
 1453 07ac 1B       		.uleb128 0x1b
 1454 07ad A5060000 		.4byte	0x6a5
 1455 07b1 7705     		.2byte	0x577
 1456 07b3 00       		.byte	0
 1457 07b4 15       		.uleb128 0x15
 1458 07b5 53020000 		.4byte	0x253
 1459 07b9 C4070000 		.4byte	0x7c4
 1460 07bd 16       		.uleb128 0x16
 1461 07be A5060000 		.4byte	0x6a5
 1462 07c2 04       		.byte	0x4
 1463 07c3 00       		.byte	0
 1464 07c4 0F       		.uleb128 0xf
 1465 07c5 57020000 		.4byte	.LASF119
 1466 07c9 10       		.byte	0x10
 1467 07ca A9       		.byte	0xa9
 1468 07cb B4070000 		.4byte	0x7b4
 1469 07cf 0F       		.uleb128 0xf
 1470 07d0 A1000000 		.4byte	.LASF120
 1471 07d4 10       		.byte	0x10
 1472 07d5 AA       		.byte	0xaa
 1473 07d6 80070000 		.4byte	0x780
 1474 07da 15       		.uleb128 0x15
ARM GAS  /tmp/cctc61Pg.s 			page 27


 1475 07db 9C020000 		.4byte	0x29c
 1476 07df E5070000 		.4byte	0x7e5
 1477 07e3 1C       		.uleb128 0x1c
 1478 07e4 00       		.byte	0
 1479 07e5 0C       		.uleb128 0xc
 1480 07e6 DA070000 		.4byte	0x7da
 1481 07ea 1D       		.uleb128 0x1d
 1482 07eb 776100   		.ascii	"wa\000"
 1483 07ee 10       		.byte	0x10
 1484 07ef AB       		.byte	0xab
 1485 07f0 E5070000 		.4byte	0x7e5
 1486 07f4 0F       		.uleb128 0xf
 1487 07f5 FD010000 		.4byte	.LASF121
 1488 07f9 10       		.byte	0x10
 1489 07fa AC       		.byte	0xac
 1490 07fb CE000000 		.4byte	0xce
 1491 07ff 1E       		.uleb128 0x1e
 1492 0800 7B050000 		.4byte	.LASF124
 1493 0804 01       		.byte	0x1
 1494 0805 37       		.byte	0x37
 1495 0806 C0040000 		.4byte	0x4c0
 1496 080a 05       		.uleb128 0x5
 1497 080b 03       		.byte	0x3
 1498 080c 00000000 		.4byte	test_heap
 1499 0810 1F       		.uleb128 0x1f
 1500 0811 90020000 		.4byte	.LASF122
 1501 0815 01       		.byte	0x1
 1502 0816 92       		.byte	0x92
 1503 0817 1F070000 		.4byte	0x71f
 1504 081b 05       		.uleb128 0x5
 1505 081c 03       		.byte	0x3
 1506 081d 00000000 		.4byte	testheap1
 1507 0821 15       		.uleb128 0x15
 1508 0822 3C080000 		.4byte	0x83c
 1509 0826 31080000 		.4byte	0x831
 1510 082a 16       		.uleb128 0x16
 1511 082b A5060000 		.4byte	0x6a5
 1512 082f 01       		.byte	0x1
 1513 0830 00       		.byte	0
 1514 0831 0C       		.uleb128 0xc
 1515 0832 21080000 		.4byte	0x821
 1516 0836 0A       		.uleb128 0xa
 1517 0837 04       		.byte	0x4
 1518 0838 1F070000 		.4byte	0x71f
 1519 083c 0C       		.uleb128 0xc
 1520 083d 36080000 		.4byte	0x836
 1521 0841 1F       		.uleb128 0x1f
 1522 0842 D3000000 		.4byte	.LASF123
 1523 0846 01       		.byte	0x1
 1524 0847 9E       		.byte	0x9e
 1525 0848 31080000 		.4byte	0x831
 1526 084c 05       		.uleb128 0x5
 1527 084d 03       		.byte	0x3
 1528 084e 00000000 		.4byte	patternheap
 1529 0852 20       		.uleb128 0x20
 1530 0853 AC010000 		.4byte	.LASF125
 1531 0857 01       		.byte	0x1
ARM GAS  /tmp/cctc61Pg.s 			page 28


 1532 0858 49       		.byte	0x49
 1533 0859 00000000 		.4byte	.LFB8
 1534 085d 50030000 		.4byte	.LFE8-.LFB8
 1535 0861 01       		.uleb128 0x1
 1536 0862 9C       		.byte	0x9c
 1537 0863 B60D0000 		.4byte	0xdb6
 1538 0867 21       		.uleb128 0x21
 1539 0868 703100   		.ascii	"p1\000"
 1540 086b 01       		.byte	0x1
 1541 086c 4A       		.byte	0x4a
 1542 086d 9A020000 		.4byte	0x29a
 1543 0871 00000000 		.4byte	.LLST0
 1544 0875 21       		.uleb128 0x21
 1545 0876 703200   		.ascii	"p2\000"
 1546 0879 01       		.byte	0x1
 1547 087a 4A       		.byte	0x4a
 1548 087b 9A020000 		.4byte	0x29a
 1549 087f C3000000 		.4byte	.LLST1
 1550 0883 21       		.uleb128 0x21
 1551 0884 703300   		.ascii	"p3\000"
 1552 0887 01       		.byte	0x1
 1553 0888 4A       		.byte	0x4a
 1554 0889 9A020000 		.4byte	0x29a
 1555 088d 23010000 		.4byte	.LLST2
 1556 0891 22       		.uleb128 0x22
 1557 0892 6E00     		.ascii	"n\000"
 1558 0894 01       		.byte	0x1
 1559 0895 4B       		.byte	0x4b
 1560 0896 2C000000 		.4byte	0x2c
 1561 089a 02       		.uleb128 0x2
 1562 089b 91       		.byte	0x91
 1563 089c 68       		.sleb128 -24
 1564 089d 22       		.uleb128 0x22
 1565 089e 737A00   		.ascii	"sz\000"
 1566 08a1 01       		.byte	0x1
 1567 08a2 4B       		.byte	0x4b
 1568 08a3 2C000000 		.4byte	0x2c
 1569 08a7 02       		.uleb128 0x2
 1570 08a8 91       		.byte	0x91
 1571 08a9 6C       		.sleb128 -20
 1572 08aa 23       		.uleb128 0x23
 1573 08ab 0C000000 		.4byte	.LVL0
 1574 08af E60D0000 		.4byte	0xde6
 1575 08b3 24       		.uleb128 0x24
 1576 08b4 18000000 		.4byte	.LVL1
 1577 08b8 F10D0000 		.4byte	0xdf1
 1578 08bc CC080000 		.4byte	0x8cc
 1579 08c0 25       		.uleb128 0x25
 1580 08c1 01       		.uleb128 0x1
 1581 08c2 50       		.byte	0x50
 1582 08c3 01       		.uleb128 0x1
 1583 08c4 30       		.byte	0x30
 1584 08c5 25       		.uleb128 0x25
 1585 08c6 01       		.uleb128 0x1
 1586 08c7 51       		.byte	0x51
 1587 08c8 02       		.uleb128 0x2
 1588 08c9 91       		.byte	0x91
ARM GAS  /tmp/cctc61Pg.s 			page 29


 1589 08ca 64       		.sleb128 -28
 1590 08cb 00       		.byte	0
 1591 08cc 24       		.uleb128 0x24
 1592 08cd 24000000 		.4byte	.LVL2
 1593 08d1 FC0D0000 		.4byte	0xdfc
 1594 08d5 E4080000 		.4byte	0x8e4
 1595 08d9 25       		.uleb128 0x25
 1596 08da 01       		.uleb128 0x1
 1597 08db 50       		.byte	0x50
 1598 08dc 01       		.uleb128 0x1
 1599 08dd 30       		.byte	0x30
 1600 08de 25       		.uleb128 0x25
 1601 08df 01       		.uleb128 0x1
 1602 08e0 51       		.byte	0x51
 1603 08e1 01       		.uleb128 0x1
 1604 08e2 40       		.byte	0x40
 1605 08e3 00       		.byte	0
 1606 08e4 24       		.uleb128 0x24
 1607 08e5 38000000 		.4byte	.LVL4
 1608 08e9 070E0000 		.4byte	0xe07
 1609 08ed 07090000 		.4byte	0x907
 1610 08f1 25       		.uleb128 0x25
 1611 08f2 01       		.uleb128 0x1
 1612 08f3 50       		.byte	0x50
 1613 08f4 01       		.uleb128 0x1
 1614 08f5 31       		.byte	0x31
 1615 08f6 25       		.uleb128 0x25
 1616 08f7 01       		.uleb128 0x1
 1617 08f8 51       		.byte	0x51
 1618 08f9 0C       		.uleb128 0xc
 1619 08fa 31       		.byte	0x31
 1620 08fb 74       		.byte	0x74
 1621 08fc 00       		.sleb128 0
 1622 08fd 74       		.byte	0x74
 1623 08fe 00       		.sleb128 0
 1624 08ff 30       		.byte	0x30
 1625 0900 2E       		.byte	0x2e
 1626 0901 28       		.byte	0x28
 1627 0902 0100     		.2byte	0x1
 1628 0904 16       		.byte	0x16
 1629 0905 13       		.byte	0x13
 1630 0906 00       		.byte	0
 1631 0907 24       		.uleb128 0x24
 1632 0908 50000000 		.4byte	.LVL7
 1633 090c 120E0000 		.4byte	0xe12
 1634 0910 1B090000 		.4byte	0x91b
 1635 0914 25       		.uleb128 0x25
 1636 0915 01       		.uleb128 0x1
 1637 0916 50       		.byte	0x50
 1638 0917 02       		.uleb128 0x2
 1639 0918 74       		.byte	0x74
 1640 0919 00       		.sleb128 0
 1641 091a 00       		.byte	0
 1642 091b 24       		.uleb128 0x24
 1643 091c 5C000000 		.4byte	.LVL8
 1644 0920 FC0D0000 		.4byte	0xdfc
 1645 0924 36090000 		.4byte	0x936
ARM GAS  /tmp/cctc61Pg.s 			page 30


 1646 0928 25       		.uleb128 0x25
 1647 0929 01       		.uleb128 0x1
 1648 092a 50       		.byte	0x50
 1649 092b 02       		.uleb128 0x2
 1650 092c 75       		.byte	0x75
 1651 092d 00       		.sleb128 0
 1652 092e 25       		.uleb128 0x25
 1653 092f 01       		.uleb128 0x1
 1654 0930 51       		.byte	0x51
 1655 0931 03       		.uleb128 0x3
 1656 0932 0B       		.byte	0xb
 1657 0933 00FF     		.2byte	0xff00
 1658 0935 00       		.byte	0
 1659 0936 24       		.uleb128 0x24
 1660 0937 6C000000 		.4byte	.LVL10
 1661 093b 070E0000 		.4byte	0xe07
 1662 093f 49090000 		.4byte	0x949
 1663 0943 25       		.uleb128 0x25
 1664 0944 01       		.uleb128 0x1
 1665 0945 50       		.byte	0x50
 1666 0946 01       		.uleb128 0x1
 1667 0947 32       		.byte	0x32
 1668 0948 00       		.byte	0
 1669 0949 24       		.uleb128 0x24
 1670 094a 80000000 		.4byte	.LVL11
 1671 094e F10D0000 		.4byte	0xdf1
 1672 0952 66090000 		.4byte	0x966
 1673 0956 25       		.uleb128 0x25
 1674 0957 01       		.uleb128 0x1
 1675 0958 50       		.byte	0x50
 1676 0959 05       		.uleb128 0x5
 1677 095a 03       		.byte	0x3
 1678 095b 00000000 		.4byte	.LANCHOR0
 1679 095f 25       		.uleb128 0x25
 1680 0960 01       		.uleb128 0x1
 1681 0961 51       		.byte	0x51
 1682 0962 02       		.uleb128 0x2
 1683 0963 91       		.byte	0x91
 1684 0964 64       		.sleb128 -28
 1685 0965 00       		.byte	0
 1686 0966 24       		.uleb128 0x24
 1687 0967 8C000000 		.4byte	.LVL12
 1688 096b FC0D0000 		.4byte	0xdfc
 1689 096f 82090000 		.4byte	0x982
 1690 0973 25       		.uleb128 0x25
 1691 0974 01       		.uleb128 0x1
 1692 0975 50       		.byte	0x50
 1693 0976 05       		.uleb128 0x5
 1694 0977 03       		.byte	0x3
 1695 0978 00000000 		.4byte	.LANCHOR0
 1696 097c 25       		.uleb128 0x25
 1697 097d 01       		.uleb128 0x1
 1698 097e 51       		.byte	0x51
 1699 097f 01       		.uleb128 0x1
 1700 0980 40       		.byte	0x40
 1701 0981 00       		.byte	0
 1702 0982 24       		.uleb128 0x24
ARM GAS  /tmp/cctc61Pg.s 			page 31


 1703 0983 9C000000 		.4byte	.LVL15
 1704 0987 FC0D0000 		.4byte	0xdfc
 1705 098b 9E090000 		.4byte	0x99e
 1706 098f 25       		.uleb128 0x25
 1707 0990 01       		.uleb128 0x1
 1708 0991 50       		.byte	0x50
 1709 0992 05       		.uleb128 0x5
 1710 0993 03       		.byte	0x3
 1711 0994 00000000 		.4byte	.LANCHOR0
 1712 0998 25       		.uleb128 0x25
 1713 0999 01       		.uleb128 0x1
 1714 099a 51       		.byte	0x51
 1715 099b 01       		.uleb128 0x1
 1716 099c 40       		.byte	0x40
 1717 099d 00       		.byte	0
 1718 099e 24       		.uleb128 0x24
 1719 099f AC000000 		.4byte	.LVL18
 1720 09a3 FC0D0000 		.4byte	0xdfc
 1721 09a7 BA090000 		.4byte	0x9ba
 1722 09ab 25       		.uleb128 0x25
 1723 09ac 01       		.uleb128 0x1
 1724 09ad 50       		.byte	0x50
 1725 09ae 05       		.uleb128 0x5
 1726 09af 03       		.byte	0x3
 1727 09b0 00000000 		.4byte	.LANCHOR0
 1728 09b4 25       		.uleb128 0x25
 1729 09b5 01       		.uleb128 0x1
 1730 09b6 51       		.byte	0x51
 1731 09b7 01       		.uleb128 0x1
 1732 09b8 40       		.byte	0x40
 1733 09b9 00       		.byte	0
 1734 09ba 24       		.uleb128 0x24
 1735 09bb B8000000 		.4byte	.LVL21
 1736 09bf 120E0000 		.4byte	0xe12
 1737 09c3 CE090000 		.4byte	0x9ce
 1738 09c7 25       		.uleb128 0x25
 1739 09c8 01       		.uleb128 0x1
 1740 09c9 50       		.byte	0x50
 1741 09ca 02       		.uleb128 0x2
 1742 09cb 76       		.byte	0x76
 1743 09cc 00       		.sleb128 0
 1744 09cd 00       		.byte	0
 1745 09ce 24       		.uleb128 0x24
 1746 09cf C0000000 		.4byte	.LVL22
 1747 09d3 120E0000 		.4byte	0xe12
 1748 09d7 E2090000 		.4byte	0x9e2
 1749 09db 25       		.uleb128 0x25
 1750 09dc 01       		.uleb128 0x1
 1751 09dd 50       		.byte	0x50
 1752 09de 02       		.uleb128 0x2
 1753 09df 75       		.byte	0x75
 1754 09e0 00       		.sleb128 0
 1755 09e1 00       		.byte	0
 1756 09e2 24       		.uleb128 0x24
 1757 09e3 C8000000 		.4byte	.LVL23
 1758 09e7 120E0000 		.4byte	0xe12
 1759 09eb F6090000 		.4byte	0x9f6
ARM GAS  /tmp/cctc61Pg.s 			page 32


 1760 09ef 25       		.uleb128 0x25
 1761 09f0 01       		.uleb128 0x1
 1762 09f1 50       		.byte	0x50
 1763 09f2 02       		.uleb128 0x2
 1764 09f3 74       		.byte	0x74
 1765 09f4 00       		.sleb128 0
 1766 09f5 00       		.byte	0
 1767 09f6 24       		.uleb128 0x24
 1768 09f7 D4000000 		.4byte	.LVL24
 1769 09fb F10D0000 		.4byte	0xdf1
 1770 09ff 130A0000 		.4byte	0xa13
 1771 0a03 25       		.uleb128 0x25
 1772 0a04 01       		.uleb128 0x1
 1773 0a05 50       		.byte	0x50
 1774 0a06 05       		.uleb128 0x5
 1775 0a07 03       		.byte	0x3
 1776 0a08 00000000 		.4byte	.LANCHOR0
 1777 0a0c 25       		.uleb128 0x25
 1778 0a0d 01       		.uleb128 0x1
 1779 0a0e 51       		.byte	0x51
 1780 0a0f 02       		.uleb128 0x2
 1781 0a10 7D       		.byte	0x7d
 1782 0a11 00       		.sleb128 0
 1783 0a12 00       		.byte	0
 1784 0a13 24       		.uleb128 0x24
 1785 0a14 E8000000 		.4byte	.LVL25
 1786 0a18 070E0000 		.4byte	0xe07
 1787 0a1c 260A0000 		.4byte	0xa26
 1788 0a20 25       		.uleb128 0x25
 1789 0a21 01       		.uleb128 0x1
 1790 0a22 50       		.byte	0x50
 1791 0a23 01       		.uleb128 0x1
 1792 0a24 33       		.byte	0x33
 1793 0a25 00       		.byte	0
 1794 0a26 24       		.uleb128 0x24
 1795 0a27 FC000000 		.4byte	.LVL26
 1796 0a2b FC0D0000 		.4byte	0xdfc
 1797 0a2f 420A0000 		.4byte	0xa42
 1798 0a33 25       		.uleb128 0x25
 1799 0a34 01       		.uleb128 0x1
 1800 0a35 50       		.byte	0x50
 1801 0a36 05       		.uleb128 0x5
 1802 0a37 03       		.byte	0x3
 1803 0a38 00000000 		.4byte	.LANCHOR0
 1804 0a3c 25       		.uleb128 0x25
 1805 0a3d 01       		.uleb128 0x1
 1806 0a3e 51       		.byte	0x51
 1807 0a3f 01       		.uleb128 0x1
 1808 0a40 40       		.byte	0x40
 1809 0a41 00       		.byte	0
 1810 0a42 24       		.uleb128 0x24
 1811 0a43 0C010000 		.4byte	.LVL29
 1812 0a47 FC0D0000 		.4byte	0xdfc
 1813 0a4b 5E0A0000 		.4byte	0xa5e
 1814 0a4f 25       		.uleb128 0x25
 1815 0a50 01       		.uleb128 0x1
 1816 0a51 50       		.byte	0x50
ARM GAS  /tmp/cctc61Pg.s 			page 33


 1817 0a52 05       		.uleb128 0x5
 1818 0a53 03       		.byte	0x3
 1819 0a54 00000000 		.4byte	.LANCHOR0
 1820 0a58 25       		.uleb128 0x25
 1821 0a59 01       		.uleb128 0x1
 1822 0a5a 51       		.byte	0x51
 1823 0a5b 01       		.uleb128 0x1
 1824 0a5c 40       		.byte	0x40
 1825 0a5d 00       		.byte	0
 1826 0a5e 24       		.uleb128 0x24
 1827 0a5f 1C010000 		.4byte	.LVL32
 1828 0a63 FC0D0000 		.4byte	0xdfc
 1829 0a67 7A0A0000 		.4byte	0xa7a
 1830 0a6b 25       		.uleb128 0x25
 1831 0a6c 01       		.uleb128 0x1
 1832 0a6d 50       		.byte	0x50
 1833 0a6e 05       		.uleb128 0x5
 1834 0a6f 03       		.byte	0x3
 1835 0a70 00000000 		.4byte	.LANCHOR0
 1836 0a74 25       		.uleb128 0x25
 1837 0a75 01       		.uleb128 0x1
 1838 0a76 51       		.byte	0x51
 1839 0a77 01       		.uleb128 0x1
 1840 0a78 40       		.byte	0x40
 1841 0a79 00       		.byte	0
 1842 0a7a 23       		.uleb128 0x23
 1843 0a7b 20010000 		.4byte	.LVL33
 1844 0a7f 120E0000 		.4byte	0xe12
 1845 0a83 24       		.uleb128 0x24
 1846 0a84 28010000 		.4byte	.LVL34
 1847 0a88 120E0000 		.4byte	0xe12
 1848 0a8c 970A0000 		.4byte	0xa97
 1849 0a90 25       		.uleb128 0x25
 1850 0a91 01       		.uleb128 0x1
 1851 0a92 50       		.byte	0x50
 1852 0a93 02       		.uleb128 0x2
 1853 0a94 75       		.byte	0x75
 1854 0a95 00       		.sleb128 0
 1855 0a96 00       		.byte	0
 1856 0a97 24       		.uleb128 0x24
 1857 0a98 30010000 		.4byte	.LVL35
 1858 0a9c 120E0000 		.4byte	0xe12
 1859 0aa0 AB0A0000 		.4byte	0xaab
 1860 0aa4 25       		.uleb128 0x25
 1861 0aa5 01       		.uleb128 0x1
 1862 0aa6 50       		.byte	0x50
 1863 0aa7 02       		.uleb128 0x2
 1864 0aa8 74       		.byte	0x74
 1865 0aa9 00       		.sleb128 0
 1866 0aaa 00       		.byte	0
 1867 0aab 24       		.uleb128 0x24
 1868 0aac 3C010000 		.4byte	.LVL36
 1869 0ab0 F10D0000 		.4byte	0xdf1
 1870 0ab4 C80A0000 		.4byte	0xac8
 1871 0ab8 25       		.uleb128 0x25
 1872 0ab9 01       		.uleb128 0x1
 1873 0aba 50       		.byte	0x50
ARM GAS  /tmp/cctc61Pg.s 			page 34


 1874 0abb 05       		.uleb128 0x5
 1875 0abc 03       		.byte	0x3
 1876 0abd 00000000 		.4byte	.LANCHOR0
 1877 0ac1 25       		.uleb128 0x25
 1878 0ac2 01       		.uleb128 0x1
 1879 0ac3 51       		.byte	0x51
 1880 0ac4 02       		.uleb128 0x2
 1881 0ac5 7D       		.byte	0x7d
 1882 0ac6 00       		.sleb128 0
 1883 0ac7 00       		.byte	0
 1884 0ac8 24       		.uleb128 0x24
 1885 0ac9 50010000 		.4byte	.LVL37
 1886 0acd 070E0000 		.4byte	0xe07
 1887 0ad1 DB0A0000 		.4byte	0xadb
 1888 0ad5 25       		.uleb128 0x25
 1889 0ad6 01       		.uleb128 0x1
 1890 0ad7 50       		.byte	0x50
 1891 0ad8 01       		.uleb128 0x1
 1892 0ad9 34       		.byte	0x34
 1893 0ada 00       		.byte	0
 1894 0adb 24       		.uleb128 0x24
 1895 0adc 64010000 		.4byte	.LVL38
 1896 0ae0 FC0D0000 		.4byte	0xdfc
 1897 0ae4 F70A0000 		.4byte	0xaf7
 1898 0ae8 25       		.uleb128 0x25
 1899 0ae9 01       		.uleb128 0x1
 1900 0aea 50       		.byte	0x50
 1901 0aeb 05       		.uleb128 0x5
 1902 0aec 03       		.byte	0x3
 1903 0aed 00000000 		.4byte	.LANCHOR0
 1904 0af1 25       		.uleb128 0x25
 1905 0af2 01       		.uleb128 0x1
 1906 0af3 51       		.byte	0x51
 1907 0af4 01       		.uleb128 0x1
 1908 0af5 41       		.byte	0x41
 1909 0af6 00       		.byte	0
 1910 0af7 24       		.uleb128 0x24
 1911 0af8 74010000 		.4byte	.LVL41
 1912 0afc FC0D0000 		.4byte	0xdfc
 1913 0b00 130B0000 		.4byte	0xb13
 1914 0b04 25       		.uleb128 0x25
 1915 0b05 01       		.uleb128 0x1
 1916 0b06 50       		.byte	0x50
 1917 0b07 05       		.uleb128 0x5
 1918 0b08 03       		.byte	0x3
 1919 0b09 00000000 		.4byte	.LANCHOR0
 1920 0b0d 25       		.uleb128 0x25
 1921 0b0e 01       		.uleb128 0x1
 1922 0b0f 51       		.byte	0x51
 1923 0b10 01       		.uleb128 0x1
 1924 0b11 40       		.byte	0x40
 1925 0b12 00       		.byte	0
 1926 0b13 24       		.uleb128 0x24
 1927 0b14 80010000 		.4byte	.LVL44
 1928 0b18 120E0000 		.4byte	0xe12
 1929 0b1c 270B0000 		.4byte	0xb27
 1930 0b20 25       		.uleb128 0x25
ARM GAS  /tmp/cctc61Pg.s 			page 35


 1931 0b21 01       		.uleb128 0x1
 1932 0b22 50       		.byte	0x50
 1933 0b23 02       		.uleb128 0x2
 1934 0b24 74       		.byte	0x74
 1935 0b25 00       		.sleb128 0
 1936 0b26 00       		.byte	0
 1937 0b27 24       		.uleb128 0x24
 1938 0b28 8C010000 		.4byte	.LVL45
 1939 0b2c F10D0000 		.4byte	0xdf1
 1940 0b30 440B0000 		.4byte	0xb44
 1941 0b34 25       		.uleb128 0x25
 1942 0b35 01       		.uleb128 0x1
 1943 0b36 50       		.byte	0x50
 1944 0b37 05       		.uleb128 0x5
 1945 0b38 03       		.byte	0x3
 1946 0b39 00000000 		.4byte	.LANCHOR0
 1947 0b3d 25       		.uleb128 0x25
 1948 0b3e 01       		.uleb128 0x1
 1949 0b3f 51       		.byte	0x51
 1950 0b40 02       		.uleb128 0x2
 1951 0b41 7D       		.byte	0x7d
 1952 0b42 00       		.sleb128 0
 1953 0b43 00       		.byte	0
 1954 0b44 24       		.uleb128 0x24
 1955 0b45 A0010000 		.4byte	.LVL46
 1956 0b49 070E0000 		.4byte	0xe07
 1957 0b4d 570B0000 		.4byte	0xb57
 1958 0b51 25       		.uleb128 0x25
 1959 0b52 01       		.uleb128 0x1
 1960 0b53 50       		.byte	0x50
 1961 0b54 01       		.uleb128 0x1
 1962 0b55 35       		.byte	0x35
 1963 0b56 00       		.byte	0
 1964 0b57 24       		.uleb128 0x24
 1965 0b58 B4010000 		.4byte	.LVL47
 1966 0b5c FC0D0000 		.4byte	0xdfc
 1967 0b60 730B0000 		.4byte	0xb73
 1968 0b64 25       		.uleb128 0x25
 1969 0b65 01       		.uleb128 0x1
 1970 0b66 50       		.byte	0x50
 1971 0b67 05       		.uleb128 0x5
 1972 0b68 03       		.byte	0x3
 1973 0b69 00000000 		.4byte	.LANCHOR0
 1974 0b6d 25       		.uleb128 0x25
 1975 0b6e 01       		.uleb128 0x1
 1976 0b6f 51       		.byte	0x51
 1977 0b70 01       		.uleb128 0x1
 1978 0b71 40       		.byte	0x40
 1979 0b72 00       		.byte	0
 1980 0b73 24       		.uleb128 0x24
 1981 0b74 C4010000 		.4byte	.LVL50
 1982 0b78 F10D0000 		.4byte	0xdf1
 1983 0b7c 900B0000 		.4byte	0xb90
 1984 0b80 25       		.uleb128 0x25
 1985 0b81 01       		.uleb128 0x1
 1986 0b82 50       		.byte	0x50
 1987 0b83 05       		.uleb128 0x5
ARM GAS  /tmp/cctc61Pg.s 			page 36


 1988 0b84 03       		.byte	0x3
 1989 0b85 00000000 		.4byte	.LANCHOR0
 1990 0b89 25       		.uleb128 0x25
 1991 0b8a 01       		.uleb128 0x1
 1992 0b8b 51       		.byte	0x51
 1993 0b8c 02       		.uleb128 0x2
 1994 0b8d 7D       		.byte	0x7d
 1995 0b8e 00       		.sleb128 0
 1996 0b8f 00       		.byte	0
 1997 0b90 24       		.uleb128 0x24
 1998 0b91 DC010000 		.4byte	.LVL51
 1999 0b95 F10D0000 		.4byte	0xdf1
 2000 0b99 AD0B0000 		.4byte	0xbad
 2001 0b9d 25       		.uleb128 0x25
 2002 0b9e 01       		.uleb128 0x1
 2003 0b9f 50       		.byte	0x50
 2004 0ba0 05       		.uleb128 0x5
 2005 0ba1 03       		.byte	0x3
 2006 0ba2 00000000 		.4byte	.LANCHOR0
 2007 0ba6 25       		.uleb128 0x25
 2008 0ba7 01       		.uleb128 0x1
 2009 0ba8 51       		.byte	0x51
 2010 0ba9 02       		.uleb128 0x2
 2011 0baa 7D       		.byte	0x7d
 2012 0bab 00       		.sleb128 0
 2013 0bac 00       		.byte	0
 2014 0bad 24       		.uleb128 0x24
 2015 0bae F0010000 		.4byte	.LVL52
 2016 0bb2 070E0000 		.4byte	0xe07
 2017 0bb6 C00B0000 		.4byte	0xbc0
 2018 0bba 25       		.uleb128 0x25
 2019 0bbb 01       		.uleb128 0x1
 2020 0bbc 50       		.byte	0x50
 2021 0bbd 01       		.uleb128 0x1
 2022 0bbe 36       		.byte	0x36
 2023 0bbf 00       		.byte	0
 2024 0bc0 24       		.uleb128 0x24
 2025 0bc1 00020000 		.4byte	.LVL53
 2026 0bc5 120E0000 		.4byte	0xe12
 2027 0bc9 D40B0000 		.4byte	0xbd4
 2028 0bcd 25       		.uleb128 0x25
 2029 0bce 01       		.uleb128 0x1
 2030 0bcf 50       		.byte	0x50
 2031 0bd0 02       		.uleb128 0x2
 2032 0bd1 75       		.byte	0x75
 2033 0bd2 00       		.sleb128 0
 2034 0bd3 00       		.byte	0
 2035 0bd4 24       		.uleb128 0x24
 2036 0bd5 08020000 		.4byte	.LVL54
 2037 0bd9 120E0000 		.4byte	0xe12
 2038 0bdd E80B0000 		.4byte	0xbe8
 2039 0be1 25       		.uleb128 0x25
 2040 0be2 01       		.uleb128 0x1
 2041 0be3 50       		.byte	0x50
 2042 0be4 02       		.uleb128 0x2
 2043 0be5 74       		.byte	0x74
 2044 0be6 00       		.sleb128 0
ARM GAS  /tmp/cctc61Pg.s 			page 37


 2045 0be7 00       		.byte	0
 2046 0be8 24       		.uleb128 0x24
 2047 0be9 14020000 		.4byte	.LVL55
 2048 0bed F10D0000 		.4byte	0xdf1
 2049 0bf1 050C0000 		.4byte	0xc05
 2050 0bf5 25       		.uleb128 0x25
 2051 0bf6 01       		.uleb128 0x1
 2052 0bf7 50       		.byte	0x50
 2053 0bf8 05       		.uleb128 0x5
 2054 0bf9 03       		.byte	0x3
 2055 0bfa 00000000 		.4byte	.LANCHOR0
 2056 0bfe 25       		.uleb128 0x25
 2057 0bff 01       		.uleb128 0x1
 2058 0c00 51       		.byte	0x51
 2059 0c01 02       		.uleb128 0x2
 2060 0c02 7D       		.byte	0x7d
 2061 0c03 00       		.sleb128 0
 2062 0c04 00       		.byte	0
 2063 0c05 24       		.uleb128 0x24
 2064 0c06 28020000 		.4byte	.LVL56
 2065 0c0a 070E0000 		.4byte	0xe07
 2066 0c0e 180C0000 		.4byte	0xc18
 2067 0c12 25       		.uleb128 0x25
 2068 0c13 01       		.uleb128 0x1
 2069 0c14 50       		.byte	0x50
 2070 0c15 01       		.uleb128 0x1
 2071 0c16 37       		.byte	0x37
 2072 0c17 00       		.byte	0
 2073 0c18 24       		.uleb128 0x24
 2074 0c19 3C020000 		.4byte	.LVL57
 2075 0c1d FC0D0000 		.4byte	0xdfc
 2076 0c21 340C0000 		.4byte	0xc34
 2077 0c25 25       		.uleb128 0x25
 2078 0c26 01       		.uleb128 0x1
 2079 0c27 50       		.byte	0x50
 2080 0c28 05       		.uleb128 0x5
 2081 0c29 03       		.byte	0x3
 2082 0c2a 00000000 		.4byte	.LANCHOR0
 2083 0c2e 25       		.uleb128 0x25
 2084 0c2f 01       		.uleb128 0x1
 2085 0c30 51       		.byte	0x51
 2086 0c31 01       		.uleb128 0x1
 2087 0c32 40       		.byte	0x40
 2088 0c33 00       		.byte	0
 2089 0c34 24       		.uleb128 0x24
 2090 0c35 4C020000 		.4byte	.LVL60
 2091 0c39 FC0D0000 		.4byte	0xdfc
 2092 0c3d 500C0000 		.4byte	0xc50
 2093 0c41 25       		.uleb128 0x25
 2094 0c42 01       		.uleb128 0x1
 2095 0c43 50       		.byte	0x50
 2096 0c44 05       		.uleb128 0x5
 2097 0c45 03       		.byte	0x3
 2098 0c46 00000000 		.4byte	.LANCHOR0
 2099 0c4a 25       		.uleb128 0x25
 2100 0c4b 01       		.uleb128 0x1
 2101 0c4c 51       		.byte	0x51
ARM GAS  /tmp/cctc61Pg.s 			page 38


 2102 0c4d 01       		.uleb128 0x1
 2103 0c4e 40       		.byte	0x40
 2104 0c4f 00       		.byte	0
 2105 0c50 24       		.uleb128 0x24
 2106 0c51 58020000 		.4byte	.LVL63
 2107 0c55 120E0000 		.4byte	0xe12
 2108 0c59 640C0000 		.4byte	0xc64
 2109 0c5d 25       		.uleb128 0x25
 2110 0c5e 01       		.uleb128 0x1
 2111 0c5f 50       		.byte	0x50
 2112 0c60 02       		.uleb128 0x2
 2113 0c61 75       		.byte	0x75
 2114 0c62 00       		.sleb128 0
 2115 0c63 00       		.byte	0
 2116 0c64 24       		.uleb128 0x24
 2117 0c65 64020000 		.4byte	.LVL64
 2118 0c69 F10D0000 		.4byte	0xdf1
 2119 0c6d 810C0000 		.4byte	0xc81
 2120 0c71 25       		.uleb128 0x25
 2121 0c72 01       		.uleb128 0x1
 2122 0c73 50       		.byte	0x50
 2123 0c74 05       		.uleb128 0x5
 2124 0c75 03       		.byte	0x3
 2125 0c76 00000000 		.4byte	.LANCHOR0
 2126 0c7a 25       		.uleb128 0x25
 2127 0c7b 01       		.uleb128 0x1
 2128 0c7c 51       		.byte	0x51
 2129 0c7d 02       		.uleb128 0x2
 2130 0c7e 7D       		.byte	0x7d
 2131 0c7f 00       		.sleb128 0
 2132 0c80 00       		.byte	0
 2133 0c81 24       		.uleb128 0x24
 2134 0c82 78020000 		.4byte	.LVL65
 2135 0c86 070E0000 		.4byte	0xe07
 2136 0c8a 940C0000 		.4byte	0xc94
 2137 0c8e 25       		.uleb128 0x25
 2138 0c8f 01       		.uleb128 0x1
 2139 0c90 50       		.byte	0x50
 2140 0c91 01       		.uleb128 0x1
 2141 0c92 38       		.byte	0x38
 2142 0c93 00       		.byte	0
 2143 0c94 24       		.uleb128 0x24
 2144 0c95 8C020000 		.4byte	.LVL66
 2145 0c99 FC0D0000 		.4byte	0xdfc
 2146 0c9d B10C0000 		.4byte	0xcb1
 2147 0ca1 25       		.uleb128 0x25
 2148 0ca2 01       		.uleb128 0x1
 2149 0ca3 50       		.byte	0x50
 2150 0ca4 05       		.uleb128 0x5
 2151 0ca5 03       		.byte	0x3
 2152 0ca6 00000000 		.4byte	.LANCHOR0
 2153 0caa 25       		.uleb128 0x25
 2154 0cab 01       		.uleb128 0x1
 2155 0cac 51       		.byte	0x51
 2156 0cad 02       		.uleb128 0x2
 2157 0cae 08       		.byte	0x8
 2158 0caf 20       		.byte	0x20
ARM GAS  /tmp/cctc61Pg.s 			page 39


 2159 0cb0 00       		.byte	0
 2160 0cb1 23       		.uleb128 0x23
 2161 0cb2 90020000 		.4byte	.LVL67
 2162 0cb6 120E0000 		.4byte	0xe12
 2163 0cba 24       		.uleb128 0x24
 2164 0cbb 98020000 		.4byte	.LVL68
 2165 0cbf 120E0000 		.4byte	0xe12
 2166 0cc3 CE0C0000 		.4byte	0xcce
 2167 0cc7 25       		.uleb128 0x25
 2168 0cc8 01       		.uleb128 0x1
 2169 0cc9 50       		.byte	0x50
 2170 0cca 02       		.uleb128 0x2
 2171 0ccb 74       		.byte	0x74
 2172 0ccc 00       		.sleb128 0
 2173 0ccd 00       		.byte	0
 2174 0cce 24       		.uleb128 0x24
 2175 0ccf A4020000 		.4byte	.LVL69
 2176 0cd3 F10D0000 		.4byte	0xdf1
 2177 0cd7 EB0C0000 		.4byte	0xceb
 2178 0cdb 25       		.uleb128 0x25
 2179 0cdc 01       		.uleb128 0x1
 2180 0cdd 50       		.byte	0x50
 2181 0cde 05       		.uleb128 0x5
 2182 0cdf 03       		.byte	0x3
 2183 0ce0 00000000 		.4byte	.LANCHOR0
 2184 0ce4 25       		.uleb128 0x25
 2185 0ce5 01       		.uleb128 0x1
 2186 0ce6 51       		.byte	0x51
 2187 0ce7 02       		.uleb128 0x2
 2188 0ce8 7D       		.byte	0x7d
 2189 0ce9 00       		.sleb128 0
 2190 0cea 00       		.byte	0
 2191 0ceb 24       		.uleb128 0x24
 2192 0cec B8020000 		.4byte	.LVL70
 2193 0cf0 070E0000 		.4byte	0xe07
 2194 0cf4 FE0C0000 		.4byte	0xcfe
 2195 0cf8 25       		.uleb128 0x25
 2196 0cf9 01       		.uleb128 0x1
 2197 0cfa 50       		.byte	0x50
 2198 0cfb 01       		.uleb128 0x1
 2199 0cfc 39       		.byte	0x39
 2200 0cfd 00       		.byte	0
 2201 0cfe 24       		.uleb128 0x24
 2202 0cff CC020000 		.4byte	.LVL71
 2203 0d03 F10D0000 		.4byte	0xdf1
 2204 0d07 1B0D0000 		.4byte	0xd1b
 2205 0d0b 25       		.uleb128 0x25
 2206 0d0c 01       		.uleb128 0x1
 2207 0d0d 50       		.byte	0x50
 2208 0d0e 05       		.uleb128 0x5
 2209 0d0f 03       		.byte	0x3
 2210 0d10 00000000 		.4byte	.LANCHOR0
 2211 0d14 25       		.uleb128 0x25
 2212 0d15 01       		.uleb128 0x1
 2213 0d16 51       		.byte	0x51
 2214 0d17 02       		.uleb128 0x2
 2215 0d18 7D       		.byte	0x7d
ARM GAS  /tmp/cctc61Pg.s 			page 40


 2216 0d19 00       		.sleb128 0
 2217 0d1a 00       		.byte	0
 2218 0d1b 24       		.uleb128 0x24
 2219 0d1c D8020000 		.4byte	.LVL72
 2220 0d20 FC0D0000 		.4byte	0xdfc
 2221 0d24 320D0000 		.4byte	0xd32
 2222 0d28 25       		.uleb128 0x25
 2223 0d29 01       		.uleb128 0x1
 2224 0d2a 50       		.byte	0x50
 2225 0d2b 05       		.uleb128 0x5
 2226 0d2c 03       		.byte	0x3
 2227 0d2d 00000000 		.4byte	.LANCHOR0
 2228 0d31 00       		.byte	0
 2229 0d32 24       		.uleb128 0x24
 2230 0d33 E8020000 		.4byte	.LVL75
 2231 0d37 F10D0000 		.4byte	0xdf1
 2232 0d3b 4F0D0000 		.4byte	0xd4f
 2233 0d3f 25       		.uleb128 0x25
 2234 0d40 01       		.uleb128 0x1
 2235 0d41 50       		.byte	0x50
 2236 0d42 05       		.uleb128 0x5
 2237 0d43 03       		.byte	0x3
 2238 0d44 00000000 		.4byte	.LANCHOR0
 2239 0d48 25       		.uleb128 0x25
 2240 0d49 01       		.uleb128 0x1
 2241 0d4a 51       		.byte	0x51
 2242 0d4b 02       		.uleb128 0x2
 2243 0d4c 7D       		.byte	0x7d
 2244 0d4d 00       		.sleb128 0
 2245 0d4e 00       		.byte	0
 2246 0d4f 24       		.uleb128 0x24
 2247 0d50 F8020000 		.4byte	.LVL76
 2248 0d54 070E0000 		.4byte	0xe07
 2249 0d58 620D0000 		.4byte	0xd62
 2250 0d5c 25       		.uleb128 0x25
 2251 0d5d 01       		.uleb128 0x1
 2252 0d5e 50       		.byte	0x50
 2253 0d5f 01       		.uleb128 0x1
 2254 0d60 3A       		.byte	0x3a
 2255 0d61 00       		.byte	0
 2256 0d62 24       		.uleb128 0x24
 2257 0d63 08030000 		.4byte	.LVL77
 2258 0d67 120E0000 		.4byte	0xe12
 2259 0d6b 760D0000 		.4byte	0xd76
 2260 0d6f 25       		.uleb128 0x25
 2261 0d70 01       		.uleb128 0x1
 2262 0d71 50       		.byte	0x50
 2263 0d72 02       		.uleb128 0x2
 2264 0d73 74       		.byte	0x74
 2265 0d74 00       		.sleb128 0
 2266 0d75 00       		.byte	0
 2267 0d76 24       		.uleb128 0x24
 2268 0d77 14030000 		.4byte	.LVL78
 2269 0d7b F10D0000 		.4byte	0xdf1
 2270 0d7f 930D0000 		.4byte	0xd93
 2271 0d83 25       		.uleb128 0x25
 2272 0d84 01       		.uleb128 0x1
ARM GAS  /tmp/cctc61Pg.s 			page 41


 2273 0d85 50       		.byte	0x50
 2274 0d86 05       		.uleb128 0x5
 2275 0d87 03       		.byte	0x3
 2276 0d88 00000000 		.4byte	.LANCHOR0
 2277 0d8c 25       		.uleb128 0x25
 2278 0d8d 01       		.uleb128 0x1
 2279 0d8e 51       		.byte	0x51
 2280 0d8f 02       		.uleb128 0x2
 2281 0d90 7D       		.byte	0x7d
 2282 0d91 00       		.sleb128 0
 2283 0d92 00       		.byte	0
 2284 0d93 24       		.uleb128 0x24
 2285 0d94 28030000 		.4byte	.LVL79
 2286 0d98 070E0000 		.4byte	0xe07
 2287 0d9c A60D0000 		.4byte	0xda6
 2288 0da0 25       		.uleb128 0x25
 2289 0da1 01       		.uleb128 0x1
 2290 0da2 50       		.byte	0x50
 2291 0da3 01       		.uleb128 0x1
 2292 0da4 3B       		.byte	0x3b
 2293 0da5 00       		.byte	0
 2294 0da6 26       		.uleb128 0x26
 2295 0da7 48030000 		.4byte	.LVL80
 2296 0dab 070E0000 		.4byte	0xe07
 2297 0daf 25       		.uleb128 0x25
 2298 0db0 01       		.uleb128 0x1
 2299 0db1 50       		.byte	0x50
 2300 0db2 01       		.uleb128 0x1
 2301 0db3 3C       		.byte	0x3c
 2302 0db4 00       		.byte	0
 2303 0db5 00       		.byte	0
 2304 0db6 20       		.uleb128 0x20
 2305 0db7 36010000 		.4byte	.LASF126
 2306 0dbb 01       		.byte	0x1
 2307 0dbc 44       		.byte	0x44
 2308 0dbd 00000000 		.4byte	.LFB7
 2309 0dc1 1C000000 		.4byte	.LFE7-.LFB7
 2310 0dc5 01       		.uleb128 0x1
 2311 0dc6 9C       		.byte	0x9c
 2312 0dc7 E60D0000 		.4byte	0xde6
 2313 0dcb 27       		.uleb128 0x27
 2314 0dcc 10000000 		.4byte	.LVL81
 2315 0dd0 1D0E0000 		.4byte	0xe1d
 2316 0dd4 25       		.uleb128 0x25
 2317 0dd5 01       		.uleb128 0x1
 2318 0dd6 50       		.byte	0x50
 2319 0dd7 05       		.uleb128 0x5
 2320 0dd8 03       		.byte	0x3
 2321 0dd9 00000000 		.4byte	.LANCHOR0
 2322 0ddd 25       		.uleb128 0x25
 2323 0dde 01       		.uleb128 0x1
 2324 0ddf 52       		.byte	0x52
 2325 0de0 03       		.uleb128 0x3
 2326 0de1 0A       		.byte	0xa
 2327 0de2 7805     		.2byte	0x578
 2328 0de4 00       		.byte	0
 2329 0de5 00       		.byte	0
ARM GAS  /tmp/cctc61Pg.s 			page 42


 2330 0de6 28       		.uleb128 0x28
 2331 0de7 D3020000 		.4byte	.LASF127
 2332 0deb D3020000 		.4byte	.LASF127
 2333 0def 0C       		.byte	0xc
 2334 0df0 4D       		.byte	0x4d
 2335 0df1 28       		.uleb128 0x28
 2336 0df2 7D040000 		.4byte	.LASF128
 2337 0df6 7D040000 		.4byte	.LASF128
 2338 0dfa 0D       		.byte	0xd
 2339 0dfb 54       		.byte	0x54
 2340 0dfc 28       		.uleb128 0x28
 2341 0dfd 04040000 		.4byte	.LASF129
 2342 0e01 04040000 		.4byte	.LASF129
 2343 0e05 0D       		.byte	0xd
 2344 0e06 52       		.byte	0x52
 2345 0e07 28       		.uleb128 0x28
 2346 0e08 93050000 		.4byte	.LASF130
 2347 0e0c 93050000 		.4byte	.LASF130
 2348 0e10 10       		.byte	0x10
 2349 0e11 5C       		.byte	0x5c
 2350 0e12 28       		.uleb128 0x28
 2351 0e13 2B010000 		.4byte	.LASF131
 2352 0e17 2B010000 		.4byte	.LASF131
 2353 0e1b 0D       		.byte	0xd
 2354 0e1c 53       		.byte	0x53
 2355 0e1d 28       		.uleb128 0x28
 2356 0e1e A6000000 		.4byte	.LASF132
 2357 0e22 A6000000 		.4byte	.LASF132
 2358 0e26 0D       		.byte	0xd
 2359 0e27 50       		.byte	0x50
 2360 0e28 00       		.byte	0
 2361              		.section	.debug_abbrev,"",%progbits
 2362              	.Ldebug_abbrev0:
 2363 0000 01       		.uleb128 0x1
 2364 0001 11       		.uleb128 0x11
 2365 0002 01       		.byte	0x1
 2366 0003 25       		.uleb128 0x25
 2367 0004 0E       		.uleb128 0xe
 2368 0005 13       		.uleb128 0x13
 2369 0006 0B       		.uleb128 0xb
 2370 0007 03       		.uleb128 0x3
 2371 0008 0E       		.uleb128 0xe
 2372 0009 1B       		.uleb128 0x1b
 2373 000a 0E       		.uleb128 0xe
 2374 000b 55       		.uleb128 0x55
 2375 000c 17       		.uleb128 0x17
 2376 000d 11       		.uleb128 0x11
 2377 000e 01       		.uleb128 0x1
 2378 000f 10       		.uleb128 0x10
 2379 0010 17       		.uleb128 0x17
 2380 0011 00       		.byte	0
 2381 0012 00       		.byte	0
 2382 0013 02       		.uleb128 0x2
 2383 0014 24       		.uleb128 0x24
 2384 0015 00       		.byte	0
 2385 0016 0B       		.uleb128 0xb
 2386 0017 0B       		.uleb128 0xb
ARM GAS  /tmp/cctc61Pg.s 			page 43


 2387 0018 3E       		.uleb128 0x3e
 2388 0019 0B       		.uleb128 0xb
 2389 001a 03       		.uleb128 0x3
 2390 001b 08       		.uleb128 0x8
 2391 001c 00       		.byte	0
 2392 001d 00       		.byte	0
 2393 001e 03       		.uleb128 0x3
 2394 001f 16       		.uleb128 0x16
 2395 0020 00       		.byte	0
 2396 0021 03       		.uleb128 0x3
 2397 0022 0E       		.uleb128 0xe
 2398 0023 3A       		.uleb128 0x3a
 2399 0024 0B       		.uleb128 0xb
 2400 0025 3B       		.uleb128 0x3b
 2401 0026 0B       		.uleb128 0xb
 2402 0027 49       		.uleb128 0x49
 2403 0028 13       		.uleb128 0x13
 2404 0029 00       		.byte	0
 2405 002a 00       		.byte	0
 2406 002b 04       		.uleb128 0x4
 2407 002c 24       		.uleb128 0x24
 2408 002d 00       		.byte	0
 2409 002e 0B       		.uleb128 0xb
 2410 002f 0B       		.uleb128 0xb
 2411 0030 3E       		.uleb128 0x3e
 2412 0031 0B       		.uleb128 0xb
 2413 0032 03       		.uleb128 0x3
 2414 0033 0E       		.uleb128 0xe
 2415 0034 00       		.byte	0
 2416 0035 00       		.byte	0
 2417 0036 05       		.uleb128 0x5
 2418 0037 35       		.uleb128 0x35
 2419 0038 00       		.byte	0
 2420 0039 49       		.uleb128 0x49
 2421 003a 13       		.uleb128 0x13
 2422 003b 00       		.byte	0
 2423 003c 00       		.byte	0
 2424 003d 06       		.uleb128 0x6
 2425 003e 13       		.uleb128 0x13
 2426 003f 01       		.byte	0x1
 2427 0040 03       		.uleb128 0x3
 2428 0041 0E       		.uleb128 0xe
 2429 0042 0B       		.uleb128 0xb
 2430 0043 0B       		.uleb128 0xb
 2431 0044 3A       		.uleb128 0x3a
 2432 0045 0B       		.uleb128 0xb
 2433 0046 3B       		.uleb128 0x3b
 2434 0047 0B       		.uleb128 0xb
 2435 0048 01       		.uleb128 0x1
 2436 0049 13       		.uleb128 0x13
 2437 004a 00       		.byte	0
 2438 004b 00       		.byte	0
 2439 004c 07       		.uleb128 0x7
 2440 004d 0D       		.uleb128 0xd
 2441 004e 00       		.byte	0
 2442 004f 03       		.uleb128 0x3
 2443 0050 0E       		.uleb128 0xe
ARM GAS  /tmp/cctc61Pg.s 			page 44


 2444 0051 3A       		.uleb128 0x3a
 2445 0052 0B       		.uleb128 0xb
 2446 0053 3B       		.uleb128 0x3b
 2447 0054 0B       		.uleb128 0xb
 2448 0055 49       		.uleb128 0x49
 2449 0056 13       		.uleb128 0x13
 2450 0057 38       		.uleb128 0x38
 2451 0058 0B       		.uleb128 0xb
 2452 0059 00       		.byte	0
 2453 005a 00       		.byte	0
 2454 005b 08       		.uleb128 0x8
 2455 005c 0D       		.uleb128 0xd
 2456 005d 00       		.byte	0
 2457 005e 03       		.uleb128 0x3
 2458 005f 08       		.uleb128 0x8
 2459 0060 3A       		.uleb128 0x3a
 2460 0061 0B       		.uleb128 0xb
 2461 0062 3B       		.uleb128 0x3b
 2462 0063 0B       		.uleb128 0xb
 2463 0064 49       		.uleb128 0x49
 2464 0065 13       		.uleb128 0x13
 2465 0066 38       		.uleb128 0x38
 2466 0067 0B       		.uleb128 0xb
 2467 0068 00       		.byte	0
 2468 0069 00       		.byte	0
 2469 006a 09       		.uleb128 0x9
 2470 006b 13       		.uleb128 0x13
 2471 006c 01       		.byte	0x1
 2472 006d 0B       		.uleb128 0xb
 2473 006e 0B       		.uleb128 0xb
 2474 006f 3A       		.uleb128 0x3a
 2475 0070 0B       		.uleb128 0xb
 2476 0071 3B       		.uleb128 0x3b
 2477 0072 0B       		.uleb128 0xb
 2478 0073 01       		.uleb128 0x1
 2479 0074 13       		.uleb128 0x13
 2480 0075 00       		.byte	0
 2481 0076 00       		.byte	0
 2482 0077 0A       		.uleb128 0xa
 2483 0078 0F       		.uleb128 0xf
 2484 0079 00       		.byte	0
 2485 007a 0B       		.uleb128 0xb
 2486 007b 0B       		.uleb128 0xb
 2487 007c 49       		.uleb128 0x49
 2488 007d 13       		.uleb128 0x13
 2489 007e 00       		.byte	0
 2490 007f 00       		.byte	0
 2491 0080 0B       		.uleb128 0xb
 2492 0081 0F       		.uleb128 0xf
 2493 0082 00       		.byte	0
 2494 0083 0B       		.uleb128 0xb
 2495 0084 0B       		.uleb128 0xb
 2496 0085 00       		.byte	0
 2497 0086 00       		.byte	0
 2498 0087 0C       		.uleb128 0xc
 2499 0088 26       		.uleb128 0x26
 2500 0089 00       		.byte	0
ARM GAS  /tmp/cctc61Pg.s 			page 45


 2501 008a 49       		.uleb128 0x49
 2502 008b 13       		.uleb128 0x13
 2503 008c 00       		.byte	0
 2504 008d 00       		.byte	0
 2505 008e 0D       		.uleb128 0xd
 2506 008f 15       		.uleb128 0x15
 2507 0090 01       		.byte	0x1
 2508 0091 27       		.uleb128 0x27
 2509 0092 19       		.uleb128 0x19
 2510 0093 01       		.uleb128 0x1
 2511 0094 13       		.uleb128 0x13
 2512 0095 00       		.byte	0
 2513 0096 00       		.byte	0
 2514 0097 0E       		.uleb128 0xe
 2515 0098 05       		.uleb128 0x5
 2516 0099 00       		.byte	0
 2517 009a 49       		.uleb128 0x49
 2518 009b 13       		.uleb128 0x13
 2519 009c 00       		.byte	0
 2520 009d 00       		.byte	0
 2521 009e 0F       		.uleb128 0xf
 2522 009f 34       		.uleb128 0x34
 2523 00a0 00       		.byte	0
 2524 00a1 03       		.uleb128 0x3
 2525 00a2 0E       		.uleb128 0xe
 2526 00a3 3A       		.uleb128 0x3a
 2527 00a4 0B       		.uleb128 0xb
 2528 00a5 3B       		.uleb128 0x3b
 2529 00a6 0B       		.uleb128 0xb
 2530 00a7 49       		.uleb128 0x49
 2531 00a8 13       		.uleb128 0x13
 2532 00a9 3F       		.uleb128 0x3f
 2533 00aa 19       		.uleb128 0x19
 2534 00ab 3C       		.uleb128 0x3c
 2535 00ac 19       		.uleb128 0x19
 2536 00ad 00       		.byte	0
 2537 00ae 00       		.byte	0
 2538 00af 10       		.uleb128 0x10
 2539 00b0 15       		.uleb128 0x15
 2540 00b1 01       		.byte	0x1
 2541 00b2 27       		.uleb128 0x27
 2542 00b3 19       		.uleb128 0x19
 2543 00b4 49       		.uleb128 0x49
 2544 00b5 13       		.uleb128 0x13
 2545 00b6 01       		.uleb128 0x1
 2546 00b7 13       		.uleb128 0x13
 2547 00b8 00       		.byte	0
 2548 00b9 00       		.byte	0
 2549 00ba 11       		.uleb128 0x11
 2550 00bb 17       		.uleb128 0x17
 2551 00bc 01       		.byte	0x1
 2552 00bd 0B       		.uleb128 0xb
 2553 00be 0B       		.uleb128 0xb
 2554 00bf 3A       		.uleb128 0x3a
 2555 00c0 0B       		.uleb128 0xb
 2556 00c1 3B       		.uleb128 0x3b
 2557 00c2 0B       		.uleb128 0xb
ARM GAS  /tmp/cctc61Pg.s 			page 46


 2558 00c3 01       		.uleb128 0x1
 2559 00c4 13       		.uleb128 0x13
 2560 00c5 00       		.byte	0
 2561 00c6 00       		.byte	0
 2562 00c7 12       		.uleb128 0x12
 2563 00c8 0D       		.uleb128 0xd
 2564 00c9 00       		.byte	0
 2565 00ca 03       		.uleb128 0x3
 2566 00cb 0E       		.uleb128 0xe
 2567 00cc 3A       		.uleb128 0x3a
 2568 00cd 0B       		.uleb128 0xb
 2569 00ce 3B       		.uleb128 0x3b
 2570 00cf 0B       		.uleb128 0xb
 2571 00d0 49       		.uleb128 0x49
 2572 00d1 13       		.uleb128 0x13
 2573 00d2 00       		.byte	0
 2574 00d3 00       		.byte	0
 2575 00d4 13       		.uleb128 0x13
 2576 00d5 17       		.uleb128 0x17
 2577 00d6 01       		.byte	0x1
 2578 00d7 03       		.uleb128 0x3
 2579 00d8 0E       		.uleb128 0xe
 2580 00d9 0B       		.uleb128 0xb
 2581 00da 0B       		.uleb128 0xb
 2582 00db 3A       		.uleb128 0x3a
 2583 00dc 0B       		.uleb128 0xb
 2584 00dd 3B       		.uleb128 0x3b
 2585 00de 0B       		.uleb128 0xb
 2586 00df 01       		.uleb128 0x1
 2587 00e0 13       		.uleb128 0x13
 2588 00e1 00       		.byte	0
 2589 00e2 00       		.byte	0
 2590 00e3 14       		.uleb128 0x14
 2591 00e4 0D       		.uleb128 0xd
 2592 00e5 00       		.byte	0
 2593 00e6 03       		.uleb128 0x3
 2594 00e7 08       		.uleb128 0x8
 2595 00e8 3A       		.uleb128 0x3a
 2596 00e9 0B       		.uleb128 0xb
 2597 00ea 3B       		.uleb128 0x3b
 2598 00eb 0B       		.uleb128 0xb
 2599 00ec 49       		.uleb128 0x49
 2600 00ed 13       		.uleb128 0x13
 2601 00ee 00       		.byte	0
 2602 00ef 00       		.byte	0
 2603 00f0 15       		.uleb128 0x15
 2604 00f1 01       		.uleb128 0x1
 2605 00f2 01       		.byte	0x1
 2606 00f3 49       		.uleb128 0x49
 2607 00f4 13       		.uleb128 0x13
 2608 00f5 01       		.uleb128 0x1
 2609 00f6 13       		.uleb128 0x13
 2610 00f7 00       		.byte	0
 2611 00f8 00       		.byte	0
 2612 00f9 16       		.uleb128 0x16
 2613 00fa 21       		.uleb128 0x21
 2614 00fb 00       		.byte	0
ARM GAS  /tmp/cctc61Pg.s 			page 47


 2615 00fc 49       		.uleb128 0x49
 2616 00fd 13       		.uleb128 0x13
 2617 00fe 2F       		.uleb128 0x2f
 2618 00ff 0B       		.uleb128 0xb
 2619 0100 00       		.byte	0
 2620 0101 00       		.byte	0
 2621 0102 17       		.uleb128 0x17
 2622 0103 15       		.uleb128 0x15
 2623 0104 00       		.byte	0
 2624 0105 27       		.uleb128 0x27
 2625 0106 19       		.uleb128 0x19
 2626 0107 00       		.byte	0
 2627 0108 00       		.byte	0
 2628 0109 18       		.uleb128 0x18
 2629 010a 13       		.uleb128 0x13
 2630 010b 01       		.byte	0x1
 2631 010c 0B       		.uleb128 0xb
 2632 010d 05       		.uleb128 0x5
 2633 010e 3A       		.uleb128 0x3a
 2634 010f 0B       		.uleb128 0xb
 2635 0110 3B       		.uleb128 0x3b
 2636 0111 0B       		.uleb128 0xb
 2637 0112 01       		.uleb128 0x1
 2638 0113 13       		.uleb128 0x13
 2639 0114 00       		.byte	0
 2640 0115 00       		.byte	0
 2641 0116 19       		.uleb128 0x19
 2642 0117 0D       		.uleb128 0xd
 2643 0118 00       		.byte	0
 2644 0119 03       		.uleb128 0x3
 2645 011a 08       		.uleb128 0x8
 2646 011b 3A       		.uleb128 0x3a
 2647 011c 0B       		.uleb128 0xb
 2648 011d 3B       		.uleb128 0x3b
 2649 011e 0B       		.uleb128 0xb
 2650 011f 49       		.uleb128 0x49
 2651 0120 13       		.uleb128 0x13
 2652 0121 38       		.uleb128 0x38
 2653 0122 05       		.uleb128 0x5
 2654 0123 00       		.byte	0
 2655 0124 00       		.byte	0
 2656 0125 1A       		.uleb128 0x1a
 2657 0126 17       		.uleb128 0x17
 2658 0127 01       		.byte	0x1
 2659 0128 03       		.uleb128 0x3
 2660 0129 0E       		.uleb128 0xe
 2661 012a 0B       		.uleb128 0xb
 2662 012b 05       		.uleb128 0x5
 2663 012c 3A       		.uleb128 0x3a
 2664 012d 0B       		.uleb128 0xb
 2665 012e 3B       		.uleb128 0x3b
 2666 012f 0B       		.uleb128 0xb
 2667 0130 01       		.uleb128 0x1
 2668 0131 13       		.uleb128 0x13
 2669 0132 00       		.byte	0
 2670 0133 00       		.byte	0
 2671 0134 1B       		.uleb128 0x1b
ARM GAS  /tmp/cctc61Pg.s 			page 48


 2672 0135 21       		.uleb128 0x21
 2673 0136 00       		.byte	0
 2674 0137 49       		.uleb128 0x49
 2675 0138 13       		.uleb128 0x13
 2676 0139 2F       		.uleb128 0x2f
 2677 013a 05       		.uleb128 0x5
 2678 013b 00       		.byte	0
 2679 013c 00       		.byte	0
 2680 013d 1C       		.uleb128 0x1c
 2681 013e 21       		.uleb128 0x21
 2682 013f 00       		.byte	0
 2683 0140 00       		.byte	0
 2684 0141 00       		.byte	0
 2685 0142 1D       		.uleb128 0x1d
 2686 0143 34       		.uleb128 0x34
 2687 0144 00       		.byte	0
 2688 0145 03       		.uleb128 0x3
 2689 0146 08       		.uleb128 0x8
 2690 0147 3A       		.uleb128 0x3a
 2691 0148 0B       		.uleb128 0xb
 2692 0149 3B       		.uleb128 0x3b
 2693 014a 0B       		.uleb128 0xb
 2694 014b 49       		.uleb128 0x49
 2695 014c 13       		.uleb128 0x13
 2696 014d 3F       		.uleb128 0x3f
 2697 014e 19       		.uleb128 0x19
 2698 014f 3C       		.uleb128 0x3c
 2699 0150 19       		.uleb128 0x19
 2700 0151 00       		.byte	0
 2701 0152 00       		.byte	0
 2702 0153 1E       		.uleb128 0x1e
 2703 0154 34       		.uleb128 0x34
 2704 0155 00       		.byte	0
 2705 0156 03       		.uleb128 0x3
 2706 0157 0E       		.uleb128 0xe
 2707 0158 3A       		.uleb128 0x3a
 2708 0159 0B       		.uleb128 0xb
 2709 015a 3B       		.uleb128 0x3b
 2710 015b 0B       		.uleb128 0xb
 2711 015c 49       		.uleb128 0x49
 2712 015d 13       		.uleb128 0x13
 2713 015e 02       		.uleb128 0x2
 2714 015f 18       		.uleb128 0x18
 2715 0160 00       		.byte	0
 2716 0161 00       		.byte	0
 2717 0162 1F       		.uleb128 0x1f
 2718 0163 34       		.uleb128 0x34
 2719 0164 00       		.byte	0
 2720 0165 03       		.uleb128 0x3
 2721 0166 0E       		.uleb128 0xe
 2722 0167 3A       		.uleb128 0x3a
 2723 0168 0B       		.uleb128 0xb
 2724 0169 3B       		.uleb128 0x3b
 2725 016a 0B       		.uleb128 0xb
 2726 016b 49       		.uleb128 0x49
 2727 016c 13       		.uleb128 0x13
 2728 016d 3F       		.uleb128 0x3f
ARM GAS  /tmp/cctc61Pg.s 			page 49


 2729 016e 19       		.uleb128 0x19
 2730 016f 02       		.uleb128 0x2
 2731 0170 18       		.uleb128 0x18
 2732 0171 00       		.byte	0
 2733 0172 00       		.byte	0
 2734 0173 20       		.uleb128 0x20
 2735 0174 2E       		.uleb128 0x2e
 2736 0175 01       		.byte	0x1
 2737 0176 03       		.uleb128 0x3
 2738 0177 0E       		.uleb128 0xe
 2739 0178 3A       		.uleb128 0x3a
 2740 0179 0B       		.uleb128 0xb
 2741 017a 3B       		.uleb128 0x3b
 2742 017b 0B       		.uleb128 0xb
 2743 017c 27       		.uleb128 0x27
 2744 017d 19       		.uleb128 0x19
 2745 017e 11       		.uleb128 0x11
 2746 017f 01       		.uleb128 0x1
 2747 0180 12       		.uleb128 0x12
 2748 0181 06       		.uleb128 0x6
 2749 0182 40       		.uleb128 0x40
 2750 0183 18       		.uleb128 0x18
 2751 0184 9742     		.uleb128 0x2117
 2752 0186 19       		.uleb128 0x19
 2753 0187 01       		.uleb128 0x1
 2754 0188 13       		.uleb128 0x13
 2755 0189 00       		.byte	0
 2756 018a 00       		.byte	0
 2757 018b 21       		.uleb128 0x21
 2758 018c 34       		.uleb128 0x34
 2759 018d 00       		.byte	0
 2760 018e 03       		.uleb128 0x3
 2761 018f 08       		.uleb128 0x8
 2762 0190 3A       		.uleb128 0x3a
 2763 0191 0B       		.uleb128 0xb
 2764 0192 3B       		.uleb128 0x3b
 2765 0193 0B       		.uleb128 0xb
 2766 0194 49       		.uleb128 0x49
 2767 0195 13       		.uleb128 0x13
 2768 0196 02       		.uleb128 0x2
 2769 0197 17       		.uleb128 0x17
 2770 0198 00       		.byte	0
 2771 0199 00       		.byte	0
 2772 019a 22       		.uleb128 0x22
 2773 019b 34       		.uleb128 0x34
 2774 019c 00       		.byte	0
 2775 019d 03       		.uleb128 0x3
 2776 019e 08       		.uleb128 0x8
 2777 019f 3A       		.uleb128 0x3a
 2778 01a0 0B       		.uleb128 0xb
 2779 01a1 3B       		.uleb128 0x3b
 2780 01a2 0B       		.uleb128 0xb
 2781 01a3 49       		.uleb128 0x49
 2782 01a4 13       		.uleb128 0x13
 2783 01a5 02       		.uleb128 0x2
 2784 01a6 18       		.uleb128 0x18
 2785 01a7 00       		.byte	0
ARM GAS  /tmp/cctc61Pg.s 			page 50


 2786 01a8 00       		.byte	0
 2787 01a9 23       		.uleb128 0x23
 2788 01aa 898201   		.uleb128 0x4109
 2789 01ad 00       		.byte	0
 2790 01ae 11       		.uleb128 0x11
 2791 01af 01       		.uleb128 0x1
 2792 01b0 31       		.uleb128 0x31
 2793 01b1 13       		.uleb128 0x13
 2794 01b2 00       		.byte	0
 2795 01b3 00       		.byte	0
 2796 01b4 24       		.uleb128 0x24
 2797 01b5 898201   		.uleb128 0x4109
 2798 01b8 01       		.byte	0x1
 2799 01b9 11       		.uleb128 0x11
 2800 01ba 01       		.uleb128 0x1
 2801 01bb 31       		.uleb128 0x31
 2802 01bc 13       		.uleb128 0x13
 2803 01bd 01       		.uleb128 0x1
 2804 01be 13       		.uleb128 0x13
 2805 01bf 00       		.byte	0
 2806 01c0 00       		.byte	0
 2807 01c1 25       		.uleb128 0x25
 2808 01c2 8A8201   		.uleb128 0x410a
 2809 01c5 00       		.byte	0
 2810 01c6 02       		.uleb128 0x2
 2811 01c7 18       		.uleb128 0x18
 2812 01c8 9142     		.uleb128 0x2111
 2813 01ca 18       		.uleb128 0x18
 2814 01cb 00       		.byte	0
 2815 01cc 00       		.byte	0
 2816 01cd 26       		.uleb128 0x26
 2817 01ce 898201   		.uleb128 0x4109
 2818 01d1 01       		.byte	0x1
 2819 01d2 11       		.uleb128 0x11
 2820 01d3 01       		.uleb128 0x1
 2821 01d4 31       		.uleb128 0x31
 2822 01d5 13       		.uleb128 0x13
 2823 01d6 00       		.byte	0
 2824 01d7 00       		.byte	0
 2825 01d8 27       		.uleb128 0x27
 2826 01d9 898201   		.uleb128 0x4109
 2827 01dc 01       		.byte	0x1
 2828 01dd 11       		.uleb128 0x11
 2829 01de 01       		.uleb128 0x1
 2830 01df 9542     		.uleb128 0x2115
 2831 01e1 19       		.uleb128 0x19
 2832 01e2 31       		.uleb128 0x31
 2833 01e3 13       		.uleb128 0x13
 2834 01e4 00       		.byte	0
 2835 01e5 00       		.byte	0
 2836 01e6 28       		.uleb128 0x28
 2837 01e7 2E       		.uleb128 0x2e
 2838 01e8 00       		.byte	0
 2839 01e9 3F       		.uleb128 0x3f
 2840 01ea 19       		.uleb128 0x19
 2841 01eb 3C       		.uleb128 0x3c
 2842 01ec 19       		.uleb128 0x19
ARM GAS  /tmp/cctc61Pg.s 			page 51


 2843 01ed 6E       		.uleb128 0x6e
 2844 01ee 0E       		.uleb128 0xe
 2845 01ef 03       		.uleb128 0x3
 2846 01f0 0E       		.uleb128 0xe
 2847 01f1 3A       		.uleb128 0x3a
 2848 01f2 0B       		.uleb128 0xb
 2849 01f3 3B       		.uleb128 0x3b
 2850 01f4 0B       		.uleb128 0xb
 2851 01f5 00       		.byte	0
 2852 01f6 00       		.byte	0
 2853 01f7 00       		.byte	0
 2854              		.section	.debug_loc,"",%progbits
 2855              	.Ldebug_loc0:
 2856              	.LLST0:
 2857 0000 24000000 		.4byte	.LVL2
 2858 0004 34000000 		.4byte	.LVL3
 2859 0008 0100     		.2byte	0x1
 2860 000a 50       		.byte	0x50
 2861 000b 34000000 		.4byte	.LVL3
 2862 000f 40000000 		.4byte	.LVL5
 2863 0013 0100     		.2byte	0x1
 2864 0015 54       		.byte	0x54
 2865 0016 48000000 		.4byte	.LVL6
 2866 001a 5C000000 		.4byte	.LVL8
 2867 001e 0100     		.2byte	0x1
 2868 0020 54       		.byte	0x54
 2869 0021 5C000000 		.4byte	.LVL8
 2870 0025 64000000 		.4byte	.LVL9
 2871 0029 0100     		.2byte	0x1
 2872 002b 50       		.byte	0x50
 2873 002c 94000000 		.4byte	.LVL13
 2874 0030 98000000 		.4byte	.LVL14
 2875 0034 0100     		.2byte	0x1
 2876 0036 50       		.byte	0x50
 2877 0037 98000000 		.4byte	.LVL14
 2878 003b 04010000 		.4byte	.LVL27
 2879 003f 0100     		.2byte	0x1
 2880 0041 56       		.byte	0x56
 2881 0042 04010000 		.4byte	.LVL27
 2882 0046 08010000 		.4byte	.LVL28
 2883 004a 0100     		.2byte	0x1
 2884 004c 50       		.byte	0x50
 2885 004d 08010000 		.4byte	.LVL28
 2886 0051 6C010000 		.4byte	.LVL39
 2887 0055 0100     		.2byte	0x1
 2888 0057 54       		.byte	0x54
 2889 0058 6C010000 		.4byte	.LVL39
 2890 005c 70010000 		.4byte	.LVL40
 2891 0060 0100     		.2byte	0x1
 2892 0062 50       		.byte	0x50
 2893 0063 70010000 		.4byte	.LVL40
 2894 0067 BC010000 		.4byte	.LVL48
 2895 006b 0100     		.2byte	0x1
 2896 006d 54       		.byte	0x54
 2897 006e BC010000 		.4byte	.LVL48
 2898 0072 C0010000 		.4byte	.LVL49
 2899 0076 0100     		.2byte	0x1
ARM GAS  /tmp/cctc61Pg.s 			page 52


 2900 0078 50       		.byte	0x50
 2901 0079 C0010000 		.4byte	.LVL49
 2902 007d 44020000 		.4byte	.LVL58
 2903 0081 0100     		.2byte	0x1
 2904 0083 54       		.byte	0x54
 2905 0084 44020000 		.4byte	.LVL58
 2906 0088 48020000 		.4byte	.LVL59
 2907 008c 0100     		.2byte	0x1
 2908 008e 50       		.byte	0x50
 2909 008f 48020000 		.4byte	.LVL59
 2910 0093 8C020000 		.4byte	.LVL66
 2911 0097 0100     		.2byte	0x1
 2912 0099 55       		.byte	0x55
 2913 009a 8C020000 		.4byte	.LVL66
 2914 009e 8F020000 		.4byte	.LVL67-1
 2915 00a2 0100     		.2byte	0x1
 2916 00a4 50       		.byte	0x50
 2917 00a5 E0020000 		.4byte	.LVL73
 2918 00a9 E4020000 		.4byte	.LVL74
 2919 00ad 0100     		.2byte	0x1
 2920 00af 50       		.byte	0x50
 2921 00b0 E4020000 		.4byte	.LVL74
 2922 00b4 50030000 		.4byte	.LFE8
 2923 00b8 0100     		.2byte	0x1
 2924 00ba 54       		.byte	0x54
 2925 00bb 00000000 		.4byte	0
 2926 00bf 00000000 		.4byte	0
 2927              	.LLST1:
 2928 00c3 A4000000 		.4byte	.LVL16
 2929 00c7 A8000000 		.4byte	.LVL17
 2930 00cb 0100     		.2byte	0x1
 2931 00cd 50       		.byte	0x50
 2932 00ce A8000000 		.4byte	.LVL17
 2933 00d2 10010000 		.4byte	.LVL30
 2934 00d6 0100     		.2byte	0x1
 2935 00d8 55       		.byte	0x55
 2936 00d9 10010000 		.4byte	.LVL30
 2937 00dd 18010000 		.4byte	.LVL31
 2938 00e1 0100     		.2byte	0x1
 2939 00e3 50       		.byte	0x50
 2940 00e4 18010000 		.4byte	.LVL31
 2941 00e8 78010000 		.4byte	.LVL42
 2942 00ec 0100     		.2byte	0x1
 2943 00ee 55       		.byte	0x55
 2944 00ef 78010000 		.4byte	.LVL42
 2945 00f3 7C010000 		.4byte	.LVL43
 2946 00f7 0100     		.2byte	0x1
 2947 00f9 50       		.byte	0x50
 2948 00fa 7C010000 		.4byte	.LVL43
 2949 00fe 44020000 		.4byte	.LVL58
 2950 0102 0100     		.2byte	0x1
 2951 0104 55       		.byte	0x55
 2952 0105 50020000 		.4byte	.LVL61
 2953 0109 54020000 		.4byte	.LVL62
 2954 010d 0100     		.2byte	0x1
 2955 010f 50       		.byte	0x50
 2956 0110 54020000 		.4byte	.LVL62
ARM GAS  /tmp/cctc61Pg.s 			page 53


 2957 0114 E0020000 		.4byte	.LVL73
 2958 0118 0100     		.2byte	0x1
 2959 011a 54       		.byte	0x54
 2960 011b 00000000 		.4byte	0
 2961 011f 00000000 		.4byte	0
 2962              	.LLST2:
 2963 0123 B0000000 		.4byte	.LVL19
 2964 0127 B4000000 		.4byte	.LVL20
 2965 012b 0100     		.2byte	0x1
 2966 012d 50       		.byte	0x50
 2967 012e B4000000 		.4byte	.LVL20
 2968 0132 04010000 		.4byte	.LVL27
 2969 0136 0100     		.2byte	0x1
 2970 0138 54       		.byte	0x54
 2971 0139 1C010000 		.4byte	.LVL32
 2972 013d 1F010000 		.4byte	.LVL33-1
 2973 0141 0100     		.2byte	0x1
 2974 0143 50       		.byte	0x50
 2975 0144 00000000 		.4byte	0
 2976 0148 00000000 		.4byte	0
 2977              		.section	.debug_aranges,"",%progbits
 2978 0000 24000000 		.4byte	0x24
 2979 0004 0200     		.2byte	0x2
 2980 0006 00000000 		.4byte	.Ldebug_info0
 2981 000a 04       		.byte	0x4
 2982 000b 00       		.byte	0
 2983 000c 0000     		.2byte	0
 2984 000e 0000     		.2byte	0
 2985 0010 00000000 		.4byte	.LFB8
 2986 0014 50030000 		.4byte	.LFE8-.LFB8
 2987 0018 00000000 		.4byte	.LFB7
 2988 001c 1C000000 		.4byte	.LFE7-.LFB7
 2989 0020 00000000 		.4byte	0
 2990 0024 00000000 		.4byte	0
 2991              		.section	.debug_ranges,"",%progbits
 2992              	.Ldebug_ranges0:
 2993 0000 00000000 		.4byte	.LFB8
 2994 0004 50030000 		.4byte	.LFE8
 2995 0008 00000000 		.4byte	.LFB7
 2996 000c 1C000000 		.4byte	.LFE7
 2997 0010 00000000 		.4byte	0
 2998 0014 00000000 		.4byte	0
 2999              		.section	.debug_line,"",%progbits
 3000              	.Ldebug_line0:
 3001 0000 F2010000 		.section	.debug_str,"MS",%progbits,1
 3001      02007801 
 3001      00000201 
 3001      FB0E0D00 
 3001      01010101 
 3002              	.LASF42:
 3003 0000 705F6D73 		.ascii	"p_msg\000"
 3003      6700
 3004              	.LASF2:
 3005 0006 73697A65 		.ascii	"size_t\000"
 3005      5F7400
 3006              	.LASF84:
 3007 000d 7264796D 		.ascii	"rdymsg\000"
ARM GAS  /tmp/cctc61Pg.s 			page 54


 3007      736700
 3008              	.LASF3:
 3009 0014 5F5F7569 		.ascii	"__uint8_t\000"
 3009      6E74385F 
 3009      7400
 3010              	.LASF68:
 3011 001e 76746C69 		.ascii	"vtlist\000"
 3011      737400
 3012              	.LASF74:
 3013 0025 6D656D67 		.ascii	"memgetfunc_t\000"
 3013      65746675 
 3013      6E635F74 
 3013      00
 3014              	.LASF13:
 3015 0032 6C6F6E67 		.ascii	"long long unsigned int\000"
 3015      206C6F6E 
 3015      6720756E 
 3015      7369676E 
 3015      65642069 
 3016              	.LASF135:
 3017 0049 2F686F6D 		.ascii	"/home/lmr/Downloads/ChibiOS-RPi/ChibiOS-RPi/demos/P"
 3017      652F6C6D 
 3017      722F446F 
 3017      776E6C6F 
 3017      6164732F 
 3018 007c 726F6A65 		.ascii	"roject\000"
 3018      637400
 3019              	.LASF95:
 3020 0083 63685F74 		.ascii	"ch_threadsize\000"
 3020      68726561 
 3020      6473697A 
 3020      6500
 3021              	.LASF85:
 3022 0091 65786974 		.ascii	"exitcode\000"
 3022      636F6465 
 3022      00
 3023              	.LASF78:
 3024 009a 685F6672 		.ascii	"h_free\000"
 3024      656500
 3025              	.LASF120:
 3026 00a1 74657374 		.ascii	"test\000"
 3026      00
 3027              	.LASF132:
 3028 00a6 63684865 		.ascii	"chHeapInit\000"
 3028      6170496E 
 3028      697400
 3029              	.LASF80:
 3030 00b1 6E657874 		.ascii	"next\000"
 3030      00
 3031              	.LASF30:
 3032 00b6 705F7072 		.ascii	"p_prio\000"
 3032      696F00
 3033              	.LASF102:
 3034 00bd 63665F6F 		.ascii	"cf_off_state\000"
 3034      66665F73 
 3034      74617465 
 3034      00
ARM GAS  /tmp/cctc61Pg.s 			page 55


 3035              	.LASF114:
 3036 00ca 74656172 		.ascii	"teardown\000"
 3036      646F776E 
 3036      00
 3037              	.LASF123:
 3038 00d3 70617474 		.ascii	"patternheap\000"
 3038      65726E68 
 3038      65617000 
 3039              	.LASF12:
 3040 00df 6C6F6E67 		.ascii	"long long int\000"
 3040      206C6F6E 
 3040      6720696E 
 3040      7400
 3041              	.LASF1:
 3042 00ed 7369676E 		.ascii	"signed char\000"
 3042      65642063 
 3042      68617200 
 3043              	.LASF79:
 3044 00f9 685F6D74 		.ascii	"h_mtx\000"
 3044      7800
 3045              	.LASF101:
 3046 00ff 63665F6F 		.ascii	"cf_off_stklimit\000"
 3046      66665F73 
 3046      746B6C69 
 3046      6D697400 
 3047              	.LASF103:
 3048 010f 63665F6F 		.ascii	"cf_off_flags\000"
 3048      66665F66 
 3048      6C616773 
 3048      00
 3049              	.LASF18:
 3050 011c 626F6F6C 		.ascii	"bool_t\000"
 3050      5F7400
 3051              	.LASF71:
 3052 0123 6D5F7175 		.ascii	"m_queue\000"
 3052      65756500 
 3053              	.LASF131:
 3054 012b 63684865 		.ascii	"chHeapFree\000"
 3054      61704672 
 3054      656500
 3055              	.LASF126:
 3056 0136 68656170 		.ascii	"heap1_setup\000"
 3056      315F7365 
 3056      74757000 
 3057              	.LASF22:
 3058 0142 74736C69 		.ascii	"tslices_t\000"
 3058      6365735F 
 3058      7400
 3059              	.LASF9:
 3060 014c 6C6F6E67 		.ascii	"long int\000"
 3060      20696E74 
 3060      00
 3061              	.LASF20:
 3062 0155 74737461 		.ascii	"tstate_t\000"
 3062      74655F74 
 3062      00
 3063              	.LASF15:
ARM GAS  /tmp/cctc61Pg.s 			page 56


 3064 015e 75696E74 		.ascii	"uint16_t\000"
 3064      31365F74 
 3064      00
 3065              	.LASF108:
 3066 0167 63686465 		.ascii	"chdebug_t\000"
 3066      6275675F 
 3066      7400
 3067              	.LASF118:
 3068 0171 62756666 		.ascii	"buffer\000"
 3068      657200
 3069              	.LASF32:
 3070 0178 705F6E65 		.ascii	"p_newer\000"
 3070      77657200 
 3071              	.LASF110:
 3072 0180 5F69646C 		.ascii	"_idle_thread_wa\000"
 3072      655F7468 
 3072      72656164 
 3072      5F776100 
 3073              	.LASF10:
 3074 0190 5F5F7569 		.ascii	"__uint32_t\000"
 3074      6E743332 
 3074      5F7400
 3075              	.LASF49:
 3076 019b 72656761 		.ascii	"regarm_t\000"
 3076      726D5F74 
 3076      00
 3077              	.LASF55:
 3078 01a4 76745F70 		.ascii	"vt_prev\000"
 3078      72657600 
 3079              	.LASF125:
 3080 01ac 68656170 		.ascii	"heap1_execute\000"
 3080      315F6578 
 3080      65637574 
 3080      6500
 3081              	.LASF82:
 3082 01ba 616C6967 		.ascii	"align\000"
 3082      6E00
 3083              	.LASF0:
 3084 01c0 756E7369 		.ascii	"unsigned int\000"
 3084      676E6564 
 3084      20696E74 
 3084      00
 3085              	.LASF54:
 3086 01cd 76745F6E 		.ascii	"vt_next\000"
 3086      65787400 
 3087              	.LASF99:
 3088 01d5 63665F6F 		.ascii	"cf_off_older\000"
 3088      66665F6F 
 3088      6C646572 
 3088      00
 3089              	.LASF11:
 3090 01e2 6C6F6E67 		.ascii	"long unsigned int\000"
 3090      20756E73 
 3090      69676E65 
 3090      6420696E 
 3090      7400
 3091              	.LASF109:
ARM GAS  /tmp/cctc61Pg.s 			page 57


 3092 01f4 63685F64 		.ascii	"ch_debug\000"
 3092      65627567 
 3092      00
 3093              	.LASF121:
 3094 01fd 74657374 		.ascii	"test_timer_done\000"
 3094      5F74696D 
 3094      65725F64 
 3094      6F6E6500 
 3095              	.LASF52:
 3096 020d 76746675 		.ascii	"vtfunc_t\000"
 3096      6E635F74 
 3096      00
 3097              	.LASF89:
 3098 0216 63685F69 		.ascii	"ch_identifier\000"
 3098      64656E74 
 3098      69666965 
 3098      7200
 3099              	.LASF112:
 3100 0224 6E616D65 		.ascii	"name\000"
 3100      00
 3101              	.LASF51:
 3102 0229 636F6E74 		.ascii	"context\000"
 3102      65787400 
 3103              	.LASF83:
 3104 0231 73697A65 		.ascii	"size\000"
 3104      00
 3105              	.LASF7:
 3106 0236 73686F72 		.ascii	"short unsigned int\000"
 3106      7420756E 
 3106      7369676E 
 3106      65642069 
 3106      6E7400
 3107              	.LASF24:
 3108 0249 6D73675F 		.ascii	"msg_t\000"
 3108      7400
 3109              	.LASF64:
 3110 024f 725F6E65 		.ascii	"r_newer\000"
 3110      77657200 
 3111              	.LASF119:
 3112 0257 74687265 		.ascii	"threads\000"
 3112      61647300 
 3113              	.LASF19:
 3114 025f 746D6F64 		.ascii	"tmode_t\000"
 3114      655F7400 
 3115              	.LASF47:
 3116 0267 54687265 		.ascii	"ThreadsList\000"
 3116      6164734C 
 3116      69737400 
 3117              	.LASF25:
 3118 0273 6576656E 		.ascii	"eventmask_t\000"
 3118      746D6173 
 3118      6B5F7400 
 3119              	.LASF70:
 3120 027f 4D757465 		.ascii	"Mutex\000"
 3120      7800
 3121              	.LASF48:
 3122 0285 73746B61 		.ascii	"stkalign_t\000"
ARM GAS  /tmp/cctc61Pg.s 			page 58


 3122      6C69676E 
 3122      5F7400
 3123              	.LASF122:
 3124 0290 74657374 		.ascii	"testheap1\000"
 3124      68656170 
 3124      3100
 3125              	.LASF90:
 3126 029a 63685F7A 		.ascii	"ch_zero\000"
 3126      65726F00 
 3127              	.LASF104:
 3128 02a2 63665F6F 		.ascii	"cf_off_refs\000"
 3128      66665F72 
 3128      65667300 
 3129              	.LASF56:
 3130 02ae 76745F74 		.ascii	"vt_time\000"
 3130      696D6500 
 3131              	.LASF107:
 3132 02b6 73697A65 		.ascii	"sizetype\000"
 3132      74797065 
 3132      00
 3133              	.LASF57:
 3134 02bf 76745F66 		.ascii	"vt_func\000"
 3134      756E6300 
 3135              	.LASF94:
 3136 02c7 63685F74 		.ascii	"ch_timesize\000"
 3136      696D6573 
 3136      697A6500 
 3137              	.LASF127:
 3138 02d3 6368436F 		.ascii	"chCoreStatus\000"
 3138      72655374 
 3138      61747573 
 3138      00
 3139              	.LASF100:
 3140 02e0 63665F6F 		.ascii	"cf_off_name\000"
 3140      66665F6E 
 3140      616D6500 
 3141              	.LASF33:
 3142 02ec 705F6F6C 		.ascii	"p_older\000"
 3142      64657200 
 3143              	.LASF63:
 3144 02f4 725F6374 		.ascii	"r_ctx\000"
 3144      7800
 3145              	.LASF46:
 3146 02fa 54687265 		.ascii	"ThreadsQueue\000"
 3146      61647351 
 3146      75657565 
 3146      00
 3147              	.LASF91:
 3148 0307 63685F73 		.ascii	"ch_size\000"
 3148      697A6500 
 3149              	.LASF113:
 3150 030f 73657475 		.ascii	"setup\000"
 3150      7000
 3151              	.LASF66:
 3152 0315 725F6375 		.ascii	"r_current\000"
 3152      7272656E 
 3152      7400
ARM GAS  /tmp/cctc61Pg.s 			page 59


 3153              	.LASF65:
 3154 031f 725F6F6C 		.ascii	"r_older\000"
 3154      64657200 
 3155              	.LASF75:
 3156 0327 4D656D6F 		.ascii	"MemoryHeap\000"
 3156      72794865 
 3156      617000
 3157              	.LASF21:
 3158 0332 74726566 		.ascii	"trefs_t\000"
 3158      735F7400 
 3159              	.LASF93:
 3160 033a 63685F70 		.ascii	"ch_ptrsize\000"
 3160      74727369 
 3160      7A6500
 3161              	.LASF29:
 3162 0345 705F7072 		.ascii	"p_prev\000"
 3162      657600
 3163              	.LASF115:
 3164 034c 65786563 		.ascii	"execute\000"
 3164      75746500 
 3165              	.LASF23:
 3166 0354 74707269 		.ascii	"tprio_t\000"
 3166      6F5F7400 
 3167              	.LASF134:
 3168 035c 2E2E2F2E 		.ascii	"../../test/testheap.c\000"
 3168      2E2F7465 
 3168      73742F74 
 3168      65737468 
 3168      6561702E 
 3169              	.LASF16:
 3170 0372 696E7433 		.ascii	"int32_t\000"
 3170      325F7400 
 3171              	.LASF4:
 3172 037a 756E7369 		.ascii	"unsigned char\000"
 3172      676E6564 
 3172      20636861 
 3172      7200
 3173              	.LASF77:
 3174 0388 685F7072 		.ascii	"h_provider\000"
 3174      6F766964 
 3174      657200
 3175              	.LASF44:
 3176 0393 705F6D74 		.ascii	"p_mtxlist\000"
 3176      786C6973 
 3176      7400
 3177              	.LASF5:
 3178 039d 73686F72 		.ascii	"short int\000"
 3178      7420696E 
 3178      7400
 3179              	.LASF35:
 3180 03a7 705F7374 		.ascii	"p_state\000"
 3180      61746500 
 3181              	.LASF38:
 3182 03af 705F7072 		.ascii	"p_preempt\000"
 3182      65656D70 
 3182      7400
 3183              	.LASF106:
ARM GAS  /tmp/cctc61Pg.s 			page 60


 3184 03b9 63665F6F 		.ascii	"cf_off_time\000"
 3184      66665F74 
 3184      696D6500 
 3185              	.LASF62:
 3186 03c5 725F7072 		.ascii	"r_prio\000"
 3186      696F00
 3187              	.LASF116:
 3188 03cc 68656170 		.ascii	"heap_header\000"
 3188      5F686561 
 3188      64657200 
 3189              	.LASF87:
 3190 03d8 65776D61 		.ascii	"ewmask\000"
 3190      736B00
 3191              	.LASF28:
 3192 03df 705F6E65 		.ascii	"p_next\000"
 3192      787400
 3193              	.LASF105:
 3194 03e6 63665F6F 		.ascii	"cf_off_preempt\000"
 3194      66665F70 
 3194      7265656D 
 3194      707400
 3195              	.LASF36:
 3196 03f5 705F666C 		.ascii	"p_flags\000"
 3196      61677300 
 3197              	.LASF27:
 3198 03fd 54687265 		.ascii	"Thread\000"
 3198      616400
 3199              	.LASF129:
 3200 0404 63684865 		.ascii	"chHeapAlloc\000"
 3200      6170416C 
 3200      6C6F6300 
 3201              	.LASF98:
 3202 0410 63665F6F 		.ascii	"cf_off_newer\000"
 3202      66665F6E 
 3202      65776572 
 3202      00
 3203              	.LASF111:
 3204 041d 74657374 		.ascii	"testcase\000"
 3204      63617365 
 3204      00
 3205              	.LASF43:
 3206 0426 705F6570 		.ascii	"p_epending\000"
 3206      656E6469 
 3206      6E6700
 3207              	.LASF17:
 3208 0431 75696E74 		.ascii	"uint32_t\000"
 3208      33325F74 
 3208      00
 3209              	.LASF96:
 3210 043a 63665F6F 		.ascii	"cf_off_prio\000"
 3210      66665F70 
 3210      72696F00 
 3211              	.LASF61:
 3212 0446 725F7175 		.ascii	"r_queue\000"
 3212      65756500 
 3213              	.LASF53:
 3214 044e 56697274 		.ascii	"VirtualTimer\000"
ARM GAS  /tmp/cctc61Pg.s 			page 61


 3214      75616C54 
 3214      696D6572 
 3214      00
 3215              	.LASF81:
 3216 045b 68656170 		.ascii	"heap\000"
 3216      00
 3217              	.LASF88:
 3218 0460 63686172 		.ascii	"char\000"
 3218      00
 3219              	.LASF117:
 3220 0465 74657374 		.ascii	"test_buffers\000"
 3220      5F627566 
 3220      66657273 
 3220      00
 3221              	.LASF6:
 3222 0472 5F5F7569 		.ascii	"__uint16_t\000"
 3222      6E743136 
 3222      5F7400
 3223              	.LASF128:
 3224 047d 63684865 		.ascii	"chHeapStatus\000"
 3224      61705374 
 3224      61747573 
 3224      00
 3225              	.LASF73:
 3226 048a 6D5F6E65 		.ascii	"m_next\000"
 3226      787400
 3227              	.LASF26:
 3228 0491 73797374 		.ascii	"systime_t\000"
 3228      696D655F 
 3228      7400
 3229              	.LASF45:
 3230 049b 705F7265 		.ascii	"p_realprio\000"
 3230      616C7072 
 3230      696F00
 3231              	.LASF8:
 3232 04a6 5F5F696E 		.ascii	"__int32_t\000"
 3232      7433325F 
 3232      7400
 3233              	.LASF39:
 3234 04b0 705F7469 		.ascii	"p_time\000"
 3234      6D6500
 3235              	.LASF133:
 3236 04b7 474E5520 		.ascii	"GNU C11 6.3.1 20170620 -mcpu=arm1176jz-s -mno-thumb"
 3236      43313120 
 3236      362E332E 
 3236      31203230 
 3236      31373036 
 3237 04ea 2D696E74 		.ascii	"-interwork -ggdb -O2 -fomit-frame-pointer -ffunctio"
 3237      6572776F 
 3237      726B202D 
 3237      67676462 
 3237      202D4F32 
 3238 051d 6E2D7365 		.ascii	"n-sections -fdata-sections\000"
 3238      6374696F 
 3238      6E73202D 
 3238      66646174 
 3238      612D7365 
ARM GAS  /tmp/cctc61Pg.s 			page 62


 3239              	.LASF50:
 3240 0538 696E7463 		.ascii	"intctx\000"
 3240      747800
 3241              	.LASF41:
 3242 053f 705F6D73 		.ascii	"p_msgqueue\000"
 3242      67717565 
 3242      756500
 3243              	.LASF58:
 3244 054a 76745F70 		.ascii	"vt_par\000"
 3244      617200
 3245              	.LASF97:
 3246 0551 63665F6F 		.ascii	"cf_off_ctx\000"
 3246      66665F63 
 3246      747800
 3247              	.LASF37:
 3248 055c 705F7265 		.ascii	"p_refs\000"
 3248      667300
 3249              	.LASF67:
 3250 0563 52656164 		.ascii	"ReadyList\000"
 3250      794C6973 
 3250      7400
 3251              	.LASF69:
 3252 056d 726C6973 		.ascii	"rlist\000"
 3252      7400
 3253              	.LASF14:
 3254 0573 75696E74 		.ascii	"uint8_t\000"
 3254      385F7400 
 3255              	.LASF124:
 3256 057b 74657374 		.ascii	"test_heap\000"
 3256      5F686561 
 3256      7000
 3257              	.LASF86:
 3258 0585 77746F62 		.ascii	"wtobjp\000"
 3258      6A7000
 3259              	.LASF34:
 3260 058c 705F6E61 		.ascii	"p_name\000"
 3260      6D6500
 3261              	.LASF130:
 3262 0593 5F746573 		.ascii	"_test_assert\000"
 3262      745F6173 
 3262      73657274 
 3262      00
 3263              	.LASF59:
 3264 05a0 76745F73 		.ascii	"vt_systime\000"
 3264      79737469 
 3264      6D6500
 3265              	.LASF92:
 3266 05ab 63685F76 		.ascii	"ch_version\000"
 3266      65727369 
 3266      6F6E00
 3267              	.LASF60:
 3268 05b6 56544C69 		.ascii	"VTList\000"
 3268      737400
 3269              	.LASF72:
 3270 05bd 6D5F6F77 		.ascii	"m_owner\000"
 3270      6E657200 
 3271              	.LASF31:
ARM GAS  /tmp/cctc61Pg.s 			page 63


 3272 05c5 705F6374 		.ascii	"p_ctx\000"
 3272      7800
 3273              	.LASF40:
 3274 05cb 705F7761 		.ascii	"p_waiting\000"
 3274      6974696E 
 3274      6700
 3275              	.LASF76:
 3276 05d5 6D656D6F 		.ascii	"memory_heap\000"
 3276      72795F68 
 3276      65617000 
 3277              		.ident	"GCC: (15:6.3.1+svn253039-1build1) 6.3.1 20170620"
ARM GAS  /tmp/cctc61Pg.s 			page 64


DEFINED SYMBOLS
                            *ABS*:0000000000000000 testheap.c
     /tmp/cctc61Pg.s:16     .text.heap1_execute:0000000000000000 $a
     /tmp/cctc61Pg.s:21     .text.heap1_execute:0000000000000000 heap1_execute
     /tmp/cctc61Pg.s:398    .text.heap1_execute:000000000000034c $d
     /tmp/cctc61Pg.s:403    .text.heap1_setup:0000000000000000 $a
     /tmp/cctc61Pg.s:408    .text.heap1_setup:0000000000000000 heap1_setup
     /tmp/cctc61Pg.s:424    .text.heap1_setup:0000000000000010 $d
     /tmp/cctc61Pg.s:443    .rodata.patternheap:0000000000000000 patternheap
     /tmp/cctc61Pg.s:454    .rodata.testheap1:0000000000000000 testheap1
     /tmp/cctc61Pg.s:433    .bss.test_heap:0000000000000000 $d
     /tmp/cctc61Pg.s:437    .bss.test_heap:0000000000000000 test_heap
     /tmp/cctc61Pg.s:440    .rodata.patternheap:0000000000000000 $d
     /tmp/cctc61Pg.s:447    .rodata.str1.4:0000000000000000 $d
     /tmp/cctc61Pg.s:451    .rodata.testheap1:0000000000000000 $d
                     .debug_frame:0000000000000010 $d

UNDEFINED SYMBOLS
chCoreStatus
chHeapStatus
chHeapAlloc
_test_assert
chHeapFree
chHeapInit
test
