ARM GAS  /tmp/cc4zEq9o.s 			page 1


   1              		.cpu arm1176jz-s
   2              		.eabi_attribute 20, 1
   3              		.eabi_attribute 21, 1
   4              		.eabi_attribute 23, 3
   5              		.eabi_attribute 24, 1
   6              		.eabi_attribute 25, 1
   7              		.eabi_attribute 26, 1
   8              		.eabi_attribute 30, 2
   9              		.eabi_attribute 34, 1
  10              		.eabi_attribute 18, 4
  11              		.file	"testbmk.c"
  12              		.text
  13              	.Ltext0:
  14              		.cfi_sections	.debug_frame
  15              		.section	.text.thread2,"ax",%progbits
  16              		.align	2
  17              		.syntax unified
  18              		.arm
  19              		.fpu softvfp
  20              		.type	thread2, %function
  21              	thread2:
  22              	.LFB11:
  23              		.file 1 "../../test/testbmk.c"
  24              		.loc 1 158 0
  25              		.cfi_startproc
  26              		@ args = 0, pretend = 0, frame = 0
  27              		@ frame_needed = 0, uses_anonymous_args = 0
  28              		@ link register save eliminated.
  29              	.LVL0:
  30              		.loc 1 161 0
  31 0000 1EFF2FE1 		bx	lr
  32              		.cfi_endproc
  33              	.LFE11:
  34              		.size	thread2, .-thread2
  35              		.section	.text.tmo,"ax",%progbits
  36              		.align	2
  37              		.syntax unified
  38              		.arm
  39              		.fpu softvfp
  40              		.type	tmo, %function
  41              	tmo:
  42              	.LFB23:
  43              		.loc 1 504 0
  44              		.cfi_startproc
  45              		@ args = 0, pretend = 0, frame = 0
  46              		@ frame_needed = 0, uses_anonymous_args = 0
  47              		@ link register save eliminated.
  48              	.LVL1:
  49 0000 1EFF2FE1 		bx	lr
  50              		.cfi_endproc
  51              	.LFE23:
  52              		.size	tmo, .-tmo
  53              		.section	.text.bmk13_execute,"ax",%progbits
  54              		.align	2
  55              		.syntax unified
  56              		.arm
  57              		.fpu softvfp
ARM GAS  /tmp/cc4zEq9o.s 			page 2


  58              		.type	bmk13_execute, %function
  59              	bmk13_execute:
  60              	.LFB29:
  61              		.loc 1 637 0
  62              		.cfi_startproc
  63              		@ args = 0, pretend = 0, frame = 0
  64              		@ frame_needed = 0, uses_anonymous_args = 0
  65              		.loc 1 637 0
  66 0000 10402DE9 		push	{r4, lr}
  67              		.cfi_def_cfa_offset 8
  68              		.cfi_offset 4, -8
  69              		.cfi_offset 14, -4
  70              		.loc 1 639 0
  71 0004 F0009FE5 		ldr	r0, .L5
  72              		.loc 1 645 0
  73 0008 F0409FE5 		ldr	r4, .L5+4
  74              		.loc 1 639 0
  75 000c FEFFFFEB 		bl	test_print
  76              	.LVL2:
  77              		.loc 1 640 0
  78 0010 160EA0E3 		mov	r0, #352
  79 0014 FEFFFFEB 		bl	test_printn
  80              	.LVL3:
  81              		.loc 1 645 0
  82 0018 0400A0E1 		mov	r0, r4
  83 001c FEFFFFEB 		bl	test_println
  84              	.LVL4:
  85              		.loc 1 646 0
  86 0020 DC009FE5 		ldr	r0, .L5+8
  87 0024 FEFFFFEB 		bl	test_print
  88              	.LVL5:
  89              		.loc 1 647 0
  90 0028 4400A0E3 		mov	r0, #68
  91 002c FEFFFFEB 		bl	test_printn
  92              	.LVL6:
  93              		.loc 1 648 0
  94 0030 0400A0E1 		mov	r0, r4
  95 0034 FEFFFFEB 		bl	test_println
  96              	.LVL7:
  97              		.loc 1 649 0
  98 0038 C8009FE5 		ldr	r0, .L5+12
  99 003c FEFFFFEB 		bl	test_print
 100              	.LVL8:
 101              		.loc 1 650 0
 102 0040 1400A0E3 		mov	r0, #20
 103 0044 FEFFFFEB 		bl	test_printn
 104              	.LVL9:
 105              		.loc 1 651 0
 106 0048 0400A0E1 		mov	r0, r4
 107 004c FEFFFFEB 		bl	test_println
 108              	.LVL10:
 109              		.loc 1 652 0
 110 0050 B4009FE5 		ldr	r0, .L5+16
 111 0054 FEFFFFEB 		bl	test_print
 112              	.LVL11:
 113              		.loc 1 653 0
 114 0058 0C00A0E3 		mov	r0, #12
ARM GAS  /tmp/cc4zEq9o.s 			page 3


 115 005c FEFFFFEB 		bl	test_printn
 116              	.LVL12:
 117              		.loc 1 654 0
 118 0060 0400A0E1 		mov	r0, r4
 119 0064 FEFFFFEB 		bl	test_println
 120              	.LVL13:
 121              		.loc 1 656 0
 122 0068 A0009FE5 		ldr	r0, .L5+20
 123 006c FEFFFFEB 		bl	test_print
 124              	.LVL14:
 125              		.loc 1 657 0
 126 0070 0400A0E3 		mov	r0, #4
 127 0074 FEFFFFEB 		bl	test_printn
 128              	.LVL15:
 129              		.loc 1 658 0
 130 0078 0400A0E1 		mov	r0, r4
 131 007c FEFFFFEB 		bl	test_println
 132              	.LVL16:
 133              		.loc 1 659 0
 134 0080 8C009FE5 		ldr	r0, .L5+24
 135 0084 FEFFFFEB 		bl	test_print
 136              	.LVL17:
 137              		.loc 1 660 0
 138 0088 1000A0E3 		mov	r0, #16
 139 008c FEFFFFEB 		bl	test_printn
 140              	.LVL18:
 141              		.loc 1 661 0
 142 0090 0400A0E1 		mov	r0, r4
 143 0094 FEFFFFEB 		bl	test_println
 144              	.LVL19:
 145              		.loc 1 664 0
 146 0098 78009FE5 		ldr	r0, .L5+28
 147 009c FEFFFFEB 		bl	test_print
 148              	.LVL20:
 149              		.loc 1 665 0
 150 00a0 1000A0E3 		mov	r0, #16
 151 00a4 FEFFFFEB 		bl	test_printn
 152              	.LVL21:
 153              		.loc 1 666 0
 154 00a8 0400A0E1 		mov	r0, r4
 155 00ac FEFFFFEB 		bl	test_println
 156              	.LVL22:
 157              		.loc 1 669 0
 158 00b0 64009FE5 		ldr	r0, .L5+32
 159 00b4 FEFFFFEB 		bl	test_print
 160              	.LVL23:
 161              		.loc 1 670 0
 162 00b8 0800A0E3 		mov	r0, #8
 163 00bc FEFFFFEB 		bl	test_printn
 164              	.LVL24:
 165              		.loc 1 671 0
 166 00c0 0400A0E1 		mov	r0, r4
 167 00c4 FEFFFFEB 		bl	test_println
 168              	.LVL25:
 169              		.loc 1 674 0
 170 00c8 50009FE5 		ldr	r0, .L5+36
 171 00cc FEFFFFEB 		bl	test_print
ARM GAS  /tmp/cc4zEq9o.s 			page 4


 172              	.LVL26:
 173              		.loc 1 675 0
 174 00d0 2400A0E3 		mov	r0, #36
 175 00d4 FEFFFFEB 		bl	test_printn
 176              	.LVL27:
 177              		.loc 1 676 0
 178 00d8 0400A0E1 		mov	r0, r4
 179 00dc FEFFFFEB 		bl	test_println
 180              	.LVL28:
 181              		.loc 1 679 0
 182 00e0 3C009FE5 		ldr	r0, .L5+40
 183 00e4 FEFFFFEB 		bl	test_print
 184              	.LVL29:
 185              		.loc 1 680 0
 186 00e8 2800A0E3 		mov	r0, #40
 187 00ec FEFFFFEB 		bl	test_printn
 188              	.LVL30:
 189              		.loc 1 681 0
 190 00f0 0400A0E1 		mov	r0, r4
 191              		.loc 1 683 0
 192 00f4 1040BDE8 		pop	{r4, lr}
 193              		.cfi_restore 14
 194              		.cfi_restore 4
 195              		.cfi_def_cfa_offset 0
 196              		.loc 1 681 0
 197 00f8 FEFFFFEA 		b	test_println
 198              	.LVL31:
 199              	.L6:
 200              		.align	2
 201              	.L5:
 202 00fc 00000000 		.word	.LC0
 203 0100 10000000 		.word	.LC1
 204 0104 18000000 		.word	.LC2
 205 0108 28000000 		.word	.LC3
 206 010c 38000000 		.word	.LC4
 207 0110 48000000 		.word	.LC5
 208 0114 58000000 		.word	.LC6
 209 0118 68000000 		.word	.LC7
 210 011c 78000000 		.word	.LC8
 211 0120 88000000 		.word	.LC9
 212 0124 98000000 		.word	.LC10
 213              		.cfi_endproc
 214              	.LFE29:
 215              		.size	bmk13_execute, .-bmk13_execute
 216              		.section	.text.thread1,"ax",%progbits
 217              		.align	2
 218              		.syntax unified
 219              		.arm
 220              		.fpu softvfp
 221              		.type	thread1, %function
 222              	thread1:
 223              	.LFB7:
 224              		.loc 1 68 0
 225              		.cfi_startproc
 226              		@ args = 0, pretend = 0, frame = 0
 227              		@ frame_needed = 0, uses_anonymous_args = 0
 228              	.LVL32:
ARM GAS  /tmp/cc4zEq9o.s 			page 5


 229 0000 10402DE9 		push	{r4, lr}
 230              		.cfi_def_cfa_offset 8
 231              		.cfi_offset 4, -8
 232              		.cfi_offset 14, -4
 233              	.LVL33:
 234              	.L8:
 235              		.loc 1 74 0 discriminator 1
 236 0004 FEFFFFEB 		bl	chMsgWait
 237              	.LVL34:
 238              		.loc 1 75 0 discriminator 1
 239 0008 344090E5 		ldr	r4, [r0, #52]
 240              	.LVL35:
 241              		.loc 1 76 0 discriminator 1
 242 000c 0410A0E1 		mov	r1, r4
 243 0010 FEFFFFEB 		bl	chMsgRelease
 244              	.LVL36:
 245              		.loc 1 77 0 discriminator 1
 246 0014 000054E3 		cmp	r4, #0
 247 0018 F9FFFF1A 		bne	.L8
 248              		.loc 1 79 0
 249 001c 0400A0E1 		mov	r0, r4
 250 0020 1080BDE8 		pop	{r4, pc}
 251              		.cfi_endproc
 252              	.LFE7:
 253              		.size	thread1, .-thread1
 254              		.section	.text.bmk6_execute,"ax",%progbits
 255              		.align	2
 256              		.syntax unified
 257              		.arm
 258              		.fpu softvfp
 259              		.type	bmk6_execute, %function
 260              	bmk6_execute:
 261              	.LFB16:
 262              		.loc 1 308 0
 263              		.cfi_startproc
 264              		@ args = 0, pretend = 0, frame = 0
 265              		@ frame_needed = 0, uses_anonymous_args = 0
 266              	.LVL37:
 267 0000 F0472DE9 		push	{r4, r5, r6, r7, r8, r9, r10, lr}
 268              		.cfi_def_cfa_offset 32
 269              		.cfi_offset 4, -32
 270              		.cfi_offset 5, -28
 271              		.cfi_offset 6, -24
 272              		.cfi_offset 7, -20
 273              		.cfi_offset 8, -16
 274              		.cfi_offset 9, -12
 275              		.cfi_offset 10, -8
 276              		.cfi_offset 14, -4
 277              		.loc 1 310 0
 278 0004 0040A0E3 		mov	r4, #0
 279              		.loc 1 312 0
 280 0008 78309FE5 		ldr	r3, .L17
 281              		.loc 1 311 0
 282 000c 78209FE5 		ldr	r2, .L17+4
 283              		.loc 1 312 0
 284 0010 183093E5 		ldr	r3, [r3, #24]
 285              		.loc 1 308 0
ARM GAS  /tmp/cc4zEq9o.s 			page 6


 286 0014 08D04DE2 		sub	sp, sp, #8
 287              		.cfi_def_cfa_offset 40
 288              		.loc 1 312 0
 289 0018 085093E5 		ldr	r5, [r3, #8]
 290              		.loc 1 311 0
 291 001c 009092E5 		ldr	r9, [r2]
 292              	.LVL38:
 293              		.loc 1 313 0
 294 0020 FEFFFFEB 		bl	test_wait_tick
 295              	.LVL39:
 296              		.loc 1 314 0
 297 0024 FA0FA0E3 		mov	r0, #1000
 298              		.loc 1 316 0
 299 0028 0480A0E1 		mov	r8, r4
 300              		.loc 1 314 0
 301 002c FEFFFFEB 		bl	test_start_timer
 302              	.LVL40:
 303              		.loc 1 316 0
 304 0030 46AFA0E3 		mov	r10, #280
 305 0034 54709FE5 		ldr	r7, .L17+8
 306 0038 54609FE5 		ldr	r6, .L17+12
 307              		.loc 1 312 0
 308 003c 015085E2 		add	r5, r5, #1
 309              	.LVL41:
 310              	.L13:
 311              		.loc 1 316 0 discriminator 1
 312 0040 0630A0E1 		mov	r3, r6
 313 0044 00808DE5 		str	r8, [sp]
 314 0048 0520A0E1 		mov	r2, r5
 315 004c 0A10A0E1 		mov	r1, r10
 316 0050 0900A0E1 		mov	r0, r9
 317 0054 FEFFFFEB 		bl	chThdCreateStatic
 318              	.LVL42:
 319              		.loc 1 321 0 discriminator 1
 320 0058 003097E5 		ldr	r3, [r7]
 321              		.loc 1 317 0 discriminator 1
 322 005c 014084E2 		add	r4, r4, #1
 323              	.LVL43:
 324              		.loc 1 321 0 discriminator 1
 325 0060 000053E3 		cmp	r3, #0
 326 0064 F5FFFF0A 		beq	.L13
 327              		.loc 1 322 0
 328 0068 28009FE5 		ldr	r0, .L17+16
 329 006c FEFFFFEB 		bl	test_print
 330              	.LVL44:
 331              		.loc 1 323 0
 332 0070 0400A0E1 		mov	r0, r4
 333 0074 FEFFFFEB 		bl	test_printn
 334              	.LVL45:
 335              		.loc 1 324 0
 336 0078 1C009FE5 		ldr	r0, .L17+20
 337              		.loc 1 325 0
 338 007c 08D08DE2 		add	sp, sp, #8
 339              		.cfi_def_cfa_offset 32
 340              		@ sp needed
 341 0080 F047BDE8 		pop	{r4, r5, r6, r7, r8, r9, r10, lr}
 342              		.cfi_restore 14
ARM GAS  /tmp/cc4zEq9o.s 			page 7


 343              		.cfi_restore 10
 344              		.cfi_restore 9
 345              		.cfi_restore 8
 346              		.cfi_restore 7
 347              		.cfi_restore 6
 348              		.cfi_restore 5
 349              		.cfi_restore 4
 350              		.cfi_def_cfa_offset 0
 351              	.LVL46:
 352              		.loc 1 324 0
 353 0084 FEFFFFEA 		b	test_println
 354              	.LVL47:
 355              	.L18:
 356              		.align	2
 357              	.L17:
 358 0088 00000000 		.word	rlist
 359 008c 00000000 		.word	wa
 360 0090 00000000 		.word	test_timer_done
 361 0094 00000000 		.word	thread2
 362 0098 00000000 		.word	.LC11
 363 009c 10000000 		.word	.LC12
 364              		.cfi_endproc
 365              	.LFE16:
 366              		.size	bmk6_execute, .-bmk6_execute
 367              		.section	.text.msg_loop_test,"ax",%progbits
 368              		.align	2
 369              		.syntax unified
 370              		.arm
 371              		.fpu softvfp
 372              		.type	msg_loop_test, %function
 373              	msg_loop_test:
 374              	.LFB8:
 375              		.loc 1 84 0
 376              		.cfi_startproc
 377              		@ args = 0, pretend = 0, frame = 0
 378              		@ frame_needed = 0, uses_anonymous_args = 0
 379              	.LVL48:
 380 0000 F0412DE9 		push	{r4, r5, r6, r7, r8, lr}
 381              		.cfi_def_cfa_offset 24
 382              		.cfi_offset 4, -24
 383              		.cfi_offset 5, -20
 384              		.cfi_offset 6, -16
 385              		.cfi_offset 7, -12
 386              		.cfi_offset 8, -8
 387              		.cfi_offset 14, -4
 388              		.loc 1 84 0
 389 0004 0050A0E1 		mov	r5, r0
 390              		.loc 1 87 0
 391 0008 FEFFFFEB 		bl	test_wait_tick
 392              	.LVL49:
 393              		.loc 1 88 0
 394 000c FA0FA0E3 		mov	r0, #1000
 395 0010 FEFFFFEB 		bl	test_start_timer
 396              	.LVL50:
 397              		.loc 1 86 0
 398 0014 0040A0E3 		mov	r4, #0
 399              		.loc 1 90 0
ARM GAS  /tmp/cc4zEq9o.s 			page 8


 400 0018 0170A0E3 		mov	r7, #1
 401 001c 2C609FE5 		ldr	r6, .L24
 402              	.LVL51:
 403              	.L20:
 404              		.loc 1 90 0 is_stmt 0 discriminator 1
 405 0020 0710A0E1 		mov	r1, r7
 406 0024 0500A0E1 		mov	r0, r5
 407 0028 FEFFFFEB 		bl	chMsgSend
 408              	.LVL52:
 409              		.loc 1 95 0 is_stmt 1 discriminator 1
 410 002c 003096E5 		ldr	r3, [r6]
 411              		.loc 1 91 0 discriminator 1
 412 0030 014084E2 		add	r4, r4, #1
 413              	.LVL53:
 414              		.loc 1 95 0 discriminator 1
 415 0034 000053E3 		cmp	r3, #0
 416 0038 F8FFFF0A 		beq	.L20
 417              		.loc 1 96 0
 418 003c 0500A0E1 		mov	r0, r5
 419 0040 0010A0E3 		mov	r1, #0
 420 0044 FEFFFFEB 		bl	chMsgSend
 421              	.LVL54:
 422              		.loc 1 98 0
 423 0048 0400A0E1 		mov	r0, r4
 424 004c F081BDE8 		pop	{r4, r5, r6, r7, r8, pc}
 425              	.L25:
 426              		.align	2
 427              	.L24:
 428 0050 00000000 		.word	test_timer_done
 429              		.cfi_endproc
 430              	.LFE8:
 431              		.size	msg_loop_test, .-msg_loop_test
 432              		.section	.text.bmk1_execute,"ax",%progbits
 433              		.align	2
 434              		.syntax unified
 435              		.arm
 436              		.fpu softvfp
 437              		.type	bmk1_execute, %function
 438              	bmk1_execute:
 439              	.LFB9:
 440              		.loc 1 109 0
 441              		.cfi_startproc
 442              		@ args = 0, pretend = 0, frame = 0
 443              		@ frame_needed = 0, uses_anonymous_args = 0
 444              		.loc 1 112 0
 445 0000 0030A0E3 		mov	r3, #0
 446              		.loc 1 109 0
 447 0004 10402DE9 		push	{r4, lr}
 448              		.cfi_def_cfa_offset 8
 449              		.cfi_offset 4, -8
 450              		.cfi_offset 14, -4
 451              		.loc 1 112 0
 452 0008 68209FE5 		ldr	r2, .L28
 453 000c 68109FE5 		ldr	r1, .L28+4
 454 0010 182092E5 		ldr	r2, [r2, #24]
 455              		.loc 1 109 0
 456 0014 08D04DE2 		sub	sp, sp, #8
ARM GAS  /tmp/cc4zEq9o.s 			page 9


 457              		.cfi_def_cfa_offset 16
 458              		.loc 1 112 0
 459 0018 082092E5 		ldr	r2, [r2, #8]
 460 001c 000091E5 		ldr	r0, [r1]
 461 0020 012042E2 		sub	r2, r2, #1
 462 0024 461FA0E3 		mov	r1, #280
 463 0028 00308DE5 		str	r3, [sp]
 464 002c 4C309FE5 		ldr	r3, .L28+8
 465 0030 FEFFFFEB 		bl	chThdCreateStatic
 466              	.LVL55:
 467 0034 48309FE5 		ldr	r3, .L28+12
 468 0038 000083E5 		str	r0, [r3]
 469              		.loc 1 113 0
 470 003c FEFFFFEB 		bl	msg_loop_test
 471              	.LVL56:
 472 0040 0040A0E1 		mov	r4, r0
 473              	.LVL57:
 474              		.loc 1 114 0
 475 0044 FEFFFFEB 		bl	test_wait_threads
 476              	.LVL58:
 477              		.loc 1 115 0
 478 0048 38009FE5 		ldr	r0, .L28+16
 479 004c FEFFFFEB 		bl	test_print
 480              	.LVL59:
 481              		.loc 1 116 0
 482 0050 0400A0E1 		mov	r0, r4
 483 0054 FEFFFFEB 		bl	test_printn
 484              	.LVL60:
 485              		.loc 1 117 0
 486 0058 2C009FE5 		ldr	r0, .L28+20
 487 005c FEFFFFEB 		bl	test_print
 488              	.LVL61:
 489              		.loc 1 118 0
 490 0060 8400A0E1 		lsl	r0, r4, #1
 491 0064 FEFFFFEB 		bl	test_printn
 492              	.LVL62:
 493              		.loc 1 119 0
 494 0068 20009FE5 		ldr	r0, .L28+24
 495              		.loc 1 120 0
 496 006c 08D08DE2 		add	sp, sp, #8
 497              		.cfi_def_cfa_offset 8
 498              		@ sp needed
 499 0070 1040BDE8 		pop	{r4, lr}
 500              		.cfi_restore 14
 501              		.cfi_restore 4
 502              		.cfi_def_cfa_offset 0
 503              	.LVL63:
 504              		.loc 1 119 0
 505 0074 FEFFFFEA 		b	test_println
 506              	.LVL64:
 507              	.L29:
 508              		.align	2
 509              	.L28:
 510 0078 00000000 		.word	rlist
 511 007c 00000000 		.word	wa
 512 0080 00000000 		.word	thread1
 513 0084 00000000 		.word	threads
ARM GAS  /tmp/cc4zEq9o.s 			page 10


 514 0088 00000000 		.word	.LC11
 515 008c 00000000 		.word	.LC13
 516 0090 0C000000 		.word	.LC14
 517              		.cfi_endproc
 518              	.LFE9:
 519              		.size	bmk1_execute, .-bmk1_execute
 520              		.section	.text.bmk2_execute,"ax",%progbits
 521              		.align	2
 522              		.syntax unified
 523              		.arm
 524              		.fpu softvfp
 525              		.type	bmk2_execute, %function
 526              	bmk2_execute:
 527              	.LFB10:
 528              		.loc 1 138 0
 529              		.cfi_startproc
 530              		@ args = 0, pretend = 0, frame = 0
 531              		@ frame_needed = 0, uses_anonymous_args = 0
 532              		.loc 1 141 0
 533 0000 0030A0E3 		mov	r3, #0
 534              		.loc 1 138 0
 535 0004 10402DE9 		push	{r4, lr}
 536              		.cfi_def_cfa_offset 8
 537              		.cfi_offset 4, -8
 538              		.cfi_offset 14, -4
 539              		.loc 1 141 0
 540 0008 68209FE5 		ldr	r2, .L32
 541 000c 68109FE5 		ldr	r1, .L32+4
 542 0010 182092E5 		ldr	r2, [r2, #24]
 543              		.loc 1 138 0
 544 0014 08D04DE2 		sub	sp, sp, #8
 545              		.cfi_def_cfa_offset 16
 546              		.loc 1 141 0
 547 0018 082092E5 		ldr	r2, [r2, #8]
 548 001c 000091E5 		ldr	r0, [r1]
 549 0020 012082E2 		add	r2, r2, #1
 550 0024 461FA0E3 		mov	r1, #280
 551 0028 00308DE5 		str	r3, [sp]
 552 002c 4C309FE5 		ldr	r3, .L32+8
 553 0030 FEFFFFEB 		bl	chThdCreateStatic
 554              	.LVL65:
 555 0034 48309FE5 		ldr	r3, .L32+12
 556 0038 000083E5 		str	r0, [r3]
 557              		.loc 1 142 0
 558 003c FEFFFFEB 		bl	msg_loop_test
 559              	.LVL66:
 560 0040 0040A0E1 		mov	r4, r0
 561              	.LVL67:
 562              		.loc 1 143 0
 563 0044 FEFFFFEB 		bl	test_wait_threads
 564              	.LVL68:
 565              		.loc 1 144 0
 566 0048 38009FE5 		ldr	r0, .L32+16
 567 004c FEFFFFEB 		bl	test_print
 568              	.LVL69:
 569              		.loc 1 145 0
 570 0050 0400A0E1 		mov	r0, r4
ARM GAS  /tmp/cc4zEq9o.s 			page 11


 571 0054 FEFFFFEB 		bl	test_printn
 572              	.LVL70:
 573              		.loc 1 146 0
 574 0058 2C009FE5 		ldr	r0, .L32+20
 575 005c FEFFFFEB 		bl	test_print
 576              	.LVL71:
 577              		.loc 1 147 0
 578 0060 8400A0E1 		lsl	r0, r4, #1
 579 0064 FEFFFFEB 		bl	test_printn
 580              	.LVL72:
 581              		.loc 1 148 0
 582 0068 20009FE5 		ldr	r0, .L32+24
 583              		.loc 1 149 0
 584 006c 08D08DE2 		add	sp, sp, #8
 585              		.cfi_def_cfa_offset 8
 586              		@ sp needed
 587 0070 1040BDE8 		pop	{r4, lr}
 588              		.cfi_restore 14
 589              		.cfi_restore 4
 590              		.cfi_def_cfa_offset 0
 591              	.LVL73:
 592              		.loc 1 148 0
 593 0074 FEFFFFEA 		b	test_println
 594              	.LVL74:
 595              	.L33:
 596              		.align	2
 597              	.L32:
 598 0078 00000000 		.word	rlist
 599 007c 00000000 		.word	wa
 600 0080 00000000 		.word	thread1
 601 0084 00000000 		.word	threads
 602 0088 00000000 		.word	.LC11
 603 008c 00000000 		.word	.LC13
 604 0090 0C000000 		.word	.LC14
 605              		.cfi_endproc
 606              	.LFE10:
 607              		.size	bmk2_execute, .-bmk2_execute
 608              		.section	.text.bmk3_execute,"ax",%progbits
 609              		.align	2
 610              		.syntax unified
 611              		.arm
 612              		.fpu softvfp
 613              		.type	bmk3_execute, %function
 614              	bmk3_execute:
 615              	.LFB12:
 616              		.loc 1 173 0
 617              		.cfi_startproc
 618              		@ args = 0, pretend = 0, frame = 0
 619              		@ frame_needed = 0, uses_anonymous_args = 0
 620 0000 F0412DE9 		push	{r4, r5, r6, r7, r8, lr}
 621              		.cfi_def_cfa_offset 24
 622              		.cfi_offset 4, -24
 623              		.cfi_offset 5, -20
 624              		.cfi_offset 6, -16
 625              		.cfi_offset 7, -12
 626              		.cfi_offset 8, -8
 627              		.cfi_offset 14, -4
ARM GAS  /tmp/cc4zEq9o.s 			page 12


 628              		.loc 1 176 0
 629 0004 0050A0E3 		mov	r5, #0
 630 0008 10719FE5 		ldr	r7, .L36
 631 000c 10619FE5 		ldr	r6, .L36+4
 632 0010 183097E5 		ldr	r3, [r7, #24]
 633              		.loc 1 173 0
 634 0014 08D04DE2 		sub	sp, sp, #8
 635              		.cfi_def_cfa_offset 32
 636              		.loc 1 176 0
 637 0018 082093E5 		ldr	r2, [r3, #8]
 638 001c 000096E5 		ldr	r0, [r6]
 639 0020 012082E2 		add	r2, r2, #1
 640 0024 00508DE5 		str	r5, [sp]
 641 0028 F8309FE5 		ldr	r3, .L36+8
 642 002c 461FA0E3 		mov	r1, #280
 643 0030 FEFFFFEB 		bl	chThdCreateStatic
 644              	.LVL75:
 645              		.loc 1 177 0
 646 0034 183097E5 		ldr	r3, [r7, #24]
 647              		.loc 1 176 0
 648 0038 EC409FE5 		ldr	r4, .L36+12
 649              		.loc 1 177 0
 650 003c 082093E5 		ldr	r2, [r3, #8]
 651 0040 E8809FE5 		ldr	r8, .L36+16
 652 0044 043096E5 		ldr	r3, [r6, #4]
 653              		.loc 1 176 0
 654 0048 000084E5 		str	r0, [r4]
 655              		.loc 1 177 0
 656 004c 022042E2 		sub	r2, r2, #2
 657 0050 00508DE5 		str	r5, [sp]
 658 0054 0300A0E1 		mov	r0, r3
 659 0058 461FA0E3 		mov	r1, #280
 660 005c 0830A0E1 		mov	r3, r8
 661 0060 FEFFFFEB 		bl	chThdCreateStatic
 662              	.LVL76:
 663              		.loc 1 178 0
 664 0064 182097E5 		ldr	r2, [r7, #24]
 665 0068 083096E5 		ldr	r3, [r6, #8]
 666 006c 082092E5 		ldr	r2, [r2, #8]
 667 0070 461FA0E3 		mov	r1, #280
 668              		.loc 1 177 0
 669 0074 040084E5 		str	r0, [r4, #4]
 670              		.loc 1 178 0
 671 0078 032042E2 		sub	r2, r2, #3
 672 007c 00508DE5 		str	r5, [sp]
 673 0080 0300A0E1 		mov	r0, r3
 674 0084 0830A0E1 		mov	r3, r8
 675 0088 FEFFFFEB 		bl	chThdCreateStatic
 676              	.LVL77:
 677              		.loc 1 179 0
 678 008c 182097E5 		ldr	r2, [r7, #24]
 679 0090 0C3096E5 		ldr	r3, [r6, #12]
 680 0094 082092E5 		ldr	r2, [r2, #8]
 681 0098 461FA0E3 		mov	r1, #280
 682              		.loc 1 178 0
 683 009c 080084E5 		str	r0, [r4, #8]
 684              		.loc 1 179 0
ARM GAS  /tmp/cc4zEq9o.s 			page 13


 685 00a0 042042E2 		sub	r2, r2, #4
 686 00a4 00508DE5 		str	r5, [sp]
 687 00a8 0300A0E1 		mov	r0, r3
 688 00ac 0830A0E1 		mov	r3, r8
 689 00b0 FEFFFFEB 		bl	chThdCreateStatic
 690              	.LVL78:
 691              		.loc 1 180 0
 692 00b4 182097E5 		ldr	r2, [r7, #24]
 693 00b8 103096E5 		ldr	r3, [r6, #16]
 694 00bc 082092E5 		ldr	r2, [r2, #8]
 695 00c0 461FA0E3 		mov	r1, #280
 696 00c4 052042E2 		sub	r2, r2, #5
 697              		.loc 1 179 0
 698 00c8 0C0084E5 		str	r0, [r4, #12]
 699              		.loc 1 180 0
 700 00cc 0300A0E1 		mov	r0, r3
 701 00d0 00508DE5 		str	r5, [sp]
 702 00d4 0830A0E1 		mov	r3, r8
 703 00d8 FEFFFFEB 		bl	chThdCreateStatic
 704              	.LVL79:
 705 00dc 100084E5 		str	r0, [r4, #16]
 706              		.loc 1 181 0
 707 00e0 000094E5 		ldr	r0, [r4]
 708 00e4 FEFFFFEB 		bl	msg_loop_test
 709              	.LVL80:
 710 00e8 0040A0E1 		mov	r4, r0
 711              	.LVL81:
 712              		.loc 1 182 0
 713 00ec FEFFFFEB 		bl	test_wait_threads
 714              	.LVL82:
 715              		.loc 1 183 0
 716 00f0 3C009FE5 		ldr	r0, .L36+20
 717 00f4 FEFFFFEB 		bl	test_print
 718              	.LVL83:
 719              		.loc 1 184 0
 720 00f8 0400A0E1 		mov	r0, r4
 721 00fc FEFFFFEB 		bl	test_printn
 722              	.LVL84:
 723              		.loc 1 185 0
 724 0100 30009FE5 		ldr	r0, .L36+24
 725 0104 FEFFFFEB 		bl	test_print
 726              	.LVL85:
 727              		.loc 1 186 0
 728 0108 8400A0E1 		lsl	r0, r4, #1
 729 010c FEFFFFEB 		bl	test_printn
 730              	.LVL86:
 731              		.loc 1 187 0
 732 0110 24009FE5 		ldr	r0, .L36+28
 733              		.loc 1 188 0
 734 0114 08D08DE2 		add	sp, sp, #8
 735              		.cfi_def_cfa_offset 24
 736              		@ sp needed
 737 0118 F041BDE8 		pop	{r4, r5, r6, r7, r8, lr}
 738              		.cfi_restore 14
 739              		.cfi_restore 8
 740              		.cfi_restore 7
 741              		.cfi_restore 6
ARM GAS  /tmp/cc4zEq9o.s 			page 14


 742              		.cfi_restore 5
 743              		.cfi_restore 4
 744              		.cfi_def_cfa_offset 0
 745              	.LVL87:
 746              		.loc 1 187 0
 747 011c FEFFFFEA 		b	test_println
 748              	.LVL88:
 749              	.L37:
 750              		.align	2
 751              	.L36:
 752 0120 00000000 		.word	rlist
 753 0124 00000000 		.word	wa
 754 0128 00000000 		.word	thread1
 755 012c 00000000 		.word	threads
 756 0130 00000000 		.word	thread2
 757 0134 00000000 		.word	.LC11
 758 0138 00000000 		.word	.LC13
 759 013c 0C000000 		.word	.LC14
 760              		.cfi_endproc
 761              	.LFE12:
 762              		.size	bmk3_execute, .-bmk3_execute
 763              		.section	.text.thread4,"ax",%progbits
 764              		.align	2
 765              		.global	thread4
 766              		.syntax unified
 767              		.arm
 768              		.fpu softvfp
 769              		.type	thread4, %function
 770              	thread4:
 771              	.LFB13:
 772              		.loc 1 207 0
 773              		.cfi_startproc
 774              		@ args = 0, pretend = 0, frame = 0
 775              		@ frame_needed = 0, uses_anonymous_args = 0
 776              	.LVL89:
 777              		.loc 1 209 0
 778 0000 2C309FE5 		ldr	r3, .L43
 779              		.loc 1 207 0
 780 0004 70402DE9 		push	{r4, r5, r6, lr}
 781              		.cfi_def_cfa_offset 16
 782              		.cfi_offset 4, -16
 783              		.cfi_offset 5, -12
 784              		.cfi_offset 6, -8
 785              		.cfi_offset 14, -4
 786              		.loc 1 209 0
 787 0008 185093E5 		ldr	r5, [r3, #24]
 788              	.LVL90:
 789              		.loc 1 212 0
 790              		.syntax divided
 791              	@ 212 "../../test/testbmk.c" 1
 792 000c 9FF021E3 		msr     CPSR_c, #0x9F
 793              	@ 0 "" 2
 794              		.loc 1 214 0
 795              		.arm
 796              		.syntax unified
 797 0010 0240A0E3 		mov	r4, #2
 798              	.LVL91:
ARM GAS  /tmp/cc4zEq9o.s 			page 15


 799              	.L39:
 800              		.loc 1 214 0 is_stmt 0 discriminator 1
 801 0014 0400A0E1 		mov	r0, r4
 802 0018 FEFFFFEB 		bl	chSchGoSleepS
 803              	.LVL92:
 804              		.loc 1 216 0 is_stmt 1 discriminator 1
 805 001c 243095E5 		ldr	r3, [r5, #36]
 806 0020 000053E3 		cmp	r3, #0
 807 0024 FAFFFF0A 		beq	.L39
 808              		.loc 1 217 0
 809              		.syntax divided
 810              	@ 217 "../../test/testbmk.c" 1
 811 0028 1FF021E3 		msr     CPSR_c, #0x1F
 812              	@ 0 "" 2
 813              		.loc 1 219 0
 814              		.arm
 815              		.syntax unified
 816 002c 0000A0E3 		mov	r0, #0
 817 0030 7080BDE8 		pop	{r4, r5, r6, pc}
 818              	.L44:
 819              		.align	2
 820              	.L43:
 821 0034 00000000 		.word	rlist
 822              		.cfi_endproc
 823              	.LFE13:
 824              		.size	thread4, .-thread4
 825              		.section	.text.bmk4_execute,"ax",%progbits
 826              		.align	2
 827              		.syntax unified
 828              		.arm
 829              		.fpu softvfp
 830              		.type	bmk4_execute, %function
 831              	bmk4_execute:
 832              	.LFB14:
 833              		.loc 1 221 0
 834              		.cfi_startproc
 835              		@ args = 0, pretend = 0, frame = 0
 836              		@ frame_needed = 0, uses_anonymous_args = 0
 837 0000 F0402DE9 		push	{r4, r5, r6, r7, lr}
 838              		.cfi_def_cfa_offset 20
 839              		.cfi_offset 4, -20
 840              		.cfi_offset 5, -16
 841              		.cfi_offset 6, -12
 842              		.cfi_offset 7, -8
 843              		.cfi_offset 14, -4
 844              		.loc 1 225 0
 845 0004 0060A0E3 		mov	r6, #0
 846 0008 C4309FE5 		ldr	r3, .L50
 847 000c C4209FE5 		ldr	r2, .L50+4
 848 0010 183093E5 		ldr	r3, [r3, #24]
 849 0014 000092E5 		ldr	r0, [r2]
 850 0018 082093E5 		ldr	r2, [r3, #8]
 851              		.loc 1 221 0
 852 001c 0CD04DE2 		sub	sp, sp, #12
 853              		.cfi_def_cfa_offset 32
 854              		.loc 1 225 0
 855 0020 012082E2 		add	r2, r2, #1
ARM GAS  /tmp/cc4zEq9o.s 			page 16


 856 0024 461FA0E3 		mov	r1, #280
 857 0028 AC309FE5 		ldr	r3, .L50+8
 858 002c 00608DE5 		str	r6, [sp]
 859 0030 FEFFFFEB 		bl	chThdCreateStatic
 860              	.LVL93:
 861 0034 A4309FE5 		ldr	r3, .L50+12
 862 0038 0040A0E1 		mov	r4, r0
 863 003c 000083E5 		str	r0, [r3]
 864              	.LVL94:
 865              		.loc 1 227 0
 866 0040 FEFFFFEB 		bl	test_wait_tick
 867              	.LVL95:
 868              		.loc 1 228 0
 869 0044 FA0FA0E3 		mov	r0, #1000
 870              		.loc 1 231 0
 871 0048 0650A0E1 		mov	r5, r6
 872              		.loc 1 228 0
 873 004c FEFFFFEB 		bl	test_start_timer
 874              	.LVL96:
 875 0050 8C709FE5 		ldr	r7, .L50+16
 876              	.LVL97:
 877              	.L46:
 878              		.loc 1 230 0 discriminator 1
 879              		.syntax divided
 880              	@ 230 "../../test/testbmk.c" 1
 881 0054 9FF021E3 		msr     CPSR_c, #0x9F
 882              	@ 0 "" 2
 883              		.loc 1 231 0 discriminator 1
 884              		.arm
 885              		.syntax unified
 886 0058 0510A0E1 		mov	r1, r5
 887 005c 0400A0E1 		mov	r0, r4
 888 0060 FEFFFFEB 		bl	chSchWakeupS
 889              	.LVL98:
 890              		.loc 1 232 0 discriminator 1
 891 0064 0510A0E1 		mov	r1, r5
 892 0068 0400A0E1 		mov	r0, r4
 893 006c FEFFFFEB 		bl	chSchWakeupS
 894              	.LVL99:
 895              		.loc 1 233 0 discriminator 1
 896 0070 0510A0E1 		mov	r1, r5
 897 0074 0400A0E1 		mov	r0, r4
 898 0078 FEFFFFEB 		bl	chSchWakeupS
 899              	.LVL100:
 900              		.loc 1 234 0 discriminator 1
 901 007c 0510A0E1 		mov	r1, r5
 902 0080 0400A0E1 		mov	r0, r4
 903 0084 FEFFFFEB 		bl	chSchWakeupS
 904              	.LVL101:
 905              		.loc 1 235 0 discriminator 1
 906              		.syntax divided
 907              	@ 235 "../../test/testbmk.c" 1
 908 0088 1FF021E3 		msr     CPSR_c, #0x1F
 909              	@ 0 "" 2
 910              		.loc 1 240 0 discriminator 1
 911              		.arm
 912              		.syntax unified
ARM GAS  /tmp/cc4zEq9o.s 			page 17


 913 008c 003097E5 		ldr	r3, [r7]
 914              		.loc 1 236 0 discriminator 1
 915 0090 046086E2 		add	r6, r6, #4
 916              	.LVL102:
 917              		.loc 1 240 0 discriminator 1
 918 0094 000053E3 		cmp	r3, #0
 919 0098 EDFFFF0A 		beq	.L46
 920              		.loc 1 241 0
 921              		.syntax divided
 922              	@ 241 "../../test/testbmk.c" 1
 923 009c 9FF021E3 		msr     CPSR_c, #0x9F
 924              	@ 0 "" 2
 925              		.loc 1 242 0
 926              		.arm
 927              		.syntax unified
 928 00a0 0010E0E3 		mvn	r1, #0
 929 00a4 0400A0E1 		mov	r0, r4
 930 00a8 FEFFFFEB 		bl	chSchWakeupS
 931              	.LVL103:
 932              		.loc 1 243 0
 933              		.syntax divided
 934              	@ 243 "../../test/testbmk.c" 1
 935 00ac 1FF021E3 		msr     CPSR_c, #0x1F
 936              	@ 0 "" 2
 937              		.loc 1 245 0
 938              		.arm
 939              		.syntax unified
 940 00b0 FEFFFFEB 		bl	test_wait_threads
 941              	.LVL104:
 942              		.loc 1 246 0
 943 00b4 2C009FE5 		ldr	r0, .L50+20
 944 00b8 FEFFFFEB 		bl	test_print
 945              	.LVL105:
 946              		.loc 1 247 0
 947 00bc 8600A0E1 		lsl	r0, r6, #1
 948 00c0 FEFFFFEB 		bl	test_printn
 949              	.LVL106:
 950              		.loc 1 248 0
 951 00c4 20009FE5 		ldr	r0, .L50+24
 952              		.loc 1 249 0
 953 00c8 0CD08DE2 		add	sp, sp, #12
 954              		.cfi_def_cfa_offset 20
 955              		@ sp needed
 956 00cc F040BDE8 		pop	{r4, r5, r6, r7, lr}
 957              		.cfi_restore 14
 958              		.cfi_restore 7
 959              		.cfi_restore 6
 960              		.cfi_restore 5
 961              		.cfi_restore 4
 962              		.cfi_def_cfa_offset 0
 963              	.LVL107:
 964              		.loc 1 248 0
 965 00d0 FEFFFFEA 		b	test_println
 966              	.LVL108:
 967              	.L51:
 968              		.align	2
 969              	.L50:
ARM GAS  /tmp/cc4zEq9o.s 			page 18


 970 00d4 00000000 		.word	rlist
 971 00d8 00000000 		.word	wa
 972 00dc 00000000 		.word	thread4
 973 00e0 00000000 		.word	threads
 974 00e4 00000000 		.word	test_timer_done
 975 00e8 00000000 		.word	.LC11
 976 00ec 0C000000 		.word	.LC14
 977              		.cfi_endproc
 978              	.LFE14:
 979              		.size	bmk4_execute, .-bmk4_execute
 980              		.section	.text.bmk5_execute,"ax",%progbits
 981              		.align	2
 982              		.syntax unified
 983              		.arm
 984              		.fpu softvfp
 985              		.type	bmk5_execute, %function
 986              	bmk5_execute:
 987              	.LFB15:
 988              		.loc 1 269 0
 989              		.cfi_startproc
 990              		@ args = 0, pretend = 0, frame = 0
 991              		@ frame_needed = 0, uses_anonymous_args = 0
 992              	.LVL109:
 993 0000 F0472DE9 		push	{r4, r5, r6, r7, r8, r9, r10, lr}
 994              		.cfi_def_cfa_offset 32
 995              		.cfi_offset 4, -32
 996              		.cfi_offset 5, -28
 997              		.cfi_offset 6, -24
 998              		.cfi_offset 7, -20
 999              		.cfi_offset 8, -16
 1000              		.cfi_offset 9, -12
 1001              		.cfi_offset 10, -8
 1002              		.cfi_offset 14, -4
 1003              		.loc 1 271 0
 1004 0004 0040A0E3 		mov	r4, #0
 1005              		.loc 1 273 0
 1006 0008 7C309FE5 		ldr	r3, .L57
 1007              		.loc 1 272 0
 1008 000c 7C209FE5 		ldr	r2, .L57+4
 1009              		.loc 1 273 0
 1010 0010 183093E5 		ldr	r3, [r3, #24]
 1011              		.loc 1 269 0
 1012 0014 08D04DE2 		sub	sp, sp, #8
 1013              		.cfi_def_cfa_offset 40
 1014              		.loc 1 273 0
 1015 0018 085093E5 		ldr	r5, [r3, #8]
 1016              		.loc 1 272 0
 1017 001c 009092E5 		ldr	r9, [r2]
 1018              	.LVL110:
 1019              		.loc 1 274 0
 1020 0020 FEFFFFEB 		bl	test_wait_tick
 1021              	.LVL111:
 1022              		.loc 1 275 0
 1023 0024 FA0FA0E3 		mov	r0, #1000
 1024              		.loc 1 277 0
 1025 0028 0480A0E1 		mov	r8, r4
 1026              		.loc 1 275 0
ARM GAS  /tmp/cc4zEq9o.s 			page 19


 1027 002c FEFFFFEB 		bl	test_start_timer
 1028              	.LVL112:
 1029              		.loc 1 277 0
 1030 0030 46AFA0E3 		mov	r10, #280
 1031 0034 58709FE5 		ldr	r7, .L57+8
 1032 0038 58609FE5 		ldr	r6, .L57+12
 1033              		.loc 1 273 0
 1034 003c 015045E2 		sub	r5, r5, #1
 1035              	.LVL113:
 1036              	.L53:
 1037              		.loc 1 277 0 discriminator 1
 1038 0040 0630A0E1 		mov	r3, r6
 1039 0044 0520A0E1 		mov	r2, r5
 1040 0048 0A10A0E1 		mov	r1, r10
 1041 004c 00808DE5 		str	r8, [sp]
 1042 0050 0900A0E1 		mov	r0, r9
 1043 0054 FEFFFFEB 		bl	chThdCreateStatic
 1044              	.LVL114:
 1045 0058 FEFFFFEB 		bl	chThdWait
 1046              	.LVL115:
 1047              		.loc 1 282 0 discriminator 1
 1048 005c 003097E5 		ldr	r3, [r7]
 1049              		.loc 1 278 0 discriminator 1
 1050 0060 014084E2 		add	r4, r4, #1
 1051              	.LVL116:
 1052              		.loc 1 282 0 discriminator 1
 1053 0064 000053E3 		cmp	r3, #0
 1054 0068 F4FFFF0A 		beq	.L53
 1055              		.loc 1 283 0
 1056 006c 28009FE5 		ldr	r0, .L57+16
 1057 0070 FEFFFFEB 		bl	test_print
 1058              	.LVL117:
 1059              		.loc 1 284 0
 1060 0074 0400A0E1 		mov	r0, r4
 1061 0078 FEFFFFEB 		bl	test_printn
 1062              	.LVL118:
 1063              		.loc 1 285 0
 1064 007c 1C009FE5 		ldr	r0, .L57+20
 1065              		.loc 1 286 0
 1066 0080 08D08DE2 		add	sp, sp, #8
 1067              		.cfi_def_cfa_offset 32
 1068              		@ sp needed
 1069 0084 F047BDE8 		pop	{r4, r5, r6, r7, r8, r9, r10, lr}
 1070              		.cfi_restore 14
 1071              		.cfi_restore 10
 1072              		.cfi_restore 9
 1073              		.cfi_restore 8
 1074              		.cfi_restore 7
 1075              		.cfi_restore 6
 1076              		.cfi_restore 5
 1077              		.cfi_restore 4
 1078              		.cfi_def_cfa_offset 0
 1079              	.LVL119:
 1080              		.loc 1 285 0
 1081 0088 FEFFFFEA 		b	test_println
 1082              	.LVL120:
 1083              	.L58:
ARM GAS  /tmp/cc4zEq9o.s 			page 20


 1084              		.align	2
 1085              	.L57:
 1086 008c 00000000 		.word	rlist
 1087 0090 00000000 		.word	wa
 1088 0094 00000000 		.word	test_timer_done
 1089 0098 00000000 		.word	thread2
 1090 009c 00000000 		.word	.LC11
 1091 00a0 10000000 		.word	.LC12
 1092              		.cfi_endproc
 1093              	.LFE15:
 1094              		.size	bmk5_execute, .-bmk5_execute
 1095              		.section	.text.bmk7_execute,"ax",%progbits
 1096              		.align	2
 1097              		.syntax unified
 1098              		.arm
 1099              		.fpu softvfp
 1100              		.type	bmk7_execute, %function
 1101              	bmk7_execute:
 1102              	.LFB19:
 1103              		.loc 1 358 0
 1104              		.cfi_startproc
 1105              		@ args = 0, pretend = 0, frame = 0
 1106              		@ frame_needed = 0, uses_anonymous_args = 0
 1107 0000 F0402DE9 		push	{r4, r5, r6, r7, lr}
 1108              		.cfi_def_cfa_offset 20
 1109              		.cfi_offset 4, -20
 1110              		.cfi_offset 5, -16
 1111              		.cfi_offset 6, -12
 1112              		.cfi_offset 7, -8
 1113              		.cfi_offset 14, -4
 1114              		.loc 1 361 0
 1115 0004 0040A0E3 		mov	r4, #0
 1116 0008 48719FE5 		ldr	r7, .L64
 1117 000c 48619FE5 		ldr	r6, .L64+4
 1118 0010 183097E5 		ldr	r3, [r7, #24]
 1119              		.loc 1 358 0
 1120 0014 0CD04DE2 		sub	sp, sp, #12
 1121              		.cfi_def_cfa_offset 32
 1122              		.loc 1 361 0
 1123 0018 082093E5 		ldr	r2, [r3, #8]
 1124 001c 000096E5 		ldr	r0, [r6]
 1125 0020 052082E2 		add	r2, r2, #5
 1126 0024 34319FE5 		ldr	r3, .L64+8
 1127 0028 461FA0E3 		mov	r1, #280
 1128 002c 00408DE5 		str	r4, [sp]
 1129 0030 FEFFFFEB 		bl	chThdCreateStatic
 1130              	.LVL121:
 1131              		.loc 1 362 0
 1132 0034 183097E5 		ldr	r3, [r7, #24]
 1133              		.loc 1 361 0
 1134 0038 24519FE5 		ldr	r5, .L64+12
 1135              		.loc 1 362 0
 1136 003c 082093E5 		ldr	r2, [r3, #8]
 1137 0040 043096E5 		ldr	r3, [r6, #4]
 1138              		.loc 1 361 0
 1139 0044 000085E5 		str	r0, [r5]
 1140              		.loc 1 362 0
ARM GAS  /tmp/cc4zEq9o.s 			page 21


 1141 0048 042082E2 		add	r2, r2, #4
 1142 004c 0300A0E1 		mov	r0, r3
 1143 0050 461FA0E3 		mov	r1, #280
 1144 0054 04319FE5 		ldr	r3, .L64+8
 1145 0058 00408DE5 		str	r4, [sp]
 1146 005c FEFFFFEB 		bl	chThdCreateStatic
 1147              	.LVL122:
 1148              		.loc 1 363 0
 1149 0060 182097E5 		ldr	r2, [r7, #24]
 1150 0064 083096E5 		ldr	r3, [r6, #8]
 1151 0068 082092E5 		ldr	r2, [r2, #8]
 1152 006c 461FA0E3 		mov	r1, #280
 1153              		.loc 1 362 0
 1154 0070 040085E5 		str	r0, [r5, #4]
 1155              		.loc 1 363 0
 1156 0074 032082E2 		add	r2, r2, #3
 1157 0078 0300A0E1 		mov	r0, r3
 1158 007c 00408DE5 		str	r4, [sp]
 1159 0080 D8309FE5 		ldr	r3, .L64+8
 1160 0084 FEFFFFEB 		bl	chThdCreateStatic
 1161              	.LVL123:
 1162              		.loc 1 364 0
 1163 0088 182097E5 		ldr	r2, [r7, #24]
 1164 008c 0C3096E5 		ldr	r3, [r6, #12]
 1165 0090 082092E5 		ldr	r2, [r2, #8]
 1166 0094 461FA0E3 		mov	r1, #280
 1167              		.loc 1 363 0
 1168 0098 080085E5 		str	r0, [r5, #8]
 1169              		.loc 1 364 0
 1170 009c 022082E2 		add	r2, r2, #2
 1171 00a0 0300A0E1 		mov	r0, r3
 1172 00a4 00408DE5 		str	r4, [sp]
 1173 00a8 B0309FE5 		ldr	r3, .L64+8
 1174 00ac FEFFFFEB 		bl	chThdCreateStatic
 1175              	.LVL124:
 1176              		.loc 1 365 0
 1177 00b0 182097E5 		ldr	r2, [r7, #24]
 1178 00b4 103096E5 		ldr	r3, [r6, #16]
 1179 00b8 082092E5 		ldr	r2, [r2, #8]
 1180 00bc 461FA0E3 		mov	r1, #280
 1181              		.loc 1 364 0
 1182 00c0 0C0085E5 		str	r0, [r5, #12]
 1183              		.loc 1 365 0
 1184 00c4 012082E2 		add	r2, r2, #1
 1185 00c8 0300A0E1 		mov	r0, r3
 1186 00cc 00408DE5 		str	r4, [sp]
 1187 00d0 88309FE5 		ldr	r3, .L64+8
 1188 00d4 FEFFFFEB 		bl	chThdCreateStatic
 1189              	.LVL125:
 1190 00d8 100085E5 		str	r0, [r5, #16]
 1191              	.LVL126:
 1192              		.loc 1 368 0
 1193 00dc FEFFFFEB 		bl	test_wait_tick
 1194              	.LVL127:
 1195              		.loc 1 369 0
 1196 00e0 FA0FA0E3 		mov	r0, #1000
 1197              		.loc 1 371 0
ARM GAS  /tmp/cc4zEq9o.s 			page 22


 1198 00e4 0470A0E1 		mov	r7, r4
 1199              		.loc 1 369 0
 1200 00e8 FEFFFFEB 		bl	test_start_timer
 1201              	.LVL128:
 1202 00ec 74609FE5 		ldr	r6, .L64+16
 1203              		.loc 1 371 0
 1204 00f0 74509FE5 		ldr	r5, .L64+20
 1205              	.LVL129:
 1206              	.L60:
 1207              		.loc 1 371 0 is_stmt 0 discriminator 1
 1208 00f4 0710A0E1 		mov	r1, r7
 1209 00f8 0500A0E1 		mov	r0, r5
 1210 00fc FEFFFFEB 		bl	chSemReset
 1211              	.LVL130:
 1212              		.loc 1 376 0 is_stmt 1 discriminator 1
 1213 0100 003096E5 		ldr	r3, [r6]
 1214              		.loc 1 372 0 discriminator 1
 1215 0104 014084E2 		add	r4, r4, #1
 1216              	.LVL131:
 1217              		.loc 1 376 0 discriminator 1
 1218 0108 000053E3 		cmp	r3, #0
 1219 010c F8FFFF0A 		beq	.L60
 1220              		.loc 1 377 0
 1221 0110 FEFFFFEB 		bl	test_terminate_threads
 1222              	.LVL132:
 1223              		.loc 1 378 0
 1224 0114 0010A0E3 		mov	r1, #0
 1225 0118 4C009FE5 		ldr	r0, .L64+20
 1226 011c FEFFFFEB 		bl	chSemReset
 1227              	.LVL133:
 1228              		.loc 1 379 0
 1229 0120 FEFFFFEB 		bl	test_wait_threads
 1230              	.LVL134:
 1231              		.loc 1 381 0
 1232 0124 44009FE5 		ldr	r0, .L64+24
 1233 0128 FEFFFFEB 		bl	test_print
 1234              	.LVL135:
 1235              		.loc 1 382 0
 1236 012c 0400A0E1 		mov	r0, r4
 1237 0130 FEFFFFEB 		bl	test_printn
 1238              	.LVL136:
 1239              		.loc 1 384 0
 1240 0134 844084E0 		add	r4, r4, r4, lsl #1
 1241              	.LVL137:
 1242              		.loc 1 383 0
 1243 0138 34009FE5 		ldr	r0, .L64+28
 1244 013c FEFFFFEB 		bl	test_print
 1245              	.LVL138:
 1246              		.loc 1 384 0
 1247 0140 8400A0E1 		lsl	r0, r4, #1
 1248 0144 FEFFFFEB 		bl	test_printn
 1249              	.LVL139:
 1250              		.loc 1 385 0
 1251 0148 28009FE5 		ldr	r0, .L64+32
 1252              		.loc 1 386 0
 1253 014c 0CD08DE2 		add	sp, sp, #12
 1254              		.cfi_def_cfa_offset 20
ARM GAS  /tmp/cc4zEq9o.s 			page 23


 1255              		@ sp needed
 1256 0150 F040BDE8 		pop	{r4, r5, r6, r7, lr}
 1257              		.cfi_restore 14
 1258              		.cfi_restore 7
 1259              		.cfi_restore 6
 1260              		.cfi_restore 5
 1261              		.cfi_restore 4
 1262              		.cfi_def_cfa_offset 0
 1263              		.loc 1 385 0
 1264 0154 FEFFFFEA 		b	test_println
 1265              	.LVL140:
 1266              	.L65:
 1267              		.align	2
 1268              	.L64:
 1269 0158 00000000 		.word	rlist
 1270 015c 00000000 		.word	wa
 1271 0160 00000000 		.word	thread3
 1272 0164 00000000 		.word	threads
 1273 0168 00000000 		.word	test_timer_done
 1274 016c 00000000 		.word	.LANCHOR0
 1275 0170 00000000 		.word	.LC11
 1276 0174 00000000 		.word	.LC15
 1277 0178 0C000000 		.word	.LC14
 1278              		.cfi_endproc
 1279              	.LFE19:
 1280              		.size	bmk7_execute, .-bmk7_execute
 1281              		.section	.text.thread3,"ax",%progbits
 1282              		.align	2
 1283              		.syntax unified
 1284              		.arm
 1285              		.fpu softvfp
 1286              		.type	thread3, %function
 1287              	thread3:
 1288              	.LFB17:
 1289              		.loc 1 345 0
 1290              		.cfi_startproc
 1291              		@ args = 0, pretend = 0, frame = 0
 1292              		@ frame_needed = 0, uses_anonymous_args = 0
 1293              	.LVL141:
 1294 0000 70402DE9 		push	{r4, r5, r6, lr}
 1295              		.cfi_def_cfa_offset 16
 1296              		.cfi_offset 4, -16
 1297              		.cfi_offset 5, -12
 1298              		.cfi_offset 6, -8
 1299              		.cfi_offset 14, -4
 1300              		.loc 1 348 0
 1301 0004 30409FE5 		ldr	r4, .L74
 1302 0008 183094E5 		ldr	r3, [r4, #24]
 1303 000c 1D30D3E5 		ldrb	r3, [r3, #29]	@ zero_extendqisi2
 1304 0010 040013E3 		tst	r3, #4
 1305 0014 0600001A 		bne	.L72
 1306              		.loc 1 349 0
 1307 0018 20509FE5 		ldr	r5, .L74+4
 1308              	.LVL142:
 1309              	.L67:
 1310 001c 0500A0E1 		mov	r0, r5
 1311 0020 FEFFFFEB 		bl	chSemWait
ARM GAS  /tmp/cc4zEq9o.s 			page 24


 1312              	.LVL143:
 1313              		.loc 1 348 0
 1314 0024 183094E5 		ldr	r3, [r4, #24]
 1315 0028 1D30D3E5 		ldrb	r3, [r3, #29]	@ zero_extendqisi2
 1316 002c 040013E3 		tst	r3, #4
 1317 0030 F9FFFF0A 		beq	.L67
 1318              	.L72:
 1319              		.loc 1 351 0
 1320 0034 0000A0E3 		mov	r0, #0
 1321 0038 7080BDE8 		pop	{r4, r5, r6, pc}
 1322              	.L75:
 1323              		.align	2
 1324              	.L74:
 1325 003c 00000000 		.word	rlist
 1326 0040 00000000 		.word	.LANCHOR0
 1327              		.cfi_endproc
 1328              	.LFE17:
 1329              		.size	thread3, .-thread3
 1330              		.section	.text.bmk7_setup,"ax",%progbits
 1331              		.align	2
 1332              		.syntax unified
 1333              		.arm
 1334              		.fpu softvfp
 1335              		.type	bmk7_setup, %function
 1336              	bmk7_setup:
 1337              	.LFB18:
 1338              		.loc 1 353 0
 1339              		.cfi_startproc
 1340              		@ args = 0, pretend = 0, frame = 0
 1341              		@ frame_needed = 0, uses_anonymous_args = 0
 1342              		@ link register save eliminated.
 1343              		.loc 1 355 0
 1344 0000 0010A0E3 		mov	r1, #0
 1345 0004 00009FE5 		ldr	r0, .L77
 1346 0008 FEFFFFEA 		b	chSemInit
 1347              	.LVL144:
 1348              	.L78:
 1349              		.align	2
 1350              	.L77:
 1351 000c 00000000 		.word	.LANCHOR0
 1352              		.cfi_endproc
 1353              	.LFE18:
 1354              		.size	bmk7_setup, .-bmk7_setup
 1355              		.section	.text.bmk11_setup,"ax",%progbits
 1356              		.align	2
 1357              		.syntax unified
 1358              		.arm
 1359              		.fpu softvfp
 1360              		.type	bmk11_setup, %function
 1361              	bmk11_setup:
 1362              	.LFB25:
 1363              		.loc 1 546 0
 1364              		.cfi_startproc
 1365              		@ args = 0, pretend = 0, frame = 0
 1366              		@ frame_needed = 0, uses_anonymous_args = 0
 1367              		@ link register save eliminated.
 1368              		.loc 1 548 0
ARM GAS  /tmp/cc4zEq9o.s 			page 25


 1369 0000 0110A0E3 		mov	r1, #1
 1370 0004 00009FE5 		ldr	r0, .L80
 1371 0008 FEFFFFEA 		b	chSemInit
 1372              	.LVL145:
 1373              	.L81:
 1374              		.align	2
 1375              	.L80:
 1376 000c 00000000 		.word	.LANCHOR0
 1377              		.cfi_endproc
 1378              	.LFE25:
 1379              		.size	bmk11_setup, .-bmk11_setup
 1380              		.section	.text.bmk8_execute,"ax",%progbits
 1381              		.align	2
 1382              		.syntax unified
 1383              		.arm
 1384              		.fpu softvfp
 1385              		.type	bmk8_execute, %function
 1386              	bmk8_execute:
 1387              	.LFB21:
 1388              		.loc 1 420 0
 1389              		.cfi_startproc
 1390              		@ args = 0, pretend = 0, frame = 8
 1391              		@ frame_needed = 0, uses_anonymous_args = 0
 1392              		.loc 1 423 0
 1393 0000 0030A0E3 		mov	r3, #0
 1394              		.loc 1 420 0
 1395 0004 F0412DE9 		push	{r4, r5, r6, r7, r8, lr}
 1396              		.cfi_def_cfa_offset 24
 1397              		.cfi_offset 4, -24
 1398              		.cfi_offset 5, -20
 1399              		.cfi_offset 6, -16
 1400              		.cfi_offset 7, -12
 1401              		.cfi_offset 8, -8
 1402              		.cfi_offset 14, -4
 1403              		.loc 1 426 0
 1404 0008 0C819FE5 		ldr	r8, .L84
 1405              		.loc 1 420 0
 1406 000c 10D04DE2 		sub	sp, sp, #16
 1407              		.cfi_def_cfa_offset 40
 1408              		.loc 1 423 0
 1409 0010 10408DE2 		add	r4, sp, #16
 1410 0014 043024E5 		str	r3, [r4, #-4]!
 1411              		.loc 1 424 0
 1412 0018 FEFFFFEB 		bl	test_wait_tick
 1413              	.LVL146:
 1414              		.loc 1 426 0
 1415 001c 183098E5 		ldr	r3, [r8, #24]
 1416 0020 F8709FE5 		ldr	r7, .L84+4
 1417 0024 F8609FE5 		ldr	r6, .L84+8
 1418 0028 082093E5 		ldr	r2, [r3, #8]
 1419 002c 000097E5 		ldr	r0, [r7]
 1420 0030 0630A0E1 		mov	r3, r6
 1421 0034 012042E2 		sub	r2, r2, #1
 1422 0038 00408DE5 		str	r4, [sp]
 1423 003c 461FA0E3 		mov	r1, #280
 1424 0040 FEFFFFEB 		bl	chThdCreateStatic
 1425              	.LVL147:
ARM GAS  /tmp/cc4zEq9o.s 			page 26


 1426              		.loc 1 427 0
 1427 0044 183098E5 		ldr	r3, [r8, #24]
 1428              		.loc 1 426 0
 1429 0048 D8509FE5 		ldr	r5, .L84+12
 1430              		.loc 1 427 0
 1431 004c 082093E5 		ldr	r2, [r3, #8]
 1432 0050 043097E5 		ldr	r3, [r7, #4]
 1433              		.loc 1 426 0
 1434 0054 000085E5 		str	r0, [r5]
 1435              		.loc 1 427 0
 1436 0058 012042E2 		sub	r2, r2, #1
 1437 005c 00408DE5 		str	r4, [sp]
 1438 0060 0300A0E1 		mov	r0, r3
 1439 0064 461FA0E3 		mov	r1, #280
 1440 0068 0630A0E1 		mov	r3, r6
 1441 006c FEFFFFEB 		bl	chThdCreateStatic
 1442              	.LVL148:
 1443              		.loc 1 428 0
 1444 0070 182098E5 		ldr	r2, [r8, #24]
 1445 0074 083097E5 		ldr	r3, [r7, #8]
 1446 0078 082092E5 		ldr	r2, [r2, #8]
 1447 007c 461FA0E3 		mov	r1, #280
 1448              		.loc 1 427 0
 1449 0080 040085E5 		str	r0, [r5, #4]
 1450              		.loc 1 428 0
 1451 0084 012042E2 		sub	r2, r2, #1
 1452 0088 00408DE5 		str	r4, [sp]
 1453 008c 0300A0E1 		mov	r0, r3
 1454 0090 0630A0E1 		mov	r3, r6
 1455 0094 FEFFFFEB 		bl	chThdCreateStatic
 1456              	.LVL149:
 1457              		.loc 1 429 0
 1458 0098 182098E5 		ldr	r2, [r8, #24]
 1459 009c 0C3097E5 		ldr	r3, [r7, #12]
 1460 00a0 082092E5 		ldr	r2, [r2, #8]
 1461 00a4 461FA0E3 		mov	r1, #280
 1462              		.loc 1 428 0
 1463 00a8 080085E5 		str	r0, [r5, #8]
 1464              		.loc 1 429 0
 1465 00ac 012042E2 		sub	r2, r2, #1
 1466 00b0 00408DE5 		str	r4, [sp]
 1467 00b4 0300A0E1 		mov	r0, r3
 1468 00b8 0630A0E1 		mov	r3, r6
 1469 00bc FEFFFFEB 		bl	chThdCreateStatic
 1470              	.LVL150:
 1471              		.loc 1 430 0
 1472 00c0 182098E5 		ldr	r2, [r8, #24]
 1473 00c4 103097E5 		ldr	r3, [r7, #16]
 1474 00c8 082092E5 		ldr	r2, [r2, #8]
 1475 00cc 461FA0E3 		mov	r1, #280
 1476 00d0 012042E2 		sub	r2, r2, #1
 1477              		.loc 1 429 0
 1478 00d4 0C0085E5 		str	r0, [r5, #12]
 1479              		.loc 1 430 0
 1480 00d8 00408DE5 		str	r4, [sp]
 1481 00dc 0300A0E1 		mov	r0, r3
 1482 00e0 0630A0E1 		mov	r3, r6
ARM GAS  /tmp/cc4zEq9o.s 			page 27


 1483 00e4 FEFFFFEB 		bl	chThdCreateStatic
 1484              	.LVL151:
 1485 00e8 100085E5 		str	r0, [r5, #16]
 1486              		.loc 1 432 0
 1487 00ec FA0FA0E3 		mov	r0, #1000
 1488 00f0 FEFFFFEB 		bl	chThdSleep
 1489              	.LVL152:
 1490              		.loc 1 433 0
 1491 00f4 FEFFFFEB 		bl	test_terminate_threads
 1492              	.LVL153:
 1493              		.loc 1 434 0
 1494 00f8 FEFFFFEB 		bl	test_wait_threads
 1495              	.LVL154:
 1496              		.loc 1 436 0
 1497 00fc 28009FE5 		ldr	r0, .L84+16
 1498 0100 FEFFFFEB 		bl	test_print
 1499              	.LVL155:
 1500              		.loc 1 437 0
 1501 0104 0C009DE5 		ldr	r0, [sp, #12]
 1502 0108 FEFFFFEB 		bl	test_printn
 1503              	.LVL156:
 1504              		.loc 1 438 0
 1505 010c 1C009FE5 		ldr	r0, .L84+20
 1506 0110 FEFFFFEB 		bl	test_println
 1507              	.LVL157:
 1508              		.loc 1 439 0
 1509 0114 10D08DE2 		add	sp, sp, #16
 1510              		.cfi_def_cfa_offset 24
 1511              		@ sp needed
 1512 0118 F081BDE8 		pop	{r4, r5, r6, r7, r8, pc}
 1513              	.L85:
 1514              		.align	2
 1515              	.L84:
 1516 011c 00000000 		.word	rlist
 1517 0120 00000000 		.word	wa
 1518 0124 00000000 		.word	thread8
 1519 0128 00000000 		.word	threads
 1520 012c 00000000 		.word	.LC11
 1521 0130 0C000000 		.word	.LC14
 1522              		.cfi_endproc
 1523              	.LFE21:
 1524              		.size	bmk8_execute, .-bmk8_execute
 1525              		.section	.text.thread8,"ax",%progbits
 1526              		.align	2
 1527              		.syntax unified
 1528              		.arm
 1529              		.fpu softvfp
 1530              		.type	thread8, %function
 1531              	thread8:
 1532              	.LFB20:
 1533              		.loc 1 405 0
 1534              		.cfi_startproc
 1535              		@ args = 0, pretend = 0, frame = 0
 1536              		@ frame_needed = 0, uses_anonymous_args = 0
 1537              	.LVL158:
 1538 0000 70402DE9 		push	{r4, r5, r6, lr}
 1539              		.cfi_def_cfa_offset 16
ARM GAS  /tmp/cc4zEq9o.s 			page 28


 1540              		.cfi_offset 4, -16
 1541              		.cfi_offset 5, -12
 1542              		.cfi_offset 6, -8
 1543              		.cfi_offset 14, -4
 1544              		.loc 1 405 0
 1545 0004 0040A0E1 		mov	r4, r0
 1546 0008 30509FE5 		ldr	r5, .L91
 1547              	.LVL159:
 1548              	.L87:
 1549              		.loc 1 408 0 discriminator 1
 1550 000c FEFFFFEB 		bl	chThdYield
 1551              	.LVL160:
 1552              		.loc 1 409 0 discriminator 1
 1553 0010 FEFFFFEB 		bl	chThdYield
 1554              	.LVL161:
 1555              		.loc 1 410 0 discriminator 1
 1556 0014 FEFFFFEB 		bl	chThdYield
 1557              	.LVL162:
 1558              		.loc 1 411 0 discriminator 1
 1559 0018 FEFFFFEB 		bl	chThdYield
 1560              	.LVL163:
 1561              		.loc 1 412 0 discriminator 1
 1562 001c 003094E5 		ldr	r3, [r4]
 1563              		.loc 1 416 0 discriminator 1
 1564 0020 182095E5 		ldr	r2, [r5, #24]
 1565              		.loc 1 412 0 discriminator 1
 1566 0024 043083E2 		add	r3, r3, #4
 1567 0028 003084E5 		str	r3, [r4]
 1568              		.loc 1 416 0 discriminator 1
 1569 002c 1D30D2E5 		ldrb	r3, [r2, #29]	@ zero_extendqisi2
 1570 0030 040013E3 		tst	r3, #4
 1571 0034 F4FFFF0A 		beq	.L87
 1572              		.loc 1 418 0
 1573 0038 0000A0E3 		mov	r0, #0
 1574 003c 7080BDE8 		pop	{r4, r5, r6, pc}
 1575              	.L92:
 1576              		.align	2
 1577              	.L91:
 1578 0040 00000000 		.word	rlist
 1579              		.cfi_endproc
 1580              	.LFE20:
 1581              		.size	thread8, .-thread8
 1582              		.section	.text.bmk9_execute,"ax",%progbits
 1583              		.align	2
 1584              		.syntax unified
 1585              		.arm
 1586              		.fpu softvfp
 1587              		.type	bmk9_execute, %function
 1588              	bmk9_execute:
 1589              	.LFB22:
 1590              		.loc 1 458 0
 1591              		.cfi_startproc
 1592              		@ args = 0, pretend = 0, frame = 0
 1593              		@ frame_needed = 0, uses_anonymous_args = 0
 1594              		.loc 1 463 0
 1595 0000 0030A0E3 		mov	r3, #0
 1596              		.loc 1 458 0
ARM GAS  /tmp/cc4zEq9o.s 			page 29


 1597 0004 F04F2DE9 		push	{r4, r5, r6, r7, r8, r9, r10, fp, lr}
 1598              		.cfi_def_cfa_offset 36
 1599              		.cfi_offset 4, -36
 1600              		.cfi_offset 5, -32
 1601              		.cfi_offset 6, -28
 1602              		.cfi_offset 7, -24
 1603              		.cfi_offset 8, -20
 1604              		.cfi_offset 9, -16
 1605              		.cfi_offset 10, -12
 1606              		.cfi_offset 11, -8
 1607              		.cfi_offset 14, -4
 1608              		.loc 1 464 0
 1609 0008 0360A0E1 		mov	r6, r3
 1610              		.loc 1 458 0
 1611 000c 0CD04DE2 		sub	sp, sp, #12
 1612              		.cfi_def_cfa_offset 48
 1613              		.loc 1 463 0
 1614 0010 00308DE5 		str	r3, [sp]
 1615 0014 1020A0E3 		mov	r2, #16
 1616 0018 C4109FE5 		ldr	r1, .L98
 1617 001c C4009FE5 		ldr	r0, .L98+4
 1618 0020 FEFFFFEB 		bl	chIQInit
 1619              	.LVL164:
 1620              		.loc 1 465 0
 1621 0024 FEFFFFEB 		bl	test_wait_tick
 1622              	.LVL165:
 1623              		.loc 1 466 0
 1624 0028 FA0FA0E3 		mov	r0, #1000
 1625              		.loc 1 469 0
 1626 002c 06A0A0E1 		mov	r10, r6
 1627              		.loc 1 466 0
 1628 0030 FEFFFFEB 		bl	test_start_timer
 1629              	.LVL166:
 1630              		.loc 1 470 0
 1631 0034 0190A0E3 		mov	r9, #1
 1632              		.loc 1 471 0
 1633 0038 0280A0E3 		mov	r8, #2
 1634              		.loc 1 472 0
 1635 003c 0370A0E3 		mov	r7, #3
 1636              		.loc 1 474 0
 1637 0040 0050E0E3 		mvn	r5, #0
 1638 0044 A0B09FE5 		ldr	fp, .L98+8
 1639              		.loc 1 469 0
 1640 0048 98409FE5 		ldr	r4, .L98+4
 1641              	.LVL167:
 1642              	.L94:
 1643              		.loc 1 468 0 discriminator 1
 1644              		.syntax divided
 1645              	@ 468 "../../test/testbmk.c" 1
 1646 004c 9FF021E3 		msr     CPSR_c, #0x9F
 1647              	@ 0 "" 2
 1648              		.loc 1 469 0 discriminator 1
 1649              		.arm
 1650              		.syntax unified
 1651 0050 0A10A0E1 		mov	r1, r10
 1652 0054 0400A0E1 		mov	r0, r4
 1653 0058 FEFFFFEB 		bl	chIQPutI
ARM GAS  /tmp/cc4zEq9o.s 			page 30


 1654              	.LVL168:
 1655              		.loc 1 470 0 discriminator 1
 1656 005c 0910A0E1 		mov	r1, r9
 1657 0060 0400A0E1 		mov	r0, r4
 1658 0064 FEFFFFEB 		bl	chIQPutI
 1659              	.LVL169:
 1660              		.loc 1 471 0 discriminator 1
 1661 0068 0810A0E1 		mov	r1, r8
 1662 006c 0400A0E1 		mov	r0, r4
 1663 0070 FEFFFFEB 		bl	chIQPutI
 1664              	.LVL170:
 1665              		.loc 1 472 0 discriminator 1
 1666 0074 0710A0E1 		mov	r1, r7
 1667 0078 0400A0E1 		mov	r0, r4
 1668 007c FEFFFFEB 		bl	chIQPutI
 1669              	.LVL171:
 1670              		.loc 1 473 0 discriminator 1
 1671              		.syntax divided
 1672              	@ 473 "../../test/testbmk.c" 1
 1673 0080 1FF021E3 		msr     CPSR_c, #0x1F
 1674              	@ 0 "" 2
 1675              		.loc 1 474 0 discriminator 1
 1676              		.arm
 1677              		.syntax unified
 1678 0084 0510A0E1 		mov	r1, r5
 1679 0088 0400A0E1 		mov	r0, r4
 1680 008c FEFFFFEB 		bl	chIQGetTimeout
 1681              	.LVL172:
 1682              		.loc 1 475 0 discriminator 1
 1683 0090 0510A0E1 		mov	r1, r5
 1684 0094 0400A0E1 		mov	r0, r4
 1685 0098 FEFFFFEB 		bl	chIQGetTimeout
 1686              	.LVL173:
 1687              		.loc 1 476 0 discriminator 1
 1688 009c 0510A0E1 		mov	r1, r5
 1689 00a0 0400A0E1 		mov	r0, r4
 1690 00a4 FEFFFFEB 		bl	chIQGetTimeout
 1691              	.LVL174:
 1692              		.loc 1 477 0 discriminator 1
 1693 00a8 0510A0E1 		mov	r1, r5
 1694 00ac 0400A0E1 		mov	r0, r4
 1695 00b0 FEFFFFEB 		bl	chIQGetTimeout
 1696              	.LVL175:
 1697              		.loc 1 482 0 discriminator 1
 1698 00b4 00309BE5 		ldr	r3, [fp]
 1699              		.loc 1 478 0 discriminator 1
 1700 00b8 016086E2 		add	r6, r6, #1
 1701              	.LVL176:
 1702              		.loc 1 482 0 discriminator 1
 1703 00bc 000053E3 		cmp	r3, #0
 1704 00c0 E1FFFF0A 		beq	.L94
 1705              		.loc 1 483 0
 1706 00c4 24009FE5 		ldr	r0, .L98+12
 1707 00c8 FEFFFFEB 		bl	test_print
 1708              	.LVL177:
 1709              		.loc 1 484 0
 1710 00cc 0601A0E1 		lsl	r0, r6, #2
ARM GAS  /tmp/cc4zEq9o.s 			page 31


 1711 00d0 FEFFFFEB 		bl	test_printn
 1712              	.LVL178:
 1713              		.loc 1 485 0
 1714 00d4 18009FE5 		ldr	r0, .L98+16
 1715              		.loc 1 486 0
 1716 00d8 0CD08DE2 		add	sp, sp, #12
 1717              		.cfi_def_cfa_offset 36
 1718              		@ sp needed
 1719 00dc F04FBDE8 		pop	{r4, r5, r6, r7, r8, r9, r10, fp, lr}
 1720              		.cfi_restore 14
 1721              		.cfi_restore 11
 1722              		.cfi_restore 10
 1723              		.cfi_restore 9
 1724              		.cfi_restore 8
 1725              		.cfi_restore 7
 1726              		.cfi_restore 6
 1727              		.cfi_restore 5
 1728              		.cfi_restore 4
 1729              		.cfi_def_cfa_offset 0
 1730              	.LVL179:
 1731              		.loc 1 485 0
 1732 00e0 FEFFFFEA 		b	test_println
 1733              	.LVL180:
 1734              	.L99:
 1735              		.align	2
 1736              	.L98:
 1737 00e4 00000000 		.word	.LANCHOR1
 1738 00e8 00000000 		.word	.LANCHOR2
 1739 00ec 00000000 		.word	test_timer_done
 1740 00f0 00000000 		.word	.LC11
 1741 00f4 00000000 		.word	.LC16
 1742              		.cfi_endproc
 1743              	.LFE22:
 1744              		.size	bmk9_execute, .-bmk9_execute
 1745              		.section	.text.bmk10_execute,"ax",%progbits
 1746              		.align	2
 1747              		.syntax unified
 1748              		.arm
 1749              		.fpu softvfp
 1750              		.type	bmk10_execute, %function
 1751              	bmk10_execute:
 1752              	.LFB24:
 1753              		.loc 1 506 0
 1754              		.cfi_startproc
 1755              		@ args = 0, pretend = 0, frame = 0
 1756              		@ frame_needed = 0, uses_anonymous_args = 0
 1757              	.LVL181:
 1758 0000 F84F2DE9 		push	{r3, r4, r5, r6, r7, r8, r9, r10, fp, lr}
 1759              		.cfi_def_cfa_offset 40
 1760              		.cfi_offset 3, -40
 1761              		.cfi_offset 4, -36
 1762              		.cfi_offset 5, -32
 1763              		.cfi_offset 6, -28
 1764              		.cfi_offset 7, -24
 1765              		.cfi_offset 8, -20
 1766              		.cfi_offset 9, -16
 1767              		.cfi_offset 10, -12
ARM GAS  /tmp/cc4zEq9o.s 			page 32


 1768              		.cfi_offset 11, -8
 1769              		.cfi_offset 14, -4
 1770              		.loc 1 508 0
 1771 0004 0040A0E3 		mov	r4, #0
 1772              		.loc 1 510 0
 1773 0008 FEFFFFEB 		bl	test_wait_tick
 1774              	.LVL182:
 1775              		.loc 1 511 0
 1776 000c FA0FA0E3 		mov	r0, #1000
 1777              		.loc 1 514 0
 1778 0010 0480A0E1 		mov	r8, r4
 1779              		.loc 1 511 0
 1780 0014 FEFFFFEB 		bl	test_start_timer
 1781              	.LVL183:
 1782              		.loc 1 514 0
 1783 0018 01B0A0E3 		mov	fp, #1
 1784 001c 78A09FE5 		ldr	r10, .L105
 1785 0020 78709FE5 		ldr	r7, .L105+4
 1786 0024 78609FE5 		ldr	r6, .L105+8
 1787              		.loc 1 515 0
 1788 0028 78909FE5 		ldr	r9, .L105+12
 1789 002c 78509FE5 		ldr	r5, .L105+16
 1790              	.LVL184:
 1791              	.L101:
 1792              		.loc 1 513 0 discriminator 1
 1793              		.syntax divided
 1794              	@ 513 "../../test/testbmk.c" 1
 1795 0030 9FF021E3 		msr     CPSR_c, #0x9F
 1796              	@ 0 "" 2
 1797              		.loc 1 514 0 discriminator 1
 1798              		.arm
 1799              		.syntax unified
 1800 0034 0830A0E1 		mov	r3, r8
 1801 0038 0720A0E1 		mov	r2, r7
 1802 003c 0B10A0E1 		mov	r1, fp
 1803 0040 0600A0E1 		mov	r0, r6
 1804 0044 FEFFFFEB 		bl	chVTSetI
 1805              	.LVL185:
 1806              		.loc 1 515 0 discriminator 1
 1807 0048 0830A0E1 		mov	r3, r8
 1808 004c 0720A0E1 		mov	r2, r7
 1809 0050 0910A0E1 		mov	r1, r9
 1810 0054 0500A0E1 		mov	r0, r5
 1811 0058 FEFFFFEB 		bl	chVTSetI
 1812              	.LVL186:
 1813              		.loc 1 516 0 discriminator 1
 1814 005c 0600A0E1 		mov	r0, r6
 1815 0060 FEFFFFEB 		bl	chVTResetI
 1816              	.LVL187:
 1817              		.loc 1 517 0 discriminator 1
 1818 0064 0500A0E1 		mov	r0, r5
 1819 0068 FEFFFFEB 		bl	chVTResetI
 1820              	.LVL188:
 1821              		.loc 1 518 0 discriminator 1
 1822              		.syntax divided
 1823              	@ 518 "../../test/testbmk.c" 1
 1824 006c 1FF021E3 		msr     CPSR_c, #0x1F
ARM GAS  /tmp/cc4zEq9o.s 			page 33


 1825              	@ 0 "" 2
 1826              		.loc 1 523 0 discriminator 1
 1827              		.arm
 1828              		.syntax unified
 1829 0070 00309AE5 		ldr	r3, [r10]
 1830              		.loc 1 519 0 discriminator 1
 1831 0074 014084E2 		add	r4, r4, #1
 1832              	.LVL189:
 1833              		.loc 1 523 0 discriminator 1
 1834 0078 000053E3 		cmp	r3, #0
 1835 007c EBFFFF0A 		beq	.L101
 1836              		.loc 1 524 0
 1837 0080 28009FE5 		ldr	r0, .L105+20
 1838 0084 FEFFFFEB 		bl	test_print
 1839              	.LVL190:
 1840              		.loc 1 525 0
 1841 0088 8400A0E1 		lsl	r0, r4, #1
 1842 008c FEFFFFEB 		bl	test_printn
 1843              	.LVL191:
 1844              		.loc 1 527 0
 1845 0090 F84FBDE8 		pop	{r3, r4, r5, r6, r7, r8, r9, r10, fp, lr}
 1846              		.cfi_restore 14
 1847              		.cfi_restore 11
 1848              		.cfi_restore 10
 1849              		.cfi_restore 9
 1850              		.cfi_restore 8
 1851              		.cfi_restore 7
 1852              		.cfi_restore 6
 1853              		.cfi_restore 5
 1854              		.cfi_restore 4
 1855              		.cfi_restore 3
 1856              		.cfi_def_cfa_offset 0
 1857              	.LVL192:
 1858              		.loc 1 526 0
 1859 0094 18009FE5 		ldr	r0, .L105+24
 1860 0098 FEFFFFEA 		b	test_println
 1861              	.LVL193:
 1862              	.L106:
 1863              		.align	2
 1864              	.L105:
 1865 009c 00000000 		.word	test_timer_done
 1866 00a0 00000000 		.word	tmo
 1867 00a4 00000000 		.word	.LANCHOR3
 1868 00a8 10270000 		.word	10000
 1869 00ac 00000000 		.word	.LANCHOR4
 1870 00b0 00000000 		.word	.LC11
 1871 00b4 00000000 		.word	.LC17
 1872              		.cfi_endproc
 1873              	.LFE24:
 1874              		.size	bmk10_execute, .-bmk10_execute
 1875              		.section	.text.bmk11_execute,"ax",%progbits
 1876              		.align	2
 1877              		.syntax unified
 1878              		.arm
 1879              		.fpu softvfp
 1880              		.type	bmk11_execute, %function
 1881              	bmk11_execute:
ARM GAS  /tmp/cc4zEq9o.s 			page 34


 1882              	.LFB26:
 1883              		.loc 1 551 0
 1884              		.cfi_startproc
 1885              		@ args = 0, pretend = 0, frame = 0
 1886              		@ frame_needed = 0, uses_anonymous_args = 0
 1887              	.LVL194:
 1888 0000 70402DE9 		push	{r4, r5, r6, lr}
 1889              		.cfi_def_cfa_offset 16
 1890              		.cfi_offset 4, -16
 1891              		.cfi_offset 5, -12
 1892              		.cfi_offset 6, -8
 1893              		.cfi_offset 14, -4
 1894              		.loc 1 554 0
 1895 0004 FEFFFFEB 		bl	test_wait_tick
 1896              	.LVL195:
 1897              		.loc 1 555 0
 1898 0008 FA0FA0E3 		mov	r0, #1000
 1899 000c FEFFFFEB 		bl	test_start_timer
 1900              	.LVL196:
 1901              		.loc 1 552 0
 1902 0010 0050A0E3 		mov	r5, #0
 1903 0014 6C609FE5 		ldr	r6, .L112
 1904              		.loc 1 557 0
 1905 0018 6C409FE5 		ldr	r4, .L112+4
 1906              	.LVL197:
 1907              	.L108:
 1908              		.loc 1 557 0 is_stmt 0 discriminator 1
 1909 001c 0400A0E1 		mov	r0, r4
 1910 0020 FEFFFFEB 		bl	chSemWait
 1911              	.LVL198:
 1912              		.loc 1 558 0 is_stmt 1 discriminator 1
 1913 0024 0400A0E1 		mov	r0, r4
 1914 0028 FEFFFFEB 		bl	chSemSignal
 1915              	.LVL199:
 1916              		.loc 1 559 0 discriminator 1
 1917 002c 0400A0E1 		mov	r0, r4
 1918 0030 FEFFFFEB 		bl	chSemWait
 1919              	.LVL200:
 1920              		.loc 1 560 0 discriminator 1
 1921 0034 0400A0E1 		mov	r0, r4
 1922 0038 FEFFFFEB 		bl	chSemSignal
 1923              	.LVL201:
 1924              		.loc 1 561 0 discriminator 1
 1925 003c 0400A0E1 		mov	r0, r4
 1926 0040 FEFFFFEB 		bl	chSemWait
 1927              	.LVL202:
 1928              		.loc 1 562 0 discriminator 1
 1929 0044 0400A0E1 		mov	r0, r4
 1930 0048 FEFFFFEB 		bl	chSemSignal
 1931              	.LVL203:
 1932              		.loc 1 563 0 discriminator 1
 1933 004c 0400A0E1 		mov	r0, r4
 1934 0050 FEFFFFEB 		bl	chSemWait
 1935              	.LVL204:
 1936              		.loc 1 564 0 discriminator 1
 1937 0054 0400A0E1 		mov	r0, r4
 1938 0058 FEFFFFEB 		bl	chSemSignal
ARM GAS  /tmp/cc4zEq9o.s 			page 35


 1939              	.LVL205:
 1940              		.loc 1 569 0 discriminator 1
 1941 005c 003096E5 		ldr	r3, [r6]
 1942              		.loc 1 565 0 discriminator 1
 1943 0060 015085E2 		add	r5, r5, #1
 1944              	.LVL206:
 1945              		.loc 1 569 0 discriminator 1
 1946 0064 000053E3 		cmp	r3, #0
 1947 0068 EBFFFF0A 		beq	.L108
 1948              		.loc 1 570 0
 1949 006c 1C009FE5 		ldr	r0, .L112+8
 1950 0070 FEFFFFEB 		bl	test_print
 1951              	.LVL207:
 1952              		.loc 1 571 0
 1953 0074 0501A0E1 		lsl	r0, r5, #2
 1954 0078 FEFFFFEB 		bl	test_printn
 1955              	.LVL208:
 1956              		.loc 1 573 0
 1957 007c 7040BDE8 		pop	{r4, r5, r6, lr}
 1958              		.cfi_restore 14
 1959              		.cfi_restore 6
 1960              		.cfi_restore 5
 1961              		.cfi_restore 4
 1962              		.cfi_def_cfa_offset 0
 1963              	.LVL209:
 1964              		.loc 1 572 0
 1965 0080 0C009FE5 		ldr	r0, .L112+12
 1966 0084 FEFFFFEA 		b	test_println
 1967              	.LVL210:
 1968              	.L113:
 1969              		.align	2
 1970              	.L112:
 1971 0088 00000000 		.word	test_timer_done
 1972 008c 00000000 		.word	.LANCHOR0
 1973 0090 00000000 		.word	.LC11
 1974 0094 00000000 		.word	.LC18
 1975              		.cfi_endproc
 1976              	.LFE26:
 1977              		.size	bmk11_execute, .-bmk11_execute
 1978              		.section	.text.bmk12_execute,"ax",%progbits
 1979              		.align	2
 1980              		.syntax unified
 1981              		.arm
 1982              		.fpu softvfp
 1983              		.type	bmk12_execute, %function
 1984              	bmk12_execute:
 1985              	.LFB28:
 1986              		.loc 1 598 0
 1987              		.cfi_startproc
 1988              		@ args = 0, pretend = 0, frame = 0
 1989              		@ frame_needed = 0, uses_anonymous_args = 0
 1990              	.LVL211:
 1991 0000 70402DE9 		push	{r4, r5, r6, lr}
 1992              		.cfi_def_cfa_offset 16
 1993              		.cfi_offset 4, -16
 1994              		.cfi_offset 5, -12
 1995              		.cfi_offset 6, -8
ARM GAS  /tmp/cc4zEq9o.s 			page 36


 1996              		.cfi_offset 14, -4
 1997              		.loc 1 601 0
 1998 0004 FEFFFFEB 		bl	test_wait_tick
 1999              	.LVL212:
 2000              		.loc 1 602 0
 2001 0008 FA0FA0E3 		mov	r0, #1000
 2002 000c FEFFFFEB 		bl	test_start_timer
 2003              	.LVL213:
 2004              		.loc 1 599 0
 2005 0010 0050A0E3 		mov	r5, #0
 2006 0014 5C609FE5 		ldr	r6, .L119
 2007              		.loc 1 604 0
 2008 0018 5C409FE5 		ldr	r4, .L119+4
 2009              	.LVL214:
 2010              	.L115:
 2011              		.loc 1 604 0 is_stmt 0 discriminator 1
 2012 001c 0400A0E1 		mov	r0, r4
 2013 0020 FEFFFFEB 		bl	chMtxLock
 2014              	.LVL215:
 2015              		.loc 1 605 0 is_stmt 1 discriminator 1
 2016 0024 FEFFFFEB 		bl	chMtxUnlock
 2017              	.LVL216:
 2018              		.loc 1 606 0 discriminator 1
 2019 0028 0400A0E1 		mov	r0, r4
 2020 002c FEFFFFEB 		bl	chMtxLock
 2021              	.LVL217:
 2022              		.loc 1 607 0 discriminator 1
 2023 0030 FEFFFFEB 		bl	chMtxUnlock
 2024              	.LVL218:
 2025              		.loc 1 608 0 discriminator 1
 2026 0034 0400A0E1 		mov	r0, r4
 2027 0038 FEFFFFEB 		bl	chMtxLock
 2028              	.LVL219:
 2029              		.loc 1 609 0 discriminator 1
 2030 003c FEFFFFEB 		bl	chMtxUnlock
 2031              	.LVL220:
 2032              		.loc 1 610 0 discriminator 1
 2033 0040 0400A0E1 		mov	r0, r4
 2034 0044 FEFFFFEB 		bl	chMtxLock
 2035              	.LVL221:
 2036              		.loc 1 611 0 discriminator 1
 2037 0048 FEFFFFEB 		bl	chMtxUnlock
 2038              	.LVL222:
 2039              		.loc 1 616 0 discriminator 1
 2040 004c 003096E5 		ldr	r3, [r6]
 2041              		.loc 1 612 0 discriminator 1
 2042 0050 015085E2 		add	r5, r5, #1
 2043              	.LVL223:
 2044              		.loc 1 616 0 discriminator 1
 2045 0054 000053E3 		cmp	r3, #0
 2046 0058 EFFFFF0A 		beq	.L115
 2047              		.loc 1 617 0
 2048 005c 1C009FE5 		ldr	r0, .L119+8
 2049 0060 FEFFFFEB 		bl	test_print
 2050              	.LVL224:
 2051              		.loc 1 618 0
 2052 0064 0501A0E1 		lsl	r0, r5, #2
ARM GAS  /tmp/cc4zEq9o.s 			page 37


 2053 0068 FEFFFFEB 		bl	test_printn
 2054              	.LVL225:
 2055              		.loc 1 620 0
 2056 006c 7040BDE8 		pop	{r4, r5, r6, lr}
 2057              		.cfi_restore 14
 2058              		.cfi_restore 6
 2059              		.cfi_restore 5
 2060              		.cfi_restore 4
 2061              		.cfi_def_cfa_offset 0
 2062              	.LVL226:
 2063              		.loc 1 619 0
 2064 0070 0C009FE5 		ldr	r0, .L119+12
 2065 0074 FEFFFFEA 		b	test_println
 2066              	.LVL227:
 2067              	.L120:
 2068              		.align	2
 2069              	.L119:
 2070 0078 00000000 		.word	test_timer_done
 2071 007c 00000000 		.word	.LANCHOR5
 2072 0080 00000000 		.word	.LC11
 2073 0084 00000000 		.word	.LC19
 2074              		.cfi_endproc
 2075              	.LFE28:
 2076              		.size	bmk12_execute, .-bmk12_execute
 2077              		.section	.text.bmk12_setup,"ax",%progbits
 2078              		.align	2
 2079              		.syntax unified
 2080              		.arm
 2081              		.fpu softvfp
 2082              		.type	bmk12_setup, %function
 2083              	bmk12_setup:
 2084              	.LFB27:
 2085              		.loc 1 593 0
 2086              		.cfi_startproc
 2087              		@ args = 0, pretend = 0, frame = 0
 2088              		@ frame_needed = 0, uses_anonymous_args = 0
 2089              		@ link register save eliminated.
 2090              		.loc 1 595 0
 2091 0000 00009FE5 		ldr	r0, .L122
 2092 0004 FEFFFFEA 		b	chMtxInit
 2093              	.LVL228:
 2094              	.L123:
 2095              		.align	2
 2096              	.L122:
 2097 0008 00000000 		.word	.LANCHOR5
 2098              		.cfi_endproc
 2099              	.LFE27:
 2100              		.size	bmk12_setup, .-bmk12_setup
 2101              		.global	patternbmk
 2102              		.global	testbmk13
 2103              		.global	testbmk12
 2104              		.global	testbmk11
 2105              		.global	testbmk10
 2106              		.global	testbmk9
 2107              		.global	testbmk8
 2108              		.global	testbmk7
 2109              		.global	testbmk6
ARM GAS  /tmp/cc4zEq9o.s 			page 38


 2110              		.global	testbmk5
 2111              		.global	testbmk4
 2112              		.global	testbmk3
 2113              		.global	testbmk2
 2114              		.global	testbmk1
 2115              		.section	.bss.ib.4877,"aw",%nobits
 2116              		.align	2
 2117              		.set	.LANCHOR1,. + 0
 2118              		.type	ib.4877, %object
 2119              		.size	ib.4877, 16
 2120              	ib.4877:
 2121 0000 00000000 		.space	16
 2121      00000000 
 2121      00000000 
 2121      00000000 
 2122              		.section	.bss.iq.4878,"aw",%nobits
 2123              		.align	2
 2124              		.set	.LANCHOR2,. + 0
 2125              		.type	iq.4878, %object
 2126              		.size	iq.4878, 36
 2127              	iq.4878:
 2128 0000 00000000 		.space	36
 2128      00000000 
 2128      00000000 
 2128      00000000 
 2128      00000000 
 2129              		.section	.bss.mtx1,"aw",%nobits
 2130              		.align	2
 2131              		.set	.LANCHOR5,. + 0
 2132              		.type	mtx1, %object
 2133              		.size	mtx1, 16
 2134              	mtx1:
 2135 0000 00000000 		.space	16
 2135      00000000 
 2135      00000000 
 2135      00000000 
 2136              		.section	.bss.sem1,"aw",%nobits
 2137              		.align	2
 2138              		.set	.LANCHOR0,. + 0
 2139              		.type	sem1, %object
 2140              		.size	sem1, 12
 2141              	sem1:
 2142 0000 00000000 		.space	12
 2142      00000000 
 2142      00000000 
 2143              		.section	.bss.vt1.4888,"aw",%nobits
 2144              		.align	2
 2145              		.set	.LANCHOR3,. + 0
 2146              		.type	vt1.4888, %object
 2147              		.size	vt1.4888, 20
 2148              	vt1.4888:
 2149 0000 00000000 		.space	20
 2149      00000000 
 2149      00000000 
 2149      00000000 
 2149      00000000 
 2150              		.section	.bss.vt2.4889,"aw",%nobits
ARM GAS  /tmp/cc4zEq9o.s 			page 39


 2151              		.align	2
 2152              		.set	.LANCHOR4,. + 0
 2153              		.type	vt2.4889, %object
 2154              		.size	vt2.4889, 20
 2155              	vt2.4889:
 2156 0000 00000000 		.space	20
 2156      00000000 
 2156      00000000 
 2156      00000000 
 2156      00000000 
 2157              		.section	.rodata.bmk10_execute.str1.4,"aMS",%progbits,1
 2158              		.align	2
 2159              	.LC17:
 2160 0000 2074696D 		.ascii	" timers/S\000"
 2160      6572732F 
 2160      5300
 2161              		.section	.rodata.bmk11_execute.str1.4,"aMS",%progbits,1
 2162              		.align	2
 2163              	.LC18:
 2164 0000 20776169 		.ascii	" wait+signal/S\000"
 2164      742B7369 
 2164      676E616C 
 2164      2F5300
 2165              		.section	.rodata.bmk12_execute.str1.4,"aMS",%progbits,1
 2166              		.align	2
 2167              	.LC19:
 2168 0000 206C6F63 		.ascii	" lock+unlock/S\000"
 2168      6B2B756E 
 2168      6C6F636B 
 2168      2F5300
 2169              		.section	.rodata.bmk13_execute.str1.4,"aMS",%progbits,1
 2170              		.align	2
 2171              	.LC0:
 2172 0000 2D2D2D20 		.ascii	"--- System: \000"
 2172      53797374 
 2172      656D3A20 
 2172      00
 2173 000d 000000   		.space	3
 2174              	.LC1:
 2175 0010 20627974 		.ascii	" bytes\000"
 2175      657300
 2176 0017 00       		.space	1
 2177              	.LC2:
 2178 0018 2D2D2D20 		.ascii	"--- Thread: \000"
 2178      54687265 
 2178      61643A20 
 2178      00
 2179 0025 000000   		.space	3
 2180              	.LC3:
 2181 0028 2D2D2D20 		.ascii	"--- Timer : \000"
 2181      54696D65 
 2181      72203A20 
 2181      00
 2182 0035 000000   		.space	3
 2183              	.LC4:
 2184 0038 2D2D2D20 		.ascii	"--- Semaph: \000"
 2184      53656D61 
ARM GAS  /tmp/cc4zEq9o.s 			page 40


 2184      70683A20 
 2184      00
 2185 0045 000000   		.space	3
 2186              	.LC5:
 2187 0048 2D2D2D20 		.ascii	"--- EventS: \000"
 2187      4576656E 
 2187      74533A20 
 2187      00
 2188 0055 000000   		.space	3
 2189              	.LC6:
 2190 0058 2D2D2D20 		.ascii	"--- EventL: \000"
 2190      4576656E 
 2190      744C3A20 
 2190      00
 2191 0065 000000   		.space	3
 2192              	.LC7:
 2193 0068 2D2D2D20 		.ascii	"--- Mutex : \000"
 2193      4D757465 
 2193      78203A20 
 2193      00
 2194 0075 000000   		.space	3
 2195              	.LC8:
 2196 0078 2D2D2D20 		.ascii	"--- CondV.: \000"
 2196      436F6E64 
 2196      562E3A20 
 2196      00
 2197 0085 000000   		.space	3
 2198              	.LC9:
 2199 0088 2D2D2D20 		.ascii	"--- Queue : \000"
 2199      51756575 
 2199      65203A20 
 2199      00
 2200 0095 000000   		.space	3
 2201              	.LC10:
 2202 0098 2D2D2D20 		.ascii	"--- MailB.: \000"
 2202      4D61696C 
 2202      422E3A20 
 2202      00
 2203              		.section	.rodata.bmk1_execute.str1.4,"aMS",%progbits,1
 2204              		.align	2
 2205              	.LC13:
 2206 0000 206D7367 		.ascii	" msgs/S, \000"
 2206      732F532C 
 2206      2000
 2207 000a 0000     		.space	2
 2208              	.LC14:
 2209 000c 20637478 		.ascii	" ctxswc/S\000"
 2209      7377632F 
 2209      5300
 2210              		.section	.rodata.bmk6_execute.str1.4,"aMS",%progbits,1
 2211              		.align	2
 2212              	.LC11:
 2213 0000 2D2D2D20 		.ascii	"--- Score : \000"
 2213      53636F72 
 2213      65203A20 
 2213      00
 2214 000d 000000   		.space	3
ARM GAS  /tmp/cc4zEq9o.s 			page 41


 2215              	.LC12:
 2216 0010 20746872 		.ascii	" threads/S\000"
 2216      65616473 
 2216      2F5300
 2217              		.section	.rodata.bmk7_execute.str1.4,"aMS",%progbits,1
 2218              		.align	2
 2219              	.LC15:
 2220 0000 20726573 		.ascii	" reschedules/S, \000"
 2220      63686564 
 2220      756C6573 
 2220      2F532C20 
 2220      00
 2221              		.section	.rodata.bmk9_execute.str1.4,"aMS",%progbits,1
 2222              		.align	2
 2223              	.LC16:
 2224 0000 20627974 		.ascii	" bytes/S\000"
 2224      65732F53 
 2224      00
 2225              		.section	.rodata.patternbmk,"a",%progbits
 2226              		.align	2
 2227              		.type	patternbmk, %object
 2228              		.size	patternbmk, 56
 2229              	patternbmk:
 2230 0000 00000000 		.word	testbmk1
 2231 0004 00000000 		.word	testbmk2
 2232 0008 00000000 		.word	testbmk3
 2233 000c 00000000 		.word	testbmk4
 2234 0010 00000000 		.word	testbmk5
 2235 0014 00000000 		.word	testbmk6
 2236 0018 00000000 		.word	testbmk7
 2237 001c 00000000 		.word	testbmk8
 2238 0020 00000000 		.word	testbmk9
 2239 0024 00000000 		.word	testbmk10
 2240 0028 00000000 		.word	testbmk11
 2241 002c 00000000 		.word	testbmk12
 2242 0030 00000000 		.word	testbmk13
 2243 0034 00000000 		.word	0
 2244              		.section	.rodata.str1.4,"aMS",%progbits,1
 2245              		.align	2
 2246              	.LC20:
 2247 0000 42656E63 		.ascii	"Benchmark, RAM footprint\000"
 2247      686D6172 
 2247      6B2C2052 
 2247      414D2066 
 2247      6F6F7470 
 2248 0019 000000   		.space	3
 2249              	.LC21:
 2250 001c 42656E63 		.ascii	"Benchmark, mutexes lock/unlock\000"
 2250      686D6172 
 2250      6B2C206D 
 2250      75746578 
 2250      6573206C 
 2251 003b 00       		.space	1
 2252              	.LC22:
 2253 003c 42656E63 		.ascii	"Benchmark, semaphores wait/signal\000"
 2253      686D6172 
 2253      6B2C2073 
ARM GAS  /tmp/cc4zEq9o.s 			page 42


 2253      656D6170 
 2253      686F7265 
 2254 005e 0000     		.space	2
 2255              	.LC23:
 2256 0060 42656E63 		.ascii	"Benchmark, virtual timers set/reset\000"
 2256      686D6172 
 2256      6B2C2076 
 2256      69727475 
 2256      616C2074 
 2257              	.LC24:
 2258 0084 42656E63 		.ascii	"Benchmark, I/O Queues throughput\000"
 2258      686D6172 
 2258      6B2C2049 
 2258      2F4F2051 
 2258      75657565 
 2259 00a5 000000   		.space	3
 2260              	.LC25:
 2261 00a8 42656E63 		.ascii	"Benchmark, round robin context switching\000"
 2261      686D6172 
 2261      6B2C2072 
 2261      6F756E64 
 2261      20726F62 
 2262 00d1 000000   		.space	3
 2263              	.LC26:
 2264 00d4 42656E63 		.ascii	"Benchmark, mass reschedule, 5 threads\000"
 2264      686D6172 
 2264      6B2C206D 
 2264      61737320 
 2264      72657363 
 2265 00fa 0000     		.space	2
 2266              	.LC27:
 2267 00fc 42656E63 		.ascii	"Benchmark, threads, create only\000"
 2267      686D6172 
 2267      6B2C2074 
 2267      68726561 
 2267      64732C20 
 2268              	.LC28:
 2269 011c 42656E63 		.ascii	"Benchmark, threads, full cycle\000"
 2269      686D6172 
 2269      6B2C2074 
 2269      68726561 
 2269      64732C20 
 2270 013b 00       		.space	1
 2271              	.LC29:
 2272 013c 42656E63 		.ascii	"Benchmark, context switch\000"
 2272      686D6172 
 2272      6B2C2063 
 2272      6F6E7465 
 2272      78742073 
 2273 0156 0000     		.space	2
 2274              	.LC30:
 2275 0158 42656E63 		.ascii	"Benchmark, messages #3\000"
 2275      686D6172 
 2275      6B2C206D 
 2275      65737361 
 2275      67657320 
 2276 016f 00       		.space	1
ARM GAS  /tmp/cc4zEq9o.s 			page 43


 2277              	.LC31:
 2278 0170 42656E63 		.ascii	"Benchmark, messages #2\000"
 2278      686D6172 
 2278      6B2C206D 
 2278      65737361 
 2278      67657320 
 2279 0187 00       		.space	1
 2280              	.LC32:
 2281 0188 42656E63 		.ascii	"Benchmark, messages #1\000"
 2281      686D6172 
 2281      6B2C206D 
 2281      65737361 
 2281      67657320 
 2282              		.section	.rodata.testbmk1,"a",%progbits
 2283              		.align	2
 2284              		.type	testbmk1, %object
 2285              		.size	testbmk1, 16
 2286              	testbmk1:
 2287 0000 88010000 		.word	.LC32
 2288 0004 00000000 		.word	0
 2289 0008 00000000 		.word	0
 2290 000c 00000000 		.word	bmk1_execute
 2291              		.section	.rodata.testbmk10,"a",%progbits
 2292              		.align	2
 2293              		.type	testbmk10, %object
 2294              		.size	testbmk10, 16
 2295              	testbmk10:
 2296 0000 60000000 		.word	.LC23
 2297 0004 00000000 		.word	0
 2298 0008 00000000 		.word	0
 2299 000c 00000000 		.word	bmk10_execute
 2300              		.section	.rodata.testbmk11,"a",%progbits
 2301              		.align	2
 2302              		.type	testbmk11, %object
 2303              		.size	testbmk11, 16
 2304              	testbmk11:
 2305 0000 3C000000 		.word	.LC22
 2306 0004 00000000 		.word	bmk11_setup
 2307 0008 00000000 		.word	0
 2308 000c 00000000 		.word	bmk11_execute
 2309              		.section	.rodata.testbmk12,"a",%progbits
 2310              		.align	2
 2311              		.type	testbmk12, %object
 2312              		.size	testbmk12, 16
 2313              	testbmk12:
 2314 0000 1C000000 		.word	.LC21
 2315 0004 00000000 		.word	bmk12_setup
 2316 0008 00000000 		.word	0
 2317 000c 00000000 		.word	bmk12_execute
 2318              		.section	.rodata.testbmk13,"a",%progbits
 2319              		.align	2
 2320              		.type	testbmk13, %object
 2321              		.size	testbmk13, 16
 2322              	testbmk13:
 2323 0000 00000000 		.word	.LC20
 2324 0004 00000000 		.word	0
 2325 0008 00000000 		.word	0
ARM GAS  /tmp/cc4zEq9o.s 			page 44


 2326 000c 00000000 		.word	bmk13_execute
 2327              		.section	.rodata.testbmk2,"a",%progbits
 2328              		.align	2
 2329              		.type	testbmk2, %object
 2330              		.size	testbmk2, 16
 2331              	testbmk2:
 2332 0000 70010000 		.word	.LC31
 2333 0004 00000000 		.word	0
 2334 0008 00000000 		.word	0
 2335 000c 00000000 		.word	bmk2_execute
 2336              		.section	.rodata.testbmk3,"a",%progbits
 2337              		.align	2
 2338              		.type	testbmk3, %object
 2339              		.size	testbmk3, 16
 2340              	testbmk3:
 2341 0000 58010000 		.word	.LC30
 2342 0004 00000000 		.word	0
 2343 0008 00000000 		.word	0
 2344 000c 00000000 		.word	bmk3_execute
 2345              		.section	.rodata.testbmk4,"a",%progbits
 2346              		.align	2
 2347              		.type	testbmk4, %object
 2348              		.size	testbmk4, 16
 2349              	testbmk4:
 2350 0000 3C010000 		.word	.LC29
 2351 0004 00000000 		.word	0
 2352 0008 00000000 		.word	0
 2353 000c 00000000 		.word	bmk4_execute
 2354              		.section	.rodata.testbmk5,"a",%progbits
 2355              		.align	2
 2356              		.type	testbmk5, %object
 2357              		.size	testbmk5, 16
 2358              	testbmk5:
 2359 0000 1C010000 		.word	.LC28
 2360 0004 00000000 		.word	0
 2361 0008 00000000 		.word	0
 2362 000c 00000000 		.word	bmk5_execute
 2363              		.section	.rodata.testbmk6,"a",%progbits
 2364              		.align	2
 2365              		.type	testbmk6, %object
 2366              		.size	testbmk6, 16
 2367              	testbmk6:
 2368 0000 FC000000 		.word	.LC27
 2369 0004 00000000 		.word	0
 2370 0008 00000000 		.word	0
 2371 000c 00000000 		.word	bmk6_execute
 2372              		.section	.rodata.testbmk7,"a",%progbits
 2373              		.align	2
 2374              		.type	testbmk7, %object
 2375              		.size	testbmk7, 16
 2376              	testbmk7:
 2377 0000 D4000000 		.word	.LC26
 2378 0004 00000000 		.word	bmk7_setup
 2379 0008 00000000 		.word	0
 2380 000c 00000000 		.word	bmk7_execute
 2381              		.section	.rodata.testbmk8,"a",%progbits
 2382              		.align	2
ARM GAS  /tmp/cc4zEq9o.s 			page 45


 2383              		.type	testbmk8, %object
 2384              		.size	testbmk8, 16
 2385              	testbmk8:
 2386 0000 A8000000 		.word	.LC25
 2387 0004 00000000 		.word	0
 2388 0008 00000000 		.word	0
 2389 000c 00000000 		.word	bmk8_execute
 2390              		.section	.rodata.testbmk9,"a",%progbits
 2391              		.align	2
 2392              		.type	testbmk9, %object
 2393              		.size	testbmk9, 16
 2394              	testbmk9:
 2395 0000 84000000 		.word	.LC24
 2396 0004 00000000 		.word	0
 2397 0008 00000000 		.word	0
 2398 000c 00000000 		.word	bmk9_execute
 2399              		.text
 2400              	.Letext0:
 2401              		.file 2 "/usr/lib/gcc/arm-none-eabi/6.3.1/include/stddef.h"
 2402              		.file 3 "/usr/include/newlib/machine/_default_types.h"
 2403              		.file 4 "/usr/include/newlib/sys/_stdint.h"
 2404              		.file 5 "../../os/ports/GCC/ARM/chtypes.h"
 2405              		.file 6 "../../os/kernel/include/chlists.h"
 2406              		.file 7 "../../os/kernel/include/chthreads.h"
 2407              		.file 8 "../../os/ports/GCC/ARM/chcore.h"
 2408              		.file 9 "../../os/kernel/include/chvt.h"
 2409              		.file 10 "../../os/kernel/include/chschd.h"
 2410              		.file 11 "../../os/kernel/include/chsem.h"
 2411              		.file 12 "../../os/kernel/include/chmtx.h"
 2412              		.file 13 "../../os/kernel/include/chregistry.h"
 2413              		.file 14 "../../os/kernel/include/chqueues.h"
 2414              		.file 15 "../../os/kernel/include/ch.h"
 2415              		.file 16 "../../test/test.h"
 2416              		.file 17 "../../os/kernel/include/chmsg.h"