ARM GAS  /tmp/ccYJgJ88.s 			page 1


   1              		.cpu arm1176jz-s
   2              		.eabi_attribute 20, 1
   3              		.eabi_attribute 21, 1
   4              		.eabi_attribute 23, 3
   5              		.eabi_attribute 24, 1
   6              		.eabi_attribute 25, 1
   7              		.eabi_attribute 26, 1
   8              		.eabi_attribute 30, 2
   9              		.eabi_attribute 34, 1
  10              		.eabi_attribute 18, 4
  11              		.file	"testmbox.c"
  12              		.text
  13              	.Ltext0:
  14              		.cfi_sections	.debug_frame
  15              		.section	.text.mbox1_execute,"ax",%progbits
  16              		.align	2
  17              		.syntax unified
  18              		.arm
  19              		.fpu softvfp
  20              		.type	mbox1_execute, %function
  21              	mbox1_execute:
  22              	.LFB8:
  23              		.file 1 "../../test/testmbox.c"
  24              		.loc 1 80 0
  25              		.cfi_startproc
  26              		@ args = 0, pretend = 0, frame = 8
  27              		@ frame_needed = 0, uses_anonymous_args = 0
  28 0000 F0412DE9 		push	{r4, r5, r6, r7, r8, lr}
  29              		.cfi_def_cfa_offset 24
  30              		.cfi_offset 4, -24
  31              		.cfi_offset 5, -20
  32              		.cfi_offset 6, -16
  33              		.cfi_offset 7, -12
  34              		.cfi_offset 8, -8
  35              		.cfi_offset 14, -4
  36              		.loc 1 87 0
  37 0004 A4579FE5 		ldr	r5, .L33
  38              		.loc 1 80 0
  39 0008 08D04DE2 		sub	sp, sp, #8
  40              		.cfi_def_cfa_offset 32
  41              		.loc 1 87 0
  42 000c 241095E5 		ldr	r1, [r5, #36]
  43 0010 0100A0E3 		mov	r0, #1
  44 0014 051041E2 		sub	r1, r1, #5
  45 0018 111F6FE1 		clz	r1, r1
  46 001c A112A0E1 		lsr	r1, r1, #5
  47 0020 FEFFFFEB 		bl	_test_assert
  48              	.LVL0:
  49 0024 000050E3 		cmp	r0, #0
  50 0028 1A00001A 		bne	.L1
  51 002c 4240A0E3 		mov	r4, #66
  52              		.loc 1 93 0
  53 0030 0080E0E3 		mvn	r8, #0
  54 0034 0570A0E1 		mov	r7, r5
  55              		.loc 1 94 0
  56 0038 0260A0E3 		mov	r6, #2
  57              	.L3:
ARM GAS  /tmp/ccYJgJ88.s 			page 2


  58              	.LVL1:
  59              		.loc 1 93 0
  60 003c 0410A0E1 		mov	r1, r4
  61 0040 0820A0E1 		mov	r2, r8
  62 0044 0700A0E1 		mov	r0, r7
  63 0048 FEFFFFEB 		bl	chMBPost
  64              	.LVL2:
  65              		.loc 1 94 0
  66 004c 101F6FE1 		clz	r1, r0
  67 0050 0600A0E1 		mov	r0, r6
  68              	.LVL3:
  69 0054 A112A0E1 		lsr	r1, r1, #5
  70 0058 FEFFFFEB 		bl	_test_assert
  71              	.LVL4:
  72 005c 000050E3 		cmp	r0, #0
  73 0060 014084E2 		add	r4, r4, #1
  74              	.LVL5:
  75 0064 0B00001A 		bne	.L1
  76              		.loc 1 92 0 discriminator 2
  77 0068 460054E3 		cmp	r4, #70
  78 006c F2FFFF1A 		bne	.L3
  79              		.loc 1 96 0
  80 0070 0020E0E3 		mvn	r2, #0
  81 0074 4110A0E3 		mov	r1, #65
  82 0078 30079FE5 		ldr	r0, .L33
  83 007c FEFFFFEB 		bl	chMBPostAhead
  84              	.LVL6:
  85              		.loc 1 97 0
  86 0080 101F6FE1 		clz	r1, r0
  87 0084 0300A0E3 		mov	r0, #3
  88              	.LVL7:
  89 0088 A112A0E1 		lsr	r1, r1, #5
  90 008c FEFFFFEB 		bl	_test_assert
  91              	.LVL8:
  92 0090 000050E3 		cmp	r0, #0
  93 0094 0100000A 		beq	.L29
  94              	.LVL9:
  95              	.L1:
  96              		.loc 1 224 0
  97 0098 08D08DE2 		add	sp, sp, #8
  98              		.cfi_remember_state
  99              		.cfi_def_cfa_offset 24
 100              		@ sp needed
 101 009c F081BDE8 		pop	{r4, r5, r6, r7, r8, pc}
 102              	.LVL10:
 103              	.L29:
 104              		.cfi_restore_state
 105              		.loc 1 102 0
 106 00a0 5810A0E3 		mov	r1, #88
 107 00a4 0120A0E3 		mov	r2, #1
 108 00a8 00079FE5 		ldr	r0, .L33
 109 00ac FEFFFFEB 		bl	chMBPost
 110              	.LVL11:
 111              		.loc 1 103 0
 112 00b0 010070E3 		cmn	r0, #1
 113 00b4 0010A013 		movne	r1, #0
 114 00b8 0110A003 		moveq	r1, #1
ARM GAS  /tmp/ccYJgJ88.s 			page 3


 115 00bc 0400A0E3 		mov	r0, #4
 116              	.LVL12:
 117 00c0 FEFFFFEB 		bl	_test_assert
 118              	.LVL13:
 119 00c4 000050E3 		cmp	r0, #0
 120 00c8 F2FFFF1A 		bne	.L1
 121              		.loc 1 104 0
 122              		.syntax divided
 123              	@ 104 "../../test/testmbox.c" 1
 124 00cc 9FF021E3 		msr     CPSR_c, #0x9F
 125              	@ 0 "" 2
 126              		.loc 1 105 0
 127              		.arm
 128              		.syntax unified
 129 00d0 5810A0E3 		mov	r1, #88
 130 00d4 D4069FE5 		ldr	r0, .L33
 131 00d8 FEFFFFEB 		bl	chMBPostI
 132              	.LVL14:
 133 00dc 0010A0E1 		mov	r1, r0
 134              	.LVL15:
 135              		.loc 1 106 0
 136              		.syntax divided
 137              	@ 106 "../../test/testmbox.c" 1
 138 00e0 1FF021E3 		msr     CPSR_c, #0x1F
 139              	@ 0 "" 2
 140              		.loc 1 107 0
 141              		.arm
 142              		.syntax unified
 143 00e4 010071E3 		cmn	r1, #1
 144 00e8 0010A013 		movne	r1, #0
 145 00ec 0110A003 		moveq	r1, #1
 146 00f0 0500A0E3 		mov	r0, #5
 147              	.LVL16:
 148 00f4 FEFFFFEB 		bl	_test_assert
 149              	.LVL17:
 150 00f8 000050E3 		cmp	r0, #0
 151 00fc E5FFFF1A 		bne	.L1
 152              		.loc 1 108 0
 153 0100 5810A0E3 		mov	r1, #88
 154 0104 0120A0E3 		mov	r2, #1
 155 0108 A0069FE5 		ldr	r0, .L33
 156 010c FEFFFFEB 		bl	chMBPostAhead
 157              	.LVL18:
 158              		.loc 1 109 0
 159 0110 010070E3 		cmn	r0, #1
 160 0114 0010A013 		movne	r1, #0
 161 0118 0110A003 		moveq	r1, #1
 162 011c 0600A0E3 		mov	r0, #6
 163              	.LVL19:
 164 0120 FEFFFFEB 		bl	_test_assert
 165              	.LVL20:
 166 0124 000050E3 		cmp	r0, #0
 167 0128 DAFFFF1A 		bne	.L1
 168              		.loc 1 110 0
 169              		.syntax divided
 170              	@ 110 "../../test/testmbox.c" 1
 171 012c 9FF021E3 		msr     CPSR_c, #0x9F
ARM GAS  /tmp/ccYJgJ88.s 			page 4


 172              	@ 0 "" 2
 173              		.loc 1 111 0
 174              		.arm
 175              		.syntax unified
 176 0130 5810A0E3 		mov	r1, #88
 177 0134 74069FE5 		ldr	r0, .L33
 178 0138 FEFFFFEB 		bl	chMBPostAheadI
 179              	.LVL21:
 180 013c 0010A0E1 		mov	r1, r0
 181              	.LVL22:
 182              		.loc 1 112 0
 183              		.syntax divided
 184              	@ 112 "../../test/testmbox.c" 1
 185 0140 1FF021E3 		msr     CPSR_c, #0x1F
 186              	@ 0 "" 2
 187              		.loc 1 113 0
 188              		.arm
 189              		.syntax unified
 190 0144 010071E3 		cmn	r1, #1
 191 0148 0010A013 		movne	r1, #0
 192 014c 0110A003 		moveq	r1, #1
 193 0150 0700A0E3 		mov	r0, #7
 194              	.LVL23:
 195 0154 FEFFFFEB 		bl	_test_assert
 196              	.LVL24:
 197 0158 000050E3 		cmp	r0, #0
 198 015c CDFFFF1A 		bne	.L1
 199              		.loc 1 118 0
 200              		.syntax divided
 201              	@ 118 "../../test/testmbox.c" 1
 202 0160 9FF021E3 		msr     CPSR_c, #0x9F
 203              	@ 0 "" 2
 204              		.arm
 205              		.syntax unified
 206 0164 241095E5 		ldr	r1, [r5, #36]
 207 0168 0800A0E3 		mov	r0, #8
 208 016c 111F6FE1 		clz	r1, r1
 209 0170 A112A0E1 		lsr	r1, r1, #5
 210 0174 FEFFFFEB 		bl	_test_assert
 211              	.LVL25:
 212 0178 000050E3 		cmp	r0, #0
 213 017c 0100000A 		beq	.L30
 214              	.LVL26:
 215              	.L21:
 216              		.loc 1 223 0 discriminator 2
 217              		.syntax divided
 218              	@ 223 "../../test/testmbox.c" 1
 219 0180 1FF021E3 		msr     CPSR_c, #0x1F
 220              	@ 0 "" 2
 221              		.arm
 222              		.syntax unified
 223 0184 C3FFFFEA 		b	.L1
 224              	.LVL27:
 225              	.L30:
 226              		.loc 1 118 0 discriminator 2
 227              		.syntax divided
 228              	@ 118 "../../test/testmbox.c" 1
ARM GAS  /tmp/ccYJgJ88.s 			page 5


 229 0188 1FF021E3 		msr     CPSR_c, #0x1F
 230              	@ 0 "" 2
 231              		.loc 1 119 0 discriminator 2
 232              	@ 119 "../../test/testmbox.c" 1
 233 018c 9FF021E3 		msr     CPSR_c, #0x9F
 234              	@ 0 "" 2
 235              		.arm
 236              		.syntax unified
 237 0190 181095E5 		ldr	r1, [r5, #24]
 238 0194 0900A0E3 		mov	r0, #9
 239 0198 051041E2 		sub	r1, r1, #5
 240 019c 111F6FE1 		clz	r1, r1
 241 01a0 A112A0E1 		lsr	r1, r1, #5
 242 01a4 FEFFFFEB 		bl	_test_assert
 243              	.LVL28:
 244 01a8 000050E3 		cmp	r0, #0
 245 01ac F3FFFF1A 		bne	.L21
 246              		.syntax divided
 247              	@ 119 "../../test/testmbox.c" 1
 248 01b0 1FF021E3 		msr     CPSR_c, #0x1F
 249              	@ 0 "" 2
 250              		.loc 1 120 0 discriminator 2
 251              	@ 120 "../../test/testmbox.c" 1
 252 01b4 9FF021E3 		msr     CPSR_c, #0x9F
 253              	@ 0 "" 2
 254              		.arm
 255              		.syntax unified
 256 01b8 0C1095E5 		ldr	r1, [r5, #12]
 257 01bc 083095E5 		ldr	r3, [r5, #8]
 258 01c0 0A00A0E3 		mov	r0, #10
 259 01c4 031041E0 		sub	r1, r1, r3
 260 01c8 111F6FE1 		clz	r1, r1
 261 01cc A112A0E1 		lsr	r1, r1, #5
 262 01d0 FEFFFFEB 		bl	_test_assert
 263              	.LVL29:
 264 01d4 000050E3 		cmp	r0, #0
 265 01d8 E8FFFF1A 		bne	.L21
 266              		.syntax divided
 267              	@ 120 "../../test/testmbox.c" 1
 268 01dc 1FF021E3 		msr     CPSR_c, #0x1F
 269              	@ 0 "" 2
 270              	.LVL30:
 271              		.arm
 272              		.syntax unified
 273 01e0 0540A0E3 		mov	r4, #5
 274              		.loc 1 126 0 discriminator 2
 275 01e4 0080E0E3 		mvn	r8, #0
 276              		.loc 1 127 0 discriminator 2
 277 01e8 0B70A0E3 		mov	r7, #11
 278              		.loc 1 126 0 discriminator 2
 279 01ec BC659FE5 		ldr	r6, .L33
 280 01f0 030000EA 		b	.L8
 281              	.LVL31:
 282              	.L32:
 283              		.loc 1 128 0 discriminator 2
 284 01f4 0400DDE5 		ldrb	r0, [sp, #4]	@ zero_extendqisi2
 285 01f8 FEFFFFEB 		bl	test_emit_token
ARM GAS  /tmp/ccYJgJ88.s 			page 6


 286              	.LVL32:
 287              		.loc 1 125 0 discriminator 2
 288 01fc 014054E2 		subs	r4, r4, #1
 289              	.LVL33:
 290 0200 0A00000A 		beq	.L31
 291              	.LVL34:
 292              	.L8:
 293              		.loc 1 126 0
 294 0204 0820A0E1 		mov	r2, r8
 295 0208 04108DE2 		add	r1, sp, #4
 296 020c 0600A0E1 		mov	r0, r6
 297 0210 FEFFFFEB 		bl	chMBFetch
 298              	.LVL35:
 299              		.loc 1 127 0
 300 0214 101F6FE1 		clz	r1, r0
 301 0218 0700A0E1 		mov	r0, r7
 302              	.LVL36:
 303 021c A112A0E1 		lsr	r1, r1, #5
 304 0220 FEFFFFEB 		bl	_test_assert
 305              	.LVL37:
 306 0224 000050E3 		cmp	r0, #0
 307 0228 F1FFFF0A 		beq	.L32
 308 022c 99FFFFEA 		b	.L1
 309              	.L31:
 310              		.loc 1 130 0
 311 0230 7C159FE5 		ldr	r1, .L33+4
 312 0234 0C00A0E3 		mov	r0, #12
 313 0238 FEFFFFEB 		bl	_test_assert_sequence
 314              	.LVL38:
 315 023c 000050E3 		cmp	r0, #0
 316 0240 94FFFF1A 		bne	.L1
 317              		.loc 1 135 0
 318 0244 0020E0E3 		mvn	r2, #0
 319 0248 4710A0E3 		mov	r1, #71
 320 024c 5C059FE5 		ldr	r0, .L33
 321 0250 FEFFFFEB 		bl	chMBPost
 322              	.LVL39:
 323              		.loc 1 136 0
 324 0254 101F6FE1 		clz	r1, r0
 325 0258 0D00A0E3 		mov	r0, #13
 326              	.LVL40:
 327 025c A112A0E1 		lsr	r1, r1, #5
 328 0260 FEFFFFEB 		bl	_test_assert
 329              	.LVL41:
 330 0264 000050E3 		cmp	r0, #0
 331 0268 8AFFFF1A 		bne	.L1
 332              		.loc 1 137 0
 333 026c 0020E0E3 		mvn	r2, #0
 334 0270 04108DE2 		add	r1, sp, #4
 335 0274 34059FE5 		ldr	r0, .L33
 336 0278 FEFFFFEB 		bl	chMBFetch
 337              	.LVL42:
 338              		.loc 1 138 0
 339 027c 101F6FE1 		clz	r1, r0
 340 0280 0E00A0E3 		mov	r0, #14
 341              	.LVL43:
 342 0284 A112A0E1 		lsr	r1, r1, #5
ARM GAS  /tmp/ccYJgJ88.s 			page 7


 343 0288 FEFFFFEB 		bl	_test_assert
 344              	.LVL44:
 345 028c 000050E3 		cmp	r0, #0
 346 0290 80FFFF1A 		bne	.L1
 347              		.loc 1 139 0
 348 0294 001095E5 		ldr	r1, [r5]
 349 0298 083095E5 		ldr	r3, [r5, #8]
 350 029c 0F00A0E3 		mov	r0, #15
 351 02a0 031041E0 		sub	r1, r1, r3
 352 02a4 111F6FE1 		clz	r1, r1
 353 02a8 A112A0E1 		lsr	r1, r1, #5
 354 02ac FEFFFFEB 		bl	_test_assert
 355              	.LVL45:
 356 02b0 000050E3 		cmp	r0, #0
 357 02b4 77FFFF1A 		bne	.L1
 358              		.loc 1 140 0
 359 02b8 001095E5 		ldr	r1, [r5]
 360 02bc 0C3095E5 		ldr	r3, [r5, #12]
 361 02c0 1000A0E3 		mov	r0, #16
 362 02c4 031041E0 		sub	r1, r1, r3
 363 02c8 111F6FE1 		clz	r1, r1
 364 02cc A112A0E1 		lsr	r1, r1, #5
 365 02d0 FEFFFFEB 		bl	_test_assert
 366              	.LVL46:
 367 02d4 000050E3 		cmp	r0, #0
 368 02d8 6EFFFF1A 		bne	.L1
 369              		.loc 1 145 0
 370 02dc 04108DE2 		add	r1, sp, #4
 371 02e0 0120A0E3 		mov	r2, #1
 372 02e4 C4049FE5 		ldr	r0, .L33
 373 02e8 FEFFFFEB 		bl	chMBFetch
 374              	.LVL47:
 375              		.loc 1 146 0
 376 02ec 010070E3 		cmn	r0, #1
 377 02f0 0010A013 		movne	r1, #0
 378 02f4 0110A003 		moveq	r1, #1
 379 02f8 1100A0E3 		mov	r0, #17
 380              	.LVL48:
 381 02fc FEFFFFEB 		bl	_test_assert
 382              	.LVL49:
 383 0300 000050E3 		cmp	r0, #0
 384 0304 63FFFF1A 		bne	.L1
 385              		.loc 1 147 0
 386              		.syntax divided
 387              	@ 147 "../../test/testmbox.c" 1
 388 0308 9FF021E3 		msr     CPSR_c, #0x9F
 389              	@ 0 "" 2
 390              		.loc 1 148 0
 391              		.arm
 392              		.syntax unified
 393 030c 9C049FE5 		ldr	r0, .L33
 394 0310 04108DE2 		add	r1, sp, #4
 395 0314 FEFFFFEB 		bl	chMBFetchI
 396              	.LVL50:
 397 0318 0010A0E1 		mov	r1, r0
 398              	.LVL51:
 399              		.loc 1 149 0
ARM GAS  /tmp/ccYJgJ88.s 			page 8


 400              		.syntax divided
 401              	@ 149 "../../test/testmbox.c" 1
 402 031c 1FF021E3 		msr     CPSR_c, #0x1F
 403              	@ 0 "" 2
 404              		.loc 1 150 0
 405              		.arm
 406              		.syntax unified
 407 0320 010071E3 		cmn	r1, #1
 408 0324 0010A013 		movne	r1, #0
 409 0328 0110A003 		moveq	r1, #1
 410 032c 1200A0E3 		mov	r0, #18
 411              	.LVL52:
 412 0330 FEFFFFEB 		bl	_test_assert
 413              	.LVL53:
 414 0334 000050E3 		cmp	r0, #0
 415 0338 56FFFF1A 		bne	.L1
 416              		.loc 1 155 0
 417              		.syntax divided
 418              	@ 155 "../../test/testmbox.c" 1
 419 033c 9FF021E3 		msr     CPSR_c, #0x9F
 420              	@ 0 "" 2
 421              		.arm
 422              		.syntax unified
 423 0340 241095E5 		ldr	r1, [r5, #36]
 424 0344 1300A0E3 		mov	r0, #19
 425 0348 051041E2 		sub	r1, r1, #5
 426 034c 111F6FE1 		clz	r1, r1
 427 0350 A112A0E1 		lsr	r1, r1, #5
 428 0354 FEFFFFEB 		bl	_test_assert
 429              	.LVL54:
 430 0358 000050E3 		cmp	r0, #0
 431 035c 87FFFF1A 		bne	.L21
 432              		.loc 1 155 0 is_stmt 0 discriminator 2
 433              		.syntax divided
 434              	@ 155 "../../test/testmbox.c" 1
 435 0360 1FF021E3 		msr     CPSR_c, #0x1F
 436              	@ 0 "" 2
 437              		.loc 1 156 0 is_stmt 1 discriminator 2
 438              	@ 156 "../../test/testmbox.c" 1
 439 0364 9FF021E3 		msr     CPSR_c, #0x9F
 440              	@ 0 "" 2
 441              		.arm
 442              		.syntax unified
 443 0368 181095E5 		ldr	r1, [r5, #24]
 444 036c 1400A0E3 		mov	r0, #20
 445 0370 111F6FE1 		clz	r1, r1
 446 0374 A112A0E1 		lsr	r1, r1, #5
 447 0378 FEFFFFEB 		bl	_test_assert
 448              	.LVL55:
 449 037c 000050E3 		cmp	r0, #0
 450 0380 7EFFFF1A 		bne	.L21
 451              		.syntax divided
 452              	@ 156 "../../test/testmbox.c" 1
 453 0384 1FF021E3 		msr     CPSR_c, #0x1F
 454              	@ 0 "" 2
 455              		.loc 1 157 0 discriminator 2
 456              	@ 157 "../../test/testmbox.c" 1
ARM GAS  /tmp/ccYJgJ88.s 			page 9


 457 0388 9FF021E3 		msr     CPSR_c, #0x9F
 458              	@ 0 "" 2
 459              		.arm
 460              		.syntax unified
 461 038c 0C1095E5 		ldr	r1, [r5, #12]
 462 0390 083095E5 		ldr	r3, [r5, #8]
 463 0394 1500A0E3 		mov	r0, #21
 464 0398 031041E0 		sub	r1, r1, r3
 465 039c 111F6FE1 		clz	r1, r1
 466 03a0 A112A0E1 		lsr	r1, r1, #5
 467 03a4 FEFFFFEB 		bl	_test_assert
 468              	.LVL56:
 469 03a8 000050E3 		cmp	r0, #0
 470 03ac 73FFFF1A 		bne	.L21
 471              		.syntax divided
 472              	@ 157 "../../test/testmbox.c" 1
 473 03b0 1FF021E3 		msr     CPSR_c, #0x1F
 474              	@ 0 "" 2
 475              		.loc 1 162 0 discriminator 2
 476              	@ 162 "../../test/testmbox.c" 1
 477 03b4 9FF021E3 		msr     CPSR_c, #0x9F
 478              	@ 0 "" 2
 479              		.loc 1 163 0 discriminator 2
 480              		.arm
 481              		.syntax unified
 482 03b8 4110A0E3 		mov	r1, #65
 483 03bc EC039FE5 		ldr	r0, .L33
 484 03c0 FEFFFFEB 		bl	chMBPostI
 485              	.LVL57:
 486              		.loc 1 164 0 discriminator 2
 487 03c4 101F6FE1 		clz	r1, r0
 488 03c8 1600A0E3 		mov	r0, #22
 489              	.LVL58:
 490 03cc A112A0E1 		lsr	r1, r1, #5
 491 03d0 FEFFFFEB 		bl	_test_assert
 492              	.LVL59:
 493 03d4 000050E3 		cmp	r0, #0
 494 03d8 2EFFFF1A 		bne	.L1
 495              		.loc 1 165 0
 496 03dc 4210A0E3 		mov	r1, #66
 497 03e0 C8039FE5 		ldr	r0, .L33
 498 03e4 FEFFFFEB 		bl	chMBPostI
 499              	.LVL60:
 500              		.loc 1 166 0
 501 03e8 101F6FE1 		clz	r1, r0
 502 03ec 1700A0E3 		mov	r0, #23
 503              	.LVL61:
 504 03f0 A112A0E1 		lsr	r1, r1, #5
 505 03f4 FEFFFFEB 		bl	_test_assert
 506              	.LVL62:
 507 03f8 000050E3 		cmp	r0, #0
 508 03fc 25FFFF1A 		bne	.L1
 509              		.loc 1 167 0
 510 0400 4310A0E3 		mov	r1, #67
 511 0404 A4039FE5 		ldr	r0, .L33
 512 0408 FEFFFFEB 		bl	chMBPostI
 513              	.LVL63:
ARM GAS  /tmp/ccYJgJ88.s 			page 10


 514              		.loc 1 168 0
 515 040c 101F6FE1 		clz	r1, r0
 516 0410 1800A0E3 		mov	r0, #24
 517              	.LVL64:
 518 0414 A112A0E1 		lsr	r1, r1, #5
 519 0418 FEFFFFEB 		bl	_test_assert
 520              	.LVL65:
 521 041c 000050E3 		cmp	r0, #0
 522 0420 1CFFFF1A 		bne	.L1
 523              		.loc 1 169 0
 524 0424 4410A0E3 		mov	r1, #68
 525 0428 80039FE5 		ldr	r0, .L33
 526 042c FEFFFFEB 		bl	chMBPostI
 527              	.LVL66:
 528              		.loc 1 170 0
 529 0430 101F6FE1 		clz	r1, r0
 530 0434 1900A0E3 		mov	r0, #25
 531              	.LVL67:
 532 0438 A112A0E1 		lsr	r1, r1, #5
 533 043c FEFFFFEB 		bl	_test_assert
 534              	.LVL68:
 535 0440 000050E3 		cmp	r0, #0
 536 0444 13FFFF1A 		bne	.L1
 537              		.loc 1 171 0
 538 0448 4510A0E3 		mov	r1, #69
 539 044c 5C039FE5 		ldr	r0, .L33
 540 0450 FEFFFFEB 		bl	chMBPostI
 541              	.LVL69:
 542              		.loc 1 172 0
 543              		.syntax divided
 544              	@ 172 "../../test/testmbox.c" 1
 545 0454 1FF021E3 		msr     CPSR_c, #0x1F
 546              	@ 0 "" 2
 547              		.loc 1 173 0
 548              		.arm
 549              		.syntax unified
 550 0458 101F6FE1 		clz	r1, r0
 551 045c 1A00A0E3 		mov	r0, #26
 552              	.LVL70:
 553 0460 A112A0E1 		lsr	r1, r1, #5
 554 0464 FEFFFFEB 		bl	_test_assert
 555              	.LVL71:
 556 0468 000050E3 		cmp	r0, #0
 557 046c 09FFFF1A 		bne	.L1
 558              		.loc 1 174 0
 559 0470 0C1095E5 		ldr	r1, [r5, #12]
 560 0474 083095E5 		ldr	r3, [r5, #8]
 561 0478 1B00A0E3 		mov	r0, #27
 562 047c 031041E0 		sub	r1, r1, r3
 563 0480 111F6FE1 		clz	r1, r1
 564 0484 A112A0E1 		lsr	r1, r1, #5
 565 0488 FEFFFFEB 		bl	_test_assert
 566              	.LVL72:
 567 048c 000050E3 		cmp	r0, #0
 568 0490 00FFFF1A 		bne	.L1
 569 0494 0540A0E3 		mov	r4, #5
 570              	.LVL73:
ARM GAS  /tmp/ccYJgJ88.s 			page 11


 571              		.loc 1 179 0
 572 0498 1C70A0E3 		mov	r7, #28
 573              		.loc 1 177 0
 574 049c 0C639FE5 		ldr	r6, .L33
 575              	.L12:
 576              	.LVL74:
 577              		.loc 1 176 0
 578              		.syntax divided
 579              	@ 176 "../../test/testmbox.c" 1
 580 04a0 9FF021E3 		msr     CPSR_c, #0x9F
 581              	@ 0 "" 2
 582              		.loc 1 177 0
 583              		.arm
 584              		.syntax unified
 585 04a4 04108DE2 		add	r1, sp, #4
 586 04a8 0600A0E1 		mov	r0, r6
 587 04ac FEFFFFEB 		bl	chMBFetchI
 588              	.LVL75:
 589              		.loc 1 178 0
 590              		.syntax divided
 591              	@ 178 "../../test/testmbox.c" 1
 592 04b0 1FF021E3 		msr     CPSR_c, #0x1F
 593              	@ 0 "" 2
 594              		.loc 1 179 0
 595              		.arm
 596              		.syntax unified
 597 04b4 101F6FE1 		clz	r1, r0
 598 04b8 0700A0E1 		mov	r0, r7
 599              	.LVL76:
 600 04bc A112A0E1 		lsr	r1, r1, #5
 601 04c0 FEFFFFEB 		bl	_test_assert
 602              	.LVL77:
 603 04c4 000050E3 		cmp	r0, #0
 604 04c8 F2FEFF1A 		bne	.L1
 605              		.loc 1 180 0 discriminator 2
 606 04cc 0400DDE5 		ldrb	r0, [sp, #4]	@ zero_extendqisi2
 607 04d0 FEFFFFEB 		bl	test_emit_token
 608              	.LVL78:
 609              		.loc 1 175 0 discriminator 2
 610 04d4 014054E2 		subs	r4, r4, #1
 611              	.LVL79:
 612 04d8 F0FFFF1A 		bne	.L12
 613              		.loc 1 182 0
 614 04dc D0129FE5 		ldr	r1, .L33+4
 615 04e0 1D00A0E3 		mov	r0, #29
 616 04e4 FEFFFFEB 		bl	_test_assert_sequence
 617              	.LVL80:
 618 04e8 000050E3 		cmp	r0, #0
 619 04ec E9FEFF1A 		bne	.L1
 620              		.loc 1 183 0
 621              		.syntax divided
 622              	@ 183 "../../test/testmbox.c" 1
 623 04f0 9FF021E3 		msr     CPSR_c, #0x9F
 624              	@ 0 "" 2
 625              		.arm
 626              		.syntax unified
 627 04f4 241095E5 		ldr	r1, [r5, #36]
ARM GAS  /tmp/ccYJgJ88.s 			page 12


 628 04f8 1E00A0E3 		mov	r0, #30
 629 04fc 051041E2 		sub	r1, r1, #5
 630 0500 111F6FE1 		clz	r1, r1
 631 0504 A112A0E1 		lsr	r1, r1, #5
 632 0508 FEFFFFEB 		bl	_test_assert
 633              	.LVL81:
 634 050c 000050E3 		cmp	r0, #0
 635 0510 1AFFFF1A 		bne	.L21
 636              		.loc 1 183 0 is_stmt 0 discriminator 2
 637              		.syntax divided
 638              	@ 183 "../../test/testmbox.c" 1
 639 0514 1FF021E3 		msr     CPSR_c, #0x1F
 640              	@ 0 "" 2
 641              		.loc 1 184 0 is_stmt 1 discriminator 2
 642              	@ 184 "../../test/testmbox.c" 1
 643 0518 9FF021E3 		msr     CPSR_c, #0x9F
 644              	@ 0 "" 2
 645              		.arm
 646              		.syntax unified
 647 051c 181095E5 		ldr	r1, [r5, #24]
 648 0520 1F00A0E3 		mov	r0, #31
 649 0524 111F6FE1 		clz	r1, r1
 650 0528 A112A0E1 		lsr	r1, r1, #5
 651 052c FEFFFFEB 		bl	_test_assert
 652              	.LVL82:
 653 0530 000050E3 		cmp	r0, #0
 654 0534 11FFFF1A 		bne	.L21
 655              		.syntax divided
 656              	@ 184 "../../test/testmbox.c" 1
 657 0538 1FF021E3 		msr     CPSR_c, #0x1F
 658              	@ 0 "" 2
 659              		.loc 1 185 0 discriminator 2
 660              		.arm
 661              		.syntax unified
 662 053c 0C1095E5 		ldr	r1, [r5, #12]
 663 0540 083095E5 		ldr	r3, [r5, #8]
 664 0544 2000A0E3 		mov	r0, #32
 665 0548 031041E0 		sub	r1, r1, r3
 666 054c 111F6FE1 		clz	r1, r1
 667 0550 A112A0E1 		lsr	r1, r1, #5
 668 0554 FEFFFFEB 		bl	_test_assert
 669              	.LVL83:
 670 0558 000050E3 		cmp	r0, #0
 671 055c CDFEFF1A 		bne	.L1
 672              		.loc 1 187 0
 673              		.syntax divided
 674              	@ 187 "../../test/testmbox.c" 1
 675 0560 9FF021E3 		msr     CPSR_c, #0x9F
 676              	@ 0 "" 2
 677              		.loc 1 188 0
 678              		.arm
 679              		.syntax unified
 680 0564 4510A0E3 		mov	r1, #69
 681 0568 40029FE5 		ldr	r0, .L33
 682 056c FEFFFFEB 		bl	chMBPostAheadI
 683              	.LVL84:
 684              		.loc 1 189 0
ARM GAS  /tmp/ccYJgJ88.s 			page 13


 685 0570 101F6FE1 		clz	r1, r0
 686 0574 2100A0E3 		mov	r0, #33
 687              	.LVL85:
 688 0578 A112A0E1 		lsr	r1, r1, #5
 689 057c FEFFFFEB 		bl	_test_assert
 690              	.LVL86:
 691 0580 000050E3 		cmp	r0, #0
 692 0584 C3FEFF1A 		bne	.L1
 693              		.loc 1 190 0
 694 0588 4410A0E3 		mov	r1, #68
 695 058c 1C029FE5 		ldr	r0, .L33
 696 0590 FEFFFFEB 		bl	chMBPostAheadI
 697              	.LVL87:
 698              		.loc 1 191 0
 699 0594 101F6FE1 		clz	r1, r0
 700 0598 2200A0E3 		mov	r0, #34
 701              	.LVL88:
 702 059c A112A0E1 		lsr	r1, r1, #5
 703 05a0 FEFFFFEB 		bl	_test_assert
 704              	.LVL89:
 705 05a4 000050E3 		cmp	r0, #0
 706 05a8 BAFEFF1A 		bne	.L1
 707              		.loc 1 192 0
 708 05ac 4310A0E3 		mov	r1, #67
 709 05b0 F8019FE5 		ldr	r0, .L33
 710 05b4 FEFFFFEB 		bl	chMBPostAheadI
 711              	.LVL90:
 712              		.loc 1 193 0
 713 05b8 101F6FE1 		clz	r1, r0
 714 05bc 2300A0E3 		mov	r0, #35
 715              	.LVL91:
 716 05c0 A112A0E1 		lsr	r1, r1, #5
 717 05c4 FEFFFFEB 		bl	_test_assert
 718              	.LVL92:
 719 05c8 000050E3 		cmp	r0, #0
 720 05cc B1FEFF1A 		bne	.L1
 721              		.loc 1 194 0
 722 05d0 4210A0E3 		mov	r1, #66
 723 05d4 D4019FE5 		ldr	r0, .L33
 724 05d8 FEFFFFEB 		bl	chMBPostAheadI
 725              	.LVL93:
 726              		.loc 1 195 0
 727 05dc 101F6FE1 		clz	r1, r0
 728 05e0 2400A0E3 		mov	r0, #36
 729              	.LVL94:
 730 05e4 A112A0E1 		lsr	r1, r1, #5
 731 05e8 FEFFFFEB 		bl	_test_assert
 732              	.LVL95:
 733 05ec 000050E3 		cmp	r0, #0
 734 05f0 A8FEFF1A 		bne	.L1
 735              		.loc 1 196 0
 736 05f4 4110A0E3 		mov	r1, #65
 737 05f8 B0019FE5 		ldr	r0, .L33
 738 05fc FEFFFFEB 		bl	chMBPostAheadI
 739              	.LVL96:
 740              		.loc 1 197 0
 741              		.syntax divided
ARM GAS  /tmp/ccYJgJ88.s 			page 14


 742              	@ 197 "../../test/testmbox.c" 1
 743 0600 1FF021E3 		msr     CPSR_c, #0x1F
 744              	@ 0 "" 2
 745              		.loc 1 198 0
 746              		.arm
 747              		.syntax unified
 748 0604 101F6FE1 		clz	r1, r0
 749 0608 2500A0E3 		mov	r0, #37
 750              	.LVL97:
 751 060c A112A0E1 		lsr	r1, r1, #5
 752 0610 FEFFFFEB 		bl	_test_assert
 753              	.LVL98:
 754 0614 000050E3 		cmp	r0, #0
 755 0618 9EFEFF1A 		bne	.L1
 756              		.loc 1 199 0
 757 061c 0C1095E5 		ldr	r1, [r5, #12]
 758 0620 083095E5 		ldr	r3, [r5, #8]
 759 0624 2600A0E3 		mov	r0, #38
 760 0628 031041E0 		sub	r1, r1, r3
 761 062c 111F6FE1 		clz	r1, r1
 762 0630 A112A0E1 		lsr	r1, r1, #5
 763 0634 FEFFFFEB 		bl	_test_assert
 764              	.LVL99:
 765 0638 000050E3 		cmp	r0, #0
 766 063c 95FEFF1A 		bne	.L1
 767 0640 0540A0E3 		mov	r4, #5
 768              	.LVL100:
 769              		.loc 1 204 0
 770 0644 2770A0E3 		mov	r7, #39
 771              		.loc 1 202 0
 772 0648 60619FE5 		ldr	r6, .L33
 773              	.L15:
 774              	.LVL101:
 775              		.loc 1 201 0
 776              		.syntax divided
 777              	@ 201 "../../test/testmbox.c" 1
 778 064c 9FF021E3 		msr     CPSR_c, #0x9F
 779              	@ 0 "" 2
 780              		.loc 1 202 0
 781              		.arm
 782              		.syntax unified
 783 0650 04108DE2 		add	r1, sp, #4
 784 0654 0600A0E1 		mov	r0, r6
 785 0658 FEFFFFEB 		bl	chMBFetchI
 786              	.LVL102:
 787              		.loc 1 203 0
 788              		.syntax divided
 789              	@ 203 "../../test/testmbox.c" 1
 790 065c 1FF021E3 		msr     CPSR_c, #0x1F
 791              	@ 0 "" 2
 792              		.loc 1 204 0
 793              		.arm
 794              		.syntax unified
 795 0660 101F6FE1 		clz	r1, r0
 796 0664 0700A0E1 		mov	r0, r7
 797              	.LVL103:
 798 0668 A112A0E1 		lsr	r1, r1, #5
ARM GAS  /tmp/ccYJgJ88.s 			page 15


 799 066c FEFFFFEB 		bl	_test_assert
 800              	.LVL104:
 801 0670 000050E3 		cmp	r0, #0
 802 0674 87FEFF1A 		bne	.L1
 803              		.loc 1 205 0 discriminator 2
 804 0678 0400DDE5 		ldrb	r0, [sp, #4]	@ zero_extendqisi2
 805 067c FEFFFFEB 		bl	test_emit_token
 806              	.LVL105:
 807              		.loc 1 200 0 discriminator 2
 808 0680 014054E2 		subs	r4, r4, #1
 809              	.LVL106:
 810 0684 F0FFFF1A 		bne	.L15
 811              		.loc 1 207 0
 812 0688 24119FE5 		ldr	r1, .L33+4
 813 068c 2800A0E3 		mov	r0, #40
 814 0690 FEFFFFEB 		bl	_test_assert_sequence
 815              	.LVL107:
 816 0694 000050E3 		cmp	r0, #0
 817 0698 7EFEFF1A 		bne	.L1
 818              		.loc 1 208 0
 819              		.syntax divided
 820              	@ 208 "../../test/testmbox.c" 1
 821 069c 9FF021E3 		msr     CPSR_c, #0x9F
 822              	@ 0 "" 2
 823              		.arm
 824              		.syntax unified
 825 06a0 241095E5 		ldr	r1, [r5, #36]
 826 06a4 2900A0E3 		mov	r0, #41
 827 06a8 051041E2 		sub	r1, r1, #5
 828 06ac 111F6FE1 		clz	r1, r1
 829 06b0 A112A0E1 		lsr	r1, r1, #5
 830 06b4 FEFFFFEB 		bl	_test_assert
 831              	.LVL108:
 832 06b8 000050E3 		cmp	r0, #0
 833 06bc AFFEFF1A 		bne	.L21
 834              		.loc 1 208 0 is_stmt 0 discriminator 2
 835              		.syntax divided
 836              	@ 208 "../../test/testmbox.c" 1
 837 06c0 1FF021E3 		msr     CPSR_c, #0x1F
 838              	@ 0 "" 2
 839              		.loc 1 209 0 is_stmt 1 discriminator 2
 840              	@ 209 "../../test/testmbox.c" 1
 841 06c4 9FF021E3 		msr     CPSR_c, #0x9F
 842              	@ 0 "" 2
 843              		.arm
 844              		.syntax unified
 845 06c8 181095E5 		ldr	r1, [r5, #24]
 846 06cc 2A00A0E3 		mov	r0, #42
 847 06d0 111F6FE1 		clz	r1, r1
 848 06d4 A112A0E1 		lsr	r1, r1, #5
 849 06d8 FEFFFFEB 		bl	_test_assert
 850              	.LVL109:
 851 06dc 000050E3 		cmp	r0, #0
 852 06e0 A6FEFF1A 		bne	.L21
 853              		.syntax divided
 854              	@ 209 "../../test/testmbox.c" 1
 855 06e4 1FF021E3 		msr     CPSR_c, #0x1F
ARM GAS  /tmp/ccYJgJ88.s 			page 16


 856              	@ 0 "" 2
 857              		.loc 1 210 0 discriminator 2
 858              		.arm
 859              		.syntax unified
 860 06e8 0C1095E5 		ldr	r1, [r5, #12]
 861 06ec 083095E5 		ldr	r3, [r5, #8]
 862 06f0 2B00A0E3 		mov	r0, #43
 863 06f4 031041E0 		sub	r1, r1, r3
 864 06f8 111F6FE1 		clz	r1, r1
 865 06fc A112A0E1 		lsr	r1, r1, #5
 866 0700 FEFFFFEB 		bl	_test_assert
 867              	.LVL110:
 868 0704 000050E3 		cmp	r0, #0
 869 0708 62FEFF1A 		bne	.L1
 870              		.loc 1 215 0
 871 070c 9C009FE5 		ldr	r0, .L33
 872 0710 FEFFFFEB 		bl	chMBReset
 873              	.LVL111:
 874              		.loc 1 220 0
 875              		.syntax divided
 876              	@ 220 "../../test/testmbox.c" 1
 877 0714 9FF021E3 		msr     CPSR_c, #0x9F
 878              	@ 0 "" 2
 879              		.arm
 880              		.syntax unified
 881 0718 241095E5 		ldr	r1, [r5, #36]
 882 071c 2C00A0E3 		mov	r0, #44
 883 0720 051041E2 		sub	r1, r1, #5
 884 0724 111F6FE1 		clz	r1, r1
 885 0728 A112A0E1 		lsr	r1, r1, #5
 886 072c FEFFFFEB 		bl	_test_assert
 887              	.LVL112:
 888 0730 000050E3 		cmp	r0, #0
 889 0734 91FEFF1A 		bne	.L21
 890              		.loc 1 220 0 is_stmt 0 discriminator 2
 891              		.syntax divided
 892              	@ 220 "../../test/testmbox.c" 1
 893 0738 1FF021E3 		msr     CPSR_c, #0x1F
 894              	@ 0 "" 2
 895              		.loc 1 221 0 is_stmt 1 discriminator 2
 896              	@ 221 "../../test/testmbox.c" 1
 897 073c 9FF021E3 		msr     CPSR_c, #0x9F
 898              	@ 0 "" 2
 899              		.arm
 900              		.syntax unified
 901 0740 181095E5 		ldr	r1, [r5, #24]
 902 0744 2D00A0E3 		mov	r0, #45
 903 0748 111F6FE1 		clz	r1, r1
 904 074c A112A0E1 		lsr	r1, r1, #5
 905 0750 FEFFFFEB 		bl	_test_assert
 906              	.LVL113:
 907 0754 000050E3 		cmp	r0, #0
 908 0758 88FEFF1A 		bne	.L21
 909              		.syntax divided
 910              	@ 221 "../../test/testmbox.c" 1
 911 075c 1FF021E3 		msr     CPSR_c, #0x1F
 912              	@ 0 "" 2
ARM GAS  /tmp/ccYJgJ88.s 			page 17


 913              		.loc 1 222 0 discriminator 2
 914              	@ 222 "../../test/testmbox.c" 1
 915 0760 9FF021E3 		msr     CPSR_c, #0x9F
 916              	@ 0 "" 2
 917              		.arm
 918              		.syntax unified
 919 0764 001095E5 		ldr	r1, [r5]
 920 0768 083095E5 		ldr	r3, [r5, #8]
 921 076c 2E00A0E3 		mov	r0, #46
 922 0770 031041E0 		sub	r1, r1, r3
 923 0774 111F6FE1 		clz	r1, r1
 924 0778 A112A0E1 		lsr	r1, r1, #5
 925 077c FEFFFFEB 		bl	_test_assert
 926              	.LVL114:
 927 0780 000050E3 		cmp	r0, #0
 928 0784 7DFEFF1A 		bne	.L21
 929              		.syntax divided
 930              	@ 222 "../../test/testmbox.c" 1
 931 0788 1FF021E3 		msr     CPSR_c, #0x1F
 932              	@ 0 "" 2
 933              		.loc 1 223 0 discriminator 2
 934              	@ 223 "../../test/testmbox.c" 1
 935 078c 9FF021E3 		msr     CPSR_c, #0x9F
 936              	@ 0 "" 2
 937              		.arm
 938              		.syntax unified
 939 0790 001095E5 		ldr	r1, [r5]
 940 0794 0C3095E5 		ldr	r3, [r5, #12]
 941 0798 2F00A0E3 		mov	r0, #47
 942 079c 031041E0 		sub	r1, r1, r3
 943 07a0 111F6FE1 		clz	r1, r1
 944 07a4 A112A0E1 		lsr	r1, r1, #5
 945 07a8 FEFFFFEB 		bl	_test_assert
 946              	.LVL115:
 947 07ac 73FEFFEA 		b	.L21
 948              	.L34:
 949              		.align	2
 950              	.L33:
 951 07b0 00000000 		.word	.LANCHOR0
 952 07b4 00000000 		.word	.LC0
 953              		.cfi_endproc
 954              	.LFE8:
 955              		.size	mbox1_execute, .-mbox1_execute
 956              		.section	.text.mbox1_setup,"ax",%progbits
 957              		.align	2
 958              		.syntax unified
 959              		.arm
 960              		.fpu softvfp
 961              		.type	mbox1_setup, %function
 962              	mbox1_setup:
 963              	.LFB7:
 964              		.loc 1 75 0
 965              		.cfi_startproc
 966              		@ args = 0, pretend = 0, frame = 0
 967              		@ frame_needed = 0, uses_anonymous_args = 0
 968              		@ link register save eliminated.
 969              		.loc 1 77 0
ARM GAS  /tmp/ccYJgJ88.s 			page 18


 970 0000 0520A0E3 		mov	r2, #5
 971 0004 04109FE5 		ldr	r1, .L36
 972 0008 04009FE5 		ldr	r0, .L36+4
 973 000c FEFFFFEA 		b	chMBInit
 974              	.LVL116:
 975              	.L37:
 976              		.align	2
 977              	.L36:
 978 0010 00000000 		.word	test
 979 0014 00000000 		.word	.LANCHOR0
 980              		.cfi_endproc
 981              	.LFE7:
 982              		.size	mbox1_setup, .-mbox1_setup
 983              		.global	patternmbox
 984              		.global	testmbox1
 985              		.section	.data.mb1,"aw",%progbits
 986              		.align	2
 987              		.set	.LANCHOR0,. + 0
 988              		.type	mb1, %object
 989              		.size	mb1, 40
 990              	mb1:
 991 0000 00000000 		.word	test
 992 0004 14000000 		.word	test+20
 993 0008 00000000 		.word	test
 994 000c 00000000 		.word	test
 995 0010 10000000 		.word	mb1+16
 996 0014 10000000 		.word	mb1+16
 997 0018 00000000 		.word	0
 998 001c 1C000000 		.word	mb1+28
 999 0020 1C000000 		.word	mb1+28
 1000 0024 05000000 		.word	5
 1001              		.section	.rodata.mbox1_execute.str1.4,"aMS",%progbits,1
 1002              		.align	2
 1003              	.LC0:
 1004 0000 41424344 		.ascii	"ABCDE\000"
 1004      4500
 1005              		.section	.rodata.patternmbox,"a",%progbits
 1006              		.align	2
 1007              		.type	patternmbox, %object
 1008              		.size	patternmbox, 8
 1009              	patternmbox:
 1010 0000 00000000 		.word	testmbox1
 1011 0004 00000000 		.word	0
 1012              		.section	.rodata.str1.4,"aMS",%progbits,1
 1013              		.align	2
 1014              	.LC1:
 1015 0000 4D61696C 		.ascii	"Mailboxes, queuing and timeouts\000"
 1015      626F7865 
 1015      732C2071 
 1015      75657569 
 1015      6E672061 
 1016              		.section	.rodata.testmbox1,"a",%progbits
 1017              		.align	2
 1018              		.type	testmbox1, %object
 1019              		.size	testmbox1, 16
 1020              	testmbox1:
 1021 0000 00000000 		.word	.LC1
ARM GAS  /tmp/ccYJgJ88.s 			page 19


 1022 0004 00000000 		.word	mbox1_setup
 1023 0008 00000000 		.word	0
 1024 000c 00000000 		.word	mbox1_execute
 1025              		.text
 1026              	.Letext0:
 1027              		.file 2 "/usr/include/newlib/machine/_default_types.h"
 1028              		.file 3 "/usr/include/newlib/sys/_stdint.h"
 1029              		.file 4 "../../os/ports/GCC/ARM/chtypes.h"
 1030              		.file 5 "../../os/kernel/include/chlists.h"
 1031              		.file 6 "../../os/kernel/include/chthreads.h"
 1032              		.file 7 "../../os/ports/GCC/ARM/chcore.h"
 1033              		.file 8 "../../os/kernel/include/chvt.h"
 1034              		.file 9 "../../os/kernel/include/chschd.h"
 1035              		.file 10 "../../os/kernel/include/chsem.h"
 1036              		.file 11 "../../os/kernel/include/chmtx.h"
 1037              		.file 12 "../../os/kernel/include/chmboxes.h"
 1038              		.file 13 "../../os/kernel/include/chregistry.h"
 1039              		.file 14 "../../os/kernel/include/ch.h"
 1040              		.file 15 "../../test/test.h"
 1041              		.section	.debug_info,"",%progbits
 1042              	.Ldebug_info0:
 1043 0000 5A0F0000 		.4byte	0xf5a
 1044 0004 0400     		.2byte	0x4
 1045 0006 00000000 		.4byte	.Ldebug_abbrev0
 1046 000a 04       		.byte	0x4
 1047 000b 01       		.uleb128 0x1
 1048 000c DE040000 		.4byte	.LASF137
 1049 0010 0C       		.byte	0xc
 1050 0011 EA030000 		.4byte	.LASF138
 1051 0015 78000000 		.4byte	.LASF139
 1052 0019 00000000 		.4byte	.Ldebug_ranges0+0
 1053 001d 00000000 		.4byte	0
 1054 0021 00000000 		.4byte	.Ldebug_line0
 1055 0025 02       		.uleb128 0x2
 1056 0026 04       		.byte	0x4
 1057 0027 05       		.byte	0x5
 1058 0028 696E7400 		.ascii	"int\000"
 1059 002c 03       		.uleb128 0x3
 1060 002d 04       		.byte	0x4
 1061 002e 07       		.byte	0x7
 1062 002f D4010000 		.4byte	.LASF0
 1063 0033 03       		.uleb128 0x3
 1064 0034 01       		.byte	0x1
 1065 0035 06       		.byte	0x6
 1066 0036 0B010000 		.4byte	.LASF1
 1067 003a 04       		.uleb128 0x4
 1068 003b 23000000 		.4byte	.LASF4
 1069 003f 02       		.byte	0x2
 1070 0040 1D       		.byte	0x1d
 1071 0041 45000000 		.4byte	0x45
 1072 0045 03       		.uleb128 0x3
 1073 0046 01       		.byte	0x1
 1074 0047 08       		.byte	0x8
 1075 0048 B9030000 		.4byte	.LASF2
 1076 004c 03       		.uleb128 0x3
 1077 004d 02       		.byte	0x2
 1078 004e 05       		.byte	0x5
ARM GAS  /tmp/ccYJgJ88.s 			page 20


 1079 004f E0030000 		.4byte	.LASF3
 1080 0053 04       		.uleb128 0x4
 1081 0054 A6040000 		.4byte	.LASF5
 1082 0058 02       		.byte	0x2
 1083 0059 2B       		.byte	0x2b
 1084 005a 5E000000 		.4byte	0x5e
 1085 005e 03       		.uleb128 0x3
 1086 005f 02       		.byte	0x2
 1087 0060 07       		.byte	0x7
 1088 0061 54020000 		.4byte	.LASF6
 1089 0065 04       		.uleb128 0x4
 1090 0066 CD040000 		.4byte	.LASF7
 1091 006a 02       		.byte	0x2
 1092 006b 3F       		.byte	0x3f
 1093 006c 70000000 		.4byte	0x70
 1094 0070 03       		.uleb128 0x3
 1095 0071 04       		.byte	0x4
 1096 0072 05       		.byte	0x5
 1097 0073 66010000 		.4byte	.LASF8
 1098 0077 04       		.uleb128 0x4
 1099 0078 B2010000 		.4byte	.LASF9
 1100 007c 02       		.byte	0x2
 1101 007d 41       		.byte	0x41
 1102 007e 82000000 		.4byte	0x82
 1103 0082 03       		.uleb128 0x3
 1104 0083 04       		.byte	0x4
 1105 0084 07       		.byte	0x7
 1106 0085 F3010000 		.4byte	.LASF10
 1107 0089 03       		.uleb128 0x3
 1108 008a 08       		.byte	0x8
 1109 008b 05       		.byte	0x5
 1110 008c FD000000 		.4byte	.LASF11
 1111 0090 03       		.uleb128 0x3
 1112 0091 08       		.byte	0x8
 1113 0092 07       		.byte	0x7
 1114 0093 55000000 		.4byte	.LASF12
 1115 0097 04       		.uleb128 0x4
 1116 0098 C7050000 		.4byte	.LASF13
 1117 009c 03       		.byte	0x3
 1118 009d 18       		.byte	0x18
 1119 009e 3A000000 		.4byte	0x3a
 1120 00a2 04       		.uleb128 0x4
 1121 00a3 78010000 		.4byte	.LASF14
 1122 00a7 03       		.byte	0x3
 1123 00a8 24       		.byte	0x24
 1124 00a9 53000000 		.4byte	0x53
 1125 00ad 04       		.uleb128 0x4
 1126 00ae B1030000 		.4byte	.LASF15
 1127 00b2 03       		.byte	0x3
 1128 00b3 2C       		.byte	0x2c
 1129 00b4 65000000 		.4byte	0x65
 1130 00b8 04       		.uleb128 0x4
 1131 00b9 6A040000 		.4byte	.LASF16
 1132 00bd 03       		.byte	0x3
 1133 00be 30       		.byte	0x30
 1134 00bf 77000000 		.4byte	0x77
 1135 00c3 04       		.uleb128 0x4
ARM GAS  /tmp/ccYJgJ88.s 			page 21


 1136 00c4 34010000 		.4byte	.LASF17
 1137 00c8 04       		.byte	0x4
 1138 00c9 29       		.byte	0x29
 1139 00ca AD000000 		.4byte	0xad
 1140 00ce 04       		.uleb128 0x4
 1141 00cf 88020000 		.4byte	.LASF18
 1142 00d3 04       		.byte	0x4
 1143 00d4 2A       		.byte	0x2a
 1144 00d5 97000000 		.4byte	0x97
 1145 00d9 04       		.uleb128 0x4
 1146 00da 6F010000 		.4byte	.LASF19
 1147 00de 04       		.byte	0x4
 1148 00df 2B       		.byte	0x2b
 1149 00e0 97000000 		.4byte	0x97
 1150 00e4 04       		.uleb128 0x4
 1151 00e5 87030000 		.4byte	.LASF20
 1152 00e9 04       		.byte	0x4
 1153 00ea 2C       		.byte	0x2c
 1154 00eb 97000000 		.4byte	0x97
 1155 00ef 04       		.uleb128 0x4
 1156 00f0 53010000 		.4byte	.LASF21
 1157 00f4 04       		.byte	0x4
 1158 00f5 2D       		.byte	0x2d
 1159 00f6 97000000 		.4byte	0x97
 1160 00fa 04       		.uleb128 0x4
 1161 00fb A9030000 		.4byte	.LASF22
 1162 00ff 04       		.byte	0x4
 1163 0100 2E       		.byte	0x2e
 1164 0101 B8000000 		.4byte	0xb8
 1165 0105 04       		.uleb128 0x4
 1166 0106 72020000 		.4byte	.LASF23
 1167 010a 04       		.byte	0x4
 1168 010b 2F       		.byte	0x2f
 1169 010c AD000000 		.4byte	0xad
 1170 0110 04       		.uleb128 0x4
 1171 0111 A8020000 		.4byte	.LASF24
 1172 0115 04       		.byte	0x4
 1173 0116 31       		.byte	0x31
 1174 0117 B8000000 		.4byte	0xb8
 1175 011b 04       		.uleb128 0x4
 1176 011c B8040000 		.4byte	.LASF25
 1177 0120 04       		.byte	0x4
 1178 0121 33       		.byte	0x33
 1179 0122 B8000000 		.4byte	0xb8
 1180 0126 05       		.uleb128 0x5
 1181 0127 1B010000 		.4byte	0x11b
 1182 012b 04       		.uleb128 0x4
 1183 012c CE010000 		.4byte	.LASF26
 1184 0130 04       		.byte	0x4
 1185 0131 34       		.byte	0x34
 1186 0132 AD000000 		.4byte	0xad
 1187 0136 04       		.uleb128 0x4
 1188 0137 42040000 		.4byte	.LASF27
 1189 013b 05       		.byte	0x5
 1190 013c 23       		.byte	0x23
 1191 013d 41010000 		.4byte	0x141
 1192 0141 06       		.uleb128 0x6
ARM GAS  /tmp/ccYJgJ88.s 			page 22


 1193 0142 42040000 		.4byte	.LASF27
 1194 0146 44       		.byte	0x44
 1195 0147 06       		.byte	0x6
 1196 0148 57       		.byte	0x57
 1197 0149 32020000 		.4byte	0x232
 1198 014d 07       		.uleb128 0x7
 1199 014e 24040000 		.4byte	.LASF28
 1200 0152 06       		.byte	0x6
 1201 0153 58       		.byte	0x58
 1202 0154 53020000 		.4byte	0x253
 1203 0158 00       		.byte	0
 1204 0159 07       		.uleb128 0x7
 1205 015a 9A030000 		.4byte	.LASF29
 1206 015e 06       		.byte	0x6
 1207 015f 5A       		.byte	0x5a
 1208 0160 53020000 		.4byte	0x253
 1209 0164 04       		.byte	0x4
 1210 0165 07       		.uleb128 0x7
 1211 0166 E0000000 		.4byte	.LASF30
 1212 016a 06       		.byte	0x6
 1213 016b 5C       		.byte	0x5c
 1214 016c FA000000 		.4byte	0xfa
 1215 0170 08       		.byte	0x8
 1216 0171 07       		.uleb128 0x7
 1217 0172 0F060000 		.4byte	.LASF31
 1218 0176 06       		.byte	0x6
 1219 0177 5D       		.byte	0x5d
 1220 0178 13030000 		.4byte	0x313
 1221 017c 0C       		.byte	0xc
 1222 017d 07       		.uleb128 0x7
 1223 017e 92010000 		.4byte	.LASF32
 1224 0182 06       		.byte	0x6
 1225 0183 5F       		.byte	0x5f
 1226 0184 53020000 		.4byte	0x253
 1227 0188 10       		.byte	0x10
 1228 0189 07       		.uleb128 0x7
 1229 018a 1E030000 		.4byte	.LASF33
 1230 018e 06       		.byte	0x6
 1231 018f 60       		.byte	0x60
 1232 0190 53020000 		.4byte	0x253
 1233 0194 14       		.byte	0x14
 1234 0195 07       		.uleb128 0x7
 1235 0196 D6050000 		.4byte	.LASF34
 1236 019a 06       		.byte	0x6
 1237 019b 67       		.byte	0x67
 1238 019c 67050000 		.4byte	0x567
 1239 01a0 18       		.byte	0x18
 1240 01a1 07       		.uleb128 0x7
 1241 01a2 3B010000 		.4byte	.LASF35
 1242 01a6 06       		.byte	0x6
 1243 01a7 72       		.byte	0x72
 1244 01a8 D9000000 		.4byte	0xd9
 1245 01ac 1C       		.byte	0x1c
 1246 01ad 07       		.uleb128 0x7
 1247 01ae 3A040000 		.4byte	.LASF36
 1248 01b2 06       		.byte	0x6
 1249 01b3 76       		.byte	0x76
ARM GAS  /tmp/ccYJgJ88.s 			page 23


 1250 01b4 CE000000 		.4byte	0xce
 1251 01b8 1D       		.byte	0x1d
 1252 01b9 07       		.uleb128 0x7
 1253 01ba B0050000 		.4byte	.LASF37
 1254 01be 06       		.byte	0x6
 1255 01bf 7B       		.byte	0x7b
 1256 01c0 E4000000 		.4byte	0xe4
 1257 01c4 1E       		.byte	0x1e
 1258 01c5 07       		.uleb128 0x7
 1259 01c6 00040000 		.4byte	.LASF38
 1260 01ca 06       		.byte	0x6
 1261 01cb 81       		.byte	0x81
 1262 01cc EF000000 		.4byte	0xef
 1263 01d0 1F       		.byte	0x1f
 1264 01d1 07       		.uleb128 0x7
 1265 01d2 D7040000 		.4byte	.LASF39
 1266 01d6 06       		.byte	0x6
 1267 01d7 88       		.byte	0x88
 1268 01d8 26010000 		.4byte	0x126
 1269 01dc 20       		.byte	0x20
 1270 01dd 08       		.uleb128 0x8
 1271 01de 705F7500 		.ascii	"p_u\000"
 1272 01e2 06       		.byte	0x6
 1273 01e3 AD       		.byte	0xad
 1274 01e4 32050000 		.4byte	0x532
 1275 01e8 24       		.byte	0x24
 1276 01e9 07       		.uleb128 0x7
 1277 01ea 15060000 		.4byte	.LASF40
 1278 01ee 06       		.byte	0x6
 1279 01ef B2       		.byte	0xb2
 1280 01f0 79020000 		.4byte	0x279
 1281 01f4 28       		.byte	0x28
 1282 01f5 07       		.uleb128 0x7
 1283 01f6 74050000 		.4byte	.LASF41
 1284 01fa 06       		.byte	0x6
 1285 01fb B8       		.byte	0xb8
 1286 01fc 59020000 		.4byte	0x259
 1287 0200 2C       		.byte	0x2c
 1288 0201 07       		.uleb128 0x7
 1289 0202 0D000000 		.4byte	.LASF42
 1290 0206 06       		.byte	0x6
 1291 0207 BC       		.byte	0xbc
 1292 0208 05010000 		.4byte	0x105
 1293 020c 34       		.byte	0x34
 1294 020d 07       		.uleb128 0x7
 1295 020e 5F040000 		.4byte	.LASF43
 1296 0212 06       		.byte	0x6
 1297 0213 C2       		.byte	0xc2
 1298 0214 10010000 		.4byte	0x110
 1299 0218 38       		.byte	0x38
 1300 0219 07       		.uleb128 0x7
 1301 021a D6030000 		.4byte	.LASF44
 1302 021e 06       		.byte	0x6
 1303 021f C9       		.byte	0xc9
 1304 0220 79050000 		.4byte	0x579
 1305 0224 3C       		.byte	0x3c
 1306 0225 07       		.uleb128 0x7
ARM GAS  /tmp/ccYJgJ88.s 			page 24


 1307 0226 C2040000 		.4byte	.LASF45
 1308 022a 06       		.byte	0x6
 1309 022b CD       		.byte	0xcd
 1310 022c FA000000 		.4byte	0xfa
 1311 0230 40       		.byte	0x40
 1312 0231 00       		.byte	0
 1313 0232 09       		.uleb128 0x9
 1314 0233 08       		.byte	0x8
 1315 0234 05       		.byte	0x5
 1316 0235 5A       		.byte	0x5a
 1317 0236 53020000 		.4byte	0x253
 1318 023a 07       		.uleb128 0x7
 1319 023b 24040000 		.4byte	.LASF28
 1320 023f 05       		.byte	0x5
 1321 0240 5B       		.byte	0x5b
 1322 0241 53020000 		.4byte	0x253
 1323 0245 00       		.byte	0
 1324 0246 07       		.uleb128 0x7
 1325 0247 9A030000 		.4byte	.LASF29
 1326 024b 05       		.byte	0x5
 1327 024c 5D       		.byte	0x5d
 1328 024d 53020000 		.4byte	0x253
 1329 0251 04       		.byte	0x4
 1330 0252 00       		.byte	0
 1331 0253 0A       		.uleb128 0xa
 1332 0254 04       		.byte	0x4
 1333 0255 36010000 		.4byte	0x136
 1334 0259 04       		.uleb128 0x4
 1335 025a 2C030000 		.4byte	.LASF46
 1336 025e 05       		.byte	0x5
 1337 025f 5F       		.byte	0x5f
 1338 0260 32020000 		.4byte	0x232
 1339 0264 09       		.uleb128 0x9
 1340 0265 04       		.byte	0x4
 1341 0266 05       		.byte	0x5
 1342 0267 64       		.byte	0x64
 1343 0268 79020000 		.4byte	0x279
 1344 026c 07       		.uleb128 0x7
 1345 026d 24040000 		.4byte	.LASF28
 1346 0271 05       		.byte	0x5
 1347 0272 66       		.byte	0x66
 1348 0273 53020000 		.4byte	0x253
 1349 0277 00       		.byte	0
 1350 0278 00       		.byte	0
 1351 0279 04       		.uleb128 0x4
 1352 027a 9C020000 		.4byte	.LASF47
 1353 027e 05       		.byte	0x5
 1354 027f 69       		.byte	0x69
 1355 0280 64020000 		.4byte	0x264
 1356 0284 04       		.uleb128 0x4
 1357 0285 C4020000 		.4byte	.LASF48
 1358 0289 07       		.byte	0x7
 1359 028a 9D       		.byte	0x9d
 1360 028b B8000000 		.4byte	0xb8
 1361 028f 04       		.uleb128 0x4
 1362 0290 BD010000 		.4byte	.LASF49
 1363 0294 07       		.byte	0x7
ARM GAS  /tmp/ccYJgJ88.s 			page 25


 1364 0295 A2       		.byte	0xa2
 1365 0296 9A020000 		.4byte	0x29a
 1366 029a 0B       		.uleb128 0xb
 1367 029b 04       		.byte	0x4
 1368 029c 0C       		.uleb128 0xc
 1369 029d 9A020000 		.4byte	0x29a
 1370 02a1 06       		.uleb128 0x6
 1371 02a2 6D050000 		.4byte	.LASF50
 1372 02a6 24       		.byte	0x24
 1373 02a7 07       		.byte	0x7
 1374 02a8 B9       		.byte	0xb9
 1375 02a9 13030000 		.4byte	0x313
 1376 02ad 08       		.uleb128 0x8
 1377 02ae 723400   		.ascii	"r4\000"
 1378 02b1 07       		.byte	0x7
 1379 02b2 BA       		.byte	0xba
 1380 02b3 8F020000 		.4byte	0x28f
 1381 02b7 00       		.byte	0
 1382 02b8 08       		.uleb128 0x8
 1383 02b9 723500   		.ascii	"r5\000"
 1384 02bc 07       		.byte	0x7
 1385 02bd BB       		.byte	0xbb
 1386 02be 8F020000 		.4byte	0x28f
 1387 02c2 04       		.byte	0x4
 1388 02c3 08       		.uleb128 0x8
 1389 02c4 723600   		.ascii	"r6\000"
 1390 02c7 07       		.byte	0x7
 1391 02c8 BC       		.byte	0xbc
 1392 02c9 8F020000 		.4byte	0x28f
 1393 02cd 08       		.byte	0x8
 1394 02ce 08       		.uleb128 0x8
 1395 02cf 723700   		.ascii	"r7\000"
 1396 02d2 07       		.byte	0x7
 1397 02d3 BD       		.byte	0xbd
 1398 02d4 8F020000 		.4byte	0x28f
 1399 02d8 0C       		.byte	0xc
 1400 02d9 08       		.uleb128 0x8
 1401 02da 723800   		.ascii	"r8\000"
 1402 02dd 07       		.byte	0x7
 1403 02de BE       		.byte	0xbe
 1404 02df 8F020000 		.4byte	0x28f
 1405 02e3 10       		.byte	0x10
 1406 02e4 08       		.uleb128 0x8
 1407 02e5 723900   		.ascii	"r9\000"
 1408 02e8 07       		.byte	0x7
 1409 02e9 BF       		.byte	0xbf
 1410 02ea 8F020000 		.4byte	0x28f
 1411 02ee 14       		.byte	0x14
 1412 02ef 08       		.uleb128 0x8
 1413 02f0 72313000 		.ascii	"r10\000"
 1414 02f4 07       		.byte	0x7
 1415 02f5 C0       		.byte	0xc0
 1416 02f6 8F020000 		.4byte	0x28f
 1417 02fa 18       		.byte	0x18
 1418 02fb 08       		.uleb128 0x8
 1419 02fc 72313100 		.ascii	"r11\000"
 1420 0300 07       		.byte	0x7
ARM GAS  /tmp/ccYJgJ88.s 			page 26


 1421 0301 C1       		.byte	0xc1
 1422 0302 8F020000 		.4byte	0x28f
 1423 0306 1C       		.byte	0x1c
 1424 0307 08       		.uleb128 0x8
 1425 0308 6C7200   		.ascii	"lr\000"
 1426 030b 07       		.byte	0x7
 1427 030c C2       		.byte	0xc2
 1428 030d 8F020000 		.4byte	0x28f
 1429 0311 20       		.byte	0x20
 1430 0312 00       		.byte	0
 1431 0313 06       		.uleb128 0x6
 1432 0314 4C020000 		.4byte	.LASF51
 1433 0318 04       		.byte	0x4
 1434 0319 07       		.byte	0x7
 1435 031a CA       		.byte	0xca
 1436 031b 2C030000 		.4byte	0x32c
 1437 031f 08       		.uleb128 0x8
 1438 0320 72313300 		.ascii	"r13\000"
 1439 0324 07       		.byte	0x7
 1440 0325 CB       		.byte	0xcb
 1441 0326 2C030000 		.4byte	0x32c
 1442 032a 00       		.byte	0
 1443 032b 00       		.byte	0
 1444 032c 0A       		.uleb128 0xa
 1445 032d 04       		.byte	0x4
 1446 032e A1020000 		.4byte	0x2a1
 1447 0332 04       		.uleb128 0x4
 1448 0333 2A020000 		.4byte	.LASF52
 1449 0337 08       		.byte	0x8
 1450 0338 4E       		.byte	0x4e
 1451 0339 3D030000 		.4byte	0x33d
 1452 033d 0A       		.uleb128 0xa
 1453 033e 04       		.byte	0x4
 1454 033f 43030000 		.4byte	0x343
 1455 0343 0D       		.uleb128 0xd
 1456 0344 4E030000 		.4byte	0x34e
 1457 0348 0E       		.uleb128 0xe
 1458 0349 9A020000 		.4byte	0x29a
 1459 034d 00       		.byte	0
 1460 034e 04       		.uleb128 0x4
 1461 034f 87040000 		.4byte	.LASF53
 1462 0353 08       		.byte	0x8
 1463 0354 53       		.byte	0x53
 1464 0355 59030000 		.4byte	0x359
 1465 0359 06       		.uleb128 0x6
 1466 035a 87040000 		.4byte	.LASF53
 1467 035e 14       		.byte	0x14
 1468 035f 08       		.byte	0x8
 1469 0360 5A       		.byte	0x5a
 1470 0361 A2030000 		.4byte	0x3a2
 1471 0365 07       		.uleb128 0x7
 1472 0366 E1010000 		.4byte	.LASF54
 1473 036a 08       		.byte	0x8
 1474 036b 5B       		.byte	0x5b
 1475 036c A2030000 		.4byte	0x3a2
 1476 0370 00       		.byte	0
 1477 0371 07       		.uleb128 0x7
ARM GAS  /tmp/ccYJgJ88.s 			page 27


 1478 0372 C6010000 		.4byte	.LASF55
 1479 0376 08       		.byte	0x8
 1480 0377 5D       		.byte	0x5d
 1481 0378 A2030000 		.4byte	0x3a2
 1482 037c 04       		.byte	0x4
 1483 037d 07       		.uleb128 0x7
 1484 037e E3020000 		.4byte	.LASF56
 1485 0382 08       		.byte	0x8
 1486 0383 5F       		.byte	0x5f
 1487 0384 1B010000 		.4byte	0x11b
 1488 0388 08       		.byte	0x8
 1489 0389 07       		.uleb128 0x7
 1490 038a F4020000 		.4byte	.LASF57
 1491 038e 08       		.byte	0x8
 1492 038f 60       		.byte	0x60
 1493 0390 32030000 		.4byte	0x332
 1494 0394 0C       		.byte	0xc
 1495 0395 07       		.uleb128 0x7
 1496 0396 89050000 		.4byte	.LASF58
 1497 039a 08       		.byte	0x8
 1498 039b 62       		.byte	0x62
 1499 039c 9A020000 		.4byte	0x29a
 1500 03a0 10       		.byte	0x10
 1501 03a1 00       		.byte	0
 1502 03a2 0A       		.uleb128 0xa
 1503 03a3 04       		.byte	0x4
 1504 03a4 4E030000 		.4byte	0x34e
 1505 03a8 09       		.uleb128 0x9
 1506 03a9 10       		.byte	0x10
 1507 03aa 08       		.byte	0x8
 1508 03ab 6C       		.byte	0x6c
 1509 03ac E1030000 		.4byte	0x3e1
 1510 03b0 07       		.uleb128 0x7
 1511 03b1 E1010000 		.4byte	.LASF54
 1512 03b5 08       		.byte	0x8
 1513 03b6 6D       		.byte	0x6d
 1514 03b7 A2030000 		.4byte	0x3a2
 1515 03bb 00       		.byte	0
 1516 03bc 07       		.uleb128 0x7
 1517 03bd C6010000 		.4byte	.LASF55
 1518 03c1 08       		.byte	0x8
 1519 03c2 6F       		.byte	0x6f
 1520 03c3 A2030000 		.4byte	0x3a2
 1521 03c7 04       		.byte	0x4
 1522 03c8 07       		.uleb128 0x7
 1523 03c9 E3020000 		.4byte	.LASF56
 1524 03cd 08       		.byte	0x8
 1525 03ce 71       		.byte	0x71
 1526 03cf 1B010000 		.4byte	0x11b
 1527 03d3 08       		.byte	0x8
 1528 03d4 07       		.uleb128 0x7
 1529 03d5 EA050000 		.4byte	.LASF59
 1530 03d9 08       		.byte	0x8
 1531 03da 72       		.byte	0x72
 1532 03db 26010000 		.4byte	0x126
 1533 03df 0C       		.byte	0xc
 1534 03e0 00       		.byte	0
ARM GAS  /tmp/ccYJgJ88.s 			page 28


 1535 03e1 04       		.uleb128 0x4
 1536 03e2 00060000 		.4byte	.LASF60
 1537 03e6 08       		.byte	0x8
 1538 03e7 73       		.byte	0x73
 1539 03e8 A8030000 		.4byte	0x3a8
 1540 03ec 0F       		.uleb128 0xf
 1541 03ed 37000000 		.4byte	.LASF68
 1542 03f1 08       		.byte	0x8
 1543 03f2 D1       		.byte	0xd1
 1544 03f3 E1030000 		.4byte	0x3e1
 1545 03f7 09       		.uleb128 0x9
 1546 03f8 1C       		.byte	0x1c
 1547 03f9 09       		.byte	0x9
 1548 03fa 57       		.byte	0x57
 1549 03fb 48040000 		.4byte	0x448
 1550 03ff 07       		.uleb128 0x7
 1551 0400 7F040000 		.4byte	.LASF61
 1552 0404 09       		.byte	0x9
 1553 0405 58       		.byte	0x58
 1554 0406 59020000 		.4byte	0x259
 1555 040a 00       		.byte	0
 1556 040b 07       		.uleb128 0x7
 1557 040c 16040000 		.4byte	.LASF62
 1558 0410 09       		.byte	0x9
 1559 0411 59       		.byte	0x59
 1560 0412 FA000000 		.4byte	0xfa
 1561 0416 08       		.byte	0x8
 1562 0417 07       		.uleb128 0x7
 1563 0418 26030000 		.4byte	.LASF63
 1564 041c 09       		.byte	0x9
 1565 041d 5B       		.byte	0x5b
 1566 041e 13030000 		.4byte	0x313
 1567 0422 0C       		.byte	0xc
 1568 0423 07       		.uleb128 0x7
 1569 0424 78020000 		.4byte	.LASF64
 1570 0428 09       		.byte	0x9
 1571 0429 5E       		.byte	0x5e
 1572 042a 53020000 		.4byte	0x253
 1573 042e 10       		.byte	0x10
 1574 042f 07       		.uleb128 0x7
 1575 0430 7F030000 		.4byte	.LASF65
 1576 0434 09       		.byte	0x9
 1577 0435 5F       		.byte	0x5f
 1578 0436 53020000 		.4byte	0x253
 1579 043a 14       		.byte	0x14
 1580 043b 07       		.uleb128 0x7
 1581 043c 75030000 		.4byte	.LASF66
 1582 0440 09       		.byte	0x9
 1583 0441 62       		.byte	0x62
 1584 0442 53020000 		.4byte	0x253
 1585 0446 18       		.byte	0x18
 1586 0447 00       		.byte	0
 1587 0448 04       		.uleb128 0x4
 1588 0449 B7050000 		.4byte	.LASF67
 1589 044d 09       		.byte	0x9
 1590 044e 64       		.byte	0x64
 1591 044f F7030000 		.4byte	0x3f7
ARM GAS  /tmp/ccYJgJ88.s 			page 29


 1592 0453 0F       		.uleb128 0xf
 1593 0454 C1050000 		.4byte	.LASF69
 1594 0458 09       		.byte	0x9
 1595 0459 68       		.byte	0x68
 1596 045a 48040000 		.4byte	0x448
 1597 045e 06       		.uleb128 0x6
 1598 045f 90050000 		.4byte	.LASF70
 1599 0463 0C       		.byte	0xc
 1600 0464 0A       		.byte	0xa
 1601 0465 25       		.byte	0x25
 1602 0466 83040000 		.4byte	0x483
 1603 046a 07       		.uleb128 0x7
 1604 046b AA010000 		.4byte	.LASF71
 1605 046f 0A       		.byte	0xa
 1606 0470 26       		.byte	0x26
 1607 0471 59020000 		.4byte	0x259
 1608 0475 00       		.byte	0
 1609 0476 07       		.uleb128 0x7
 1610 0477 41020000 		.4byte	.LASF72
 1611 047b 0A       		.byte	0xa
 1612 047c 28       		.byte	0x28
 1613 047d 2B010000 		.4byte	0x12b
 1614 0481 08       		.byte	0x8
 1615 0482 00       		.byte	0
 1616 0483 04       		.uleb128 0x4
 1617 0484 90050000 		.4byte	.LASF70
 1618 0488 0A       		.byte	0xa
 1619 0489 29       		.byte	0x29
 1620 048a 5E040000 		.4byte	0x45e
 1621 048e 06       		.uleb128 0x6
 1622 048f B4020000 		.4byte	.LASF73
 1623 0493 10       		.byte	0x10
 1624 0494 0B       		.byte	0xb
 1625 0495 25       		.byte	0x25
 1626 0496 BF040000 		.4byte	0x4bf
 1627 049a 07       		.uleb128 0x7
 1628 049b C7030000 		.4byte	.LASF74
 1629 049f 0B       		.byte	0xb
 1630 04a0 26       		.byte	0x26
 1631 04a1 59020000 		.4byte	0x259
 1632 04a5 00       		.byte	0
 1633 04a6 07       		.uleb128 0x7
 1634 04a7 07060000 		.4byte	.LASF75
 1635 04ab 0B       		.byte	0xb
 1636 04ac 28       		.byte	0x28
 1637 04ad 53020000 		.4byte	0x253
 1638 04b1 08       		.byte	0x8
 1639 04b2 07       		.uleb128 0x7
 1640 04b3 B1040000 		.4byte	.LASF76
 1641 04b7 0B       		.byte	0xb
 1642 04b8 2A       		.byte	0x2a
 1643 04b9 BF040000 		.4byte	0x4bf
 1644 04bd 0C       		.byte	0xc
 1645 04be 00       		.byte	0
 1646 04bf 0A       		.uleb128 0xa
 1647 04c0 04       		.byte	0x4
 1648 04c1 8E040000 		.4byte	0x48e
ARM GAS  /tmp/ccYJgJ88.s 			page 30


 1649 04c5 04       		.uleb128 0x4
 1650 04c6 B4020000 		.4byte	.LASF73
 1651 04ca 0B       		.byte	0xb
 1652 04cb 2C       		.byte	0x2c
 1653 04cc 8E040000 		.4byte	0x48e
 1654 04d0 09       		.uleb128 0x9
 1655 04d1 28       		.byte	0x28
 1656 04d2 0C       		.byte	0xc
 1657 04d3 2C       		.byte	0x2c
 1658 04d4 21050000 		.4byte	0x521
 1659 04d8 07       		.uleb128 0x7
 1660 04d9 5D030000 		.4byte	.LASF77
 1661 04dd 0C       		.byte	0xc
 1662 04de 2D       		.byte	0x2d
 1663 04df 21050000 		.4byte	0x521
 1664 04e3 00       		.byte	0
 1665 04e4 07       		.uleb128 0x7
 1666 04e5 CF030000 		.4byte	.LASF78
 1667 04e9 0C       		.byte	0xc
 1668 04ea 2F       		.byte	0x2f
 1669 04eb 21050000 		.4byte	0x521
 1670 04ef 04       		.byte	0x4
 1671 04f0 07       		.uleb128 0x7
 1672 04f1 D7000000 		.4byte	.LASF79
 1673 04f5 0C       		.byte	0xc
 1674 04f6 31       		.byte	0x31
 1675 04f7 21050000 		.4byte	0x521
 1676 04fb 08       		.byte	0x8
 1677 04fc 07       		.uleb128 0x7
 1678 04fd 1A000000 		.4byte	.LASF80
 1679 0501 0C       		.byte	0xc
 1680 0502 32       		.byte	0x32
 1681 0503 21050000 		.4byte	0x521
 1682 0507 0C       		.byte	0xc
 1683 0508 07       		.uleb128 0x7
 1684 0509 9A050000 		.4byte	.LASF81
 1685 050d 0C       		.byte	0xc
 1686 050e 33       		.byte	0x33
 1687 050f 83040000 		.4byte	0x483
 1688 0513 10       		.byte	0x10
 1689 0514 07       		.uleb128 0x7
 1690 0515 1E020000 		.4byte	.LASF82
 1691 0519 0C       		.byte	0xc
 1692 051a 35       		.byte	0x35
 1693 051b 83040000 		.4byte	0x483
 1694 051f 1C       		.byte	0x1c
 1695 0520 00       		.byte	0
 1696 0521 0A       		.uleb128 0xa
 1697 0522 04       		.byte	0x4
 1698 0523 05010000 		.4byte	0x105
 1699 0527 04       		.uleb128 0x4
 1700 0528 3E000000 		.4byte	.LASF83
 1701 052c 0C       		.byte	0xc
 1702 052d 37       		.byte	0x37
 1703 052e D0040000 		.4byte	0x4d0
 1704 0532 10       		.uleb128 0x10
 1705 0533 04       		.byte	0x4
ARM GAS  /tmp/ccYJgJ88.s 			page 31


 1706 0534 06       		.byte	0x6
 1707 0535 8F       		.byte	0x8f
 1708 0536 67050000 		.4byte	0x567
 1709 053a 11       		.uleb128 0x11
 1710 053b 13000000 		.4byte	.LASF84
 1711 053f 06       		.byte	0x6
 1712 0540 96       		.byte	0x96
 1713 0541 05010000 		.4byte	0x105
 1714 0545 11       		.uleb128 0x11
 1715 0546 C0000000 		.4byte	.LASF85
 1716 054a 06       		.byte	0x6
 1717 054b 9D       		.byte	0x9d
 1718 054c 05010000 		.4byte	0x105
 1719 0550 11       		.uleb128 0x11
 1720 0551 CF050000 		.4byte	.LASF86
 1721 0555 06       		.byte	0x6
 1722 0556 A4       		.byte	0xa4
 1723 0557 9A020000 		.4byte	0x29a
 1724 055b 11       		.uleb128 0x11
 1725 055c 1D040000 		.4byte	.LASF87
 1726 0560 06       		.byte	0x6
 1727 0561 AB       		.byte	0xab
 1728 0562 10010000 		.4byte	0x110
 1729 0566 00       		.byte	0
 1730 0567 0A       		.uleb128 0xa
 1731 0568 04       		.byte	0x4
 1732 0569 74050000 		.4byte	0x574
 1733 056d 03       		.uleb128 0x3
 1734 056e 01       		.byte	0x1
 1735 056f 08       		.byte	0x8
 1736 0570 94040000 		.4byte	.LASF88
 1737 0574 0C       		.uleb128 0xc
 1738 0575 6D050000 		.4byte	0x56d
 1739 0579 0A       		.uleb128 0xa
 1740 057a 04       		.byte	0x4
 1741 057b C5040000 		.4byte	0x4c5
 1742 057f 09       		.uleb128 0x9
 1743 0580 16       		.byte	0x16
 1744 0581 0D       		.byte	0xd
 1745 0582 25       		.byte	0x25
 1746 0583 60060000 		.4byte	0x660
 1747 0587 07       		.uleb128 0x7
 1748 0588 33020000 		.4byte	.LASF89
 1749 058c 0D       		.byte	0xd
 1750 058d 26       		.byte	0x26
 1751 058e 60060000 		.4byte	0x660
 1752 0592 00       		.byte	0
 1753 0593 07       		.uleb128 0x7
 1754 0594 CF020000 		.4byte	.LASF90
 1755 0598 0D       		.byte	0xd
 1756 0599 27       		.byte	0x27
 1757 059a 97000000 		.4byte	0x97
 1758 059e 04       		.byte	0x4
 1759 059f 07       		.uleb128 0x7
 1760 05a0 39030000 		.4byte	.LASF91
 1761 05a4 0D       		.byte	0xd
 1762 05a5 28       		.byte	0x28
ARM GAS  /tmp/ccYJgJ88.s 			page 32


 1763 05a6 97000000 		.4byte	0x97
 1764 05aa 05       		.byte	0x5
 1765 05ab 07       		.uleb128 0x7
 1766 05ac F5050000 		.4byte	.LASF92
 1767 05b0 0D       		.byte	0xd
 1768 05b1 29       		.byte	0x29
 1769 05b2 A2000000 		.4byte	0xa2
 1770 05b6 06       		.byte	0x6
 1771 05b7 07       		.uleb128 0x7
 1772 05b8 8F030000 		.4byte	.LASF93
 1773 05bc 0D       		.byte	0xd
 1774 05bd 2A       		.byte	0x2a
 1775 05be 97000000 		.4byte	0x97
 1776 05c2 08       		.byte	0x8
 1777 05c3 07       		.uleb128 0x7
 1778 05c4 FC020000 		.4byte	.LASF94
 1779 05c8 0D       		.byte	0xd
 1780 05c9 2B       		.byte	0x2b
 1781 05ca 97000000 		.4byte	0x97
 1782 05ce 09       		.byte	0x9
 1783 05cf 07       		.uleb128 0x7
 1784 05d0 B2000000 		.4byte	.LASF95
 1785 05d4 0D       		.byte	0xd
 1786 05d5 2C       		.byte	0x2c
 1787 05d6 97000000 		.4byte	0x97
 1788 05da 0A       		.byte	0xa
 1789 05db 07       		.uleb128 0x7
 1790 05dc 73040000 		.4byte	.LASF96
 1791 05e0 0D       		.byte	0xd
 1792 05e1 2D       		.byte	0x2d
 1793 05e2 97000000 		.4byte	0x97
 1794 05e6 0B       		.byte	0xb
 1795 05e7 07       		.uleb128 0x7
 1796 05e8 A5050000 		.4byte	.LASF97
 1797 05ec 0D       		.byte	0xd
 1798 05ed 2E       		.byte	0x2e
 1799 05ee 97000000 		.4byte	0x97
 1800 05f2 0C       		.byte	0xc
 1801 05f3 07       		.uleb128 0x7
 1802 05f4 49040000 		.4byte	.LASF98
 1803 05f8 0D       		.byte	0xd
 1804 05f9 2F       		.byte	0x2f
 1805 05fa 97000000 		.4byte	0x97
 1806 05fe 0D       		.byte	0xd
 1807 05ff 07       		.uleb128 0x7
 1808 0600 00000000 		.4byte	.LASF99
 1809 0604 0D       		.byte	0xd
 1810 0605 30       		.byte	0x30
 1811 0606 97000000 		.4byte	0x97
 1812 060a 0E       		.byte	0xe
 1813 060b 07       		.uleb128 0x7
 1814 060c 12030000 		.4byte	.LASF100
 1815 0610 0D       		.byte	0xd
 1816 0611 31       		.byte	0x31
 1817 0612 97000000 		.4byte	0x97
 1818 0616 0F       		.byte	0xf
 1819 0617 07       		.uleb128 0x7
ARM GAS  /tmp/ccYJgJ88.s 			page 33


 1820 0618 17010000 		.4byte	.LASF101
 1821 061c 0D       		.byte	0xd
 1822 061d 32       		.byte	0x32
 1823 061e 97000000 		.4byte	0x97
 1824 0622 10       		.byte	0x10
 1825 0623 07       		.uleb128 0x7
 1826 0624 E7000000 		.4byte	.LASF102
 1827 0628 0D       		.byte	0xd
 1828 0629 34       		.byte	0x34
 1829 062a 97000000 		.4byte	0x97
 1830 062e 11       		.byte	0x11
 1831 062f 07       		.uleb128 0x7
 1832 0630 27010000 		.4byte	.LASF103
 1833 0634 0D       		.byte	0xd
 1834 0635 35       		.byte	0x35
 1835 0636 97000000 		.4byte	0x97
 1836 063a 12       		.byte	0x12
 1837 063b 07       		.uleb128 0x7
 1838 063c D7020000 		.4byte	.LASF104
 1839 0640 0D       		.byte	0xd
 1840 0641 36       		.byte	0x36
 1841 0642 97000000 		.4byte	0x97
 1842 0646 13       		.byte	0x13
 1843 0647 07       		.uleb128 0x7
 1844 0648 2B040000 		.4byte	.LASF105
 1845 064c 0D       		.byte	0xd
 1846 064d 37       		.byte	0x37
 1847 064e 97000000 		.4byte	0x97
 1848 0652 14       		.byte	0x14
 1849 0653 07       		.uleb128 0x7
 1850 0654 0A040000 		.4byte	.LASF106
 1851 0658 0D       		.byte	0xd
 1852 0659 39       		.byte	0x39
 1853 065a 97000000 		.4byte	0x97
 1854 065e 15       		.byte	0x15
 1855 065f 00       		.byte	0
 1856 0660 12       		.uleb128 0x12
 1857 0661 6D050000 		.4byte	0x56d
 1858 0665 70060000 		.4byte	0x670
 1859 0669 13       		.uleb128 0x13
 1860 066a 70060000 		.4byte	0x670
 1861 066e 03       		.byte	0x3
 1862 066f 00       		.byte	0
 1863 0670 03       		.uleb128 0x3
 1864 0671 04       		.byte	0x4
 1865 0672 07       		.byte	0x7
 1866 0673 EB020000 		.4byte	.LASF107
 1867 0677 04       		.uleb128 0x4
 1868 0678 81010000 		.4byte	.LASF108
 1869 067c 0D       		.byte	0xd
 1870 067d 3A       		.byte	0x3a
 1871 067e 7F050000 		.4byte	0x57f
 1872 0682 0C       		.uleb128 0xc
 1873 0683 77060000 		.4byte	0x677
 1874 0687 0F       		.uleb128 0xf
 1875 0688 05020000 		.4byte	.LASF109
 1876 068c 0D       		.byte	0xd
ARM GAS  /tmp/ccYJgJ88.s 			page 34


 1877 068d 77       		.byte	0x77
 1878 068e 82060000 		.4byte	0x682
 1879 0692 12       		.uleb128 0x12
 1880 0693 84020000 		.4byte	0x284
 1881 0697 A2060000 		.4byte	0x6a2
 1882 069b 13       		.uleb128 0x13
 1883 069c 70060000 		.4byte	0x670
 1884 06a0 26       		.byte	0x26
 1885 06a1 00       		.byte	0
 1886 06a2 0F       		.uleb128 0xf
 1887 06a3 9A010000 		.4byte	.LASF110
 1888 06a7 0E       		.byte	0xe
 1889 06a8 82       		.byte	0x82
 1890 06a9 92060000 		.4byte	0x692
 1891 06ad 06       		.uleb128 0x6
 1892 06ae 56040000 		.4byte	.LASF111
 1893 06b2 10       		.byte	0x10
 1894 06b3 0F       		.byte	0xf
 1895 06b4 3F       		.byte	0x3f
 1896 06b5 EA060000 		.4byte	0x6ea
 1897 06b9 07       		.uleb128 0x7
 1898 06ba 47020000 		.4byte	.LASF112
 1899 06be 0F       		.byte	0xf
 1900 06bf 40       		.byte	0x40
 1901 06c0 67050000 		.4byte	0x567
 1902 06c4 00       		.byte	0
 1903 06c5 07       		.uleb128 0x7
 1904 06c6 41030000 		.4byte	.LASF113
 1905 06ca 0F       		.byte	0xf
 1906 06cb 41       		.byte	0x41
 1907 06cc F0060000 		.4byte	0x6f0
 1908 06d0 04       		.byte	0x4
 1909 06d1 07       		.uleb128 0x7
 1910 06d2 F4000000 		.4byte	.LASF114
 1911 06d6 0F       		.byte	0xf
 1912 06d7 42       		.byte	0x42
 1913 06d8 F0060000 		.4byte	0x6f0
 1914 06dc 08       		.byte	0x8
 1915 06dd 07       		.uleb128 0x7
 1916 06de A1030000 		.4byte	.LASF115
 1917 06e2 0F       		.byte	0xf
 1918 06e3 43       		.byte	0x43
 1919 06e4 F0060000 		.4byte	0x6f0
 1920 06e8 0C       		.byte	0xc
 1921 06e9 00       		.byte	0
 1922 06ea 0C       		.uleb128 0xc
 1923 06eb AD060000 		.4byte	0x6ad
 1924 06ef 14       		.uleb128 0x14
 1925 06f0 0A       		.uleb128 0xa
 1926 06f1 04       		.byte	0x4
 1927 06f2 EF060000 		.4byte	0x6ef
 1928 06f6 15       		.uleb128 0x15
 1929 06f7 7805     		.2byte	0x578
 1930 06f9 0F       		.byte	0xf
 1931 06fa 48       		.byte	0x48
 1932 06fb 3B070000 		.4byte	0x73b
 1933 06ff 08       		.uleb128 0x8
ARM GAS  /tmp/ccYJgJ88.s 			page 35


 1934 0700 543000   		.ascii	"T0\000"
 1935 0703 0F       		.byte	0xf
 1936 0704 49       		.byte	0x49
 1937 0705 3B070000 		.4byte	0x73b
 1938 0709 00       		.byte	0
 1939 070a 16       		.uleb128 0x16
 1940 070b 543100   		.ascii	"T1\000"
 1941 070e 0F       		.byte	0xf
 1942 070f 4A       		.byte	0x4a
 1943 0710 3B070000 		.4byte	0x73b
 1944 0714 1801     		.2byte	0x118
 1945 0716 16       		.uleb128 0x16
 1946 0717 543200   		.ascii	"T2\000"
 1947 071a 0F       		.byte	0xf
 1948 071b 4B       		.byte	0x4b
 1949 071c 3B070000 		.4byte	0x73b
 1950 0720 3002     		.2byte	0x230
 1951 0722 16       		.uleb128 0x16
 1952 0723 543300   		.ascii	"T3\000"
 1953 0726 0F       		.byte	0xf
 1954 0727 4C       		.byte	0x4c
 1955 0728 3B070000 		.4byte	0x73b
 1956 072c 4803     		.2byte	0x348
 1957 072e 16       		.uleb128 0x16
 1958 072f 543400   		.ascii	"T4\000"
 1959 0732 0F       		.byte	0xf
 1960 0733 4D       		.byte	0x4d
 1961 0734 3B070000 		.4byte	0x73b
 1962 0738 6004     		.2byte	0x460
 1963 073a 00       		.byte	0
 1964 073b 12       		.uleb128 0x12
 1965 073c 84020000 		.4byte	0x284
 1966 0740 4B070000 		.4byte	0x74b
 1967 0744 13       		.uleb128 0x13
 1968 0745 70060000 		.4byte	0x670
 1969 0749 45       		.byte	0x45
 1970 074a 00       		.byte	0
 1971 074b 17       		.uleb128 0x17
 1972 074c 99040000 		.4byte	.LASF140
 1973 0750 7805     		.2byte	0x578
 1974 0752 0F       		.byte	0xf
 1975 0753 47       		.byte	0x47
 1976 0754 6E070000 		.4byte	0x76e
 1977 0758 18       		.uleb128 0x18
 1978 0759 776100   		.ascii	"wa\000"
 1979 075c 0F       		.byte	0xf
 1980 075d 4E       		.byte	0x4e
 1981 075e F6060000 		.4byte	0x6f6
 1982 0762 11       		.uleb128 0x11
 1983 0763 8B010000 		.4byte	.LASF116
 1984 0767 0F       		.byte	0xf
 1985 0768 4F       		.byte	0x4f
 1986 0769 6E070000 		.4byte	0x76e
 1987 076d 00       		.byte	0
 1988 076e 12       		.uleb128 0x12
 1989 076f 97000000 		.4byte	0x97
 1990 0773 7F070000 		.4byte	0x77f
ARM GAS  /tmp/ccYJgJ88.s 			page 36


 1991 0777 19       		.uleb128 0x19
 1992 0778 70060000 		.4byte	0x670
 1993 077c 7705     		.2byte	0x577
 1994 077e 00       		.byte	0
 1995 077f 12       		.uleb128 0x12
 1996 0780 53020000 		.4byte	0x253
 1997 0784 8F070000 		.4byte	0x78f
 1998 0788 13       		.uleb128 0x13
 1999 0789 70060000 		.4byte	0x670
 2000 078d 04       		.byte	0x4
 2001 078e 00       		.byte	0
 2002 078f 0F       		.uleb128 0xf
 2003 0790 80020000 		.4byte	.LASF117
 2004 0794 0F       		.byte	0xf
 2005 0795 A9       		.byte	0xa9
 2006 0796 7F070000 		.4byte	0x77f
 2007 079a 0F       		.uleb128 0xf
 2008 079b D2000000 		.4byte	.LASF118
 2009 079f 0F       		.byte	0xf
 2010 07a0 AA       		.byte	0xaa
 2011 07a1 4B070000 		.4byte	0x74b
 2012 07a5 12       		.uleb128 0x12
 2013 07a6 9C020000 		.4byte	0x29c
 2014 07aa B0070000 		.4byte	0x7b0
 2015 07ae 1A       		.uleb128 0x1a
 2016 07af 00       		.byte	0
 2017 07b0 0C       		.uleb128 0xc
 2018 07b1 A5070000 		.4byte	0x7a5
 2019 07b5 1B       		.uleb128 0x1b
 2020 07b6 776100   		.ascii	"wa\000"
 2021 07b9 0F       		.byte	0xf
 2022 07ba AB       		.byte	0xab
 2023 07bb B0070000 		.4byte	0x7b0
 2024 07bf 0F       		.uleb128 0xf
 2025 07c0 0E020000 		.4byte	.LASF119
 2026 07c4 0F       		.byte	0xf
 2027 07c5 AC       		.byte	0xac
 2028 07c6 C3000000 		.4byte	0xc3
 2029 07ca 1C       		.uleb128 0x1c
 2030 07cb 6D623100 		.ascii	"mb1\000"
 2031 07cf 01       		.byte	0x1
 2032 07d0 40       		.byte	0x40
 2033 07d1 27050000 		.4byte	0x527
 2034 07d5 05       		.uleb128 0x5
 2035 07d6 03       		.byte	0x3
 2036 07d7 00000000 		.4byte	mb1
 2037 07db 1D       		.uleb128 0x1d
 2038 07dc BA020000 		.4byte	.LASF120
 2039 07e0 01       		.byte	0x1
 2040 07e1 E2       		.byte	0xe2
 2041 07e2 EA060000 		.4byte	0x6ea
 2042 07e6 05       		.uleb128 0x5
 2043 07e7 03       		.byte	0x3
 2044 07e8 00000000 		.4byte	testmbox1
 2045 07ec 12       		.uleb128 0x12
 2046 07ed 07080000 		.4byte	0x807
 2047 07f1 FC070000 		.4byte	0x7fc
ARM GAS  /tmp/ccYJgJ88.s 			page 37


 2048 07f5 13       		.uleb128 0x13
 2049 07f6 70060000 		.4byte	0x670
 2050 07fa 01       		.byte	0x1
 2051 07fb 00       		.byte	0
 2052 07fc 0C       		.uleb128 0xc
 2053 07fd EC070000 		.4byte	0x7ec
 2054 0801 0A       		.uleb128 0xa
 2055 0802 04       		.byte	0x4
 2056 0803 EA060000 		.4byte	0x6ea
 2057 0807 0C       		.uleb128 0xc
 2058 0808 01080000 		.4byte	0x801
 2059 080c 1D       		.uleb128 0x1d
 2060 080d 6C000000 		.4byte	.LASF121
 2061 0811 01       		.byte	0x1
 2062 0812 EE       		.byte	0xee
 2063 0813 FC070000 		.4byte	0x7fc
 2064 0817 05       		.uleb128 0x5
 2065 0818 03       		.byte	0x3
 2066 0819 00000000 		.4byte	patternmbox
 2067 081d 1E       		.uleb128 0x1e
 2068 081e 67030000 		.4byte	.LASF124
 2069 0822 01       		.byte	0x1
 2070 0823 50       		.byte	0x50
 2071 0824 00000000 		.4byte	.LFB8
 2072 0828 B8070000 		.4byte	.LFE8-.LFB8
 2073 082c 01       		.uleb128 0x1
 2074 082d 9C       		.byte	0x9c
 2075 082e B60E0000 		.4byte	0xeb6
 2076 0832 1F       		.uleb128 0x1f
 2077 0833 E9010000 		.4byte	.LASF122
 2078 0837 01       		.byte	0x1
 2079 0838 51       		.byte	0x51
 2080 0839 05010000 		.4byte	0x105
 2081 083d 00000000 		.4byte	.LLST0
 2082 0841 20       		.uleb128 0x20
 2083 0842 EE010000 		.4byte	.LASF123
 2084 0846 01       		.byte	0x1
 2085 0847 51       		.byte	0x51
 2086 0848 05010000 		.4byte	0x105
 2087 084c 02       		.uleb128 0x2
 2088 084d 91       		.byte	0x91
 2089 084e 64       		.sleb128 -28
 2090 084f 21       		.uleb128 0x21
 2091 0850 6900     		.ascii	"i\000"
 2092 0852 01       		.byte	0x1
 2093 0853 52       		.byte	0x52
 2094 0854 2C000000 		.4byte	0x2c
 2095 0858 05010000 		.4byte	.LLST1
 2096 085c 22       		.uleb128 0x22
 2097 085d 24000000 		.4byte	.LVL0
 2098 0861 E40E0000 		.4byte	0xee4
 2099 0865 6F080000 		.4byte	0x86f
 2100 0869 23       		.uleb128 0x23
 2101 086a 01       		.uleb128 0x1
 2102 086b 50       		.byte	0x50
 2103 086c 01       		.uleb128 0x1
 2104 086d 31       		.byte	0x31
ARM GAS  /tmp/ccYJgJ88.s 			page 38


 2105 086e 00       		.byte	0
 2106 086f 22       		.uleb128 0x22
 2107 0870 4C000000 		.4byte	.LVL2
 2108 0874 EF0E0000 		.4byte	0xeef
 2109 0878 8F080000 		.4byte	0x88f
 2110 087c 23       		.uleb128 0x23
 2111 087d 01       		.uleb128 0x1
 2112 087e 50       		.byte	0x50
 2113 087f 02       		.uleb128 0x2
 2114 0880 75       		.byte	0x75
 2115 0881 00       		.sleb128 0
 2116 0882 23       		.uleb128 0x23
 2117 0883 01       		.uleb128 0x1
 2118 0884 51       		.byte	0x51
 2119 0885 02       		.uleb128 0x2
 2120 0886 74       		.byte	0x74
 2121 0887 00       		.sleb128 0
 2122 0888 23       		.uleb128 0x23
 2123 0889 01       		.uleb128 0x1
 2124 088a 52       		.byte	0x52
 2125 088b 02       		.uleb128 0x2
 2126 088c 78       		.byte	0x78
 2127 088d 00       		.sleb128 0
 2128 088e 00       		.byte	0
 2129 088f 22       		.uleb128 0x22
 2130 0890 5C000000 		.4byte	.LVL4
 2131 0894 E40E0000 		.4byte	0xee4
 2132 0898 A3080000 		.4byte	0x8a3
 2133 089c 23       		.uleb128 0x23
 2134 089d 01       		.uleb128 0x1
 2135 089e 50       		.byte	0x50
 2136 089f 02       		.uleb128 0x2
 2137 08a0 76       		.byte	0x76
 2138 08a1 00       		.sleb128 0
 2139 08a2 00       		.byte	0
 2140 08a3 22       		.uleb128 0x22
 2141 08a4 80000000 		.4byte	.LVL6
 2142 08a8 FA0E0000 		.4byte	0xefa
 2143 08ac C3080000 		.4byte	0x8c3
 2144 08b0 23       		.uleb128 0x23
 2145 08b1 01       		.uleb128 0x1
 2146 08b2 50       		.byte	0x50
 2147 08b3 02       		.uleb128 0x2
 2148 08b4 75       		.byte	0x75
 2149 08b5 00       		.sleb128 0
 2150 08b6 23       		.uleb128 0x23
 2151 08b7 01       		.uleb128 0x1
 2152 08b8 51       		.byte	0x51
 2153 08b9 02       		.uleb128 0x2
 2154 08ba 08       		.byte	0x8
 2155 08bb 41       		.byte	0x41
 2156 08bc 23       		.uleb128 0x23
 2157 08bd 01       		.uleb128 0x1
 2158 08be 52       		.byte	0x52
 2159 08bf 02       		.uleb128 0x2
 2160 08c0 78       		.byte	0x78
 2161 08c1 00       		.sleb128 0
ARM GAS  /tmp/ccYJgJ88.s 			page 39


 2162 08c2 00       		.byte	0
 2163 08c3 22       		.uleb128 0x22
 2164 08c4 90000000 		.4byte	.LVL8
 2165 08c8 E40E0000 		.4byte	0xee4
 2166 08cc D6080000 		.4byte	0x8d6
 2167 08d0 23       		.uleb128 0x23
 2168 08d1 01       		.uleb128 0x1
 2169 08d2 50       		.byte	0x50
 2170 08d3 01       		.uleb128 0x1
 2171 08d4 33       		.byte	0x33
 2172 08d5 00       		.byte	0
 2173 08d6 22       		.uleb128 0x22
 2174 08d7 B0000000 		.4byte	.LVL11
 2175 08db EF0E0000 		.4byte	0xeef
 2176 08df F5080000 		.4byte	0x8f5
 2177 08e3 23       		.uleb128 0x23
 2178 08e4 01       		.uleb128 0x1
 2179 08e5 50       		.byte	0x50
 2180 08e6 02       		.uleb128 0x2
 2181 08e7 75       		.byte	0x75
 2182 08e8 00       		.sleb128 0
 2183 08e9 23       		.uleb128 0x23
 2184 08ea 01       		.uleb128 0x1
 2185 08eb 51       		.byte	0x51
 2186 08ec 02       		.uleb128 0x2
 2187 08ed 08       		.byte	0x8
 2188 08ee 58       		.byte	0x58
 2189 08ef 23       		.uleb128 0x23
 2190 08f0 01       		.uleb128 0x1
 2191 08f1 52       		.byte	0x52
 2192 08f2 01       		.uleb128 0x1
 2193 08f3 31       		.byte	0x31
 2194 08f4 00       		.byte	0
 2195 08f5 22       		.uleb128 0x22
 2196 08f6 C4000000 		.4byte	.LVL13
 2197 08fa E40E0000 		.4byte	0xee4
 2198 08fe 08090000 		.4byte	0x908
 2199 0902 23       		.uleb128 0x23
 2200 0903 01       		.uleb128 0x1
 2201 0904 50       		.byte	0x50
 2202 0905 01       		.uleb128 0x1
 2203 0906 34       		.byte	0x34
 2204 0907 00       		.byte	0
 2205 0908 22       		.uleb128 0x22
 2206 0909 DC000000 		.4byte	.LVL14
 2207 090d 050F0000 		.4byte	0xf05
 2208 0911 22090000 		.4byte	0x922
 2209 0915 23       		.uleb128 0x23
 2210 0916 01       		.uleb128 0x1
 2211 0917 50       		.byte	0x50
 2212 0918 02       		.uleb128 0x2
 2213 0919 75       		.byte	0x75
 2214 091a 00       		.sleb128 0
 2215 091b 23       		.uleb128 0x23
 2216 091c 01       		.uleb128 0x1
 2217 091d 51       		.byte	0x51
 2218 091e 02       		.uleb128 0x2
ARM GAS  /tmp/ccYJgJ88.s 			page 40


 2219 091f 08       		.byte	0x8
 2220 0920 58       		.byte	0x58
 2221 0921 00       		.byte	0
 2222 0922 22       		.uleb128 0x22
 2223 0923 F8000000 		.4byte	.LVL17
 2224 0927 E40E0000 		.4byte	0xee4
 2225 092b 35090000 		.4byte	0x935
 2226 092f 23       		.uleb128 0x23
 2227 0930 01       		.uleb128 0x1
 2228 0931 50       		.byte	0x50
 2229 0932 01       		.uleb128 0x1
 2230 0933 35       		.byte	0x35
 2231 0934 00       		.byte	0
 2232 0935 22       		.uleb128 0x22
 2233 0936 10010000 		.4byte	.LVL18
 2234 093a FA0E0000 		.4byte	0xefa
 2235 093e 54090000 		.4byte	0x954
 2236 0942 23       		.uleb128 0x23
 2237 0943 01       		.uleb128 0x1
 2238 0944 50       		.byte	0x50
 2239 0945 02       		.uleb128 0x2
 2240 0946 75       		.byte	0x75
 2241 0947 00       		.sleb128 0
 2242 0948 23       		.uleb128 0x23
 2243 0949 01       		.uleb128 0x1
 2244 094a 51       		.byte	0x51
 2245 094b 02       		.uleb128 0x2
 2246 094c 08       		.byte	0x8
 2247 094d 58       		.byte	0x58
 2248 094e 23       		.uleb128 0x23
 2249 094f 01       		.uleb128 0x1
 2250 0950 52       		.byte	0x52
 2251 0951 01       		.uleb128 0x1
 2252 0952 31       		.byte	0x31
 2253 0953 00       		.byte	0
 2254 0954 22       		.uleb128 0x22
 2255 0955 24010000 		.4byte	.LVL20
 2256 0959 E40E0000 		.4byte	0xee4
 2257 095d 67090000 		.4byte	0x967
 2258 0961 23       		.uleb128 0x23
 2259 0962 01       		.uleb128 0x1
 2260 0963 50       		.byte	0x50
 2261 0964 01       		.uleb128 0x1
 2262 0965 36       		.byte	0x36
 2263 0966 00       		.byte	0
 2264 0967 22       		.uleb128 0x22
 2265 0968 3C010000 		.4byte	.LVL21
 2266 096c 100F0000 		.4byte	0xf10
 2267 0970 81090000 		.4byte	0x981
 2268 0974 23       		.uleb128 0x23
 2269 0975 01       		.uleb128 0x1
 2270 0976 50       		.byte	0x50
 2271 0977 02       		.uleb128 0x2
 2272 0978 75       		.byte	0x75
 2273 0979 00       		.sleb128 0
 2274 097a 23       		.uleb128 0x23
 2275 097b 01       		.uleb128 0x1
ARM GAS  /tmp/ccYJgJ88.s 			page 41


 2276 097c 51       		.byte	0x51
 2277 097d 02       		.uleb128 0x2
 2278 097e 08       		.byte	0x8
 2279 097f 58       		.byte	0x58
 2280 0980 00       		.byte	0
 2281 0981 22       		.uleb128 0x22
 2282 0982 58010000 		.4byte	.LVL24
 2283 0986 E40E0000 		.4byte	0xee4
 2284 098a 94090000 		.4byte	0x994
 2285 098e 23       		.uleb128 0x23
 2286 098f 01       		.uleb128 0x1
 2287 0990 50       		.byte	0x50
 2288 0991 01       		.uleb128 0x1
 2289 0992 37       		.byte	0x37
 2290 0993 00       		.byte	0
 2291 0994 22       		.uleb128 0x22
 2292 0995 78010000 		.4byte	.LVL25
 2293 0999 E40E0000 		.4byte	0xee4
 2294 099d A7090000 		.4byte	0x9a7
 2295 09a1 23       		.uleb128 0x23
 2296 09a2 01       		.uleb128 0x1
 2297 09a3 50       		.byte	0x50
 2298 09a4 01       		.uleb128 0x1
 2299 09a5 38       		.byte	0x38
 2300 09a6 00       		.byte	0
 2301 09a7 22       		.uleb128 0x22
 2302 09a8 A8010000 		.4byte	.LVL28
 2303 09ac E40E0000 		.4byte	0xee4
 2304 09b0 BA090000 		.4byte	0x9ba
 2305 09b4 23       		.uleb128 0x23
 2306 09b5 01       		.uleb128 0x1
 2307 09b6 50       		.byte	0x50
 2308 09b7 01       		.uleb128 0x1
 2309 09b8 39       		.byte	0x39
 2310 09b9 00       		.byte	0
 2311 09ba 22       		.uleb128 0x22
 2312 09bb D4010000 		.4byte	.LVL29
 2313 09bf E40E0000 		.4byte	0xee4
 2314 09c3 CD090000 		.4byte	0x9cd
 2315 09c7 23       		.uleb128 0x23
 2316 09c8 01       		.uleb128 0x1
 2317 09c9 50       		.byte	0x50
 2318 09ca 01       		.uleb128 0x1
 2319 09cb 3A       		.byte	0x3a
 2320 09cc 00       		.byte	0
 2321 09cd 24       		.uleb128 0x24
 2322 09ce FC010000 		.4byte	.LVL32
 2323 09d2 1B0F0000 		.4byte	0xf1b
 2324 09d6 22       		.uleb128 0x22
 2325 09d7 14020000 		.4byte	.LVL35
 2326 09db 260F0000 		.4byte	0xf26
 2327 09df F6090000 		.4byte	0x9f6
 2328 09e3 23       		.uleb128 0x23
 2329 09e4 01       		.uleb128 0x1
 2330 09e5 50       		.byte	0x50
 2331 09e6 02       		.uleb128 0x2
 2332 09e7 75       		.byte	0x75
ARM GAS  /tmp/ccYJgJ88.s 			page 42


 2333 09e8 00       		.sleb128 0
 2334 09e9 23       		.uleb128 0x23
 2335 09ea 01       		.uleb128 0x1
 2336 09eb 51       		.byte	0x51
 2337 09ec 02       		.uleb128 0x2
 2338 09ed 91       		.byte	0x91
 2339 09ee 5C       		.sleb128 -36
 2340 09ef 23       		.uleb128 0x23
 2341 09f0 01       		.uleb128 0x1
 2342 09f1 52       		.byte	0x52
 2343 09f2 02       		.uleb128 0x2
 2344 09f3 78       		.byte	0x78
 2345 09f4 00       		.sleb128 0
 2346 09f5 00       		.byte	0
 2347 09f6 22       		.uleb128 0x22
 2348 09f7 24020000 		.4byte	.LVL37
 2349 09fb E40E0000 		.4byte	0xee4
 2350 09ff 0A0A0000 		.4byte	0xa0a
 2351 0a03 23       		.uleb128 0x23
 2352 0a04 01       		.uleb128 0x1
 2353 0a05 50       		.byte	0x50
 2354 0a06 02       		.uleb128 0x2
 2355 0a07 77       		.byte	0x77
 2356 0a08 00       		.sleb128 0
 2357 0a09 00       		.byte	0
 2358 0a0a 22       		.uleb128 0x22
 2359 0a0b 3C020000 		.4byte	.LVL38
 2360 0a0f 310F0000 		.4byte	0xf31
 2361 0a13 260A0000 		.4byte	0xa26
 2362 0a17 23       		.uleb128 0x23
 2363 0a18 01       		.uleb128 0x1
 2364 0a19 50       		.byte	0x50
 2365 0a1a 01       		.uleb128 0x1
 2366 0a1b 3C       		.byte	0x3c
 2367 0a1c 23       		.uleb128 0x23
 2368 0a1d 01       		.uleb128 0x1
 2369 0a1e 51       		.byte	0x51
 2370 0a1f 05       		.uleb128 0x5
 2371 0a20 03       		.byte	0x3
 2372 0a21 00000000 		.4byte	.LC0
 2373 0a25 00       		.byte	0
 2374 0a26 22       		.uleb128 0x22
 2375 0a27 54020000 		.4byte	.LVL39
 2376 0a2b EF0E0000 		.4byte	0xeef
 2377 0a2f 460A0000 		.4byte	0xa46
 2378 0a33 23       		.uleb128 0x23
 2379 0a34 01       		.uleb128 0x1
 2380 0a35 50       		.byte	0x50
 2381 0a36 02       		.uleb128 0x2
 2382 0a37 75       		.byte	0x75
 2383 0a38 00       		.sleb128 0
 2384 0a39 23       		.uleb128 0x23
 2385 0a3a 01       		.uleb128 0x1
 2386 0a3b 51       		.byte	0x51
 2387 0a3c 02       		.uleb128 0x2
 2388 0a3d 08       		.byte	0x8
 2389 0a3e 47       		.byte	0x47
ARM GAS  /tmp/ccYJgJ88.s 			page 43


 2390 0a3f 23       		.uleb128 0x23
 2391 0a40 01       		.uleb128 0x1
 2392 0a41 52       		.byte	0x52
 2393 0a42 02       		.uleb128 0x2
 2394 0a43 78       		.byte	0x78
 2395 0a44 00       		.sleb128 0
 2396 0a45 00       		.byte	0
 2397 0a46 22       		.uleb128 0x22
 2398 0a47 64020000 		.4byte	.LVL41
 2399 0a4b E40E0000 		.4byte	0xee4
 2400 0a4f 590A0000 		.4byte	0xa59
 2401 0a53 23       		.uleb128 0x23
 2402 0a54 01       		.uleb128 0x1
 2403 0a55 50       		.byte	0x50
 2404 0a56 01       		.uleb128 0x1
 2405 0a57 3D       		.byte	0x3d
 2406 0a58 00       		.byte	0
 2407 0a59 22       		.uleb128 0x22
 2408 0a5a 7C020000 		.4byte	.LVL42
 2409 0a5e 260F0000 		.4byte	0xf26
 2410 0a62 790A0000 		.4byte	0xa79
 2411 0a66 23       		.uleb128 0x23
 2412 0a67 01       		.uleb128 0x1
 2413 0a68 50       		.byte	0x50
 2414 0a69 02       		.uleb128 0x2
 2415 0a6a 75       		.byte	0x75
 2416 0a6b 00       		.sleb128 0
 2417 0a6c 23       		.uleb128 0x23
 2418 0a6d 01       		.uleb128 0x1
 2419 0a6e 51       		.byte	0x51
 2420 0a6f 02       		.uleb128 0x2
 2421 0a70 91       		.byte	0x91
 2422 0a71 5C       		.sleb128 -36
 2423 0a72 23       		.uleb128 0x23
 2424 0a73 01       		.uleb128 0x1
 2425 0a74 52       		.byte	0x52
 2426 0a75 02       		.uleb128 0x2
 2427 0a76 78       		.byte	0x78
 2428 0a77 00       		.sleb128 0
 2429 0a78 00       		.byte	0
 2430 0a79 22       		.uleb128 0x22
 2431 0a7a 8C020000 		.4byte	.LVL44
 2432 0a7e E40E0000 		.4byte	0xee4
 2433 0a82 8C0A0000 		.4byte	0xa8c
 2434 0a86 23       		.uleb128 0x23
 2435 0a87 01       		.uleb128 0x1
 2436 0a88 50       		.byte	0x50
 2437 0a89 01       		.uleb128 0x1
 2438 0a8a 3E       		.byte	0x3e
 2439 0a8b 00       		.byte	0
 2440 0a8c 22       		.uleb128 0x22
 2441 0a8d B0020000 		.4byte	.LVL45
 2442 0a91 E40E0000 		.4byte	0xee4
 2443 0a95 9F0A0000 		.4byte	0xa9f
 2444 0a99 23       		.uleb128 0x23
 2445 0a9a 01       		.uleb128 0x1
 2446 0a9b 50       		.byte	0x50
ARM GAS  /tmp/ccYJgJ88.s 			page 44


 2447 0a9c 01       		.uleb128 0x1
 2448 0a9d 3F       		.byte	0x3f
 2449 0a9e 00       		.byte	0
 2450 0a9f 22       		.uleb128 0x22
 2451 0aa0 D4020000 		.4byte	.LVL46
 2452 0aa4 E40E0000 		.4byte	0xee4
 2453 0aa8 B20A0000 		.4byte	0xab2
 2454 0aac 23       		.uleb128 0x23
 2455 0aad 01       		.uleb128 0x1
 2456 0aae 50       		.byte	0x50
 2457 0aaf 01       		.uleb128 0x1
 2458 0ab0 40       		.byte	0x40
 2459 0ab1 00       		.byte	0
 2460 0ab2 22       		.uleb128 0x22
 2461 0ab3 EC020000 		.4byte	.LVL47
 2462 0ab7 260F0000 		.4byte	0xf26
 2463 0abb D10A0000 		.4byte	0xad1
 2464 0abf 23       		.uleb128 0x23
 2465 0ac0 01       		.uleb128 0x1
 2466 0ac1 50       		.byte	0x50
 2467 0ac2 02       		.uleb128 0x2
 2468 0ac3 75       		.byte	0x75
 2469 0ac4 00       		.sleb128 0
 2470 0ac5 23       		.uleb128 0x23
 2471 0ac6 01       		.uleb128 0x1
 2472 0ac7 51       		.byte	0x51
 2473 0ac8 02       		.uleb128 0x2
 2474 0ac9 91       		.byte	0x91
 2475 0aca 5C       		.sleb128 -36
 2476 0acb 23       		.uleb128 0x23
 2477 0acc 01       		.uleb128 0x1
 2478 0acd 52       		.byte	0x52
 2479 0ace 01       		.uleb128 0x1
 2480 0acf 31       		.byte	0x31
 2481 0ad0 00       		.byte	0
 2482 0ad1 22       		.uleb128 0x22
 2483 0ad2 00030000 		.4byte	.LVL49
 2484 0ad6 E40E0000 		.4byte	0xee4
 2485 0ada E40A0000 		.4byte	0xae4
 2486 0ade 23       		.uleb128 0x23
 2487 0adf 01       		.uleb128 0x1
 2488 0ae0 50       		.byte	0x50
 2489 0ae1 01       		.uleb128 0x1
 2490 0ae2 41       		.byte	0x41
 2491 0ae3 00       		.byte	0
 2492 0ae4 22       		.uleb128 0x22
 2493 0ae5 18030000 		.4byte	.LVL50
 2494 0ae9 3C0F0000 		.4byte	0xf3c
 2495 0aed FE0A0000 		.4byte	0xafe
 2496 0af1 23       		.uleb128 0x23
 2497 0af2 01       		.uleb128 0x1
 2498 0af3 50       		.byte	0x50
 2499 0af4 02       		.uleb128 0x2
 2500 0af5 75       		.byte	0x75
 2501 0af6 00       		.sleb128 0
 2502 0af7 23       		.uleb128 0x23
 2503 0af8 01       		.uleb128 0x1
ARM GAS  /tmp/ccYJgJ88.s 			page 45


 2504 0af9 51       		.byte	0x51
 2505 0afa 02       		.uleb128 0x2
 2506 0afb 91       		.byte	0x91
 2507 0afc 5C       		.sleb128 -36
 2508 0afd 00       		.byte	0
 2509 0afe 22       		.uleb128 0x22
 2510 0aff 34030000 		.4byte	.LVL53
 2511 0b03 E40E0000 		.4byte	0xee4
 2512 0b07 110B0000 		.4byte	0xb11
 2513 0b0b 23       		.uleb128 0x23
 2514 0b0c 01       		.uleb128 0x1
 2515 0b0d 50       		.byte	0x50
 2516 0b0e 01       		.uleb128 0x1
 2517 0b0f 42       		.byte	0x42
 2518 0b10 00       		.byte	0
 2519 0b11 22       		.uleb128 0x22
 2520 0b12 58030000 		.4byte	.LVL54
 2521 0b16 E40E0000 		.4byte	0xee4
 2522 0b1a 240B0000 		.4byte	0xb24
 2523 0b1e 23       		.uleb128 0x23
 2524 0b1f 01       		.uleb128 0x1
 2525 0b20 50       		.byte	0x50
 2526 0b21 01       		.uleb128 0x1
 2527 0b22 43       		.byte	0x43
 2528 0b23 00       		.byte	0
 2529 0b24 22       		.uleb128 0x22
 2530 0b25 7C030000 		.4byte	.LVL55
 2531 0b29 E40E0000 		.4byte	0xee4
 2532 0b2d 370B0000 		.4byte	0xb37
 2533 0b31 23       		.uleb128 0x23
 2534 0b32 01       		.uleb128 0x1
 2535 0b33 50       		.byte	0x50
 2536 0b34 01       		.uleb128 0x1
 2537 0b35 44       		.byte	0x44
 2538 0b36 00       		.byte	0
 2539 0b37 22       		.uleb128 0x22
 2540 0b38 A8030000 		.4byte	.LVL56
 2541 0b3c E40E0000 		.4byte	0xee4
 2542 0b40 4A0B0000 		.4byte	0xb4a
 2543 0b44 23       		.uleb128 0x23
 2544 0b45 01       		.uleb128 0x1
 2545 0b46 50       		.byte	0x50
 2546 0b47 01       		.uleb128 0x1
 2547 0b48 45       		.byte	0x45
 2548 0b49 00       		.byte	0
 2549 0b4a 22       		.uleb128 0x22
 2550 0b4b C4030000 		.4byte	.LVL57
 2551 0b4f 050F0000 		.4byte	0xf05
 2552 0b53 640B0000 		.4byte	0xb64
 2553 0b57 23       		.uleb128 0x23
 2554 0b58 01       		.uleb128 0x1
 2555 0b59 50       		.byte	0x50
 2556 0b5a 02       		.uleb128 0x2
 2557 0b5b 75       		.byte	0x75
 2558 0b5c 00       		.sleb128 0
 2559 0b5d 23       		.uleb128 0x23
 2560 0b5e 01       		.uleb128 0x1
ARM GAS  /tmp/ccYJgJ88.s 			page 46


 2561 0b5f 51       		.byte	0x51
 2562 0b60 02       		.uleb128 0x2
 2563 0b61 08       		.byte	0x8
 2564 0b62 41       		.byte	0x41
 2565 0b63 00       		.byte	0
 2566 0b64 22       		.uleb128 0x22
 2567 0b65 D4030000 		.4byte	.LVL59
 2568 0b69 E40E0000 		.4byte	0xee4
 2569 0b6d 770B0000 		.4byte	0xb77
 2570 0b71 23       		.uleb128 0x23
 2571 0b72 01       		.uleb128 0x1
 2572 0b73 50       		.byte	0x50
 2573 0b74 01       		.uleb128 0x1
 2574 0b75 46       		.byte	0x46
 2575 0b76 00       		.byte	0
 2576 0b77 22       		.uleb128 0x22
 2577 0b78 E8030000 		.4byte	.LVL60
 2578 0b7c 050F0000 		.4byte	0xf05
 2579 0b80 910B0000 		.4byte	0xb91
 2580 0b84 23       		.uleb128 0x23
 2581 0b85 01       		.uleb128 0x1
 2582 0b86 50       		.byte	0x50
 2583 0b87 02       		.uleb128 0x2
 2584 0b88 75       		.byte	0x75
 2585 0b89 00       		.sleb128 0
 2586 0b8a 23       		.uleb128 0x23
 2587 0b8b 01       		.uleb128 0x1
 2588 0b8c 51       		.byte	0x51
 2589 0b8d 02       		.uleb128 0x2
 2590 0b8e 08       		.byte	0x8
 2591 0b8f 42       		.byte	0x42
 2592 0b90 00       		.byte	0
 2593 0b91 22       		.uleb128 0x22
 2594 0b92 F8030000 		.4byte	.LVL62
 2595 0b96 E40E0000 		.4byte	0xee4
 2596 0b9a A40B0000 		.4byte	0xba4
 2597 0b9e 23       		.uleb128 0x23
 2598 0b9f 01       		.uleb128 0x1
 2599 0ba0 50       		.byte	0x50
 2600 0ba1 01       		.uleb128 0x1
 2601 0ba2 47       		.byte	0x47
 2602 0ba3 00       		.byte	0
 2603 0ba4 22       		.uleb128 0x22
 2604 0ba5 0C040000 		.4byte	.LVL63
 2605 0ba9 050F0000 		.4byte	0xf05
 2606 0bad BE0B0000 		.4byte	0xbbe
 2607 0bb1 23       		.uleb128 0x23
 2608 0bb2 01       		.uleb128 0x1
 2609 0bb3 50       		.byte	0x50
 2610 0bb4 02       		.uleb128 0x2
 2611 0bb5 75       		.byte	0x75
 2612 0bb6 00       		.sleb128 0
 2613 0bb7 23       		.uleb128 0x23
 2614 0bb8 01       		.uleb128 0x1
 2615 0bb9 51       		.byte	0x51
 2616 0bba 02       		.uleb128 0x2
 2617 0bbb 08       		.byte	0x8
ARM GAS  /tmp/ccYJgJ88.s 			page 47


 2618 0bbc 43       		.byte	0x43
 2619 0bbd 00       		.byte	0
 2620 0bbe 22       		.uleb128 0x22
 2621 0bbf 1C040000 		.4byte	.LVL65
 2622 0bc3 E40E0000 		.4byte	0xee4
 2623 0bc7 D10B0000 		.4byte	0xbd1
 2624 0bcb 23       		.uleb128 0x23
 2625 0bcc 01       		.uleb128 0x1
 2626 0bcd 50       		.byte	0x50
 2627 0bce 01       		.uleb128 0x1
 2628 0bcf 48       		.byte	0x48
 2629 0bd0 00       		.byte	0
 2630 0bd1 22       		.uleb128 0x22
 2631 0bd2 30040000 		.4byte	.LVL66
 2632 0bd6 050F0000 		.4byte	0xf05
 2633 0bda EB0B0000 		.4byte	0xbeb
 2634 0bde 23       		.uleb128 0x23
 2635 0bdf 01       		.uleb128 0x1
 2636 0be0 50       		.byte	0x50
 2637 0be1 02       		.uleb128 0x2
 2638 0be2 75       		.byte	0x75
 2639 0be3 00       		.sleb128 0
 2640 0be4 23       		.uleb128 0x23
 2641 0be5 01       		.uleb128 0x1
 2642 0be6 51       		.byte	0x51
 2643 0be7 02       		.uleb128 0x2
 2644 0be8 08       		.byte	0x8
 2645 0be9 44       		.byte	0x44
 2646 0bea 00       		.byte	0
 2647 0beb 22       		.uleb128 0x22
 2648 0bec 40040000 		.4byte	.LVL68
 2649 0bf0 E40E0000 		.4byte	0xee4
 2650 0bf4 FE0B0000 		.4byte	0xbfe
 2651 0bf8 23       		.uleb128 0x23
 2652 0bf9 01       		.uleb128 0x1
 2653 0bfa 50       		.byte	0x50
 2654 0bfb 01       		.uleb128 0x1
 2655 0bfc 49       		.byte	0x49
 2656 0bfd 00       		.byte	0
 2657 0bfe 22       		.uleb128 0x22
 2658 0bff 54040000 		.4byte	.LVL69
 2659 0c03 050F0000 		.4byte	0xf05
 2660 0c07 180C0000 		.4byte	0xc18
 2661 0c0b 23       		.uleb128 0x23
 2662 0c0c 01       		.uleb128 0x1
 2663 0c0d 50       		.byte	0x50
 2664 0c0e 02       		.uleb128 0x2
 2665 0c0f 75       		.byte	0x75
 2666 0c10 00       		.sleb128 0
 2667 0c11 23       		.uleb128 0x23
 2668 0c12 01       		.uleb128 0x1
 2669 0c13 51       		.byte	0x51
 2670 0c14 02       		.uleb128 0x2
 2671 0c15 08       		.byte	0x8
 2672 0c16 45       		.byte	0x45
 2673 0c17 00       		.byte	0
 2674 0c18 22       		.uleb128 0x22
ARM GAS  /tmp/ccYJgJ88.s 			page 48


 2675 0c19 68040000 		.4byte	.LVL71
 2676 0c1d E40E0000 		.4byte	0xee4
 2677 0c21 2B0C0000 		.4byte	0xc2b
 2678 0c25 23       		.uleb128 0x23
 2679 0c26 01       		.uleb128 0x1
 2680 0c27 50       		.byte	0x50
 2681 0c28 01       		.uleb128 0x1
 2682 0c29 4A       		.byte	0x4a
 2683 0c2a 00       		.byte	0
 2684 0c2b 22       		.uleb128 0x22
 2685 0c2c 8C040000 		.4byte	.LVL72
 2686 0c30 E40E0000 		.4byte	0xee4
 2687 0c34 3E0C0000 		.4byte	0xc3e
 2688 0c38 23       		.uleb128 0x23
 2689 0c39 01       		.uleb128 0x1
 2690 0c3a 50       		.byte	0x50
 2691 0c3b 01       		.uleb128 0x1
 2692 0c3c 4B       		.byte	0x4b
 2693 0c3d 00       		.byte	0
 2694 0c3e 22       		.uleb128 0x22
 2695 0c3f B0040000 		.4byte	.LVL75
 2696 0c43 3C0F0000 		.4byte	0xf3c
 2697 0c47 580C0000 		.4byte	0xc58
 2698 0c4b 23       		.uleb128 0x23
 2699 0c4c 01       		.uleb128 0x1
 2700 0c4d 50       		.byte	0x50
 2701 0c4e 02       		.uleb128 0x2
 2702 0c4f 75       		.byte	0x75
 2703 0c50 00       		.sleb128 0
 2704 0c51 23       		.uleb128 0x23
 2705 0c52 01       		.uleb128 0x1
 2706 0c53 51       		.byte	0x51
 2707 0c54 02       		.uleb128 0x2
 2708 0c55 91       		.byte	0x91
 2709 0c56 5C       		.sleb128 -36
 2710 0c57 00       		.byte	0
 2711 0c58 22       		.uleb128 0x22
 2712 0c59 C4040000 		.4byte	.LVL77
 2713 0c5d E40E0000 		.4byte	0xee4
 2714 0c61 6C0C0000 		.4byte	0xc6c
 2715 0c65 23       		.uleb128 0x23
 2716 0c66 01       		.uleb128 0x1
 2717 0c67 50       		.byte	0x50
 2718 0c68 02       		.uleb128 0x2
 2719 0c69 77       		.byte	0x77
 2720 0c6a 00       		.sleb128 0
 2721 0c6b 00       		.byte	0
 2722 0c6c 24       		.uleb128 0x24
 2723 0c6d D4040000 		.4byte	.LVL78
 2724 0c71 1B0F0000 		.4byte	0xf1b
 2725 0c75 22       		.uleb128 0x22
 2726 0c76 E8040000 		.4byte	.LVL80
 2727 0c7a 310F0000 		.4byte	0xf31
 2728 0c7e 910C0000 		.4byte	0xc91
 2729 0c82 23       		.uleb128 0x23
 2730 0c83 01       		.uleb128 0x1
 2731 0c84 50       		.byte	0x50
ARM GAS  /tmp/ccYJgJ88.s 			page 49


 2732 0c85 01       		.uleb128 0x1
 2733 0c86 4D       		.byte	0x4d
 2734 0c87 23       		.uleb128 0x23
 2735 0c88 01       		.uleb128 0x1
 2736 0c89 51       		.byte	0x51
 2737 0c8a 05       		.uleb128 0x5
 2738 0c8b 03       		.byte	0x3
 2739 0c8c 00000000 		.4byte	.LC0
 2740 0c90 00       		.byte	0
 2741 0c91 22       		.uleb128 0x22
 2742 0c92 0C050000 		.4byte	.LVL81
 2743 0c96 E40E0000 		.4byte	0xee4
 2744 0c9a A40C0000 		.4byte	0xca4
 2745 0c9e 23       		.uleb128 0x23
 2746 0c9f 01       		.uleb128 0x1
 2747 0ca0 50       		.byte	0x50
 2748 0ca1 01       		.uleb128 0x1
 2749 0ca2 4E       		.byte	0x4e
 2750 0ca3 00       		.byte	0
 2751 0ca4 22       		.uleb128 0x22
 2752 0ca5 30050000 		.4byte	.LVL82
 2753 0ca9 E40E0000 		.4byte	0xee4
 2754 0cad B70C0000 		.4byte	0xcb7
 2755 0cb1 23       		.uleb128 0x23
 2756 0cb2 01       		.uleb128 0x1
 2757 0cb3 50       		.byte	0x50
 2758 0cb4 01       		.uleb128 0x1
 2759 0cb5 4F       		.byte	0x4f
 2760 0cb6 00       		.byte	0
 2761 0cb7 22       		.uleb128 0x22
 2762 0cb8 58050000 		.4byte	.LVL83
 2763 0cbc E40E0000 		.4byte	0xee4
 2764 0cc0 CB0C0000 		.4byte	0xccb
 2765 0cc4 23       		.uleb128 0x23
 2766 0cc5 01       		.uleb128 0x1
 2767 0cc6 50       		.byte	0x50
 2768 0cc7 02       		.uleb128 0x2
 2769 0cc8 08       		.byte	0x8
 2770 0cc9 20       		.byte	0x20
 2771 0cca 00       		.byte	0
 2772 0ccb 22       		.uleb128 0x22
 2773 0ccc 70050000 		.4byte	.LVL84
 2774 0cd0 100F0000 		.4byte	0xf10
 2775 0cd4 E50C0000 		.4byte	0xce5
 2776 0cd8 23       		.uleb128 0x23
 2777 0cd9 01       		.uleb128 0x1
 2778 0cda 50       		.byte	0x50
 2779 0cdb 02       		.uleb128 0x2
 2780 0cdc 75       		.byte	0x75
 2781 0cdd 00       		.sleb128 0
 2782 0cde 23       		.uleb128 0x23
 2783 0cdf 01       		.uleb128 0x1
 2784 0ce0 51       		.byte	0x51
 2785 0ce1 02       		.uleb128 0x2
 2786 0ce2 08       		.byte	0x8
 2787 0ce3 45       		.byte	0x45
 2788 0ce4 00       		.byte	0
ARM GAS  /tmp/ccYJgJ88.s 			page 50


 2789 0ce5 22       		.uleb128 0x22
 2790 0ce6 80050000 		.4byte	.LVL86
 2791 0cea E40E0000 		.4byte	0xee4
 2792 0cee F90C0000 		.4byte	0xcf9
 2793 0cf2 23       		.uleb128 0x23
 2794 0cf3 01       		.uleb128 0x1
 2795 0cf4 50       		.byte	0x50
 2796 0cf5 02       		.uleb128 0x2
 2797 0cf6 08       		.byte	0x8
 2798 0cf7 21       		.byte	0x21
 2799 0cf8 00       		.byte	0
 2800 0cf9 22       		.uleb128 0x22
 2801 0cfa 94050000 		.4byte	.LVL87
 2802 0cfe 100F0000 		.4byte	0xf10
 2803 0d02 130D0000 		.4byte	0xd13
 2804 0d06 23       		.uleb128 0x23
 2805 0d07 01       		.uleb128 0x1
 2806 0d08 50       		.byte	0x50
 2807 0d09 02       		.uleb128 0x2
 2808 0d0a 75       		.byte	0x75
 2809 0d0b 00       		.sleb128 0
 2810 0d0c 23       		.uleb128 0x23
 2811 0d0d 01       		.uleb128 0x1
 2812 0d0e 51       		.byte	0x51
 2813 0d0f 02       		.uleb128 0x2
 2814 0d10 08       		.byte	0x8
 2815 0d11 44       		.byte	0x44
 2816 0d12 00       		.byte	0
 2817 0d13 22       		.uleb128 0x22
 2818 0d14 A4050000 		.4byte	.LVL89
 2819 0d18 E40E0000 		.4byte	0xee4
 2820 0d1c 270D0000 		.4byte	0xd27
 2821 0d20 23       		.uleb128 0x23
 2822 0d21 01       		.uleb128 0x1
 2823 0d22 50       		.byte	0x50
 2824 0d23 02       		.uleb128 0x2
 2825 0d24 08       		.byte	0x8
 2826 0d25 22       		.byte	0x22
 2827 0d26 00       		.byte	0
 2828 0d27 22       		.uleb128 0x22
 2829 0d28 B8050000 		.4byte	.LVL90
 2830 0d2c 100F0000 		.4byte	0xf10
 2831 0d30 410D0000 		.4byte	0xd41
 2832 0d34 23       		.uleb128 0x23
 2833 0d35 01       		.uleb128 0x1
 2834 0d36 50       		.byte	0x50
 2835 0d37 02       		.uleb128 0x2
 2836 0d38 75       		.byte	0x75
 2837 0d39 00       		.sleb128 0
 2838 0d3a 23       		.uleb128 0x23
 2839 0d3b 01       		.uleb128 0x1
 2840 0d3c 51       		.byte	0x51
 2841 0d3d 02       		.uleb128 0x2
 2842 0d3e 08       		.byte	0x8
 2843 0d3f 43       		.byte	0x43
 2844 0d40 00       		.byte	0
 2845 0d41 22       		.uleb128 0x22
ARM GAS  /tmp/ccYJgJ88.s 			page 51


 2846 0d42 C8050000 		.4byte	.LVL92
 2847 0d46 E40E0000 		.4byte	0xee4
 2848 0d4a 550D0000 		.4byte	0xd55
 2849 0d4e 23       		.uleb128 0x23
 2850 0d4f 01       		.uleb128 0x1
 2851 0d50 50       		.byte	0x50
 2852 0d51 02       		.uleb128 0x2
 2853 0d52 08       		.byte	0x8
 2854 0d53 23       		.byte	0x23
 2855 0d54 00       		.byte	0
 2856 0d55 22       		.uleb128 0x22
 2857 0d56 DC050000 		.4byte	.LVL93
 2858 0d5a 100F0000 		.4byte	0xf10
 2859 0d5e 6F0D0000 		.4byte	0xd6f
 2860 0d62 23       		.uleb128 0x23
 2861 0d63 01       		.uleb128 0x1
 2862 0d64 50       		.byte	0x50
 2863 0d65 02       		.uleb128 0x2
 2864 0d66 75       		.byte	0x75
 2865 0d67 00       		.sleb128 0
 2866 0d68 23       		.uleb128 0x23
 2867 0d69 01       		.uleb128 0x1
 2868 0d6a 51       		.byte	0x51
 2869 0d6b 02       		.uleb128 0x2
 2870 0d6c 08       		.byte	0x8
 2871 0d6d 42       		.byte	0x42
 2872 0d6e 00       		.byte	0
 2873 0d6f 22       		.uleb128 0x22
 2874 0d70 EC050000 		.4byte	.LVL95
 2875 0d74 E40E0000 		.4byte	0xee4
 2876 0d78 830D0000 		.4byte	0xd83
 2877 0d7c 23       		.uleb128 0x23
 2878 0d7d 01       		.uleb128 0x1
 2879 0d7e 50       		.byte	0x50
 2880 0d7f 02       		.uleb128 0x2
 2881 0d80 08       		.byte	0x8
 2882 0d81 24       		.byte	0x24
 2883 0d82 00       		.byte	0
 2884 0d83 22       		.uleb128 0x22
 2885 0d84 00060000 		.4byte	.LVL96
 2886 0d88 100F0000 		.4byte	0xf10
 2887 0d8c 9D0D0000 		.4byte	0xd9d
 2888 0d90 23       		.uleb128 0x23
 2889 0d91 01       		.uleb128 0x1
 2890 0d92 50       		.byte	0x50
 2891 0d93 02       		.uleb128 0x2
 2892 0d94 75       		.byte	0x75
 2893 0d95 00       		.sleb128 0
 2894 0d96 23       		.uleb128 0x23
 2895 0d97 01       		.uleb128 0x1
 2896 0d98 51       		.byte	0x51
 2897 0d99 02       		.uleb128 0x2
 2898 0d9a 08       		.byte	0x8
 2899 0d9b 41       		.byte	0x41
 2900 0d9c 00       		.byte	0
 2901 0d9d 22       		.uleb128 0x22
 2902 0d9e 14060000 		.4byte	.LVL98
ARM GAS  /tmp/ccYJgJ88.s 			page 52


 2903 0da2 E40E0000 		.4byte	0xee4
 2904 0da6 B10D0000 		.4byte	0xdb1
 2905 0daa 23       		.uleb128 0x23
 2906 0dab 01       		.uleb128 0x1
 2907 0dac 50       		.byte	0x50
 2908 0dad 02       		.uleb128 0x2
 2909 0dae 08       		.byte	0x8
 2910 0daf 25       		.byte	0x25
 2911 0db0 00       		.byte	0
 2912 0db1 22       		.uleb128 0x22
 2913 0db2 38060000 		.4byte	.LVL99
 2914 0db6 E40E0000 		.4byte	0xee4
 2915 0dba C50D0000 		.4byte	0xdc5
 2916 0dbe 23       		.uleb128 0x23
 2917 0dbf 01       		.uleb128 0x1
 2918 0dc0 50       		.byte	0x50
 2919 0dc1 02       		.uleb128 0x2
 2920 0dc2 08       		.byte	0x8
 2921 0dc3 26       		.byte	0x26
 2922 0dc4 00       		.byte	0
 2923 0dc5 22       		.uleb128 0x22
 2924 0dc6 5C060000 		.4byte	.LVL102
 2925 0dca 3C0F0000 		.4byte	0xf3c
 2926 0dce DF0D0000 		.4byte	0xddf
 2927 0dd2 23       		.uleb128 0x23
 2928 0dd3 01       		.uleb128 0x1
 2929 0dd4 50       		.byte	0x50
 2930 0dd5 02       		.uleb128 0x2
 2931 0dd6 75       		.byte	0x75
 2932 0dd7 00       		.sleb128 0
 2933 0dd8 23       		.uleb128 0x23
 2934 0dd9 01       		.uleb128 0x1
 2935 0dda 51       		.byte	0x51
 2936 0ddb 02       		.uleb128 0x2
 2937 0ddc 91       		.byte	0x91
 2938 0ddd 5C       		.sleb128 -36
 2939 0dde 00       		.byte	0
 2940 0ddf 22       		.uleb128 0x22
 2941 0de0 70060000 		.4byte	.LVL104
 2942 0de4 E40E0000 		.4byte	0xee4
 2943 0de8 F30D0000 		.4byte	0xdf3
 2944 0dec 23       		.uleb128 0x23
 2945 0ded 01       		.uleb128 0x1
 2946 0dee 50       		.byte	0x50
 2947 0def 02       		.uleb128 0x2
 2948 0df0 77       		.byte	0x77
 2949 0df1 00       		.sleb128 0
 2950 0df2 00       		.byte	0
 2951 0df3 24       		.uleb128 0x24
 2952 0df4 80060000 		.4byte	.LVL105
 2953 0df8 1B0F0000 		.4byte	0xf1b
 2954 0dfc 22       		.uleb128 0x22
 2955 0dfd 94060000 		.4byte	.LVL107
 2956 0e01 310F0000 		.4byte	0xf31
 2957 0e05 190E0000 		.4byte	0xe19
 2958 0e09 23       		.uleb128 0x23
 2959 0e0a 01       		.uleb128 0x1
ARM GAS  /tmp/ccYJgJ88.s 			page 53


 2960 0e0b 50       		.byte	0x50
 2961 0e0c 02       		.uleb128 0x2
 2962 0e0d 08       		.byte	0x8
 2963 0e0e 28       		.byte	0x28
 2964 0e0f 23       		.uleb128 0x23
 2965 0e10 01       		.uleb128 0x1
 2966 0e11 51       		.byte	0x51
 2967 0e12 05       		.uleb128 0x5
 2968 0e13 03       		.byte	0x3
 2969 0e14 00000000 		.4byte	.LC0
 2970 0e18 00       		.byte	0
 2971 0e19 22       		.uleb128 0x22
 2972 0e1a B8060000 		.4byte	.LVL108
 2973 0e1e E40E0000 		.4byte	0xee4
 2974 0e22 2D0E0000 		.4byte	0xe2d
 2975 0e26 23       		.uleb128 0x23
 2976 0e27 01       		.uleb128 0x1
 2977 0e28 50       		.byte	0x50
 2978 0e29 02       		.uleb128 0x2
 2979 0e2a 08       		.byte	0x8
 2980 0e2b 29       		.byte	0x29
 2981 0e2c 00       		.byte	0
 2982 0e2d 22       		.uleb128 0x22
 2983 0e2e DC060000 		.4byte	.LVL109
 2984 0e32 E40E0000 		.4byte	0xee4
 2985 0e36 410E0000 		.4byte	0xe41
 2986 0e3a 23       		.uleb128 0x23
 2987 0e3b 01       		.uleb128 0x1
 2988 0e3c 50       		.byte	0x50
 2989 0e3d 02       		.uleb128 0x2
 2990 0e3e 08       		.byte	0x8
 2991 0e3f 2A       		.byte	0x2a
 2992 0e40 00       		.byte	0
 2993 0e41 22       		.uleb128 0x22
 2994 0e42 04070000 		.4byte	.LVL110
 2995 0e46 E40E0000 		.4byte	0xee4
 2996 0e4a 550E0000 		.4byte	0xe55
 2997 0e4e 23       		.uleb128 0x23
 2998 0e4f 01       		.uleb128 0x1
 2999 0e50 50       		.byte	0x50
 3000 0e51 02       		.uleb128 0x2
 3001 0e52 08       		.byte	0x8
 3002 0e53 2B       		.byte	0x2b
 3003 0e54 00       		.byte	0
 3004 0e55 22       		.uleb128 0x22
 3005 0e56 14070000 		.4byte	.LVL111
 3006 0e5a 470F0000 		.4byte	0xf47
 3007 0e5e 690E0000 		.4byte	0xe69
 3008 0e62 23       		.uleb128 0x23
 3009 0e63 01       		.uleb128 0x1
 3010 0e64 50       		.byte	0x50
 3011 0e65 02       		.uleb128 0x2
 3012 0e66 75       		.byte	0x75
 3013 0e67 00       		.sleb128 0
 3014 0e68 00       		.byte	0
 3015 0e69 22       		.uleb128 0x22
 3016 0e6a 30070000 		.4byte	.LVL112
ARM GAS  /tmp/ccYJgJ88.s 			page 54


 3017 0e6e E40E0000 		.4byte	0xee4
 3018 0e72 7D0E0000 		.4byte	0xe7d
 3019 0e76 23       		.uleb128 0x23
 3020 0e77 01       		.uleb128 0x1
 3021 0e78 50       		.byte	0x50
 3022 0e79 02       		.uleb128 0x2
 3023 0e7a 08       		.byte	0x8
 3024 0e7b 2C       		.byte	0x2c
 3025 0e7c 00       		.byte	0
 3026 0e7d 22       		.uleb128 0x22
 3027 0e7e 54070000 		.4byte	.LVL113
 3028 0e82 E40E0000 		.4byte	0xee4
 3029 0e86 910E0000 		.4byte	0xe91
 3030 0e8a 23       		.uleb128 0x23
 3031 0e8b 01       		.uleb128 0x1
 3032 0e8c 50       		.byte	0x50
 3033 0e8d 02       		.uleb128 0x2
 3034 0e8e 08       		.byte	0x8
 3035 0e8f 2D       		.byte	0x2d
 3036 0e90 00       		.byte	0
 3037 0e91 22       		.uleb128 0x22
 3038 0e92 80070000 		.4byte	.LVL114
 3039 0e96 E40E0000 		.4byte	0xee4
 3040 0e9a A50E0000 		.4byte	0xea5
 3041 0e9e 23       		.uleb128 0x23
 3042 0e9f 01       		.uleb128 0x1
 3043 0ea0 50       		.byte	0x50
 3044 0ea1 02       		.uleb128 0x2
 3045 0ea2 08       		.byte	0x8
 3046 0ea3 2E       		.byte	0x2e
 3047 0ea4 00       		.byte	0
 3048 0ea5 25       		.uleb128 0x25
 3049 0ea6 AC070000 		.4byte	.LVL115
 3050 0eaa E40E0000 		.4byte	0xee4
 3051 0eae 23       		.uleb128 0x23
 3052 0eaf 01       		.uleb128 0x1
 3053 0eb0 50       		.byte	0x50
 3054 0eb1 02       		.uleb128 0x2
 3055 0eb2 08       		.byte	0x8
 3056 0eb3 2F       		.byte	0x2f
 3057 0eb4 00       		.byte	0
 3058 0eb5 00       		.byte	0
 3059 0eb6 1E       		.uleb128 0x1e
 3060 0eb7 90020000 		.4byte	.LASF125
 3061 0ebb 01       		.byte	0x1
 3062 0ebc 4B       		.byte	0x4b
 3063 0ebd 00000000 		.4byte	.LFB7
 3064 0ec1 18000000 		.4byte	.LFE7-.LFB7
 3065 0ec5 01       		.uleb128 0x1
 3066 0ec6 9C       		.byte	0x9c
 3067 0ec7 E40E0000 		.4byte	0xee4
 3068 0ecb 26       		.uleb128 0x26
 3069 0ecc 10000000 		.4byte	.LVL116
 3070 0ed0 520F0000 		.4byte	0xf52
 3071 0ed4 23       		.uleb128 0x23
 3072 0ed5 01       		.uleb128 0x1
 3073 0ed6 50       		.byte	0x50
ARM GAS  /tmp/ccYJgJ88.s 			page 55


 3074 0ed7 05       		.uleb128 0x5
 3075 0ed8 03       		.byte	0x3
 3076 0ed9 00000000 		.4byte	.LANCHOR0
 3077 0edd 23       		.uleb128 0x23
 3078 0ede 01       		.uleb128 0x1
 3079 0edf 52       		.byte	0x52
 3080 0ee0 01       		.uleb128 0x1
 3081 0ee1 35       		.byte	0x35
 3082 0ee2 00       		.byte	0
 3083 0ee3 00       		.byte	0
 3084 0ee4 27       		.uleb128 0x27
 3085 0ee5 DD050000 		.4byte	.LASF126
 3086 0ee9 DD050000 		.4byte	.LASF126
 3087 0eed 0F       		.byte	0xf
 3088 0eee 5C       		.byte	0x5c
 3089 0eef 27       		.uleb128 0x27
 3090 0ef0 5D010000 		.4byte	.LASF127
 3091 0ef4 5D010000 		.4byte	.LASF127
 3092 0ef8 0C       		.byte	0xc
 3093 0ef9 3E       		.byte	0x3e
 3094 0efa 27       		.uleb128 0x27
 3095 0efb 5F050000 		.4byte	.LASF128
 3096 0eff 5F050000 		.4byte	.LASF128
 3097 0f03 0C       		.byte	0xc
 3098 0f04 41       		.byte	0x41
 3099 0f05 27       		.uleb128 0x27
 3100 0f06 2D000000 		.4byte	.LASF129
 3101 0f0a 2D000000 		.4byte	.LASF129
 3102 0f0e 0C       		.byte	0xc
 3103 0f0f 40       		.byte	0x40
 3104 0f10 27       		.uleb128 0x27
 3105 0f11 46000000 		.4byte	.LASF130
 3106 0f15 46000000 		.4byte	.LASF130
 3107 0f19 0C       		.byte	0xc
 3108 0f1a 43       		.byte	0x43
 3109 0f1b 27       		.uleb128 0x27
 3110 0f1c 43010000 		.4byte	.LASF131
 3111 0f20 43010000 		.4byte	.LASF131
 3112 0f24 0F       		.byte	0xf
 3113 0f25 5A       		.byte	0x5a
 3114 0f26 27       		.uleb128 0x27
 3115 0f27 7F050000 		.4byte	.LASF132
 3116 0f2b 7F050000 		.4byte	.LASF132
 3117 0f2f 0C       		.byte	0xc
 3118 0f30 44       		.byte	0x44
 3119 0f31 27       		.uleb128 0x27
 3120 0f32 47030000 		.4byte	.LASF133
 3121 0f36 47030000 		.4byte	.LASF133
 3122 0f3a 0F       		.byte	0xf
 3123 0f3b 5D       		.byte	0x5d
 3124 0f3c 27       		.uleb128 0x27
 3125 0f3d 67020000 		.4byte	.LASF134
 3126 0f41 67020000 		.4byte	.LASF134
 3127 0f45 0C       		.byte	0xc
 3128 0f46 46       		.byte	0x46
 3129 0f47 27       		.uleb128 0x27
 3130 0f48 08030000 		.4byte	.LASF135
ARM GAS  /tmp/ccYJgJ88.s 			page 56


 3131 0f4c 08030000 		.4byte	.LASF135
 3132 0f50 0C       		.byte	0xc
 3133 0f51 3D       		.byte	0x3d
 3134 0f52 27       		.uleb128 0x27
 3135 0f53 C9000000 		.4byte	.LASF136
 3136 0f57 C9000000 		.4byte	.LASF136
 3137 0f5b 0C       		.byte	0xc
 3138 0f5c 3C       		.byte	0x3c
 3139 0f5d 00       		.byte	0
 3140              		.section	.debug_abbrev,"",%progbits
 3141              	.Ldebug_abbrev0:
 3142 0000 01       		.uleb128 0x1
 3143 0001 11       		.uleb128 0x11
 3144 0002 01       		.byte	0x1
 3145 0003 25       		.uleb128 0x25
 3146 0004 0E       		.uleb128 0xe
 3147 0005 13       		.uleb128 0x13
 3148 0006 0B       		.uleb128 0xb
 3149 0007 03       		.uleb128 0x3
 3150 0008 0E       		.uleb128 0xe
 3151 0009 1B       		.uleb128 0x1b
 3152 000a 0E       		.uleb128 0xe
 3153 000b 55       		.uleb128 0x55
 3154 000c 17       		.uleb128 0x17
 3155 000d 11       		.uleb128 0x11
 3156 000e 01       		.uleb128 0x1
 3157 000f 10       		.uleb128 0x10
 3158 0010 17       		.uleb128 0x17
 3159 0011 00       		.byte	0
 3160 0012 00       		.byte	0
 3161 0013 02       		.uleb128 0x2
 3162 0014 24       		.uleb128 0x24
 3163 0015 00       		.byte	0
 3164 0016 0B       		.uleb128 0xb
 3165 0017 0B       		.uleb128 0xb
 3166 0018 3E       		.uleb128 0x3e
 3167 0019 0B       		.uleb128 0xb
 3168 001a 03       		.uleb128 0x3
 3169 001b 08       		.uleb128 0x8
 3170 001c 00       		.byte	0
 3171 001d 00       		.byte	0
 3172 001e 03       		.uleb128 0x3
 3173 001f 24       		.uleb128 0x24
 3174 0020 00       		.byte	0
 3175 0021 0B       		.uleb128 0xb
 3176 0022 0B       		.uleb128 0xb
 3177 0023 3E       		.uleb128 0x3e
 3178 0024 0B       		.uleb128 0xb
 3179 0025 03       		.uleb128 0x3
 3180 0026 0E       		.uleb128 0xe
 3181 0027 00       		.byte	0
 3182 0028 00       		.byte	0
 3183 0029 04       		.uleb128 0x4
 3184 002a 16       		.uleb128 0x16
 3185 002b 00       		.byte	0
 3186 002c 03       		.uleb128 0x3
 3187 002d 0E       		.uleb128 0xe
ARM GAS  /tmp/ccYJgJ88.s 			page 57


 3188 002e 3A       		.uleb128 0x3a
 3189 002f 0B       		.uleb128 0xb
 3190 0030 3B       		.uleb128 0x3b
 3191 0031 0B       		.uleb128 0xb
 3192 0032 49       		.uleb128 0x49
 3193 0033 13       		.uleb128 0x13
 3194 0034 00       		.byte	0
 3195 0035 00       		.byte	0
 3196 0036 05       		.uleb128 0x5
 3197 0037 35       		.uleb128 0x35
 3198 0038 00       		.byte	0
 3199 0039 49       		.uleb128 0x49
 3200 003a 13       		.uleb128 0x13
 3201 003b 00       		.byte	0
 3202 003c 00       		.byte	0
 3203 003d 06       		.uleb128 0x6
 3204 003e 13       		.uleb128 0x13
 3205 003f 01       		.byte	0x1
 3206 0040 03       		.uleb128 0x3
 3207 0041 0E       		.uleb128 0xe
 3208 0042 0B       		.uleb128 0xb
 3209 0043 0B       		.uleb128 0xb
 3210 0044 3A       		.uleb128 0x3a
 3211 0045 0B       		.uleb128 0xb
 3212 0046 3B       		.uleb128 0x3b
 3213 0047 0B       		.uleb128 0xb
 3214 0048 01       		.uleb128 0x1
 3215 0049 13       		.uleb128 0x13
 3216 004a 00       		.byte	0
 3217 004b 00       		.byte	0
 3218 004c 07       		.uleb128 0x7
 3219 004d 0D       		.uleb128 0xd
 3220 004e 00       		.byte	0
 3221 004f 03       		.uleb128 0x3
 3222 0050 0E       		.uleb128 0xe
 3223 0051 3A       		.uleb128 0x3a
 3224 0052 0B       		.uleb128 0xb
 3225 0053 3B       		.uleb128 0x3b
 3226 0054 0B       		.uleb128 0xb
 3227 0055 49       		.uleb128 0x49
 3228 0056 13       		.uleb128 0x13
 3229 0057 38       		.uleb128 0x38
 3230 0058 0B       		.uleb128 0xb
 3231 0059 00       		.byte	0
 3232 005a 00       		.byte	0
 3233 005b 08       		.uleb128 0x8
 3234 005c 0D       		.uleb128 0xd
 3235 005d 00       		.byte	0
 3236 005e 03       		.uleb128 0x3
 3237 005f 08       		.uleb128 0x8
 3238 0060 3A       		.uleb128 0x3a
 3239 0061 0B       		.uleb128 0xb
 3240 0062 3B       		.uleb128 0x3b
 3241 0063 0B       		.uleb128 0xb
 3242 0064 49       		.uleb128 0x49
 3243 0065 13       		.uleb128 0x13
 3244 0066 38       		.uleb128 0x38
ARM GAS  /tmp/ccYJgJ88.s 			page 58


 3245 0067 0B       		.uleb128 0xb
 3246 0068 00       		.byte	0
 3247 0069 00       		.byte	0
 3248 006a 09       		.uleb128 0x9
 3249 006b 13       		.uleb128 0x13
 3250 006c 01       		.byte	0x1
 3251 006d 0B       		.uleb128 0xb
 3252 006e 0B       		.uleb128 0xb
 3253 006f 3A       		.uleb128 0x3a
 3254 0070 0B       		.uleb128 0xb
 3255 0071 3B       		.uleb128 0x3b
 3256 0072 0B       		.uleb128 0xb
 3257 0073 01       		.uleb128 0x1
 3258 0074 13       		.uleb128 0x13
 3259 0075 00       		.byte	0
 3260 0076 00       		.byte	0
 3261 0077 0A       		.uleb128 0xa
 3262 0078 0F       		.uleb128 0xf
 3263 0079 00       		.byte	0
 3264 007a 0B       		.uleb128 0xb
 3265 007b 0B       		.uleb128 0xb
 3266 007c 49       		.uleb128 0x49
 3267 007d 13       		.uleb128 0x13
 3268 007e 00       		.byte	0
 3269 007f 00       		.byte	0
 3270 0080 0B       		.uleb128 0xb
 3271 0081 0F       		.uleb128 0xf
 3272 0082 00       		.byte	0
 3273 0083 0B       		.uleb128 0xb
 3274 0084 0B       		.uleb128 0xb
 3275 0085 00       		.byte	0
 3276 0086 00       		.byte	0
 3277 0087 0C       		.uleb128 0xc
 3278 0088 26       		.uleb128 0x26
 3279 0089 00       		.byte	0
 3280 008a 49       		.uleb128 0x49
 3281 008b 13       		.uleb128 0x13
 3282 008c 00       		.byte	0
 3283 008d 00       		.byte	0
 3284 008e 0D       		.uleb128 0xd
 3285 008f 15       		.uleb128 0x15
 3286 0090 01       		.byte	0x1
 3287 0091 27       		.uleb128 0x27
 3288 0092 19       		.uleb128 0x19
 3289 0093 01       		.uleb128 0x1
 3290 0094 13       		.uleb128 0x13
 3291 0095 00       		.byte	0
 3292 0096 00       		.byte	0
 3293 0097 0E       		.uleb128 0xe
 3294 0098 05       		.uleb128 0x5
 3295 0099 00       		.byte	0
 3296 009a 49       		.uleb128 0x49
 3297 009b 13       		.uleb128 0x13
 3298 009c 00       		.byte	0
 3299 009d 00       		.byte	0
 3300 009e 0F       		.uleb128 0xf
 3301 009f 34       		.uleb128 0x34
ARM GAS  /tmp/ccYJgJ88.s 			page 59


 3302 00a0 00       		.byte	0
 3303 00a1 03       		.uleb128 0x3
 3304 00a2 0E       		.uleb128 0xe
 3305 00a3 3A       		.uleb128 0x3a
 3306 00a4 0B       		.uleb128 0xb
 3307 00a5 3B       		.uleb128 0x3b
 3308 00a6 0B       		.uleb128 0xb
 3309 00a7 49       		.uleb128 0x49
 3310 00a8 13       		.uleb128 0x13
 3311 00a9 3F       		.uleb128 0x3f
 3312 00aa 19       		.uleb128 0x19
 3313 00ab 3C       		.uleb128 0x3c
 3314 00ac 19       		.uleb128 0x19
 3315 00ad 00       		.byte	0
 3316 00ae 00       		.byte	0
 3317 00af 10       		.uleb128 0x10
 3318 00b0 17       		.uleb128 0x17
 3319 00b1 01       		.byte	0x1
 3320 00b2 0B       		.uleb128 0xb
 3321 00b3 0B       		.uleb128 0xb
 3322 00b4 3A       		.uleb128 0x3a
 3323 00b5 0B       		.uleb128 0xb
 3324 00b6 3B       		.uleb128 0x3b
 3325 00b7 0B       		.uleb128 0xb
 3326 00b8 01       		.uleb128 0x1
 3327 00b9 13       		.uleb128 0x13
 3328 00ba 00       		.byte	0
 3329 00bb 00       		.byte	0
 3330 00bc 11       		.uleb128 0x11
 3331 00bd 0D       		.uleb128 0xd
 3332 00be 00       		.byte	0
 3333 00bf 03       		.uleb128 0x3
 3334 00c0 0E       		.uleb128 0xe
 3335 00c1 3A       		.uleb128 0x3a
 3336 00c2 0B       		.uleb128 0xb
 3337 00c3 3B       		.uleb128 0x3b
 3338 00c4 0B       		.uleb128 0xb
 3339 00c5 49       		.uleb128 0x49
 3340 00c6 13       		.uleb128 0x13
 3341 00c7 00       		.byte	0
 3342 00c8 00       		.byte	0
 3343 00c9 12       		.uleb128 0x12
 3344 00ca 01       		.uleb128 0x1
 3345 00cb 01       		.byte	0x1
 3346 00cc 49       		.uleb128 0x49
 3347 00cd 13       		.uleb128 0x13
 3348 00ce 01       		.uleb128 0x1
 3349 00cf 13       		.uleb128 0x13
 3350 00d0 00       		.byte	0
 3351 00d1 00       		.byte	0
 3352 00d2 13       		.uleb128 0x13
 3353 00d3 21       		.uleb128 0x21
 3354 00d4 00       		.byte	0
 3355 00d5 49       		.uleb128 0x49
 3356 00d6 13       		.uleb128 0x13
 3357 00d7 2F       		.uleb128 0x2f
 3358 00d8 0B       		.uleb128 0xb
ARM GAS  /tmp/ccYJgJ88.s 			page 60


 3359 00d9 00       		.byte	0
 3360 00da 00       		.byte	0
 3361 00db 14       		.uleb128 0x14
 3362 00dc 15       		.uleb128 0x15
 3363 00dd 00       		.byte	0
 3364 00de 27       		.uleb128 0x27
 3365 00df 19       		.uleb128 0x19
 3366 00e0 00       		.byte	0
 3367 00e1 00       		.byte	0
 3368 00e2 15       		.uleb128 0x15
 3369 00e3 13       		.uleb128 0x13
 3370 00e4 01       		.byte	0x1
 3371 00e5 0B       		.uleb128 0xb
 3372 00e6 05       		.uleb128 0x5
 3373 00e7 3A       		.uleb128 0x3a
 3374 00e8 0B       		.uleb128 0xb
 3375 00e9 3B       		.uleb128 0x3b
 3376 00ea 0B       		.uleb128 0xb
 3377 00eb 01       		.uleb128 0x1
 3378 00ec 13       		.uleb128 0x13
 3379 00ed 00       		.byte	0
 3380 00ee 00       		.byte	0
 3381 00ef 16       		.uleb128 0x16
 3382 00f0 0D       		.uleb128 0xd
 3383 00f1 00       		.byte	0
 3384 00f2 03       		.uleb128 0x3
 3385 00f3 08       		.uleb128 0x8
 3386 00f4 3A       		.uleb128 0x3a
 3387 00f5 0B       		.uleb128 0xb
 3388 00f6 3B       		.uleb128 0x3b
 3389 00f7 0B       		.uleb128 0xb
 3390 00f8 49       		.uleb128 0x49
 3391 00f9 13       		.uleb128 0x13
 3392 00fa 38       		.uleb128 0x38
 3393 00fb 05       		.uleb128 0x5
 3394 00fc 00       		.byte	0
 3395 00fd 00       		.byte	0
 3396 00fe 17       		.uleb128 0x17
 3397 00ff 17       		.uleb128 0x17
 3398 0100 01       		.byte	0x1
 3399 0101 03       		.uleb128 0x3
 3400 0102 0E       		.uleb128 0xe
 3401 0103 0B       		.uleb128 0xb
 3402 0104 05       		.uleb128 0x5
 3403 0105 3A       		.uleb128 0x3a
 3404 0106 0B       		.uleb128 0xb
 3405 0107 3B       		.uleb128 0x3b
 3406 0108 0B       		.uleb128 0xb
 3407 0109 01       		.uleb128 0x1
 3408 010a 13       		.uleb128 0x13
 3409 010b 00       		.byte	0
 3410 010c 00       		.byte	0
 3411 010d 18       		.uleb128 0x18
 3412 010e 0D       		.uleb128 0xd
 3413 010f 00       		.byte	0
 3414 0110 03       		.uleb128 0x3
 3415 0111 08       		.uleb128 0x8
ARM GAS  /tmp/ccYJgJ88.s 			page 61


 3416 0112 3A       		.uleb128 0x3a
 3417 0113 0B       		.uleb128 0xb
 3418 0114 3B       		.uleb128 0x3b
 3419 0115 0B       		.uleb128 0xb
 3420 0116 49       		.uleb128 0x49
 3421 0117 13       		.uleb128 0x13
 3422 0118 00       		.byte	0
 3423 0119 00       		.byte	0
 3424 011a 19       		.uleb128 0x19
 3425 011b 21       		.uleb128 0x21
 3426 011c 00       		.byte	0
 3427 011d 49       		.uleb128 0x49
 3428 011e 13       		.uleb128 0x13
 3429 011f 2F       		.uleb128 0x2f
 3430 0120 05       		.uleb128 0x5
 3431 0121 00       		.byte	0
 3432 0122 00       		.byte	0
 3433 0123 1A       		.uleb128 0x1a
 3434 0124 21       		.uleb128 0x21
 3435 0125 00       		.byte	0
 3436 0126 00       		.byte	0
 3437 0127 00       		.byte	0
 3438 0128 1B       		.uleb128 0x1b
 3439 0129 34       		.uleb128 0x34
 3440 012a 00       		.byte	0
 3441 012b 03       		.uleb128 0x3
 3442 012c 08       		.uleb128 0x8
 3443 012d 3A       		.uleb128 0x3a
 3444 012e 0B       		.uleb128 0xb
 3445 012f 3B       		.uleb128 0x3b
 3446 0130 0B       		.uleb128 0xb
 3447 0131 49       		.uleb128 0x49
 3448 0132 13       		.uleb128 0x13
 3449 0133 3F       		.uleb128 0x3f
 3450 0134 19       		.uleb128 0x19
 3451 0135 3C       		.uleb128 0x3c
 3452 0136 19       		.uleb128 0x19
 3453 0137 00       		.byte	0
 3454 0138 00       		.byte	0
 3455 0139 1C       		.uleb128 0x1c
 3456 013a 34       		.uleb128 0x34
 3457 013b 00       		.byte	0
 3458 013c 03       		.uleb128 0x3
 3459 013d 08       		.uleb128 0x8
 3460 013e 3A       		.uleb128 0x3a
 3461 013f 0B       		.uleb128 0xb
 3462 0140 3B       		.uleb128 0x3b
 3463 0141 0B       		.uleb128 0xb
 3464 0142 49       		.uleb128 0x49
 3465 0143 13       		.uleb128 0x13
 3466 0144 02       		.uleb128 0x2
 3467 0145 18       		.uleb128 0x18
 3468 0146 00       		.byte	0
 3469 0147 00       		.byte	0
 3470 0148 1D       		.uleb128 0x1d
 3471 0149 34       		.uleb128 0x34
 3472 014a 00       		.byte	0
ARM GAS  /tmp/ccYJgJ88.s 			page 62


 3473 014b 03       		.uleb128 0x3
 3474 014c 0E       		.uleb128 0xe
 3475 014d 3A       		.uleb128 0x3a
 3476 014e 0B       		.uleb128 0xb
 3477 014f 3B       		.uleb128 0x3b
 3478 0150 0B       		.uleb128 0xb
 3479 0151 49       		.uleb128 0x49
 3480 0152 13       		.uleb128 0x13
 3481 0153 3F       		.uleb128 0x3f
 3482 0154 19       		.uleb128 0x19
 3483 0155 02       		.uleb128 0x2
 3484 0156 18       		.uleb128 0x18
 3485 0157 00       		.byte	0
 3486 0158 00       		.byte	0
 3487 0159 1E       		.uleb128 0x1e
 3488 015a 2E       		.uleb128 0x2e
 3489 015b 01       		.byte	0x1
 3490 015c 03       		.uleb128 0x3
 3491 015d 0E       		.uleb128 0xe
 3492 015e 3A       		.uleb128 0x3a
 3493 015f 0B       		.uleb128 0xb
 3494 0160 3B       		.uleb128 0x3b
 3495 0161 0B       		.uleb128 0xb
 3496 0162 27       		.uleb128 0x27
 3497 0163 19       		.uleb128 0x19
 3498 0164 11       		.uleb128 0x11
 3499 0165 01       		.uleb128 0x1
 3500 0166 12       		.uleb128 0x12
 3501 0167 06       		.uleb128 0x6
 3502 0168 40       		.uleb128 0x40
 3503 0169 18       		.uleb128 0x18
 3504 016a 9742     		.uleb128 0x2117
 3505 016c 19       		.uleb128 0x19
 3506 016d 01       		.uleb128 0x1
 3507 016e 13       		.uleb128 0x13
 3508 016f 00       		.byte	0
 3509 0170 00       		.byte	0
 3510 0171 1F       		.uleb128 0x1f
 3511 0172 34       		.uleb128 0x34
 3512 0173 00       		.byte	0
 3513 0174 03       		.uleb128 0x3
 3514 0175 0E       		.uleb128 0xe
 3515 0176 3A       		.uleb128 0x3a
 3516 0177 0B       		.uleb128 0xb
 3517 0178 3B       		.uleb128 0x3b
 3518 0179 0B       		.uleb128 0xb
 3519 017a 49       		.uleb128 0x49
 3520 017b 13       		.uleb128 0x13
 3521 017c 02       		.uleb128 0x2
 3522 017d 17       		.uleb128 0x17
 3523 017e 00       		.byte	0
 3524 017f 00       		.byte	0
 3525 0180 20       		.uleb128 0x20
 3526 0181 34       		.uleb128 0x34
 3527 0182 00       		.byte	0
 3528 0183 03       		.uleb128 0x3
 3529 0184 0E       		.uleb128 0xe
ARM GAS  /tmp/ccYJgJ88.s 			page 63


 3530 0185 3A       		.uleb128 0x3a
 3531 0186 0B       		.uleb128 0xb
 3532 0187 3B       		.uleb128 0x3b
 3533 0188 0B       		.uleb128 0xb
 3534 0189 49       		.uleb128 0x49
 3535 018a 13       		.uleb128 0x13
 3536 018b 02       		.uleb128 0x2
 3537 018c 18       		.uleb128 0x18
 3538 018d 00       		.byte	0
 3539 018e 00       		.byte	0
 3540 018f 21       		.uleb128 0x21
 3541 0190 34       		.uleb128 0x34
 3542 0191 00       		.byte	0
 3543 0192 03       		.uleb128 0x3
 3544 0193 08       		.uleb128 0x8
 3545 0194 3A       		.uleb128 0x3a
 3546 0195 0B       		.uleb128 0xb
 3547 0196 3B       		.uleb128 0x3b
 3548 0197 0B       		.uleb128 0xb
 3549 0198 49       		.uleb128 0x49
 3550 0199 13       		.uleb128 0x13
 3551 019a 02       		.uleb128 0x2
 3552 019b 17       		.uleb128 0x17
 3553 019c 00       		.byte	0
 3554 019d 00       		.byte	0
 3555 019e 22       		.uleb128 0x22
 3556 019f 898201   		.uleb128 0x4109
 3557 01a2 01       		.byte	0x1
 3558 01a3 11       		.uleb128 0x11
 3559 01a4 01       		.uleb128 0x1
 3560 01a5 31       		.uleb128 0x31
 3561 01a6 13       		.uleb128 0x13
 3562 01a7 01       		.uleb128 0x1
 3563 01a8 13       		.uleb128 0x13
 3564 01a9 00       		.byte	0
 3565 01aa 00       		.byte	0
 3566 01ab 23       		.uleb128 0x23
 3567 01ac 8A8201   		.uleb128 0x410a
 3568 01af 00       		.byte	0
 3569 01b0 02       		.uleb128 0x2
 3570 01b1 18       		.uleb128 0x18
 3571 01b2 9142     		.uleb128 0x2111
 3572 01b4 18       		.uleb128 0x18
 3573 01b5 00       		.byte	0
 3574 01b6 00       		.byte	0
 3575 01b7 24       		.uleb128 0x24
 3576 01b8 898201   		.uleb128 0x4109
 3577 01bb 00       		.byte	0
 3578 01bc 11       		.uleb128 0x11
 3579 01bd 01       		.uleb128 0x1
 3580 01be 31       		.uleb128 0x31
 3581 01bf 13       		.uleb128 0x13
 3582 01c0 00       		.byte	0
 3583 01c1 00       		.byte	0
 3584 01c2 25       		.uleb128 0x25
 3585 01c3 898201   		.uleb128 0x4109
 3586 01c6 01       		.byte	0x1
ARM GAS  /tmp/ccYJgJ88.s 			page 64


 3587 01c7 11       		.uleb128 0x11
 3588 01c8 01       		.uleb128 0x1
 3589 01c9 31       		.uleb128 0x31
 3590 01ca 13       		.uleb128 0x13
 3591 01cb 00       		.byte	0
 3592 01cc 00       		.byte	0
 3593 01cd 26       		.uleb128 0x26
 3594 01ce 898201   		.uleb128 0x4109
 3595 01d1 01       		.byte	0x1
 3596 01d2 11       		.uleb128 0x11
 3597 01d3 01       		.uleb128 0x1
 3598 01d4 9542     		.uleb128 0x2115
 3599 01d6 19       		.uleb128 0x19
 3600 01d7 31       		.uleb128 0x31
 3601 01d8 13       		.uleb128 0x13
 3602 01d9 00       		.byte	0
 3603 01da 00       		.byte	0
 3604 01db 27       		.uleb128 0x27
 3605 01dc 2E       		.uleb128 0x2e
 3606 01dd 00       		.byte	0
 3607 01de 3F       		.uleb128 0x3f
 3608 01df 19       		.uleb128 0x19
 3609 01e0 3C       		.uleb128 0x3c
 3610 01e1 19       		.uleb128 0x19
 3611 01e2 6E       		.uleb128 0x6e
 3612 01e3 0E       		.uleb128 0xe
 3613 01e4 03       		.uleb128 0x3
 3614 01e5 0E       		.uleb128 0xe
 3615 01e6 3A       		.uleb128 0x3a
 3616 01e7 0B       		.uleb128 0xb
 3617 01e8 3B       		.uleb128 0x3b
 3618 01e9 0B       		.uleb128 0xb
 3619 01ea 00       		.byte	0
 3620 01eb 00       		.byte	0
 3621 01ec 00       		.byte	0
 3622              		.section	.debug_loc,"",%progbits
 3623              	.Ldebug_loc0:
 3624              	.LLST0:
 3625 0000 4C000000 		.4byte	.LVL2
 3626 0004 54000000 		.4byte	.LVL3
 3627 0008 0100     		.2byte	0x1
 3628 000a 50       		.byte	0x50
 3629 000b 80000000 		.4byte	.LVL6
 3630 000f 88000000 		.4byte	.LVL7
 3631 0013 0100     		.2byte	0x1
 3632 0015 50       		.byte	0x50
 3633 0016 B0000000 		.4byte	.LVL11
 3634 001a C0000000 		.4byte	.LVL12
 3635 001e 0100     		.2byte	0x1
 3636 0020 50       		.byte	0x50
 3637 0021 E0000000 		.4byte	.LVL15
 3638 0025 F4000000 		.4byte	.LVL16
 3639 0029 0100     		.2byte	0x1
 3640 002b 50       		.byte	0x50
 3641 002c 10010000 		.4byte	.LVL18
 3642 0030 20010000 		.4byte	.LVL19
 3643 0034 0100     		.2byte	0x1
ARM GAS  /tmp/ccYJgJ88.s 			page 65


 3644 0036 50       		.byte	0x50
 3645 0037 40010000 		.4byte	.LVL22
 3646 003b 54010000 		.4byte	.LVL23
 3647 003f 0100     		.2byte	0x1
 3648 0041 50       		.byte	0x50
 3649 0042 14020000 		.4byte	.LVL35
 3650 0046 1C020000 		.4byte	.LVL36
 3651 004a 0100     		.2byte	0x1
 3652 004c 50       		.byte	0x50
 3653 004d 54020000 		.4byte	.LVL39
 3654 0051 5C020000 		.4byte	.LVL40
 3655 0055 0100     		.2byte	0x1
 3656 0057 50       		.byte	0x50
 3657 0058 7C020000 		.4byte	.LVL42
 3658 005c 84020000 		.4byte	.LVL43
 3659 0060 0100     		.2byte	0x1
 3660 0062 50       		.byte	0x50
 3661 0063 EC020000 		.4byte	.LVL47
 3662 0067 FC020000 		.4byte	.LVL48
 3663 006b 0100     		.2byte	0x1
 3664 006d 50       		.byte	0x50
 3665 006e 1C030000 		.4byte	.LVL51
 3666 0072 30030000 		.4byte	.LVL52
 3667 0076 0100     		.2byte	0x1
 3668 0078 50       		.byte	0x50
 3669 0079 C4030000 		.4byte	.LVL57
 3670 007d CC030000 		.4byte	.LVL58
 3671 0081 0100     		.2byte	0x1
 3672 0083 50       		.byte	0x50
 3673 0084 E8030000 		.4byte	.LVL60
 3674 0088 F0030000 		.4byte	.LVL61
 3675 008c 0100     		.2byte	0x1
 3676 008e 50       		.byte	0x50
 3677 008f 0C040000 		.4byte	.LVL63
 3678 0093 14040000 		.4byte	.LVL64
 3679 0097 0100     		.2byte	0x1
 3680 0099 50       		.byte	0x50
 3681 009a 30040000 		.4byte	.LVL66
 3682 009e 38040000 		.4byte	.LVL67
 3683 00a2 0100     		.2byte	0x1
 3684 00a4 50       		.byte	0x50
 3685 00a5 54040000 		.4byte	.LVL69
 3686 00a9 60040000 		.4byte	.LVL70
 3687 00ad 0100     		.2byte	0x1
 3688 00af 50       		.byte	0x50
 3689 00b0 B0040000 		.4byte	.LVL75
 3690 00b4 BC040000 		.4byte	.LVL76
 3691 00b8 0100     		.2byte	0x1
 3692 00ba 50       		.byte	0x50
 3693 00bb 70050000 		.4byte	.LVL84
 3694 00bf 78050000 		.4byte	.LVL85
 3695 00c3 0100     		.2byte	0x1
 3696 00c5 50       		.byte	0x50
 3697 00c6 94050000 		.4byte	.LVL87
 3698 00ca 9C050000 		.4byte	.LVL88
 3699 00ce 0100     		.2byte	0x1
 3700 00d0 50       		.byte	0x50
ARM GAS  /tmp/ccYJgJ88.s 			page 66


 3701 00d1 B8050000 		.4byte	.LVL90
 3702 00d5 C0050000 		.4byte	.LVL91
 3703 00d9 0100     		.2byte	0x1
 3704 00db 50       		.byte	0x50
 3705 00dc DC050000 		.4byte	.LVL93
 3706 00e0 E4050000 		.4byte	.LVL94
 3707 00e4 0100     		.2byte	0x1
 3708 00e6 50       		.byte	0x50
 3709 00e7 00060000 		.4byte	.LVL96
 3710 00eb 0C060000 		.4byte	.LVL97
 3711 00ef 0100     		.2byte	0x1
 3712 00f1 50       		.byte	0x50
 3713 00f2 5C060000 		.4byte	.LVL102
 3714 00f6 68060000 		.4byte	.LVL103
 3715 00fa 0100     		.2byte	0x1
 3716 00fc 50       		.byte	0x50
 3717 00fd 00000000 		.4byte	0
 3718 0101 00000000 		.4byte	0
 3719              	.LLST1:
 3720 0105 3C000000 		.4byte	.LVL1
 3721 0109 5C000000 		.4byte	.LVL4
 3722 010d 0400     		.2byte	0x4
 3723 010f 74       		.byte	0x74
 3724 0110 BE7F     		.sleb128 -66
 3725 0112 9F       		.byte	0x9f
 3726 0113 5C000000 		.4byte	.LVL4
 3727 0117 64000000 		.4byte	.LVL5
 3728 011b 0400     		.2byte	0x4
 3729 011d 74       		.byte	0x74
 3730 011e BF7F     		.sleb128 -65
 3731 0120 9F       		.byte	0x9f
 3732 0121 64000000 		.4byte	.LVL5
 3733 0125 98000000 		.4byte	.LVL9
 3734 0129 0400     		.2byte	0x4
 3735 012b 74       		.byte	0x74
 3736 012c BE7F     		.sleb128 -66
 3737 012e 9F       		.byte	0x9f
 3738 012f A0000000 		.4byte	.LVL10
 3739 0133 80010000 		.4byte	.LVL26
 3740 0137 0400     		.2byte	0x4
 3741 0139 74       		.byte	0x74
 3742 013a BE7F     		.sleb128 -66
 3743 013c 9F       		.byte	0x9f
 3744 013d 88010000 		.4byte	.LVL27
 3745 0141 E0010000 		.4byte	.LVL30
 3746 0145 0400     		.2byte	0x4
 3747 0147 74       		.byte	0x74
 3748 0148 BE7F     		.sleb128 -66
 3749 014a 9F       		.byte	0x9f
 3750 014b E0010000 		.4byte	.LVL30
 3751 014f F4010000 		.4byte	.LVL31
 3752 0153 0200     		.2byte	0x2
 3753 0155 30       		.byte	0x30
 3754 0156 9F       		.byte	0x9f
 3755 0157 F4010000 		.4byte	.LVL31
 3756 015b FC010000 		.4byte	.LVL32
 3757 015f 0500     		.2byte	0x5
ARM GAS  /tmp/ccYJgJ88.s 			page 67


 3758 0161 35       		.byte	0x35
 3759 0162 74       		.byte	0x74
 3760 0163 00       		.sleb128 0
 3761 0164 1C       		.byte	0x1c
 3762 0165 9F       		.byte	0x9f
 3763 0166 FC010000 		.4byte	.LVL32
 3764 016a 00020000 		.4byte	.LVL33
 3765 016e 0500     		.2byte	0x5
 3766 0170 36       		.byte	0x36
 3767 0171 74       		.byte	0x74
 3768 0172 00       		.sleb128 0
 3769 0173 1C       		.byte	0x1c
 3770 0174 9F       		.byte	0x9f
 3771 0175 00020000 		.4byte	.LVL33
 3772 0179 98040000 		.4byte	.LVL73
 3773 017d 0500     		.2byte	0x5
 3774 017f 35       		.byte	0x35
 3775 0180 74       		.byte	0x74
 3776 0181 00       		.sleb128 0
 3777 0182 1C       		.byte	0x1c
 3778 0183 9F       		.byte	0x9f
 3779 0184 A0040000 		.4byte	.LVL74
 3780 0188 D4040000 		.4byte	.LVL78
 3781 018c 0500     		.2byte	0x5
 3782 018e 35       		.byte	0x35
 3783 018f 74       		.byte	0x74
 3784 0190 00       		.sleb128 0
 3785 0191 1C       		.byte	0x1c
 3786 0192 9F       		.byte	0x9f
 3787 0193 D4040000 		.4byte	.LVL78
 3788 0197 D8040000 		.4byte	.LVL79
 3789 019b 0500     		.2byte	0x5
 3790 019d 36       		.byte	0x36
 3791 019e 74       		.byte	0x74
 3792 019f 00       		.sleb128 0
 3793 01a0 1C       		.byte	0x1c
 3794 01a1 9F       		.byte	0x9f
 3795 01a2 D8040000 		.4byte	.LVL79
 3796 01a6 44060000 		.4byte	.LVL100
 3797 01aa 0500     		.2byte	0x5
 3798 01ac 35       		.byte	0x35
 3799 01ad 74       		.byte	0x74
 3800 01ae 00       		.sleb128 0
 3801 01af 1C       		.byte	0x1c
 3802 01b0 9F       		.byte	0x9f
 3803 01b1 4C060000 		.4byte	.LVL101
 3804 01b5 80060000 		.4byte	.LVL105
 3805 01b9 0500     		.2byte	0x5
 3806 01bb 35       		.byte	0x35
 3807 01bc 74       		.byte	0x74
 3808 01bd 00       		.sleb128 0
 3809 01be 1C       		.byte	0x1c
 3810 01bf 9F       		.byte	0x9f
 3811 01c0 80060000 		.4byte	.LVL105
 3812 01c4 84060000 		.4byte	.LVL106
 3813 01c8 0500     		.2byte	0x5
 3814 01ca 36       		.byte	0x36
ARM GAS  /tmp/ccYJgJ88.s 			page 68


 3815 01cb 74       		.byte	0x74
 3816 01cc 00       		.sleb128 0
 3817 01cd 1C       		.byte	0x1c
 3818 01ce 9F       		.byte	0x9f
 3819 01cf 84060000 		.4byte	.LVL106
 3820 01d3 B8070000 		.4byte	.LFE8
 3821 01d7 0500     		.2byte	0x5
 3822 01d9 35       		.byte	0x35
 3823 01da 74       		.byte	0x74
 3824 01db 00       		.sleb128 0
 3825 01dc 1C       		.byte	0x1c
 3826 01dd 9F       		.byte	0x9f
 3827 01de 00000000 		.4byte	0
 3828 01e2 00000000 		.4byte	0
 3829              		.section	.debug_aranges,"",%progbits
 3830 0000 24000000 		.4byte	0x24
 3831 0004 0200     		.2byte	0x2
 3832 0006 00000000 		.4byte	.Ldebug_info0
 3833 000a 04       		.byte	0x4
 3834 000b 00       		.byte	0
 3835 000c 0000     		.2byte	0
 3836 000e 0000     		.2byte	0
 3837 0010 00000000 		.4byte	.LFB8
 3838 0014 B8070000 		.4byte	.LFE8-.LFB8
 3839 0018 00000000 		.4byte	.LFB7
 3840 001c 18000000 		.4byte	.LFE7-.LFB7
 3841 0020 00000000 		.4byte	0
 3842 0024 00000000 		.4byte	0
 3843              		.section	.debug_ranges,"",%progbits
 3844              	.Ldebug_ranges0:
 3845 0000 00000000 		.4byte	.LFB8
 3846 0004 B8070000 		.4byte	.LFE8
 3847 0008 00000000 		.4byte	.LFB7
 3848 000c 18000000 		.4byte	.LFE7
 3849 0010 00000000 		.4byte	0
 3850 0014 00000000 		.4byte	0
 3851              		.section	.debug_line,"",%progbits
 3852              	.Ldebug_line0:
 3853 0000 77020000 		.section	.debug_str,"MS",%progbits,1
 3853      02004101 
 3853      00000201 
 3853      FB0E0D00 
 3853      01010101 
 3854              	.LASF99:
 3855 0000 63665F6F 		.ascii	"cf_off_older\000"
 3855      66665F6F 
 3855      6C646572 
 3855      00
 3856              	.LASF42:
 3857 000d 705F6D73 		.ascii	"p_msg\000"
 3857      6700
 3858              	.LASF84:
 3859 0013 7264796D 		.ascii	"rdymsg\000"
 3859      736700
 3860              	.LASF80:
 3861 001a 6D625F72 		.ascii	"mb_rdptr\000"
 3861      64707472 
ARM GAS  /tmp/ccYJgJ88.s 			page 69


 3861      00
 3862              	.LASF4:
 3863 0023 5F5F7569 		.ascii	"__uint8_t\000"
 3863      6E74385F 
 3863      7400
 3864              	.LASF129:
 3865 002d 63684D42 		.ascii	"chMBPostI\000"
 3865      506F7374 
 3865      4900
 3866              	.LASF68:
 3867 0037 76746C69 		.ascii	"vtlist\000"
 3867      737400
 3868              	.LASF83:
 3869 003e 4D61696C 		.ascii	"Mailbox\000"
 3869      626F7800 
 3870              	.LASF130:
 3871 0046 63684D42 		.ascii	"chMBPostAheadI\000"
 3871      506F7374 
 3871      41686561 
 3871      644900
 3872              	.LASF12:
 3873 0055 6C6F6E67 		.ascii	"long long unsigned int\000"
 3873      206C6F6E 
 3873      6720756E 
 3873      7369676E 
 3873      65642069 
 3874              	.LASF121:
 3875 006c 70617474 		.ascii	"patternmbox\000"
 3875      65726E6D 
 3875      626F7800 
 3876              	.LASF139:
 3877 0078 2F686F6D 		.ascii	"/home/lmr/Downloads/ChibiOS-RPi/ChibiOS-RPi/demos/P"
 3877      652F6C6D 
 3877      722F446F 
 3877      776E6C6F 
 3877      6164732F 
 3878 00ab 726F6A65 		.ascii	"roject\000"
 3878      637400
 3879              	.LASF95:
 3880 00b2 63685F74 		.ascii	"ch_threadsize\000"
 3880      68726561 
 3880      6473697A 
 3880      6500
 3881              	.LASF85:
 3882 00c0 65786974 		.ascii	"exitcode\000"
 3882      636F6465 
 3882      00
 3883              	.LASF136:
 3884 00c9 63684D42 		.ascii	"chMBInit\000"
 3884      496E6974 
 3884      00
 3885              	.LASF118:
 3886 00d2 74657374 		.ascii	"test\000"
 3886      00
 3887              	.LASF79:
 3888 00d7 6D625F77 		.ascii	"mb_wrptr\000"
 3888      72707472 
ARM GAS  /tmp/ccYJgJ88.s 			page 70


 3888      00
 3889              	.LASF30:
 3890 00e0 705F7072 		.ascii	"p_prio\000"
 3890      696F00
 3891              	.LASF102:
 3892 00e7 63665F6F 		.ascii	"cf_off_state\000"
 3892      66665F73 
 3892      74617465 
 3892      00
 3893              	.LASF114:
 3894 00f4 74656172 		.ascii	"teardown\000"
 3894      646F776E 
 3894      00
 3895              	.LASF11:
 3896 00fd 6C6F6E67 		.ascii	"long long int\000"
 3896      206C6F6E 
 3896      6720696E 
 3896      7400
 3897              	.LASF1:
 3898 010b 7369676E 		.ascii	"signed char\000"
 3898      65642063 
 3898      68617200 
 3899              	.LASF101:
 3900 0117 63665F6F 		.ascii	"cf_off_stklimit\000"
 3900      66665F73 
 3900      746B6C69 
 3900      6D697400 
 3901              	.LASF103:
 3902 0127 63665F6F 		.ascii	"cf_off_flags\000"
 3902      66665F66 
 3902      6C616773 
 3902      00
 3903              	.LASF17:
 3904 0134 626F6F6C 		.ascii	"bool_t\000"
 3904      5F7400
 3905              	.LASF35:
 3906 013b 705F7374 		.ascii	"p_state\000"
 3906      61746500 
 3907              	.LASF131:
 3908 0143 74657374 		.ascii	"test_emit_token\000"
 3908      5F656D69 
 3908      745F746F 
 3908      6B656E00 
 3909              	.LASF21:
 3910 0153 74736C69 		.ascii	"tslices_t\000"
 3910      6365735F 
 3910      7400
 3911              	.LASF127:
 3912 015d 63684D42 		.ascii	"chMBPost\000"
 3912      506F7374 
 3912      00
 3913              	.LASF8:
 3914 0166 6C6F6E67 		.ascii	"long int\000"
 3914      20696E74 
 3914      00
 3915              	.LASF19:
 3916 016f 74737461 		.ascii	"tstate_t\000"
ARM GAS  /tmp/ccYJgJ88.s 			page 71


 3916      74655F74 
 3916      00
 3917              	.LASF14:
 3918 0178 75696E74 		.ascii	"uint16_t\000"
 3918      31365F74 
 3918      00
 3919              	.LASF108:
 3920 0181 63686465 		.ascii	"chdebug_t\000"
 3920      6275675F 
 3920      7400
 3921              	.LASF116:
 3922 018b 62756666 		.ascii	"buffer\000"
 3922      657200
 3923              	.LASF32:
 3924 0192 705F6E65 		.ascii	"p_newer\000"
 3924      77657200 
 3925              	.LASF110:
 3926 019a 5F69646C 		.ascii	"_idle_thread_wa\000"
 3926      655F7468 
 3926      72656164 
 3926      5F776100 
 3927              	.LASF71:
 3928 01aa 735F7175 		.ascii	"s_queue\000"
 3928      65756500 
 3929              	.LASF9:
 3930 01b2 5F5F7569 		.ascii	"__uint32_t\000"
 3930      6E743332 
 3930      5F7400
 3931              	.LASF49:
 3932 01bd 72656761 		.ascii	"regarm_t\000"
 3932      726D5F74 
 3932      00
 3933              	.LASF55:
 3934 01c6 76745F70 		.ascii	"vt_prev\000"
 3934      72657600 
 3935              	.LASF26:
 3936 01ce 636E745F 		.ascii	"cnt_t\000"
 3936      7400
 3937              	.LASF0:
 3938 01d4 756E7369 		.ascii	"unsigned int\000"
 3938      676E6564 
 3938      20696E74 
 3938      00
 3939              	.LASF54:
 3940 01e1 76745F6E 		.ascii	"vt_next\000"
 3940      65787400 
 3941              	.LASF122:
 3942 01e9 6D736731 		.ascii	"msg1\000"
 3942      00
 3943              	.LASF123:
 3944 01ee 6D736732 		.ascii	"msg2\000"
 3944      00
 3945              	.LASF10:
 3946 01f3 6C6F6E67 		.ascii	"long unsigned int\000"
 3946      20756E73 
 3946      69676E65 
 3946      6420696E 
ARM GAS  /tmp/ccYJgJ88.s 			page 72


 3946      7400
 3947              	.LASF109:
 3948 0205 63685F64 		.ascii	"ch_debug\000"
 3948      65627567 
 3948      00
 3949              	.LASF119:
 3950 020e 74657374 		.ascii	"test_timer_done\000"
 3950      5F74696D 
 3950      65725F64 
 3950      6F6E6500 
 3951              	.LASF82:
 3952 021e 6D625F65 		.ascii	"mb_emptysem\000"
 3952      6D707479 
 3952      73656D00 
 3953              	.LASF52:
 3954 022a 76746675 		.ascii	"vtfunc_t\000"
 3954      6E635F74 
 3954      00
 3955              	.LASF89:
 3956 0233 63685F69 		.ascii	"ch_identifier\000"
 3956      64656E74 
 3956      69666965 
 3956      7200
 3957              	.LASF72:
 3958 0241 735F636E 		.ascii	"s_cnt\000"
 3958      7400
 3959              	.LASF112:
 3960 0247 6E616D65 		.ascii	"name\000"
 3960      00
 3961              	.LASF51:
 3962 024c 636F6E74 		.ascii	"context\000"
 3962      65787400 
 3963              	.LASF6:
 3964 0254 73686F72 		.ascii	"short unsigned int\000"
 3964      7420756E 
 3964      7369676E 
 3964      65642069 
 3964      6E7400
 3965              	.LASF134:
 3966 0267 63684D42 		.ascii	"chMBFetchI\000"
 3966      46657463 
 3966      684900
 3967              	.LASF23:
 3968 0272 6D73675F 		.ascii	"msg_t\000"
 3968      7400
 3969              	.LASF64:
 3970 0278 725F6E65 		.ascii	"r_newer\000"
 3970      77657200 
 3971              	.LASF117:
 3972 0280 74687265 		.ascii	"threads\000"
 3972      61647300 
 3973              	.LASF18:
 3974 0288 746D6F64 		.ascii	"tmode_t\000"
 3974      655F7400 
 3975              	.LASF125:
 3976 0290 6D626F78 		.ascii	"mbox1_setup\000"
 3976      315F7365 
ARM GAS  /tmp/ccYJgJ88.s 			page 73


 3976      74757000 
 3977              	.LASF47:
 3978 029c 54687265 		.ascii	"ThreadsList\000"
 3978      6164734C 
 3978      69737400 
 3979              	.LASF24:
 3980 02a8 6576656E 		.ascii	"eventmask_t\000"
 3980      746D6173 
 3980      6B5F7400 
 3981              	.LASF73:
 3982 02b4 4D757465 		.ascii	"Mutex\000"
 3982      7800
 3983              	.LASF120:
 3984 02ba 74657374 		.ascii	"testmbox1\000"
 3984      6D626F78 
 3984      3100
 3985              	.LASF48:
 3986 02c4 73746B61 		.ascii	"stkalign_t\000"
 3986      6C69676E 
 3986      5F7400
 3987              	.LASF90:
 3988 02cf 63685F7A 		.ascii	"ch_zero\000"
 3988      65726F00 
 3989              	.LASF104:
 3990 02d7 63665F6F 		.ascii	"cf_off_refs\000"
 3990      66665F72 
 3990      65667300 
 3991              	.LASF56:
 3992 02e3 76745F74 		.ascii	"vt_time\000"
 3992      696D6500 
 3993              	.LASF107:
 3994 02eb 73697A65 		.ascii	"sizetype\000"
 3994      74797065 
 3994      00
 3995              	.LASF57:
 3996 02f4 76745F66 		.ascii	"vt_func\000"
 3996      756E6300 
 3997              	.LASF94:
 3998 02fc 63685F74 		.ascii	"ch_timesize\000"
 3998      696D6573 
 3998      697A6500 
 3999              	.LASF135:
 4000 0308 63684D42 		.ascii	"chMBReset\000"
 4000      52657365 
 4000      7400
 4001              	.LASF100:
 4002 0312 63665F6F 		.ascii	"cf_off_name\000"
 4002      66665F6E 
 4002      616D6500 
 4003              	.LASF33:
 4004 031e 705F6F6C 		.ascii	"p_older\000"
 4004      64657200 
 4005              	.LASF63:
 4006 0326 725F6374 		.ascii	"r_ctx\000"
 4006      7800
 4007              	.LASF46:
 4008 032c 54687265 		.ascii	"ThreadsQueue\000"
ARM GAS  /tmp/ccYJgJ88.s 			page 74


 4008      61647351 
 4008      75657565 
 4008      00
 4009              	.LASF91:
 4010 0339 63685F73 		.ascii	"ch_size\000"
 4010      697A6500 
 4011              	.LASF113:
 4012 0341 73657475 		.ascii	"setup\000"
 4012      7000
 4013              	.LASF133:
 4014 0347 5F746573 		.ascii	"_test_assert_sequence\000"
 4014      745F6173 
 4014      73657274 
 4014      5F736571 
 4014      75656E63 
 4015              	.LASF77:
 4016 035d 6D625F62 		.ascii	"mb_buffer\000"
 4016      75666665 
 4016      7200
 4017              	.LASF124:
 4018 0367 6D626F78 		.ascii	"mbox1_execute\000"
 4018      315F6578 
 4018      65637574 
 4018      6500
 4019              	.LASF66:
 4020 0375 725F6375 		.ascii	"r_current\000"
 4020      7272656E 
 4020      7400
 4021              	.LASF65:
 4022 037f 725F6F6C 		.ascii	"r_older\000"
 4022      64657200 
 4023              	.LASF20:
 4024 0387 74726566 		.ascii	"trefs_t\000"
 4024      735F7400 
 4025              	.LASF93:
 4026 038f 63685F70 		.ascii	"ch_ptrsize\000"
 4026      74727369 
 4026      7A6500
 4027              	.LASF29:
 4028 039a 705F7072 		.ascii	"p_prev\000"
 4028      657600
 4029              	.LASF115:
 4030 03a1 65786563 		.ascii	"execute\000"
 4030      75746500 
 4031              	.LASF22:
 4032 03a9 74707269 		.ascii	"tprio_t\000"
 4032      6F5F7400 
 4033              	.LASF15:
 4034 03b1 696E7433 		.ascii	"int32_t\000"
 4034      325F7400 
 4035              	.LASF2:
 4036 03b9 756E7369 		.ascii	"unsigned char\000"
 4036      676E6564 
 4036      20636861 
 4036      7200
 4037              	.LASF74:
 4038 03c7 6D5F7175 		.ascii	"m_queue\000"
ARM GAS  /tmp/ccYJgJ88.s 			page 75


 4038      65756500 
 4039              	.LASF78:
 4040 03cf 6D625F74 		.ascii	"mb_top\000"
 4040      6F7000
 4041              	.LASF44:
 4042 03d6 705F6D74 		.ascii	"p_mtxlist\000"
 4042      786C6973 
 4042      7400
 4043              	.LASF3:
 4044 03e0 73686F72 		.ascii	"short int\000"
 4044      7420696E 
 4044      7400
 4045              	.LASF138:
 4046 03ea 2E2E2F2E 		.ascii	"../../test/testmbox.c\000"
 4046      2E2F7465 
 4046      73742F74 
 4046      6573746D 
 4046      626F782E 
 4047              	.LASF38:
 4048 0400 705F7072 		.ascii	"p_preempt\000"
 4048      65656D70 
 4048      7400
 4049              	.LASF106:
 4050 040a 63665F6F 		.ascii	"cf_off_time\000"
 4050      66665F74 
 4050      696D6500 
 4051              	.LASF62:
 4052 0416 725F7072 		.ascii	"r_prio\000"
 4052      696F00
 4053              	.LASF87:
 4054 041d 65776D61 		.ascii	"ewmask\000"
 4054      736B00
 4055              	.LASF28:
 4056 0424 705F6E65 		.ascii	"p_next\000"
 4056      787400
 4057              	.LASF105:
 4058 042b 63665F6F 		.ascii	"cf_off_preempt\000"
 4058      66665F70 
 4058      7265656D 
 4058      707400
 4059              	.LASF36:
 4060 043a 705F666C 		.ascii	"p_flags\000"
 4060      61677300 
 4061              	.LASF27:
 4062 0442 54687265 		.ascii	"Thread\000"
 4062      616400
 4063              	.LASF98:
 4064 0449 63665F6F 		.ascii	"cf_off_newer\000"
 4064      66665F6E 
 4064      65776572 
 4064      00
 4065              	.LASF111:
 4066 0456 74657374 		.ascii	"testcase\000"
 4066      63617365 
 4066      00
 4067              	.LASF43:
 4068 045f 705F6570 		.ascii	"p_epending\000"
ARM GAS  /tmp/ccYJgJ88.s 			page 76


 4068      656E6469 
 4068      6E6700
 4069              	.LASF16:
 4070 046a 75696E74 		.ascii	"uint32_t\000"
 4070      33325F74 
 4070      00
 4071              	.LASF96:
 4072 0473 63665F6F 		.ascii	"cf_off_prio\000"
 4072      66665F70 
 4072      72696F00 
 4073              	.LASF61:
 4074 047f 725F7175 		.ascii	"r_queue\000"
 4074      65756500 
 4075              	.LASF53:
 4076 0487 56697274 		.ascii	"VirtualTimer\000"
 4076      75616C54 
 4076      696D6572 
 4076      00
 4077              	.LASF88:
 4078 0494 63686172 		.ascii	"char\000"
 4078      00
 4079              	.LASF140:
 4080 0499 74657374 		.ascii	"test_buffers\000"
 4080      5F627566 
 4080      66657273 
 4080      00
 4081              	.LASF5:
 4082 04a6 5F5F7569 		.ascii	"__uint16_t\000"
 4082      6E743136 
 4082      5F7400
 4083              	.LASF76:
 4084 04b1 6D5F6E65 		.ascii	"m_next\000"
 4084      787400
 4085              	.LASF25:
 4086 04b8 73797374 		.ascii	"systime_t\000"
 4086      696D655F 
 4086      7400
 4087              	.LASF45:
 4088 04c2 705F7265 		.ascii	"p_realprio\000"
 4088      616C7072 
 4088      696F00
 4089              	.LASF7:
 4090 04cd 5F5F696E 		.ascii	"__int32_t\000"
 4090      7433325F 
 4090      7400
 4091              	.LASF39:
 4092 04d7 705F7469 		.ascii	"p_time\000"
 4092      6D6500
 4093              	.LASF137:
 4094 04de 474E5520 		.ascii	"GNU C11 6.3.1 20170620 -mcpu=arm1176jz-s -mno-thumb"
 4094      43313120 
 4094      362E332E 
 4094      31203230 
 4094      31373036 
 4095 0511 2D696E74 		.ascii	"-interwork -ggdb -O2 -fomit-frame-pointer -ffunctio"
 4095      6572776F 
 4095      726B202D 
ARM GAS  /tmp/ccYJgJ88.s 			page 77


 4095      67676462 
 4095      202D4F32 
 4096 0544 6E2D7365 		.ascii	"n-sections -fdata-sections\000"
 4096      6374696F 
 4096      6E73202D 
 4096      66646174 
 4096      612D7365 
 4097              	.LASF128:
 4098 055f 63684D42 		.ascii	"chMBPostAhead\000"
 4098      506F7374 
 4098      41686561 
 4098      6400
 4099              	.LASF50:
 4100 056d 696E7463 		.ascii	"intctx\000"
 4100      747800
 4101              	.LASF41:
 4102 0574 705F6D73 		.ascii	"p_msgqueue\000"
 4102      67717565 
 4102      756500
 4103              	.LASF132:
 4104 057f 63684D42 		.ascii	"chMBFetch\000"
 4104      46657463 
 4104      6800
 4105              	.LASF58:
 4106 0589 76745F70 		.ascii	"vt_par\000"
 4106      617200
 4107              	.LASF70:
 4108 0590 53656D61 		.ascii	"Semaphore\000"
 4108      70686F72 
 4108      6500
 4109              	.LASF81:
 4110 059a 6D625F66 		.ascii	"mb_fullsem\000"
 4110      756C6C73 
 4110      656D00
 4111              	.LASF97:
 4112 05a5 63665F6F 		.ascii	"cf_off_ctx\000"
 4112      66665F63 
 4112      747800
 4113              	.LASF37:
 4114 05b0 705F7265 		.ascii	"p_refs\000"
 4114      667300
 4115              	.LASF67:
 4116 05b7 52656164 		.ascii	"ReadyList\000"
 4116      794C6973 
 4116      7400
 4117              	.LASF69:
 4118 05c1 726C6973 		.ascii	"rlist\000"
 4118      7400
 4119              	.LASF13:
 4120 05c7 75696E74 		.ascii	"uint8_t\000"
 4120      385F7400 
 4121              	.LASF86:
 4122 05cf 77746F62 		.ascii	"wtobjp\000"
 4122      6A7000
 4123              	.LASF34:
 4124 05d6 705F6E61 		.ascii	"p_name\000"
 4124      6D6500
ARM GAS  /tmp/ccYJgJ88.s 			page 78


 4125              	.LASF126:
 4126 05dd 5F746573 		.ascii	"_test_assert\000"
 4126      745F6173 
 4126      73657274 
 4126      00
 4127              	.LASF59:
 4128 05ea 76745F73 		.ascii	"vt_systime\000"
 4128      79737469 
 4128      6D6500
 4129              	.LASF92:
 4130 05f5 63685F76 		.ascii	"ch_version\000"
 4130      65727369 
 4130      6F6E00
 4131              	.LASF60:
 4132 0600 56544C69 		.ascii	"VTList\000"
 4132      737400
 4133              	.LASF75:
 4134 0607 6D5F6F77 		.ascii	"m_owner\000"
 4134      6E657200 
 4135              	.LASF31:
 4136 060f 705F6374 		.ascii	"p_ctx\000"
 4136      7800
 4137              	.LASF40:
 4138 0615 705F7761 		.ascii	"p_waiting\000"
 4138      6974696E 
 4138      6700
 4139              		.ident	"GCC: (15:6.3.1+svn253039-1build1) 6.3.1 20170620"
ARM GAS  /tmp/ccYJgJ88.s 			page 79


DEFINED SYMBOLS
                            *ABS*:0000000000000000 testmbox.c
     /tmp/ccYJgJ88.s:16     .text.mbox1_execute:0000000000000000 $a
     /tmp/ccYJgJ88.s:21     .text.mbox1_execute:0000000000000000 mbox1_execute
     /tmp/ccYJgJ88.s:951    .text.mbox1_execute:00000000000007b0 $d
     /tmp/ccYJgJ88.s:957    .text.mbox1_setup:0000000000000000 $a
     /tmp/ccYJgJ88.s:962    .text.mbox1_setup:0000000000000000 mbox1_setup
     /tmp/ccYJgJ88.s:978    .text.mbox1_setup:0000000000000010 $d
     /tmp/ccYJgJ88.s:1009   .rodata.patternmbox:0000000000000000 patternmbox
     /tmp/ccYJgJ88.s:1020   .rodata.testmbox1:0000000000000000 testmbox1
     /tmp/ccYJgJ88.s:986    .data.mb1:0000000000000000 $d
     /tmp/ccYJgJ88.s:990    .data.mb1:0000000000000000 mb1
     /tmp/ccYJgJ88.s:1002   .rodata.mbox1_execute.str1.4:0000000000000000 $d
     /tmp/ccYJgJ88.s:1006   .rodata.patternmbox:0000000000000000 $d
     /tmp/ccYJgJ88.s:1013   .rodata.str1.4:0000000000000000 $d
     /tmp/ccYJgJ88.s:1017   .rodata.testmbox1:0000000000000000 $d
                     .debug_frame:0000000000000010 $d

UNDEFINED SYMBOLS
_test_assert
chMBPost
chMBPostAhead
chMBPostI
chMBPostAheadI
test_emit_token
chMBFetch
_test_assert_sequence
chMBFetchI
chMBReset
chMBInit
test
