ARM GAS  /tmp/ccmGo9v6.s 			page 1


   1              		.cpu arm1176jz-s
   2              		.eabi_attribute 20, 1
   3              		.eabi_attribute 21, 1
   4              		.eabi_attribute 23, 3
   5              		.eabi_attribute 24, 1
   6              		.eabi_attribute 25, 1
   7              		.eabi_attribute 26, 1
   8              		.eabi_attribute 30, 2
   9              		.eabi_attribute 34, 1
  10              		.eabi_attribute 18, 4
  11              		.file	"testmsg.c"
  12              		.text
  13              	.Ltext0:
  14              		.cfi_sections	.debug_frame
  15              		.section	.text.msg1_execute,"ax",%progbits
  16              		.align	2
  17              		.syntax unified
  18              		.arm
  19              		.fpu softvfp
  20              		.type	msg1_execute, %function
  21              	msg1_execute:
  22              	.LFB8:
  23              		.file 1 "../../test/testmsg.c"
  24              		.loc 1 71 0
  25              		.cfi_startproc
  26              		@ args = 0, pretend = 0, frame = 0
  27              		@ frame_needed = 0, uses_anonymous_args = 0
  28 0000 10402DE9 		push	{r4, lr}
  29              		.cfi_def_cfa_offset 8
  30              		.cfi_offset 4, -8
  31              		.cfi_offset 14, -4
  32              		.loc 1 78 0
  33 0004 88309FE5 		ldr	r3, .L3
  34 0008 88209FE5 		ldr	r2, .L3+4
  35 000c 183093E5 		ldr	r3, [r3, #24]
  36 0010 000092E5 		ldr	r0, [r2]
  37 0014 082093E5 		ldr	r2, [r3, #8]
  38              		.loc 1 71 0
  39 0018 08D04DE2 		sub	sp, sp, #8
  40              		.cfi_def_cfa_offset 16
  41              		.loc 1 78 0
  42 001c 012082E2 		add	r2, r2, #1
  43 0020 00308DE5 		str	r3, [sp]
  44 0024 461FA0E3 		mov	r1, #280
  45 0028 6C309FE5 		ldr	r3, .L3+8
  46 002c FEFFFFEB 		bl	chThdCreateStatic
  47              	.LVL0:
  48 0030 68309FE5 		ldr	r3, .L3+12
  49 0034 000083E5 		str	r0, [r3]
  50              		.loc 1 80 0
  51 0038 FEFFFFEB 		bl	chMsgWait
  52              	.LVL1:
  53              		.loc 1 81 0
  54 003c 344090E5 		ldr	r4, [r0, #52]
  55              	.LVL2:
  56              		.loc 1 82 0
  57 0040 0410A0E1 		mov	r1, r4
ARM GAS  /tmp/ccmGo9v6.s 			page 2


  58 0044 FEFFFFEB 		bl	chMsgRelease
  59              	.LVL3:
  60              		.loc 1 83 0
  61 0048 7400EFE6 		uxtb	r0, r4
  62 004c FEFFFFEB 		bl	test_emit_token
  63              	.LVL4:
  64              		.loc 1 84 0
  65 0050 FEFFFFEB 		bl	chMsgWait
  66              	.LVL5:
  67              		.loc 1 85 0
  68 0054 344090E5 		ldr	r4, [r0, #52]
  69              	.LVL6:
  70              		.loc 1 86 0
  71 0058 0410A0E1 		mov	r1, r4
  72 005c FEFFFFEB 		bl	chMsgRelease
  73              	.LVL7:
  74              		.loc 1 87 0
  75 0060 7400EFE6 		uxtb	r0, r4
  76 0064 FEFFFFEB 		bl	test_emit_token
  77              	.LVL8:
  78              		.loc 1 88 0
  79 0068 FEFFFFEB 		bl	chMsgWait
  80              	.LVL9:
  81              		.loc 1 89 0
  82 006c 344090E5 		ldr	r4, [r0, #52]
  83              	.LVL10:
  84              		.loc 1 90 0
  85 0070 0410A0E1 		mov	r1, r4
  86 0074 FEFFFFEB 		bl	chMsgRelease
  87              	.LVL11:
  88              		.loc 1 91 0
  89 0078 7400EFE6 		uxtb	r0, r4
  90 007c FEFFFFEB 		bl	test_emit_token
  91              	.LVL12:
  92              		.loc 1 92 0
  93 0080 0100A0E3 		mov	r0, #1
  94 0084 18109FE5 		ldr	r1, .L3+16
  95              		.loc 1 93 0
  96 0088 08D08DE2 		add	sp, sp, #8
  97              		.cfi_def_cfa_offset 8
  98              		@ sp needed
  99 008c 1040BDE8 		pop	{r4, lr}
 100              		.cfi_restore 14
 101              		.cfi_restore 4
 102              		.cfi_def_cfa_offset 0
 103              	.LVL13:
 104              		.loc 1 92 0
 105 0090 FEFFFFEA 		b	_test_assert_sequence
 106              	.LVL14:
 107              	.L4:
 108              		.align	2
 109              	.L3:
 110 0094 00000000 		.word	rlist
 111 0098 00000000 		.word	wa
 112 009c 00000000 		.word	thread
 113 00a0 00000000 		.word	threads
 114 00a4 00000000 		.word	.LC0
ARM GAS  /tmp/ccmGo9v6.s 			page 3


 115              		.cfi_endproc
 116              	.LFE8:
 117              		.size	msg1_execute, .-msg1_execute
 118              		.section	.text.thread,"ax",%progbits
 119              		.align	2
 120              		.syntax unified
 121              		.arm
 122              		.fpu softvfp
 123              		.type	thread, %function
 124              	thread:
 125              	.LFB7:
 126              		.loc 1 63 0
 127              		.cfi_startproc
 128              		@ args = 0, pretend = 0, frame = 0
 129              		@ frame_needed = 0, uses_anonymous_args = 0
 130              	.LVL15:
 131 0000 10402DE9 		push	{r4, lr}
 132              		.cfi_def_cfa_offset 8
 133              		.cfi_offset 4, -8
 134              		.cfi_offset 14, -4
 135              		.loc 1 63 0
 136 0004 0040A0E1 		mov	r4, r0
 137              		.loc 1 65 0
 138 0008 4110A0E3 		mov	r1, #65
 139 000c FEFFFFEB 		bl	chMsgSend
 140              	.LVL16:
 141              		.loc 1 66 0
 142 0010 0400A0E1 		mov	r0, r4
 143 0014 4210A0E3 		mov	r1, #66
 144 0018 FEFFFFEB 		bl	chMsgSend
 145              	.LVL17:
 146              		.loc 1 67 0
 147 001c 0400A0E1 		mov	r0, r4
 148 0020 4310A0E3 		mov	r1, #67
 149 0024 FEFFFFEB 		bl	chMsgSend
 150              	.LVL18:
 151              		.loc 1 69 0
 152 0028 0000A0E3 		mov	r0, #0
 153 002c 1080BDE8 		pop	{r4, pc}
 154              		.cfi_endproc
 155              	.LFE7:
 156              		.size	thread, .-thread
 157              		.global	patternmsg
 158              		.global	testmsg1
 159              		.section	.rodata.msg1_execute.str1.4,"aMS",%progbits,1
 160              		.align	2
 161              	.LC0:
 162 0000 41424300 		.ascii	"ABC\000"
 163              		.section	.rodata.patternmsg,"a",%progbits
 164              		.align	2
 165              		.type	patternmsg, %object
 166              		.size	patternmsg, 8
 167              	patternmsg:
 168 0000 00000000 		.word	testmsg1
 169 0004 00000000 		.word	0
 170              		.section	.rodata.str1.4,"aMS",%progbits,1
 171              		.align	2
ARM GAS  /tmp/ccmGo9v6.s 			page 4


 172              	.LC1:
 173 0000 4D657373 		.ascii	"Messages, loop\000"
 173      61676573 
 173      2C206C6F 
 173      6F7000
 174              		.section	.rodata.testmsg1,"a",%progbits
 175              		.align	2
 176              		.type	testmsg1, %object
 177              		.size	testmsg1, 16
 178              	testmsg1:
 179 0000 00000000 		.word	.LC1
 180 0004 00000000 		.word	0
 181 0008 00000000 		.word	0
 182 000c 00000000 		.word	msg1_execute
 183              		.text
 184              	.Letext0:
 185              		.file 2 "/usr/include/newlib/machine/_default_types.h"
 186              		.file 3 "/usr/include/newlib/sys/_stdint.h"
 187              		.file 4 "../../os/ports/GCC/ARM/chtypes.h"
 188              		.file 5 "../../os/kernel/include/chlists.h"
 189              		.file 6 "../../os/kernel/include/chthreads.h"
 190              		.file 7 "../../os/ports/GCC/ARM/chcore.h"
 191              		.file 8 "../../os/kernel/include/chvt.h"
 192              		.file 9 "../../os/kernel/include/chschd.h"
 193              		.file 10 "../../os/kernel/include/chmtx.h"
 194              		.file 11 "../../os/kernel/include/chregistry.h"
 195              		.file 12 "../../os/kernel/include/ch.h"
 196              		.file 13 "../../test/test.h"
 197              		.file 14 "../../os/kernel/include/chmsg.h"