ARM GAS  /tmp/ccCqB4ls.s 			page 1


   1              		.cpu arm1176jz-s
   2              		.eabi_attribute 20, 1
   3              		.eabi_attribute 21, 1
   4              		.eabi_attribute 23, 3
   5              		.eabi_attribute 24, 1
   6              		.eabi_attribute 25, 1
   7              		.eabi_attribute 26, 1
   8              		.eabi_attribute 30, 2
   9              		.eabi_attribute 34, 1
  10              		.eabi_attribute 18, 4
  11              		.file	"testqueues.c"
  12              		.text
  13              	.Ltext0:
  14              		.cfi_sections	.debug_frame
  15              		.section	.text.notify,"ax",%progbits
  16              		.align	2
  17              		.syntax unified
  18              		.arm
  19              		.fpu softvfp
  20              		.type	notify, %function
  21              	notify:
  22              	.LFB7:
  23              		.file 1 "../../test/testqueues.c"
  24              		.loc 1 61 0
  25              		.cfi_startproc
  26              		@ args = 0, pretend = 0, frame = 0
  27              		@ frame_needed = 0, uses_anonymous_args = 0
  28              		@ link register save eliminated.
  29              	.LVL0:
  30 0000 1EFF2FE1 		bx	lr
  31              		.cfi_endproc
  32              	.LFE7:
  33              		.size	notify, .-notify
  34              		.section	.text.thread1,"ax",%progbits
  35              		.align	2
  36              		.syntax unified
  37              		.arm
  38              		.fpu softvfp
  39              		.type	thread1, %function
  40              	thread1:
  41              	.LFB9:
  42              		.loc 1 87 0
  43              		.cfi_startproc
  44              		@ args = 0, pretend = 0, frame = 0
  45              		@ frame_needed = 0, uses_anonymous_args = 0
  46              	.LVL1:
  47              		.loc 1 87 0
  48 0000 10402DE9 		push	{r4, lr}
  49              		.cfi_def_cfa_offset 8
  50              		.cfi_offset 4, -8
  51              		.cfi_offset 14, -4
  52              		.loc 1 90 0
  53 0004 C810A0E3 		mov	r1, #200
  54 0008 08009FE5 		ldr	r0, .L4
  55              	.LVL2:
  56 000c FEFFFFEB 		bl	chIQGetTimeout
  57              	.LVL3:
ARM GAS  /tmp/ccCqB4ls.s 			page 2


  58              		.loc 1 92 0
  59 0010 0000A0E3 		mov	r0, #0
  60 0014 1080BDE8 		pop	{r4, pc}
  61              	.L5:
  62              		.align	2
  63              	.L4:
  64 0018 00000000 		.word	.LANCHOR0
  65              		.cfi_endproc
  66              	.LFE9:
  67              		.size	thread1, .-thread1
  68              		.section	.text.queues1_setup,"ax",%progbits
  69              		.align	2
  70              		.syntax unified
  71              		.arm
  72              		.fpu softvfp
  73              		.type	queues1_setup, %function
  74              	queues1_setup:
  75              	.LFB8:
  76              		.loc 1 82 0
  77              		.cfi_startproc
  78              		@ args = 0, pretend = 0, frame = 0
  79              		@ frame_needed = 0, uses_anonymous_args = 0
  80              		.loc 1 84 0
  81 0000 0020A0E3 		mov	r2, #0
  82              		.loc 1 82 0
  83 0004 04E02DE5 		str	lr, [sp, #-4]!
  84              		.cfi_def_cfa_offset 4
  85              		.cfi_offset 14, -4
  86              		.loc 1 84 0
  87 0008 20309FE5 		ldr	r3, .L8
  88              		.loc 1 82 0
  89 000c 0CD04DE2 		sub	sp, sp, #12
  90              		.cfi_def_cfa_offset 16
  91              		.loc 1 84 0
  92 0010 00208DE5 		str	r2, [sp]
  93 0014 001093E5 		ldr	r1, [r3]
  94 0018 0420A0E3 		mov	r2, #4
  95 001c 10309FE5 		ldr	r3, .L8+4
  96 0020 10009FE5 		ldr	r0, .L8+8
  97 0024 FEFFFFEB 		bl	chIQInit
  98              	.LVL4:
  99              		.loc 1 85 0
 100 0028 0CD08DE2 		add	sp, sp, #12
 101              		.cfi_def_cfa_offset 4
 102              		@ sp needed
 103 002c 04F09DE4 		ldr	pc, [sp], #4
 104              	.L9:
 105              		.align	2
 106              	.L8:
 107 0030 00000000 		.word	wa
 108 0034 00000000 		.word	notify
 109 0038 00000000 		.word	.LANCHOR0
 110              		.cfi_endproc
 111              	.LFE8:
 112              		.size	queues1_setup, .-queues1_setup
 113              		.section	.text.thread2,"ax",%progbits
 114              		.align	2
ARM GAS  /tmp/ccCqB4ls.s 			page 3


 115              		.syntax unified
 116              		.arm
 117              		.fpu softvfp
 118              		.type	thread2, %function
 119              	thread2:
 120              	.LFB12:
 121              		.loc 1 174 0
 122              		.cfi_startproc
 123              		@ args = 0, pretend = 0, frame = 0
 124              		@ frame_needed = 0, uses_anonymous_args = 0
 125              	.LVL5:
 126 0000 10402DE9 		push	{r4, lr}
 127              		.cfi_def_cfa_offset 8
 128              		.cfi_offset 4, -8
 129              		.cfi_offset 14, -4
 130              		.loc 1 177 0
 131 0004 C820A0E3 		mov	r2, #200
 132 0008 0010A0E3 		mov	r1, #0
 133 000c 08009FE5 		ldr	r0, .L12
 134              	.LVL6:
 135 0010 FEFFFFEB 		bl	chOQPutTimeout
 136              	.LVL7:
 137              		.loc 1 179 0
 138 0014 0000A0E3 		mov	r0, #0
 139 0018 1080BDE8 		pop	{r4, pc}
 140              	.L13:
 141              		.align	2
 142              	.L12:
 143 001c 00000000 		.word	.LANCHOR1
 144              		.cfi_endproc
 145              	.LFE12:
 146              		.size	thread2, .-thread2
 147              		.section	.text.queues2_setup,"ax",%progbits
 148              		.align	2
 149              		.syntax unified
 150              		.arm
 151              		.fpu softvfp
 152              		.type	queues2_setup, %function
 153              	queues2_setup:
 154              	.LFB11:
 155              		.loc 1 169 0
 156              		.cfi_startproc
 157              		@ args = 0, pretend = 0, frame = 0
 158              		@ frame_needed = 0, uses_anonymous_args = 0
 159              		.loc 1 171 0
 160 0000 0020A0E3 		mov	r2, #0
 161              		.loc 1 169 0
 162 0004 04E02DE5 		str	lr, [sp, #-4]!
 163              		.cfi_def_cfa_offset 4
 164              		.cfi_offset 14, -4
 165              		.loc 1 171 0
 166 0008 20309FE5 		ldr	r3, .L16
 167              		.loc 1 169 0
 168 000c 0CD04DE2 		sub	sp, sp, #12
 169              		.cfi_def_cfa_offset 16
 170              		.loc 1 171 0
 171 0010 00208DE5 		str	r2, [sp]
ARM GAS  /tmp/ccCqB4ls.s 			page 4


 172 0014 001093E5 		ldr	r1, [r3]
 173 0018 0420A0E3 		mov	r2, #4
 174 001c 10309FE5 		ldr	r3, .L16+4
 175 0020 10009FE5 		ldr	r0, .L16+8
 176 0024 FEFFFFEB 		bl	chOQInit
 177              	.LVL8:
 178              		.loc 1 172 0
 179 0028 0CD08DE2 		add	sp, sp, #12
 180              		.cfi_def_cfa_offset 4
 181              		@ sp needed
 182 002c 04F09DE4 		ldr	pc, [sp], #4
 183              	.L17:
 184              		.align	2
 185              	.L16:
 186 0030 00000000 		.word	wa
 187 0034 00000000 		.word	notify
 188 0038 00000000 		.word	.LANCHOR1
 189              		.cfi_endproc
 190              	.LFE11:
 191              		.size	queues2_setup, .-queues2_setup
 192              		.section	.text.queues1_execute,"ax",%progbits
 193              		.align	2
 194              		.syntax unified
 195              		.arm
 196              		.fpu softvfp
 197              		.type	queues1_execute, %function
 198              	queues1_execute:
 199              	.LFB10:
 200              		.loc 1 94 0
 201              		.cfi_startproc
 202              		@ args = 0, pretend = 0, frame = 0
 203              		@ frame_needed = 0, uses_anonymous_args = 0
 204 0000 F0402DE9 		push	{r4, r5, r6, r7, lr}
 205              		.cfi_def_cfa_offset 20
 206              		.cfi_offset 4, -20
 207              		.cfi_offset 5, -16
 208              		.cfi_offset 6, -12
 209              		.cfi_offset 7, -8
 210              		.cfi_offset 14, -4
 211 0004 0CD04DE2 		sub	sp, sp, #12
 212              		.cfi_def_cfa_offset 32
 213              		.loc 1 99 0
 214              		.syntax divided
 215              	@ 99 "../../test/testqueues.c" 1
 216 0008 9FF021E3 		msr     CPSR_c, #0x9F
 217              	@ 0 "" 2
 218              		.arm
 219              		.syntax unified
 220 000c 08539FE5 		ldr	r5, .L45
 221 0010 0100A0E3 		mov	r0, #1
 222 0014 081095E5 		ldr	r1, [r5, #8]
 223 0018 111F6FE1 		clz	r1, r1
 224 001c A112A0E1 		lsr	r1, r1, #5
 225 0020 FEFFFFEB 		bl	_test_assert
 226              	.LVL9:
 227 0024 000050E3 		cmp	r0, #0
 228 0028 1500001A 		bne	.L41
ARM GAS  /tmp/ccCqB4ls.s 			page 5


 229              		.loc 1 99 0 is_stmt 0 discriminator 2
 230              		.syntax divided
 231              	@ 99 "../../test/testqueues.c" 1
 232 002c 1FF021E3 		msr     CPSR_c, #0x1F
 233              	@ 0 "" 2
 234              		.loc 1 102 0 is_stmt 1 discriminator 2
 235              	@ 102 "../../test/testqueues.c" 1
 236 0030 9FF021E3 		msr     CPSR_c, #0x9F
 237              	@ 0 "" 2
 238              	.LVL10:
 239              		.arm
 240              		.syntax unified
 241 0034 4140A0E3 		mov	r4, #65
 242              		.loc 1 104 0 discriminator 2
 243 0038 0560A0E1 		mov	r6, r5
 244              	.LVL11:
 245              	.L21:
 246              		.loc 1 104 0 is_stmt 0 discriminator 3
 247 003c 0410A0E1 		mov	r1, r4
 248 0040 014084E2 		add	r4, r4, #1
 249 0044 0600A0E1 		mov	r0, r6
 250 0048 7440EFE6 		uxtb	r4, r4
 251 004c FEFFFFEB 		bl	chIQPutI
 252              	.LVL12:
 253              		.loc 1 103 0 is_stmt 1 discriminator 3
 254 0050 450054E3 		cmp	r4, #69
 255 0054 F8FFFF1A 		bne	.L21
 256              		.loc 1 105 0
 257              		.syntax divided
 258              	@ 105 "../../test/testqueues.c" 1
 259 0058 1FF021E3 		msr     CPSR_c, #0x1F
 260              	@ 0 "" 2
 261              		.loc 1 106 0
 262              	@ 106 "../../test/testqueues.c" 1
 263 005c 9FF021E3 		msr     CPSR_c, #0x9F
 264              	@ 0 "" 2
 265              		.arm
 266              		.syntax unified
 267 0060 142095E5 		ldr	r2, [r5, #20]
 268 0064 183095E5 		ldr	r3, [r5, #24]
 269 0068 030052E1 		cmp	r2, r3
 270 006c 0010A013 		movne	r1, #0
 271 0070 A500000A 		beq	.L43
 272              	.L22:
 273              		.loc 1 106 0 is_stmt 0 discriminator 6
 274 0074 0200A0E3 		mov	r0, #2
 275 0078 FEFFFFEB 		bl	_test_assert
 276              	.LVL13:
 277 007c 001050E2 		subs	r1, r0, #0
 278 0080 0200000A 		beq	.L44
 279              	.L41:
 280              	.LBB5:
 281              	.LBB6:
 282              		.loc 1 146 0 is_stmt 1
 283              		.syntax divided
 284              	@ 146 "../../test/testqueues.c" 1
 285 0084 1FF021E3 		msr     CPSR_c, #0x1F
ARM GAS  /tmp/ccCqB4ls.s 			page 6


 286              	@ 0 "" 2
 287              		.arm
 288              		.syntax unified
 289              	.L18:
 290              	.LBE6:
 291              	.LBE5:
 292              		.loc 1 151 0
 293 0088 0CD08DE2 		add	sp, sp, #12
 294              		.cfi_remember_state
 295              		.cfi_def_cfa_offset 20
 296              		@ sp needed
 297 008c F080BDE8 		pop	{r4, r5, r6, r7, pc}
 298              	.L44:
 299              		.cfi_restore_state
 300              	.LBB9:
 301              	.LBB7:
 302              		.loc 1 106 0
 303              		.syntax divided
 304              	@ 106 "../../test/testqueues.c" 1
 305 0090 1FF021E3 		msr     CPSR_c, #0x1F
 306              	@ 0 "" 2
 307              		.loc 1 107 0
 308              	@ 107 "../../test/testqueues.c" 1
 309 0094 9FF021E3 		msr     CPSR_c, #0x9F
 310              	@ 0 "" 2
 311              		.arm
 312              		.syntax unified
 313 0098 7C029FE5 		ldr	r0, .L45
 314 009c FEFFFFEB 		bl	chIQPutI
 315              	.LVL14:
 316 00a0 040070E3 		cmn	r0, #4
 317 00a4 0010A013 		movne	r1, #0
 318 00a8 0110A003 		moveq	r1, #1
 319 00ac 0300A0E3 		mov	r0, #3
 320 00b0 FEFFFFEB 		bl	_test_assert
 321              	.LVL15:
 322 00b4 000050E3 		cmp	r0, #0
 323 00b8 F1FFFF1A 		bne	.L41
 324              		.syntax divided
 325              	@ 107 "../../test/testqueues.c" 1
 326 00bc 1FF021E3 		msr     CPSR_c, #0x1F
 327              	@ 0 "" 2
 328              	.LVL16:
 329              		.arm
 330              		.syntax unified
 331 00c0 0440A0E3 		mov	r4, #4
 332              		.loc 1 111 0
 333 00c4 0070E0E3 		mvn	r7, #0
 334 00c8 4C629FE5 		ldr	r6, .L45
 335              	.LVL17:
 336              	.L25:
 337 00cc 0710A0E1 		mov	r1, r7
 338 00d0 0600A0E1 		mov	r0, r6
 339 00d4 FEFFFFEB 		bl	chIQGetTimeout
 340              	.LVL18:
 341 00d8 7000EFE6 		uxtb	r0, r0
 342 00dc FEFFFFEB 		bl	test_emit_token
ARM GAS  /tmp/ccCqB4ls.s 			page 7


 343              	.LVL19:
 344              		.loc 1 110 0
 345 00e0 014054E2 		subs	r4, r4, #1
 346              	.LVL20:
 347 00e4 F8FFFF1A 		bne	.L25
 348              		.loc 1 112 0
 349              		.syntax divided
 350              	@ 112 "../../test/testqueues.c" 1
 351 00e8 9FF021E3 		msr     CPSR_c, #0x9F
 352              	@ 0 "" 2
 353              		.arm
 354              		.syntax unified
 355 00ec 081095E5 		ldr	r1, [r5, #8]
 356 00f0 0400A0E3 		mov	r0, #4
 357 00f4 111F6FE1 		clz	r1, r1
 358 00f8 A112A0E1 		lsr	r1, r1, #5
 359 00fc FEFFFFEB 		bl	_test_assert
 360              	.LVL21:
 361 0100 000050E3 		cmp	r0, #0
 362 0104 DEFFFF1A 		bne	.L41
 363              		.syntax divided
 364              	@ 112 "../../test/testqueues.c" 1
 365 0108 1FF021E3 		msr     CPSR_c, #0x1F
 366              	@ 0 "" 2
 367              		.loc 1 113 0
 368              		.arm
 369              		.syntax unified
 370 010c 0C129FE5 		ldr	r1, .L45+4
 371 0110 0500A0E3 		mov	r0, #5
 372 0114 FEFFFFEB 		bl	_test_assert_sequence
 373              	.LVL22:
 374 0118 000050E3 		cmp	r0, #0
 375 011c D9FFFF1A 		bne	.L18
 376              		.loc 1 116 0
 377              		.syntax divided
 378              	@ 116 "../../test/testqueues.c" 1
 379 0120 9FF021E3 		msr     CPSR_c, #0x9F
 380              	@ 0 "" 2
 381              	.LVL23:
 382              		.arm
 383              		.syntax unified
 384 0124 4140A0E3 		mov	r4, #65
 385              		.loc 1 118 0
 386 0128 EC619FE5 		ldr	r6, .L45
 387              	.LVL24:
 388              	.L28:
 389 012c 0410A0E1 		mov	r1, r4
 390 0130 014084E2 		add	r4, r4, #1
 391 0134 0600A0E1 		mov	r0, r6
 392 0138 7440EFE6 		uxtb	r4, r4
 393 013c FEFFFFEB 		bl	chIQPutI
 394              	.LVL25:
 395              		.loc 1 117 0
 396 0140 450054E3 		cmp	r4, #69
 397 0144 F8FFFF1A 		bne	.L28
 398              		.loc 1 119 0
 399              		.syntax divided
ARM GAS  /tmp/ccCqB4ls.s 			page 8


 400              	@ 119 "../../test/testqueues.c" 1
 401 0148 1FF021E3 		msr     CPSR_c, #0x1F
 402              	@ 0 "" 2
 403              		.loc 1 122 0
 404              		.arm
 405              		.syntax unified
 406 014c D0619FE5 		ldr	r6, .L45+8
 407 0150 0030A0E3 		mov	r3, #0
 408 0154 041096E5 		ldr	r1, [r6, #4]
 409 0158 0820A0E3 		mov	r2, #8
 410 015c B8019FE5 		ldr	r0, .L45
 411 0160 FEFFFFEB 		bl	chIQReadTimeout
 412              	.LVL26:
 413              		.loc 1 123 0
 414 0164 041040E2 		sub	r1, r0, #4
 415 0168 111F6FE1 		clz	r1, r1
 416 016c 0600A0E3 		mov	r0, #6
 417              	.LVL27:
 418 0170 A112A0E1 		lsr	r1, r1, #5
 419 0174 FEFFFFEB 		bl	_test_assert
 420              	.LVL28:
 421 0178 000050E3 		cmp	r0, #0
 422 017c C1FFFF1A 		bne	.L18
 423              		.loc 1 124 0
 424              		.syntax divided
 425              	@ 124 "../../test/testqueues.c" 1
 426 0180 9FF021E3 		msr     CPSR_c, #0x9F
 427              	@ 0 "" 2
 428              		.arm
 429              		.syntax unified
 430 0184 081095E5 		ldr	r1, [r5, #8]
 431 0188 0700A0E3 		mov	r0, #7
 432 018c 111F6FE1 		clz	r1, r1
 433 0190 A112A0E1 		lsr	r1, r1, #5
 434 0194 FEFFFFEB 		bl	_test_assert
 435              	.LVL29:
 436 0198 000050E3 		cmp	r0, #0
 437 019c B8FFFF1A 		bne	.L41
 438              		.syntax divided
 439              	@ 124 "../../test/testqueues.c" 1
 440 01a0 1FF021E3 		msr     CPSR_c, #0x1F
 441              	@ 0 "" 2
 442              		.loc 1 127 0
 443              	@ 127 "../../test/testqueues.c" 1
 444 01a4 9FF021E3 		msr     CPSR_c, #0x9F
 445              	@ 0 "" 2
 446              	.LVL30:
 447              		.arm
 448              		.syntax unified
 449 01a8 4140A0E3 		mov	r4, #65
 450              		.loc 1 129 0
 451 01ac 68719FE5 		ldr	r7, .L45
 452              	.LVL31:
 453              	.L31:
 454 01b0 0410A0E1 		mov	r1, r4
 455 01b4 014084E2 		add	r4, r4, #1
 456 01b8 0700A0E1 		mov	r0, r7
ARM GAS  /tmp/ccCqB4ls.s 			page 9


 457 01bc 7440EFE6 		uxtb	r4, r4
 458 01c0 FEFFFFEB 		bl	chIQPutI
 459              	.LVL32:
 460              		.loc 1 128 0
 461 01c4 450054E3 		cmp	r4, #69
 462 01c8 F8FFFF1A 		bne	.L31
 463              		.loc 1 130 0
 464              		.syntax divided
 465              	@ 130 "../../test/testqueues.c" 1
 466 01cc 1FF021E3 		msr     CPSR_c, #0x1F
 467              	@ 0 "" 2
 468              		.loc 1 133 0
 469              		.arm
 470              		.syntax unified
 471 01d0 044096E5 		ldr	r4, [r6, #4]
 472 01d4 0030A0E3 		mov	r3, #0
 473 01d8 0410A0E1 		mov	r1, r4
 474 01dc 0220A0E3 		mov	r2, #2
 475 01e0 34019FE5 		ldr	r0, .L45
 476 01e4 FEFFFFEB 		bl	chIQReadTimeout
 477              	.LVL33:
 478              		.loc 1 134 0
 479 01e8 021040E2 		sub	r1, r0, #2
 480 01ec 111F6FE1 		clz	r1, r1
 481 01f0 0800A0E3 		mov	r0, #8
 482              	.LVL34:
 483 01f4 A112A0E1 		lsr	r1, r1, #5
 484 01f8 FEFFFFEB 		bl	_test_assert
 485              	.LVL35:
 486 01fc 003050E2 		subs	r3, r0, #0
 487 0200 A0FFFF1A 		bne	.L18
 488              		.loc 1 135 0
 489 0204 0410A0E1 		mov	r1, r4
 490 0208 0220A0E3 		mov	r2, #2
 491 020c 08019FE5 		ldr	r0, .L45
 492 0210 FEFFFFEB 		bl	chIQReadTimeout
 493              	.LVL36:
 494              		.loc 1 136 0
 495 0214 021040E2 		sub	r1, r0, #2
 496 0218 111F6FE1 		clz	r1, r1
 497 021c 0900A0E3 		mov	r0, #9
 498              	.LVL37:
 499 0220 A112A0E1 		lsr	r1, r1, #5
 500 0224 FEFFFFEB 		bl	_test_assert
 501              	.LVL38:
 502 0228 000050E3 		cmp	r0, #0
 503 022c 95FFFF1A 		bne	.L18
 504              		.loc 1 137 0
 505              		.syntax divided
 506              	@ 137 "../../test/testqueues.c" 1
 507 0230 9FF021E3 		msr     CPSR_c, #0x9F
 508              	@ 0 "" 2
 509              		.arm
 510              		.syntax unified
 511 0234 081095E5 		ldr	r1, [r5, #8]
 512 0238 0A00A0E3 		mov	r0, #10
 513 023c 111F6FE1 		clz	r1, r1
ARM GAS  /tmp/ccCqB4ls.s 			page 10


 514 0240 A112A0E1 		lsr	r1, r1, #5
 515 0244 FEFFFFEB 		bl	_test_assert
 516              	.LVL39:
 517 0248 001050E2 		subs	r1, r0, #0
 518 024c 8CFFFF1A 		bne	.L41
 519              		.syntax divided
 520              	@ 137 "../../test/testqueues.c" 1
 521 0250 1FF021E3 		msr     CPSR_c, #0x1F
 522              	@ 0 "" 2
 523              		.loc 1 140 0
 524              	@ 140 "../../test/testqueues.c" 1
 525 0254 9FF021E3 		msr     CPSR_c, #0x9F
 526              	@ 0 "" 2
 527              		.loc 1 141 0
 528              		.arm
 529              		.syntax unified
 530 0258 BC009FE5 		ldr	r0, .L45
 531 025c FEFFFFEB 		bl	chIQPutI
 532              	.LVL40:
 533              		.loc 1 142 0
 534 0260 B4009FE5 		ldr	r0, .L45
 535 0264 FEFFFFEB 		bl	chIQResetI
 536              	.LVL41:
 537              		.loc 1 143 0
 538              		.syntax divided
 539              	@ 143 "../../test/testqueues.c" 1
 540 0268 1FF021E3 		msr     CPSR_c, #0x1F
 541              	@ 0 "" 2
 542              		.loc 1 144 0
 543              	@ 144 "../../test/testqueues.c" 1
 544 026c 9FF021E3 		msr     CPSR_c, #0x9F
 545              	@ 0 "" 2
 546              		.arm
 547              		.syntax unified
 548 0270 081095E5 		ldr	r1, [r5, #8]
 549 0274 0B00A0E3 		mov	r0, #11
 550 0278 111F6FE1 		clz	r1, r1
 551 027c A112A0E1 		lsr	r1, r1, #5
 552 0280 FEFFFFEB 		bl	_test_assert
 553              	.LVL42:
 554 0284 00C050E2 		subs	ip, r0, #0
 555 0288 7DFFFF1A 		bne	.L41
 556              		.syntax divided
 557              	@ 144 "../../test/testqueues.c" 1
 558 028c 1FF021E3 		msr     CPSR_c, #0x1F
 559              	@ 0 "" 2
 560              		.loc 1 145 0
 561              		.arm
 562              		.syntax unified
 563 0290 90309FE5 		ldr	r3, .L45+12
 564 0294 000096E5 		ldr	r0, [r6]
 565 0298 182093E5 		ldr	r2, [r3, #24]
 566 029c 461FA0E3 		mov	r1, #280
 567 02a0 082092E5 		ldr	r2, [r2, #8]
 568 02a4 80309FE5 		ldr	r3, .L45+16
 569 02a8 00C08DE5 		str	ip, [sp]
 570 02ac 012082E2 		add	r2, r2, #1
ARM GAS  /tmp/ccCqB4ls.s 			page 11


 571 02b0 FEFFFFEB 		bl	chThdCreateStatic
 572              	.LVL43:
 573 02b4 74309FE5 		ldr	r3, .L45+20
 574 02b8 000083E5 		str	r0, [r3]
 575              		.loc 1 146 0
 576              		.syntax divided
 577              	@ 146 "../../test/testqueues.c" 1
 578 02bc 9FF021E3 		msr     CPSR_c, #0x9F
 579              	@ 0 "" 2
 580              		.arm
 581              		.syntax unified
 582 02c0 081095E5 		ldr	r1, [r5, #8]
 583 02c4 0C00A0E3 		mov	r0, #12
 584 02c8 111F6FE1 		clz	r1, r1
 585 02cc A112A0E1 		lsr	r1, r1, #5
 586 02d0 FEFFFFEB 		bl	_test_assert
 587              	.LVL44:
 588 02d4 000050E3 		cmp	r0, #0
 589 02d8 69FFFF1A 		bne	.L41
 590              		.syntax divided
 591              	@ 146 "../../test/testqueues.c" 1
 592 02dc 1FF021E3 		msr     CPSR_c, #0x1F
 593              	@ 0 "" 2
 594              		.loc 1 147 0
 595              		.arm
 596              		.syntax unified
 597 02e0 FEFFFFEB 		bl	test_wait_threads
 598              	.LVL45:
 599              		.loc 1 150 0
 600 02e4 0A10A0E3 		mov	r1, #10
 601 02e8 2C009FE5 		ldr	r0, .L45
 602 02ec FEFFFFEB 		bl	chIQGetTimeout
 603              	.LVL46:
 604 02f0 010070E3 		cmn	r0, #1
 605 02f4 0010A013 		movne	r1, #0
 606 02f8 0110A003 		moveq	r1, #1
 607 02fc 0D00A0E3 		mov	r0, #13
 608              	.LBE7:
 609              	.LBE9:
 610              		.loc 1 151 0
 611 0300 0CD08DE2 		add	sp, sp, #12
 612              		.cfi_remember_state
 613              		.cfi_def_cfa_offset 20
 614              		@ sp needed
 615 0304 F040BDE8 		pop	{r4, r5, r6, r7, lr}
 616              		.cfi_restore 14
 617              		.cfi_restore 7
 618              		.cfi_restore 6
 619              		.cfi_restore 5
 620              		.cfi_restore 4
 621              		.cfi_def_cfa_offset 0
 622              	.LBB10:
 623              	.LBB8:
 624              		.loc 1 150 0
 625 0308 FEFFFFEA 		b	_test_assert
 626              	.LVL47:
 627              	.L43:
ARM GAS  /tmp/ccCqB4ls.s 			page 12


 628              		.cfi_restore_state
 629              	.LBE8:
 630              	.LBE10:
 631              		.loc 1 106 0 discriminator 1
 632 030c 081095E5 		ldr	r1, [r5, #8]
 633 0310 001091E2 		adds	r1, r1, #0
 634 0314 0110A013 		movne	r1, #1
 635 0318 55FFFFEA 		b	.L22
 636              	.L46:
 637              		.align	2
 638              	.L45:
 639 031c 00000000 		.word	.LANCHOR0
 640 0320 00000000 		.word	.LC0
 641 0324 00000000 		.word	wa
 642 0328 00000000 		.word	rlist
 643 032c 00000000 		.word	thread1
 644 0330 00000000 		.word	threads
 645              		.cfi_endproc
 646              	.LFE10:
 647              		.size	queues1_execute, .-queues1_execute
 648              		.section	.text.queues2_execute,"ax",%progbits
 649              		.align	2
 650              		.syntax unified
 651              		.arm
 652              		.fpu softvfp
 653              		.type	queues2_execute, %function
 654              	queues2_execute:
 655              	.LFB13:
 656              		.loc 1 181 0
 657              		.cfi_startproc
 658              		@ args = 0, pretend = 0, frame = 0
 659              		@ frame_needed = 0, uses_anonymous_args = 0
 660 0000 F0402DE9 		push	{r4, r5, r6, r7, lr}
 661              		.cfi_def_cfa_offset 20
 662              		.cfi_offset 4, -20
 663              		.cfi_offset 5, -16
 664              		.cfi_offset 6, -12
 665              		.cfi_offset 7, -8
 666              		.cfi_offset 14, -4
 667 0004 0CD04DE2 		sub	sp, sp, #12
 668              		.cfi_def_cfa_offset 32
 669              		.loc 1 186 0
 670              		.syntax divided
 671              	@ 186 "../../test/testqueues.c" 1
 672 0008 9FF021E3 		msr     CPSR_c, #0x9F
 673              	@ 0 "" 2
 674              		.arm
 675              		.syntax unified
 676 000c DC529FE5 		ldr	r5, .L72
 677 0010 142095E5 		ldr	r2, [r5, #20]
 678 0014 183095E5 		ldr	r3, [r5, #24]
 679 0018 030052E1 		cmp	r2, r3
 680 001c 0010A013 		movne	r1, #0
 681 0020 AA00000A 		beq	.L69
 682              	.L48:
 683              		.loc 1 186 0 is_stmt 0 discriminator 6
 684 0024 0100A0E3 		mov	r0, #1
ARM GAS  /tmp/ccCqB4ls.s 			page 13


 685 0028 FEFFFFEB 		bl	_test_assert
 686              	.LVL48:
 687 002c 000050E3 		cmp	r0, #0
 688 0030 2800001A 		bne	.L68
 689              		.loc 1 186 0 discriminator 8
 690              		.syntax divided
 691              	@ 186 "../../test/testqueues.c" 1
 692 0034 1FF021E3 		msr     CPSR_c, #0x1F
 693              	@ 0 "" 2
 694              	.LVL49:
 695              		.arm
 696              		.syntax unified
 697 0038 4140A0E3 		mov	r4, #65
 698              		.loc 1 190 0 is_stmt 1 discriminator 8
 699 003c 0070E0E3 		mvn	r7, #0
 700 0040 A8629FE5 		ldr	r6, .L72
 701              	.LVL50:
 702              	.L51:
 703              		.loc 1 190 0 is_stmt 0 discriminator 3
 704 0044 0410A0E1 		mov	r1, r4
 705 0048 014084E2 		add	r4, r4, #1
 706 004c 0720A0E1 		mov	r2, r7
 707 0050 0600A0E1 		mov	r0, r6
 708 0054 7440EFE6 		uxtb	r4, r4
 709 0058 FEFFFFEB 		bl	chOQPutTimeout
 710              	.LVL51:
 711              		.loc 1 189 0 is_stmt 1 discriminator 3
 712 005c 450054E3 		cmp	r4, #69
 713 0060 F7FFFF1A 		bne	.L51
 714              		.loc 1 191 0
 715              		.syntax divided
 716              	@ 191 "../../test/testqueues.c" 1
 717 0064 9FF021E3 		msr     CPSR_c, #0x9F
 718              	@ 0 "" 2
 719              		.arm
 720              		.syntax unified
 721 0068 081095E5 		ldr	r1, [r5, #8]
 722 006c 0200A0E3 		mov	r0, #2
 723 0070 111F6FE1 		clz	r1, r1
 724 0074 A112A0E1 		lsr	r1, r1, #5
 725 0078 FEFFFFEB 		bl	_test_assert
 726              	.LVL52:
 727 007c 000050E3 		cmp	r0, #0
 728 0080 1400001A 		bne	.L68
 729              	.LBB14:
 730              	.LBB15:
 731              		.syntax divided
 732              	@ 191 "../../test/testqueues.c" 1
 733 0084 1FF021E3 		msr     CPSR_c, #0x1F
 734              	@ 0 "" 2
 735              	.LVL53:
 736              		.arm
 737              		.syntax unified
 738 0088 0440A0E3 		mov	r4, #4
 739              	.LBB16:
 740              		.loc 1 198 0
 741 008c 5C629FE5 		ldr	r6, .L72
ARM GAS  /tmp/ccCqB4ls.s 			page 14


 742              	.LVL54:
 743              	.L53:
 744              		.loc 1 197 0
 745              		.syntax divided
 746              	@ 197 "../../test/testqueues.c" 1
 747 0090 9FF021E3 		msr     CPSR_c, #0x9F
 748              	@ 0 "" 2
 749              		.loc 1 198 0
 750              		.arm
 751              		.syntax unified
 752 0094 0600A0E1 		mov	r0, r6
 753 0098 FEFFFFEB 		bl	chOQGetI
 754              	.LVL55:
 755              		.loc 1 199 0
 756              		.syntax divided
 757              	@ 199 "../../test/testqueues.c" 1
 758 009c 1FF021E3 		msr     CPSR_c, #0x1F
 759              	@ 0 "" 2
 760              		.loc 1 200 0
 761              		.arm
 762              		.syntax unified
 763 00a0 7000EFE6 		uxtb	r0, r0
 764 00a4 FEFFFFEB 		bl	test_emit_token
 765              	.LVL56:
 766              	.LBE16:
 767              		.loc 1 194 0
 768 00a8 014054E2 		subs	r4, r4, #1
 769              	.LVL57:
 770 00ac F7FFFF1A 		bne	.L53
 771              		.loc 1 202 0
 772              		.syntax divided
 773              	@ 202 "../../test/testqueues.c" 1
 774 00b0 9FF021E3 		msr     CPSR_c, #0x9F
 775              	@ 0 "" 2
 776              		.arm
 777              		.syntax unified
 778 00b4 142095E5 		ldr	r2, [r5, #20]
 779 00b8 183095E5 		ldr	r3, [r5, #24]
 780 00bc 030052E1 		cmp	r2, r3
 781 00c0 0410A011 		movne	r1, r4
 782 00c4 8500000A 		beq	.L70
 783              	.L54:
 784 00c8 0300A0E3 		mov	r0, #3
 785 00cc FEFFFFEB 		bl	_test_assert
 786              	.LVL58:
 787 00d0 000050E3 		cmp	r0, #0
 788 00d4 0200000A 		beq	.L71
 789              	.LVL59:
 790              	.L68:
 791              		.loc 1 225 0
 792              		.syntax divided
 793              	@ 225 "../../test/testqueues.c" 1
 794 00d8 1FF021E3 		msr     CPSR_c, #0x1F
 795              	@ 0 "" 2
 796              		.arm
 797              		.syntax unified
 798              	.L47:
ARM GAS  /tmp/ccCqB4ls.s 			page 15


 799              	.LBE15:
 800              	.LBE14:
 801              		.loc 1 229 0
 802 00dc 0CD08DE2 		add	sp, sp, #12
 803              		.cfi_remember_state
 804              		.cfi_def_cfa_offset 20
 805              		@ sp needed
 806 00e0 F080BDE8 		pop	{r4, r5, r6, r7, pc}
 807              	.LVL60:
 808              	.L71:
 809              		.cfi_restore_state
 810              	.LBB20:
 811              	.LBB17:
 812              		.loc 1 202 0
 813              		.syntax divided
 814              	@ 202 "../../test/testqueues.c" 1
 815 00e4 1FF021E3 		msr     CPSR_c, #0x1F
 816              	@ 0 "" 2
 817              		.loc 1 203 0
 818              		.arm
 819              		.syntax unified
 820 00e8 04129FE5 		ldr	r1, .L72+4
 821 00ec 0400A0E3 		mov	r0, #4
 822 00f0 FEFFFFEB 		bl	_test_assert_sequence
 823              	.LVL61:
 824 00f4 000050E3 		cmp	r0, #0
 825 00f8 F7FFFF1A 		bne	.L47
 826              		.loc 1 204 0
 827              		.syntax divided
 828              	@ 204 "../../test/testqueues.c" 1
 829 00fc 9FF021E3 		msr     CPSR_c, #0x9F
 830              	@ 0 "" 2
 831              		.arm
 832              		.syntax unified
 833 0100 E8019FE5 		ldr	r0, .L72
 834 0104 FEFFFFEB 		bl	chOQGetI
 835              	.LVL62:
 836 0108 030070E3 		cmn	r0, #3
 837 010c 0010A013 		movne	r1, #0
 838 0110 0110A003 		moveq	r1, #1
 839 0114 0500A0E3 		mov	r0, #5
 840 0118 FEFFFFEB 		bl	_test_assert
 841              	.LVL63:
 842 011c 003050E2 		subs	r3, r0, #0
 843 0120 ECFFFF1A 		bne	.L68
 844              		.syntax divided
 845              	@ 204 "../../test/testqueues.c" 1
 846 0124 1FF021E3 		msr     CPSR_c, #0x1F
 847              	@ 0 "" 2
 848              		.loc 1 207 0
 849              		.arm
 850              		.syntax unified
 851 0128 C8619FE5 		ldr	r6, .L72+8
 852 012c 0820A0E3 		mov	r2, #8
 853 0130 044096E5 		ldr	r4, [r6, #4]
 854              	.LVL64:
 855 0134 B4019FE5 		ldr	r0, .L72
ARM GAS  /tmp/ccCqB4ls.s 			page 16


 856 0138 0410A0E1 		mov	r1, r4
 857 013c FEFFFFEB 		bl	chOQWriteTimeout
 858              	.LVL65:
 859              		.loc 1 208 0
 860 0140 041040E2 		sub	r1, r0, #4
 861 0144 111F6FE1 		clz	r1, r1
 862 0148 0600A0E3 		mov	r0, #6
 863              	.LVL66:
 864 014c A112A0E1 		lsr	r1, r1, #5
 865 0150 FEFFFFEB 		bl	_test_assert
 866              	.LVL67:
 867 0154 000050E3 		cmp	r0, #0
 868 0158 DFFFFF1A 		bne	.L47
 869              		.loc 1 209 0
 870              		.syntax divided
 871              	@ 209 "../../test/testqueues.c" 1
 872 015c 9FF021E3 		msr     CPSR_c, #0x9F
 873              	@ 0 "" 2
 874              		.arm
 875              		.syntax unified
 876 0160 081095E5 		ldr	r1, [r5, #8]
 877 0164 0700A0E3 		mov	r0, #7
 878 0168 111F6FE1 		clz	r1, r1
 879 016c A112A0E1 		lsr	r1, r1, #5
 880 0170 FEFFFFEB 		bl	_test_assert
 881              	.LVL68:
 882 0174 001050E2 		subs	r1, r0, #0
 883 0178 D6FFFF1A 		bne	.L68
 884              		.syntax divided
 885              	@ 209 "../../test/testqueues.c" 1
 886 017c 1FF021E3 		msr     CPSR_c, #0x1F
 887              	@ 0 "" 2
 888              		.loc 1 210 0
 889              		.arm
 890              		.syntax unified
 891 0180 74319FE5 		ldr	r3, .L72+12
 892 0184 000096E5 		ldr	r0, [r6]
 893 0188 183093E5 		ldr	r3, [r3, #24]
 894 018c 082093E5 		ldr	r2, [r3, #8]
 895 0190 00108DE5 		str	r1, [sp]
 896 0194 64319FE5 		ldr	r3, .L72+16
 897 0198 012082E2 		add	r2, r2, #1
 898 019c 461FA0E3 		mov	r1, #280
 899 01a0 FEFFFFEB 		bl	chThdCreateStatic
 900              	.LVL69:
 901 01a4 58319FE5 		ldr	r3, .L72+20
 902 01a8 000083E5 		str	r0, [r3]
 903              		.loc 1 211 0
 904              		.syntax divided
 905              	@ 211 "../../test/testqueues.c" 1
 906 01ac 9FF021E3 		msr     CPSR_c, #0x9F
 907              	@ 0 "" 2
 908              		.arm
 909              		.syntax unified
 910 01b0 101095E5 		ldr	r1, [r5, #16]
 911 01b4 0C2095E5 		ldr	r2, [r5, #12]
 912 01b8 083095E5 		ldr	r3, [r5, #8]
ARM GAS  /tmp/ccCqB4ls.s 			page 17


 913 01bc 021041E0 		sub	r1, r1, r2
 914 01c0 031041E0 		sub	r1, r1, r3
 915 01c4 041041E2 		sub	r1, r1, #4
 916 01c8 111F6FE1 		clz	r1, r1
 917 01cc 0800A0E3 		mov	r0, #8
 918 01d0 A112A0E1 		lsr	r1, r1, #5
 919 01d4 FEFFFFEB 		bl	_test_assert
 920              	.LVL70:
 921 01d8 000050E3 		cmp	r0, #0
 922 01dc BDFFFF1A 		bne	.L68
 923              		.syntax divided
 924              	@ 211 "../../test/testqueues.c" 1
 925 01e0 1FF021E3 		msr     CPSR_c, #0x1F
 926              	@ 0 "" 2
 927              		.loc 1 212 0
 928              		.arm
 929              		.syntax unified
 930 01e4 FEFFFFEB 		bl	test_wait_threads
 931              	.LVL71:
 932              		.loc 1 215 0
 933              		.syntax divided
 934              	@ 215 "../../test/testqueues.c" 1
 935 01e8 9FF021E3 		msr     CPSR_c, #0x9F
 936              	@ 0 "" 2
 937              		.loc 1 216 0
 938              		.arm
 939              		.syntax unified
 940 01ec FC009FE5 		ldr	r0, .L72
 941 01f0 FEFFFFEB 		bl	chOQResetI
 942              	.LVL72:
 943              		.loc 1 217 0
 944              		.syntax divided
 945              	@ 217 "../../test/testqueues.c" 1
 946 01f4 1FF021E3 		msr     CPSR_c, #0x1F
 947              	@ 0 "" 2
 948              		.loc 1 218 0
 949              	@ 218 "../../test/testqueues.c" 1
 950 01f8 9FF021E3 		msr     CPSR_c, #0x9F
 951              	@ 0 "" 2
 952              		.arm
 953              		.syntax unified
 954 01fc 081085E2 		add	r1, r5, #8
 955 0200 0E0091E8 		ldm	r1, {r1, r2, r3}
 956 0204 023043E0 		sub	r3, r3, r2
 957 0208 011043E0 		sub	r1, r3, r1
 958 020c 111F6FE1 		clz	r1, r1
 959 0210 0900A0E3 		mov	r0, #9
 960 0214 A112A0E1 		lsr	r1, r1, #5
 961 0218 FEFFFFEB 		bl	_test_assert
 962              	.LVL73:
 963 021c 003050E2 		subs	r3, r0, #0
 964 0220 ACFFFF1A 		bne	.L68
 965              		.syntax divided
 966              	@ 218 "../../test/testqueues.c" 1
 967 0224 1FF021E3 		msr     CPSR_c, #0x1F
 968              	@ 0 "" 2
 969              		.loc 1 221 0
ARM GAS  /tmp/ccCqB4ls.s 			page 18


 970              		.arm
 971              		.syntax unified
 972 0228 0220A0E3 		mov	r2, #2
 973 022c 0410A0E1 		mov	r1, r4
 974 0230 B8009FE5 		ldr	r0, .L72
 975 0234 FEFFFFEB 		bl	chOQWriteTimeout
 976              	.LVL74:
 977              		.loc 1 222 0
 978 0238 021040E2 		sub	r1, r0, #2
 979 023c 111F6FE1 		clz	r1, r1
 980 0240 0A00A0E3 		mov	r0, #10
 981              	.LVL75:
 982 0244 A112A0E1 		lsr	r1, r1, #5
 983 0248 FEFFFFEB 		bl	_test_assert
 984              	.LVL76:
 985 024c 003050E2 		subs	r3, r0, #0
 986 0250 A1FFFF1A 		bne	.L47
 987              		.loc 1 223 0
 988 0254 0410A0E1 		mov	r1, r4
 989 0258 0220A0E3 		mov	r2, #2
 990 025c 8C009FE5 		ldr	r0, .L72
 991 0260 FEFFFFEB 		bl	chOQWriteTimeout
 992              	.LVL77:
 993              		.loc 1 224 0
 994 0264 021040E2 		sub	r1, r0, #2
 995 0268 111F6FE1 		clz	r1, r1
 996 026c 0B00A0E3 		mov	r0, #11
 997              	.LVL78:
 998 0270 A112A0E1 		lsr	r1, r1, #5
 999 0274 FEFFFFEB 		bl	_test_assert
 1000              	.LVL79:
 1001 0278 000050E3 		cmp	r0, #0
 1002 027c 96FFFF1A 		bne	.L47
 1003              		.loc 1 225 0
 1004              		.syntax divided
 1005              	@ 225 "../../test/testqueues.c" 1
 1006 0280 9FF021E3 		msr     CPSR_c, #0x9F
 1007              	@ 0 "" 2
 1008              		.arm
 1009              		.syntax unified
 1010 0284 081095E5 		ldr	r1, [r5, #8]
 1011 0288 0C00A0E3 		mov	r0, #12
 1012 028c 111F6FE1 		clz	r1, r1
 1013 0290 A112A0E1 		lsr	r1, r1, #5
 1014 0294 FEFFFFEB 		bl	_test_assert
 1015              	.LVL80:
 1016 0298 000050E3 		cmp	r0, #0
 1017 029c 8DFFFF1A 		bne	.L68
 1018              		.syntax divided
 1019              	@ 225 "../../test/testqueues.c" 1
 1020 02a0 1FF021E3 		msr     CPSR_c, #0x1F
 1021              	@ 0 "" 2
 1022              		.loc 1 228 0
 1023              		.arm
 1024              		.syntax unified
 1025 02a4 0010A0E3 		mov	r1, #0
 1026 02a8 0A20A0E3 		mov	r2, #10
ARM GAS  /tmp/ccCqB4ls.s 			page 19


 1027 02ac 3C009FE5 		ldr	r0, .L72
 1028 02b0 FEFFFFEB 		bl	chOQPutTimeout
 1029              	.LVL81:
 1030 02b4 010070E3 		cmn	r0, #1
 1031 02b8 0010A013 		movne	r1, #0
 1032 02bc 0110A003 		moveq	r1, #1
 1033 02c0 0D00A0E3 		mov	r0, #13
 1034              	.LBE17:
 1035              	.LBE20:
 1036              		.loc 1 229 0
 1037 02c4 0CD08DE2 		add	sp, sp, #12
 1038              		.cfi_remember_state
 1039              		.cfi_def_cfa_offset 20
 1040              		@ sp needed
 1041 02c8 F040BDE8 		pop	{r4, r5, r6, r7, lr}
 1042              		.cfi_restore 14
 1043              		.cfi_restore 7
 1044              		.cfi_restore 6
 1045              		.cfi_restore 5
 1046              		.cfi_restore 4
 1047              		.cfi_def_cfa_offset 0
 1048              	.LBB21:
 1049              	.LBB18:
 1050              		.loc 1 228 0
 1051 02cc FEFFFFEA 		b	_test_assert
 1052              	.LVL82:
 1053              	.L69:
 1054              		.cfi_restore_state
 1055              	.LBE18:
 1056              	.LBE21:
 1057              		.loc 1 186 0 discriminator 1
 1058 02d0 081095E5 		ldr	r1, [r5, #8]
 1059 02d4 001091E2 		adds	r1, r1, #0
 1060 02d8 0110A013 		movne	r1, #1
 1061 02dc 50FFFFEA 		b	.L48
 1062              	.LVL83:
 1063              	.L70:
 1064              	.LBB22:
 1065              	.LBB19:
 1066              		.loc 1 202 0
 1067 02e0 081095E5 		ldr	r1, [r5, #8]
 1068 02e4 001091E2 		adds	r1, r1, #0
 1069 02e8 0110A013 		movne	r1, #1
 1070 02ec 75FFFFEA 		b	.L54
 1071              	.L73:
 1072              		.align	2
 1073              	.L72:
 1074 02f0 00000000 		.word	.LANCHOR1
 1075 02f4 00000000 		.word	.LC0
 1076 02f8 00000000 		.word	wa
 1077 02fc 00000000 		.word	rlist
 1078 0300 00000000 		.word	thread2
 1079 0304 00000000 		.word	threads
 1080              	.LBE19:
 1081              	.LBE22:
 1082              		.cfi_endproc
 1083              	.LFE13:
ARM GAS  /tmp/ccCqB4ls.s 			page 20


 1084              		.size	queues2_execute, .-queues2_execute
 1085              		.global	patternqueues
 1086              		.global	testqueues2
 1087              		.global	testqueues1
 1088              		.section	.data.iq,"aw",%progbits
 1089              		.align	2
 1090              		.set	.LANCHOR0,. + 0
 1091              		.type	iq, %object
 1092              		.size	iq, 36
 1093              	iq:
 1094 0000 00000000 		.word	iq
 1095 0004 00000000 		.word	iq
 1096 0008 00000000 		.word	0
 1097 000c 00000000 		.word	test
 1098 0010 04000000 		.word	test+4
 1099 0014 00000000 		.word	test
 1100 0018 00000000 		.word	test
 1101 001c 00000000 		.word	notify
 1102 0020 00000000 		.word	0
 1103              		.section	.data.oq,"aw",%progbits
 1104              		.align	2
 1105              		.set	.LANCHOR1,. + 0
 1106              		.type	oq, %object
 1107              		.size	oq, 36
 1108              	oq:
 1109 0000 00000000 		.word	oq
 1110 0004 00000000 		.word	oq
 1111 0008 04000000 		.word	4
 1112 000c 18010000 		.word	test+280
 1113 0010 1C010000 		.word	test+284
 1114 0014 18010000 		.word	test+280
 1115 0018 18010000 		.word	test+280
 1116 001c 00000000 		.word	notify
 1117 0020 00000000 		.word	0
 1118              		.section	.rodata.patternqueues,"a",%progbits
 1119              		.align	2
 1120              		.type	patternqueues, %object
 1121              		.size	patternqueues, 12
 1122              	patternqueues:
 1123 0000 00000000 		.word	testqueues1
 1124 0004 00000000 		.word	testqueues2
 1125 0008 00000000 		.word	0
 1126              		.section	.rodata.queues1_execute.str1.4,"aMS",%progbits,1
 1127              		.align	2
 1128              	.LC0:
 1129 0000 41424344 		.ascii	"ABCD\000"
 1129      00
 1130              		.section	.rodata.str1.4,"aMS",%progbits,1
 1131              		.align	2
 1132              	.LC1:
 1133 0000 51756575 		.ascii	"Queues, output queues\000"
 1133      65732C20 
 1133      6F757470 
 1133      75742071 
 1133      75657565 
 1134 0016 0000     		.space	2
 1135              	.LC2:
ARM GAS  /tmp/ccCqB4ls.s 			page 21


 1136 0018 51756575 		.ascii	"Queues, input queues\000"
 1136      65732C20 
 1136      696E7075 
 1136      74207175 
 1136      65756573 
 1137              		.section	.rodata.testqueues1,"a",%progbits
 1138              		.align	2
 1139              		.type	testqueues1, %object
 1140              		.size	testqueues1, 16
 1141              	testqueues1:
 1142 0000 18000000 		.word	.LC2
 1143 0004 00000000 		.word	queues1_setup
 1144 0008 00000000 		.word	0
 1145 000c 00000000 		.word	queues1_execute
 1146              		.section	.rodata.testqueues2,"a",%progbits
 1147              		.align	2
 1148              		.type	testqueues2, %object
 1149              		.size	testqueues2, 16
 1150              	testqueues2:
 1151 0000 00000000 		.word	.LC1
 1152 0004 00000000 		.word	queues2_setup
 1153 0008 00000000 		.word	0
 1154 000c 00000000 		.word	queues2_execute
 1155              		.text
 1156              	.Letext0:
 1157              		.file 2 "/usr/lib/gcc/arm-none-eabi/6.3.1/include/stddef.h"
 1158              		.file 3 "/usr/include/newlib/machine/_default_types.h"
 1159              		.file 4 "/usr/include/newlib/sys/_stdint.h"
 1160              		.file 5 "../../os/ports/GCC/ARM/chtypes.h"
 1161              		.file 6 "../../os/kernel/include/chlists.h"
 1162              		.file 7 "../../os/kernel/include/chthreads.h"
 1163              		.file 8 "../../os/ports/GCC/ARM/chcore.h"
 1164              		.file 9 "../../os/kernel/include/chvt.h"
 1165              		.file 10 "../../os/kernel/include/chschd.h"
 1166              		.file 11 "../../os/kernel/include/chmtx.h"
 1167              		.file 12 "../../os/kernel/include/chregistry.h"
 1168              		.file 13 "../../os/kernel/include/chqueues.h"
 1169              		.file 14 "../../os/kernel/include/ch.h"
 1170              		.file 15 "../../test/test.h"