ARM GAS  /tmp/cctc61Pg.s 			page 1


   1              		.cpu arm1176jz-s
   2              		.eabi_attribute 20, 1
   3              		.eabi_attribute 21, 1
   4              		.eabi_attribute 23, 3
   5              		.eabi_attribute 24, 1
   6              		.eabi_attribute 25, 1
   7              		.eabi_attribute 26, 1
   8              		.eabi_attribute 30, 2
   9              		.eabi_attribute 34, 1
  10              		.eabi_attribute 18, 4
  11              		.file	"testheap.c"
  12              		.text
  13              	.Ltext0:
  14              		.cfi_sections	.debug_frame
  15              		.section	.text.heap1_execute,"ax",%progbits
  16              		.align	2
  17              		.syntax unified
  18              		.arm
  19              		.fpu softvfp
  20              		.type	heap1_execute, %function
  21              	heap1_execute:
  22              	.LFB8:
  23              		.file 1 "../../test/testheap.c"
  24              		.loc 1 73 0
  25              		.cfi_startproc
  26              		@ args = 0, pretend = 0, frame = 8
  27              		@ frame_needed = 0, uses_anonymous_args = 0
  28 0000 70402DE9 		push	{r4, r5, r6, lr}
  29              		.cfi_def_cfa_offset 16
  30              		.cfi_offset 4, -16
  31              		.cfi_offset 5, -12
  32              		.cfi_offset 6, -8
  33              		.cfi_offset 14, -4
  34 0004 08D04DE2 		sub	sp, sp, #8
  35              		.cfi_def_cfa_offset 24
  36              		.loc 1 78 0
  37 0008 FEFFFFEB 		bl	chCoreStatus
  38              	.LVL0:
  39              		.loc 1 84 0
  40 000c 04108DE2 		add	r1, sp, #4
  41 0010 0000A0E3 		mov	r0, #0
  42 0014 FEFFFFEB 		bl	chHeapStatus
  43              	.LVL1:
  44              		.loc 1 85 0
  45 0018 1010A0E3 		mov	r1, #16
  46 001c 0000A0E3 		mov	r0, #0
  47 0020 FEFFFFEB 		bl	chHeapAlloc
  48              	.LVL2:
  49              		.loc 1 86 0
  50 0024 001090E2 		adds	r1, r0, #0
  51 0028 0110A013 		movne	r1, #1
  52 002c 0040A0E1 		mov	r4, r0
  53 0030 0100A0E3 		mov	r0, #1
  54              	.LVL3:
  55 0034 FEFFFFEB 		bl	_test_assert
  56              	.LVL4:
  57 0038 005050E2 		subs	r5, r0, #0
ARM GAS  /tmp/cctc61Pg.s 			page 2


  58 003c 0100000A 		beq	.L9
  59              	.LVL5:
  60              	.L1:
  61              		.loc 1 144 0
  62 0040 08D08DE2 		add	sp, sp, #8
  63              		.cfi_remember_state
  64              		.cfi_def_cfa_offset 16
  65              		@ sp needed
  66 0044 7080BDE8 		pop	{r4, r5, r6, pc}
  67              	.LVL6:
  68              	.L9:
  69              		.cfi_restore_state
  70              		.loc 1 87 0
  71 0048 0400A0E1 		mov	r0, r4
  72 004c FEFFFFEB 		bl	chHeapFree
  73              	.LVL7:
  74              		.loc 1 88 0
  75 0050 FF10E0E3 		mvn	r1, #255
  76 0054 0500A0E1 		mov	r0, r5
  77 0058 FEFFFFEB 		bl	chHeapAlloc
  78              	.LVL8:
  79              		.loc 1 89 0
  80 005c 101F6FE1 		clz	r1, r0
  81 0060 0200A0E3 		mov	r0, #2
  82              	.LVL9:
  83 0064 A112A0E1 		lsr	r1, r1, #5
  84 0068 FEFFFFEB 		bl	_test_assert
  85              	.LVL10:
  86 006c 000050E3 		cmp	r0, #0
  87 0070 F2FFFF1A 		bne	.L1
  88              		.loc 1 92 0
  89 0074 04108DE2 		add	r1, sp, #4
  90 0078 CC029FE5 		ldr	r0, .L10
  91 007c FEFFFFEB 		bl	chHeapStatus
  92              	.LVL11:
  93              		.loc 1 95 0
  94 0080 1010A0E3 		mov	r1, #16
  95 0084 C0029FE5 		ldr	r0, .L10
  96 0088 FEFFFFEB 		bl	chHeapAlloc
  97              	.LVL12:
  98              		.loc 1 96 0
  99 008c 1010A0E3 		mov	r1, #16
 100              		.loc 1 95 0
 101 0090 0060A0E1 		mov	r6, r0
 102              	.LVL13:
 103              		.loc 1 96 0
 104 0094 B0029FE5 		ldr	r0, .L10
 105              	.LVL14:
 106 0098 FEFFFFEB 		bl	chHeapAlloc
 107              	.LVL15:
 108              		.loc 1 97 0
 109 009c 1010A0E3 		mov	r1, #16
 110              		.loc 1 96 0
 111 00a0 0050A0E1 		mov	r5, r0
 112              	.LVL16:
 113              		.loc 1 97 0
 114 00a4 A0029FE5 		ldr	r0, .L10
ARM GAS  /tmp/cctc61Pg.s 			page 3


 115              	.LVL17:
 116 00a8 FEFFFFEB 		bl	chHeapAlloc
 117              	.LVL18:
 118 00ac 0040A0E1 		mov	r4, r0
 119              	.LVL19:
 120              		.loc 1 98 0
 121 00b0 0600A0E1 		mov	r0, r6
 122              	.LVL20:
 123 00b4 FEFFFFEB 		bl	chHeapFree
 124              	.LVL21:
 125              		.loc 1 99 0
 126 00b8 0500A0E1 		mov	r0, r5
 127 00bc FEFFFFEB 		bl	chHeapFree
 128              	.LVL22:
 129              		.loc 1 100 0
 130 00c0 0400A0E1 		mov	r0, r4
 131 00c4 FEFFFFEB 		bl	chHeapFree
 132              	.LVL23:
 133              		.loc 1 101 0
 134 00c8 0D10A0E1 		mov	r1, sp
 135 00cc 78029FE5 		ldr	r0, .L10
 136 00d0 FEFFFFEB 		bl	chHeapStatus
 137              	.LVL24:
 138 00d4 011040E2 		sub	r1, r0, #1
 139 00d8 111F6FE1 		clz	r1, r1
 140 00dc 0300A0E3 		mov	r0, #3
 141 00e0 A112A0E1 		lsr	r1, r1, #5
 142 00e4 FEFFFFEB 		bl	_test_assert
 143              	.LVL25:
 144 00e8 000050E3 		cmp	r0, #0
 145 00ec D3FFFF1A 		bne	.L1
 146              		.loc 1 104 0
 147 00f0 1010A0E3 		mov	r1, #16
 148 00f4 50029FE5 		ldr	r0, .L10
 149 00f8 FEFFFFEB 		bl	chHeapAlloc
 150              	.LVL26:
 151              		.loc 1 105 0
 152 00fc 1010A0E3 		mov	r1, #16
 153              		.loc 1 104 0
 154 0100 0040A0E1 		mov	r4, r0
 155              	.LVL27:
 156              		.loc 1 105 0
 157 0104 40029FE5 		ldr	r0, .L10
 158              	.LVL28:
 159 0108 FEFFFFEB 		bl	chHeapAlloc
 160              	.LVL29:
 161 010c 0050A0E1 		mov	r5, r0
 162              	.LVL30:
 163              		.loc 1 106 0
 164 0110 1010A0E3 		mov	r1, #16
 165 0114 30029FE5 		ldr	r0, .L10
 166              	.LVL31:
 167 0118 FEFFFFEB 		bl	chHeapAlloc
 168              	.LVL32:
 169              		.loc 1 107 0
 170 011c FEFFFFEB 		bl	chHeapFree
 171              	.LVL33:
ARM GAS  /tmp/cctc61Pg.s 			page 4


 172              		.loc 1 108 0
 173 0120 0500A0E1 		mov	r0, r5
 174 0124 FEFFFFEB 		bl	chHeapFree
 175              	.LVL34:
 176              		.loc 1 109 0
 177 0128 0400A0E1 		mov	r0, r4
 178 012c FEFFFFEB 		bl	chHeapFree
 179              	.LVL35:
 180              		.loc 1 110 0
 181 0130 0D10A0E1 		mov	r1, sp
 182 0134 10029FE5 		ldr	r0, .L10
 183 0138 FEFFFFEB 		bl	chHeapStatus
 184              	.LVL36:
 185 013c 011040E2 		sub	r1, r0, #1
 186 0140 111F6FE1 		clz	r1, r1
 187 0144 0400A0E3 		mov	r0, #4
 188 0148 A112A0E1 		lsr	r1, r1, #5
 189 014c FEFFFFEB 		bl	_test_assert
 190              	.LVL37:
 191 0150 000050E3 		cmp	r0, #0
 192 0154 B9FFFF1A 		bne	.L1
 193              		.loc 1 113 0
 194 0158 1110A0E3 		mov	r1, #17
 195 015c E8019FE5 		ldr	r0, .L10
 196 0160 FEFFFFEB 		bl	chHeapAlloc
 197              	.LVL38:
 198              		.loc 1 114 0
 199 0164 1010A0E3 		mov	r1, #16
 200              		.loc 1 113 0
 201 0168 0040A0E1 		mov	r4, r0
 202              	.LVL39:
 203              		.loc 1 114 0
 204 016c D8019FE5 		ldr	r0, .L10
 205              	.LVL40:
 206 0170 FEFFFFEB 		bl	chHeapAlloc
 207              	.LVL41:
 208 0174 0050A0E1 		mov	r5, r0
 209              	.LVL42:
 210              		.loc 1 115 0
 211 0178 0400A0E1 		mov	r0, r4
 212              	.LVL43:
 213 017c FEFFFFEB 		bl	chHeapFree
 214              	.LVL44:
 215              		.loc 1 116 0
 216 0180 0D10A0E1 		mov	r1, sp
 217 0184 C0019FE5 		ldr	r0, .L10
 218 0188 FEFFFFEB 		bl	chHeapStatus
 219              	.LVL45:
 220 018c 021040E2 		sub	r1, r0, #2
 221 0190 111F6FE1 		clz	r1, r1
 222 0194 0500A0E3 		mov	r0, #5
 223 0198 A112A0E1 		lsr	r1, r1, #5
 224 019c FEFFFFEB 		bl	_test_assert
 225              	.LVL46:
 226 01a0 000050E3 		cmp	r0, #0
 227 01a4 A5FFFF1A 		bne	.L1
 228              		.loc 1 117 0
ARM GAS  /tmp/cctc61Pg.s 			page 5


 229 01a8 1010A0E3 		mov	r1, #16
 230 01ac 98019FE5 		ldr	r0, .L10
 231 01b0 FEFFFFEB 		bl	chHeapAlloc
 232              	.LVL47:
 233              		.loc 1 120 0
 234 01b4 0D10A0E1 		mov	r1, sp
 235              		.loc 1 117 0
 236 01b8 0040A0E1 		mov	r4, r0
 237              	.LVL48:
 238              		.loc 1 120 0
 239 01bc 88019FE5 		ldr	r0, .L10
 240              	.LVL49:
 241 01c0 FEFFFFEB 		bl	chHeapStatus
 242              	.LVL50:
 243 01c4 010050E3 		cmp	r0, #1
 244 01c8 0010A001 		moveq	r1, r0
 245 01cc 0500000A 		beq	.L5
 246              		.loc 1 120 0 is_stmt 0 discriminator 2
 247 01d0 0D10A0E1 		mov	r1, sp
 248 01d4 70019FE5 		ldr	r0, .L10
 249 01d8 FEFFFFEB 		bl	chHeapStatus
 250              	.LVL51:
 251 01dc 021040E2 		sub	r1, r0, #2
 252 01e0 111F6FE1 		clz	r1, r1
 253 01e4 A112A0E1 		lsr	r1, r1, #5
 254              	.L5:
 255              		.loc 1 120 0 discriminator 6
 256 01e8 0600A0E3 		mov	r0, #6
 257 01ec FEFFFFEB 		bl	_test_assert
 258              	.LVL52:
 259 01f0 000050E3 		cmp	r0, #0
 260 01f4 91FFFF1A 		bne	.L1
 261              		.loc 1 122 0 is_stmt 1
 262 01f8 0500A0E1 		mov	r0, r5
 263 01fc FEFFFFEB 		bl	chHeapFree
 264              	.LVL53:
 265              		.loc 1 123 0
 266 0200 0400A0E1 		mov	r0, r4
 267 0204 FEFFFFEB 		bl	chHeapFree
 268              	.LVL54:
 269              		.loc 1 124 0
 270 0208 0D10A0E1 		mov	r1, sp
 271 020c 38019FE5 		ldr	r0, .L10
 272 0210 FEFFFFEB 		bl	chHeapStatus
 273              	.LVL55:
 274 0214 011040E2 		sub	r1, r0, #1
 275 0218 111F6FE1 		clz	r1, r1
 276 021c 0700A0E3 		mov	r0, #7
 277 0220 A112A0E1 		lsr	r1, r1, #5
 278 0224 FEFFFFEB 		bl	_test_assert
 279              	.LVL56:
 280 0228 000050E3 		cmp	r0, #0
 281 022c 83FFFF1A 		bne	.L1
 282              		.loc 1 127 0
 283 0230 1010A0E3 		mov	r1, #16
 284 0234 10019FE5 		ldr	r0, .L10
 285 0238 FEFFFFEB 		bl	chHeapAlloc
ARM GAS  /tmp/cctc61Pg.s 			page 6


 286              	.LVL57:
 287              		.loc 1 128 0
 288 023c 1010A0E3 		mov	r1, #16
 289              		.loc 1 127 0
 290 0240 0050A0E1 		mov	r5, r0
 291              	.LVL58:
 292              		.loc 1 128 0
 293 0244 00019FE5 		ldr	r0, .L10
 294              	.LVL59:
 295 0248 FEFFFFEB 		bl	chHeapAlloc
 296              	.LVL60:
 297 024c 0040A0E1 		mov	r4, r0
 298              	.LVL61:
 299              		.loc 1 129 0
 300 0250 0500A0E1 		mov	r0, r5
 301              	.LVL62:
 302 0254 FEFFFFEB 		bl	chHeapFree
 303              	.LVL63:
 304              		.loc 1 130 0
 305 0258 0D10A0E1 		mov	r1, sp
 306 025c E8009FE5 		ldr	r0, .L10
 307 0260 FEFFFFEB 		bl	chHeapStatus
 308              	.LVL64:
 309 0264 021040E2 		sub	r1, r0, #2
 310 0268 111F6FE1 		clz	r1, r1
 311 026c 0800A0E3 		mov	r0, #8
 312 0270 A112A0E1 		lsr	r1, r1, #5
 313 0274 FEFFFFEB 		bl	_test_assert
 314              	.LVL65:
 315 0278 000050E3 		cmp	r0, #0
 316 027c 6FFFFF1A 		bne	.L1
 317              		.loc 1 131 0
 318 0280 2010A0E3 		mov	r1, #32
 319 0284 C0009FE5 		ldr	r0, .L10
 320 0288 FEFFFFEB 		bl	chHeapAlloc
 321              	.LVL66:
 322              		.loc 1 132 0
 323 028c FEFFFFEB 		bl	chHeapFree
 324              	.LVL67:
 325              		.loc 1 133 0
 326 0290 0400A0E1 		mov	r0, r4
 327 0294 FEFFFFEB 		bl	chHeapFree
 328              	.LVL68:
 329              		.loc 1 134 0
 330 0298 0D10A0E1 		mov	r1, sp
 331 029c A8009FE5 		ldr	r0, .L10
 332 02a0 FEFFFFEB 		bl	chHeapStatus
 333              	.LVL69:
 334 02a4 011040E2 		sub	r1, r0, #1
 335 02a8 111F6FE1 		clz	r1, r1
 336 02ac 0900A0E3 		mov	r0, #9
 337 02b0 A112A0E1 		lsr	r1, r1, #5
 338 02b4 FEFFFFEB 		bl	_test_assert
 339              	.LVL70:
 340 02b8 000050E3 		cmp	r0, #0
 341 02bc 5FFFFF1A 		bne	.L1
 342              		.loc 1 137 0
ARM GAS  /tmp/cctc61Pg.s 			page 7


 343 02c0 0D10A0E1 		mov	r1, sp
 344 02c4 80009FE5 		ldr	r0, .L10
 345 02c8 FEFFFFEB 		bl	chHeapStatus
 346              	.LVL71:
 347              		.loc 1 138 0
 348 02cc 00109DE5 		ldr	r1, [sp]
 349 02d0 74009FE5 		ldr	r0, .L10
 350 02d4 FEFFFFEB 		bl	chHeapAlloc
 351              	.LVL72:
 352              		.loc 1 139 0
 353 02d8 0D10A0E1 		mov	r1, sp
 354              		.loc 1 138 0
 355 02dc 0040A0E1 		mov	r4, r0
 356              	.LVL73:
 357              		.loc 1 139 0
 358 02e0 64009FE5 		ldr	r0, .L10
 359              	.LVL74:
 360 02e4 FEFFFFEB 		bl	chHeapStatus
 361              	.LVL75:
 362 02e8 101F6FE1 		clz	r1, r0
 363 02ec 0A00A0E3 		mov	r0, #10
 364 02f0 A112A0E1 		lsr	r1, r1, #5
 365 02f4 FEFFFFEB 		bl	_test_assert
 366              	.LVL76:
 367 02f8 000050E3 		cmp	r0, #0
 368 02fc 4FFFFF1A 		bne	.L1
 369              		.loc 1 140 0
 370 0300 0400A0E1 		mov	r0, r4
 371 0304 FEFFFFEB 		bl	chHeapFree
 372              	.LVL77:
 373              		.loc 1 142 0
 374 0308 0D10A0E1 		mov	r1, sp
 375 030c 38009FE5 		ldr	r0, .L10
 376 0310 FEFFFFEB 		bl	chHeapStatus
 377              	.LVL78:
 378 0314 011040E2 		sub	r1, r0, #1
 379 0318 111F6FE1 		clz	r1, r1
 380 031c 0B00A0E3 		mov	r0, #11
 381 0320 A112A0E1 		lsr	r1, r1, #5
 382 0324 FEFFFFEB 		bl	_test_assert
 383              	.LVL79:
 384 0328 000050E3 		cmp	r0, #0
 385 032c 43FFFF1A 		bne	.L1
 386              		.loc 1 143 0
 387 0330 0A009DE8 		ldm	sp, {r1, r3}
 388 0334 031041E0 		sub	r1, r1, r3
 389 0338 111F6FE1 		clz	r1, r1
 390 033c 0C00A0E3 		mov	r0, #12
 391 0340 A112A0E1 		lsr	r1, r1, #5
 392 0344 FEFFFFEB 		bl	_test_assert
 393              	.LVL80:
 394 0348 3CFFFFEA 		b	.L1
 395              	.L11:
 396              		.align	2
 397              	.L10:
 398 034c 00000000 		.word	.LANCHOR0
 399              		.cfi_endproc
ARM GAS  /tmp/cctc61Pg.s 			page 8


 400              	.LFE8:
 401              		.size	heap1_execute, .-heap1_execute
 402              		.section	.text.heap1_setup,"ax",%progbits
 403              		.align	2
 404              		.syntax unified
 405              		.arm
 406              		.fpu softvfp
 407              		.type	heap1_setup, %function
 408              	heap1_setup:
 409              	.LFB7:
 410              		.loc 1 68 0
 411              		.cfi_startproc
 412              		@ args = 0, pretend = 0, frame = 0
 413              		@ frame_needed = 0, uses_anonymous_args = 0
 414              		@ link register save eliminated.
 415              		.loc 1 70 0
 416 0000 08209FE5 		ldr	r2, .L13
 417 0004 08109FE5 		ldr	r1, .L13+4
 418 0008 08009FE5 		ldr	r0, .L13+8
 419 000c FEFFFFEA 		b	chHeapInit
 420              	.LVL81:
 421              	.L14:
 422              		.align	2
 423              	.L13:
 424 0010 78050000 		.word	1400
 425 0014 00000000 		.word	test
 426 0018 00000000 		.word	.LANCHOR0
 427              		.cfi_endproc
 428              	.LFE7:
 429              		.size	heap1_setup, .-heap1_setup
 430              		.global	patternheap
 431              		.global	testheap1
 432              		.section	.bss.test_heap,"aw",%nobits
 433              		.align	2
 434              		.set	.LANCHOR0,. + 0
 435              		.type	test_heap, %object
 436              		.size	test_heap, 28
 437              	test_heap:
 438 0000 00000000 		.space	28
 438      00000000 
 438      00000000 
 438      00000000 
 438      00000000 
 439              		.section	.rodata.patternheap,"a",%progbits
 440              		.align	2
 441              		.type	patternheap, %object
 442              		.size	patternheap, 8
 443              	patternheap:
 444 0000 00000000 		.word	testheap1
 445 0004 00000000 		.word	0
 446              		.section	.rodata.str1.4,"aMS",%progbits,1
 447              		.align	2
 448              	.LC0:
 449 0000 48656170 		.ascii	"Heap, allocation and fragmentation test\000"
 449      2C20616C 
 449      6C6F6361 
 449      74696F6E 
ARM GAS  /tmp/cctc61Pg.s 			page 9


 449      20616E64 
 450              		.section	.rodata.testheap1,"a",%progbits
 451              		.align	2
 452              		.type	testheap1, %object
 453              		.size	testheap1, 16
 454              	testheap1:
 455 0000 00000000 		.word	.LC0
 456 0004 00000000 		.word	heap1_setup
 457 0008 00000000 		.word	0
 458 000c 00000000 		.word	heap1_execute
 459              		.text
 460              	.Letext0:
 461              		.file 2 "/usr/lib/gcc/arm-none-eabi/6.3.1/include/stddef.h"
 462              		.file 3 "/usr/include/newlib/machine/_default_types.h"
 463              		.file 4 "/usr/include/newlib/sys/_stdint.h"
 464              		.file 5 "../../os/ports/GCC/ARM/chtypes.h"
 465              		.file 6 "../../os/kernel/include/chlists.h"
 466              		.file 7 "../../os/kernel/include/chthreads.h"
 467              		.file 8 "../../os/ports/GCC/ARM/chcore.h"
 468              		.file 9 "../../os/kernel/include/chvt.h"
 469              		.file 10 "../../os/kernel/include/chschd.h"
 470              		.file 11 "../../os/kernel/include/chmtx.h"
 471              		.file 12 "../../os/kernel/include/chmemcore.h"
 472              		.file 13 "../../os/kernel/include/chheap.h"
 473              		.file 14 "../../os/kernel/include/chregistry.h"
 474              		.file 15 "../../os/kernel/include/ch.h"
 475              		.file 16 "../../test/test.h"