ARM GAS  /tmp/ccYJgJ88.s 			page 1


   1              		.cpu arm1176jz-s
   2              		.eabi_attribute 20, 1
   3              		.eabi_attribute 21, 1
   4              		.eabi_attribute 23, 3
   5              		.eabi_attribute 24, 1
   6              		.eabi_attribute 25, 1
   7              		.eabi_attribute 26, 1
   8              		.eabi_attribute 30, 2
   9              		.eabi_attribute 34, 1
  10              		.eabi_attribute 18, 4
  11              		.file	"testmbox.c"
  12              		.text
  13              	.Ltext0:
  14              		.cfi_sections	.debug_frame
  15              		.section	.text.mbox1_execute,"ax",%progbits
  16              		.align	2
  17              		.syntax unified
  18              		.arm
  19              		.fpu softvfp
  20              		.type	mbox1_execute, %function
  21              	mbox1_execute:
  22              	.LFB8:
  23              		.file 1 "../../test/testmbox.c"
  24              		.loc 1 80 0
  25              		.cfi_startproc
  26              		@ args = 0, pretend = 0, frame = 8
  27              		@ frame_needed = 0, uses_anonymous_args = 0
  28 0000 F0412DE9 		push	{r4, r5, r6, r7, r8, lr}
  29              		.cfi_def_cfa_offset 24
  30              		.cfi_offset 4, -24
  31              		.cfi_offset 5, -20
  32              		.cfi_offset 6, -16
  33              		.cfi_offset 7, -12
  34              		.cfi_offset 8, -8
  35              		.cfi_offset 14, -4
  36              		.loc 1 87 0
  37 0004 A4579FE5 		ldr	r5, .L33
  38              		.loc 1 80 0
  39 0008 08D04DE2 		sub	sp, sp, #8
  40              		.cfi_def_cfa_offset 32
  41              		.loc 1 87 0
  42 000c 241095E5 		ldr	r1, [r5, #36]
  43 0010 0100A0E3 		mov	r0, #1
  44 0014 051041E2 		sub	r1, r1, #5
  45 0018 111F6FE1 		clz	r1, r1
  46 001c A112A0E1 		lsr	r1, r1, #5
  47 0020 FEFFFFEB 		bl	_test_assert
  48              	.LVL0:
  49 0024 000050E3 		cmp	r0, #0
  50 0028 1A00001A 		bne	.L1
  51 002c 4240A0E3 		mov	r4, #66
  52              		.loc 1 93 0
  53 0030 0080E0E3 		mvn	r8, #0
  54 0034 0570A0E1 		mov	r7, r5
  55              		.loc 1 94 0
  56 0038 0260A0E3 		mov	r6, #2
  57              	.L3:
ARM GAS  /tmp/ccYJgJ88.s 			page 2


  58              	.LVL1:
  59              		.loc 1 93 0
  60 003c 0410A0E1 		mov	r1, r4
  61 0040 0820A0E1 		mov	r2, r8
  62 0044 0700A0E1 		mov	r0, r7
  63 0048 FEFFFFEB 		bl	chMBPost
  64              	.LVL2:
  65              		.loc 1 94 0
  66 004c 101F6FE1 		clz	r1, r0
  67 0050 0600A0E1 		mov	r0, r6
  68              	.LVL3:
  69 0054 A112A0E1 		lsr	r1, r1, #5
  70 0058 FEFFFFEB 		bl	_test_assert
  71              	.LVL4:
  72 005c 000050E3 		cmp	r0, #0
  73 0060 014084E2 		add	r4, r4, #1
  74              	.LVL5:
  75 0064 0B00001A 		bne	.L1
  76              		.loc 1 92 0 discriminator 2
  77 0068 460054E3 		cmp	r4, #70
  78 006c F2FFFF1A 		bne	.L3
  79              		.loc 1 96 0
  80 0070 0020E0E3 		mvn	r2, #0
  81 0074 4110A0E3 		mov	r1, #65
  82 0078 30079FE5 		ldr	r0, .L33
  83 007c FEFFFFEB 		bl	chMBPostAhead
  84              	.LVL6:
  85              		.loc 1 97 0
  86 0080 101F6FE1 		clz	r1, r0
  87 0084 0300A0E3 		mov	r0, #3
  88              	.LVL7:
  89 0088 A112A0E1 		lsr	r1, r1, #5
  90 008c FEFFFFEB 		bl	_test_assert
  91              	.LVL8:
  92 0090 000050E3 		cmp	r0, #0
  93 0094 0100000A 		beq	.L29
  94              	.LVL9:
  95              	.L1:
  96              		.loc 1 224 0
  97 0098 08D08DE2 		add	sp, sp, #8
  98              		.cfi_remember_state
  99              		.cfi_def_cfa_offset 24
 100              		@ sp needed
 101 009c F081BDE8 		pop	{r4, r5, r6, r7, r8, pc}
 102              	.LVL10:
 103              	.L29:
 104              		.cfi_restore_state
 105              		.loc 1 102 0
 106 00a0 5810A0E3 		mov	r1, #88
 107 00a4 0120A0E3 		mov	r2, #1
 108 00a8 00079FE5 		ldr	r0, .L33
 109 00ac FEFFFFEB 		bl	chMBPost
 110              	.LVL11:
 111              		.loc 1 103 0
 112 00b0 010070E3 		cmn	r0, #1
 113 00b4 0010A013 		movne	r1, #0
 114 00b8 0110A003 		moveq	r1, #1
ARM GAS  /tmp/ccYJgJ88.s 			page 3


 115 00bc 0400A0E3 		mov	r0, #4
 116              	.LVL12:
 117 00c0 FEFFFFEB 		bl	_test_assert
 118              	.LVL13:
 119 00c4 000050E3 		cmp	r0, #0
 120 00c8 F2FFFF1A 		bne	.L1
 121              		.loc 1 104 0
 122              		.syntax divided
 123              	@ 104 "../../test/testmbox.c" 1
 124 00cc 9FF021E3 		msr     CPSR_c, #0x9F
 125              	@ 0 "" 2
 126              		.loc 1 105 0
 127              		.arm
 128              		.syntax unified
 129 00d0 5810A0E3 		mov	r1, #88
 130 00d4 D4069FE5 		ldr	r0, .L33
 131 00d8 FEFFFFEB 		bl	chMBPostI
 132              	.LVL14:
 133 00dc 0010A0E1 		mov	r1, r0
 134              	.LVL15:
 135              		.loc 1 106 0
 136              		.syntax divided
 137              	@ 106 "../../test/testmbox.c" 1
 138 00e0 1FF021E3 		msr     CPSR_c, #0x1F
 139              	@ 0 "" 2
 140              		.loc 1 107 0
 141              		.arm
 142              		.syntax unified
 143 00e4 010071E3 		cmn	r1, #1
 144 00e8 0010A013 		movne	r1, #0
 145 00ec 0110A003 		moveq	r1, #1
 146 00f0 0500A0E3 		mov	r0, #5
 147              	.LVL16:
 148 00f4 FEFFFFEB 		bl	_test_assert
 149              	.LVL17:
 150 00f8 000050E3 		cmp	r0, #0
 151 00fc E5FFFF1A 		bne	.L1
 152              		.loc 1 108 0
 153 0100 5810A0E3 		mov	r1, #88
 154 0104 0120A0E3 		mov	r2, #1
 155 0108 A0069FE5 		ldr	r0, .L33
 156 010c FEFFFFEB 		bl	chMBPostAhead
 157              	.LVL18:
 158              		.loc 1 109 0
 159 0110 010070E3 		cmn	r0, #1
 160 0114 0010A013 		movne	r1, #0
 161 0118 0110A003 		moveq	r1, #1
 162 011c 0600A0E3 		mov	r0, #6
 163              	.LVL19:
 164 0120 FEFFFFEB 		bl	_test_assert
 165              	.LVL20:
 166 0124 000050E3 		cmp	r0, #0
 167 0128 DAFFFF1A 		bne	.L1
 168              		.loc 1 110 0
 169              		.syntax divided
 170              	@ 110 "../../test/testmbox.c" 1
 171 012c 9FF021E3 		msr     CPSR_c, #0x9F
ARM GAS  /tmp/ccYJgJ88.s 			page 4


 172              	@ 0 "" 2
 173              		.loc 1 111 0
 174              		.arm
 175              		.syntax unified
 176 0130 5810A0E3 		mov	r1, #88
 177 0134 74069FE5 		ldr	r0, .L33
 178 0138 FEFFFFEB 		bl	chMBPostAheadI
 179              	.LVL21:
 180 013c 0010A0E1 		mov	r1, r0
 181              	.LVL22:
 182              		.loc 1 112 0
 183              		.syntax divided
 184              	@ 112 "../../test/testmbox.c" 1
 185 0140 1FF021E3 		msr     CPSR_c, #0x1F
 186              	@ 0 "" 2
 187              		.loc 1 113 0
 188              		.arm
 189              		.syntax unified
 190 0144 010071E3 		cmn	r1, #1
 191 0148 0010A013 		movne	r1, #0
 192 014c 0110A003 		moveq	r1, #1
 193 0150 0700A0E3 		mov	r0, #7
 194              	.LVL23:
 195 0154 FEFFFFEB 		bl	_test_assert
 196              	.LVL24:
 197 0158 000050E3 		cmp	r0, #0
 198 015c CDFFFF1A 		bne	.L1
 199              		.loc 1 118 0
 200              		.syntax divided
 201              	@ 118 "../../test/testmbox.c" 1
 202 0160 9FF021E3 		msr     CPSR_c, #0x9F
 203              	@ 0 "" 2
 204              		.arm
 205              		.syntax unified
 206 0164 241095E5 		ldr	r1, [r5, #36]
 207 0168 0800A0E3 		mov	r0, #8
 208 016c 111F6FE1 		clz	r1, r1
 209 0170 A112A0E1 		lsr	r1, r1, #5
 210 0174 FEFFFFEB 		bl	_test_assert
 211              	.LVL25:
 212 0178 000050E3 		cmp	r0, #0
 213 017c 0100000A 		beq	.L30
 214              	.LVL26:
 215              	.L21:
 216              		.loc 1 223 0 discriminator 2
 217              		.syntax divided
 218              	@ 223 "../../test/testmbox.c" 1
 219 0180 1FF021E3 		msr     CPSR_c, #0x1F
 220              	@ 0 "" 2
 221              		.arm
 222              		.syntax unified
 223 0184 C3FFFFEA 		b	.L1
 224              	.LVL27:
 225              	.L30:
 226              		.loc 1 118 0 discriminator 2
 227              		.syntax divided
 228              	@ 118 "../../test/testmbox.c" 1
ARM GAS  /tmp/ccYJgJ88.s 			page 5


 229 0188 1FF021E3 		msr     CPSR_c, #0x1F
 230              	@ 0 "" 2
 231              		.loc 1 119 0 discriminator 2
 232              	@ 119 "../../test/testmbox.c" 1
 233 018c 9FF021E3 		msr     CPSR_c, #0x9F
 234              	@ 0 "" 2
 235              		.arm
 236              		.syntax unified
 237 0190 181095E5 		ldr	r1, [r5, #24]
 238 0194 0900A0E3 		mov	r0, #9
 239 0198 051041E2 		sub	r1, r1, #5
 240 019c 111F6FE1 		clz	r1, r1
 241 01a0 A112A0E1 		lsr	r1, r1, #5
 242 01a4 FEFFFFEB 		bl	_test_assert
 243              	.LVL28:
 244 01a8 000050E3 		cmp	r0, #0
 245 01ac F3FFFF1A 		bne	.L21
 246              		.syntax divided
 247              	@ 119 "../../test/testmbox.c" 1
 248 01b0 1FF021E3 		msr     CPSR_c, #0x1F
 249              	@ 0 "" 2
 250              		.loc 1 120 0 discriminator 2
 251              	@ 120 "../../test/testmbox.c" 1
 252 01b4 9FF021E3 		msr     CPSR_c, #0x9F
 253              	@ 0 "" 2
 254              		.arm
 255              		.syntax unified
 256 01b8 0C1095E5 		ldr	r1, [r5, #12]
 257 01bc 083095E5 		ldr	r3, [r5, #8]
 258 01c0 0A00A0E3 		mov	r0, #10
 259 01c4 031041E0 		sub	r1, r1, r3
 260 01c8 111F6FE1 		clz	r1, r1
 261 01cc A112A0E1 		lsr	r1, r1, #5
 262 01d0 FEFFFFEB 		bl	_test_assert
 263              	.LVL29:
 264 01d4 000050E3 		cmp	r0, #0
 265 01d8 E8FFFF1A 		bne	.L21
 266              		.syntax divided
 267              	@ 120 "../../test/testmbox.c" 1
 268 01dc 1FF021E3 		msr     CPSR_c, #0x1F
 269              	@ 0 "" 2
 270              	.LVL30:
 271              		.arm
 272              		.syntax unified
 273 01e0 0540A0E3 		mov	r4, #5
 274              		.loc 1 126 0 discriminator 2
 275 01e4 0080E0E3 		mvn	r8, #0
 276              		.loc 1 127 0 discriminator 2
 277 01e8 0B70A0E3 		mov	r7, #11
 278              		.loc 1 126 0 discriminator 2
 279 01ec BC659FE5 		ldr	r6, .L33
 280 01f0 030000EA 		b	.L8
 281              	.LVL31:
 282              	.L32:
 283              		.loc 1 128 0 discriminator 2
 284 01f4 0400DDE5 		ldrb	r0, [sp, #4]	@ zero_extendqisi2
 285 01f8 FEFFFFEB 		bl	test_emit_token
ARM GAS  /tmp/ccYJgJ88.s 			page 6


 286              	.LVL32:
 287              		.loc 1 125 0 discriminator 2
 288 01fc 014054E2 		subs	r4, r4, #1
 289              	.LVL33:
 290 0200 0A00000A 		beq	.L31
 291              	.LVL34:
 292              	.L8:
 293              		.loc 1 126 0
 294 0204 0820A0E1 		mov	r2, r8
 295 0208 04108DE2 		add	r1, sp, #4
 296 020c 0600A0E1 		mov	r0, r6
 297 0210 FEFFFFEB 		bl	chMBFetch
 298              	.LVL35:
 299              		.loc 1 127 0
 300 0214 101F6FE1 		clz	r1, r0
 301 0218 0700A0E1 		mov	r0, r7
 302              	.LVL36:
 303 021c A112A0E1 		lsr	r1, r1, #5
 304 0220 FEFFFFEB 		bl	_test_assert
 305              	.LVL37:
 306 0224 000050E3 		cmp	r0, #0
 307 0228 F1FFFF0A 		beq	.L32
 308 022c 99FFFFEA 		b	.L1
 309              	.L31:
 310              		.loc 1 130 0
 311 0230 7C159FE5 		ldr	r1, .L33+4
 312 0234 0C00A0E3 		mov	r0, #12
 313 0238 FEFFFFEB 		bl	_test_assert_sequence
 314              	.LVL38:
 315 023c 000050E3 		cmp	r0, #0
 316 0240 94FFFF1A 		bne	.L1
 317              		.loc 1 135 0
 318 0244 0020E0E3 		mvn	r2, #0
 319 0248 4710A0E3 		mov	r1, #71
 320 024c 5C059FE5 		ldr	r0, .L33
 321 0250 FEFFFFEB 		bl	chMBPost
 322              	.LVL39:
 323              		.loc 1 136 0
 324 0254 101F6FE1 		clz	r1, r0
 325 0258 0D00A0E3 		mov	r0, #13
 326              	.LVL40:
 327 025c A112A0E1 		lsr	r1, r1, #5
 328 0260 FEFFFFEB 		bl	_test_assert
 329              	.LVL41:
 330 0264 000050E3 		cmp	r0, #0
 331 0268 8AFFFF1A 		bne	.L1
 332              		.loc 1 137 0
 333 026c 0020E0E3 		mvn	r2, #0
 334 0270 04108DE2 		add	r1, sp, #4
 335 0274 34059FE5 		ldr	r0, .L33
 336 0278 FEFFFFEB 		bl	chMBFetch
 337              	.LVL42:
 338              		.loc 1 138 0
 339 027c 101F6FE1 		clz	r1, r0
 340 0280 0E00A0E3 		mov	r0, #14
 341              	.LVL43:
 342 0284 A112A0E1 		lsr	r1, r1, #5
ARM GAS  /tmp/ccYJgJ88.s 			page 7


 343 0288 FEFFFFEB 		bl	_test_assert
 344              	.LVL44:
 345 028c 000050E3 		cmp	r0, #0
 346 0290 80FFFF1A 		bne	.L1
 347              		.loc 1 139 0
 348 0294 001095E5 		ldr	r1, [r5]
 349 0298 083095E5 		ldr	r3, [r5, #8]
 350 029c 0F00A0E3 		mov	r0, #15
 351 02a0 031041E0 		sub	r1, r1, r3
 352 02a4 111F6FE1 		clz	r1, r1
 353 02a8 A112A0E1 		lsr	r1, r1, #5
 354 02ac FEFFFFEB 		bl	_test_assert
 355              	.LVL45:
 356 02b0 000050E3 		cmp	r0, #0
 357 02b4 77FFFF1A 		bne	.L1
 358              		.loc 1 140 0
 359 02b8 001095E5 		ldr	r1, [r5]
 360 02bc 0C3095E5 		ldr	r3, [r5, #12]
 361 02c0 1000A0E3 		mov	r0, #16
 362 02c4 031041E0 		sub	r1, r1, r3
 363 02c8 111F6FE1 		clz	r1, r1
 364 02cc A112A0E1 		lsr	r1, r1, #5
 365 02d0 FEFFFFEB 		bl	_test_assert
 366              	.LVL46:
 367 02d4 000050E3 		cmp	r0, #0
 368 02d8 6EFFFF1A 		bne	.L1
 369              		.loc 1 145 0
 370 02dc 04108DE2 		add	r1, sp, #4
 371 02e0 0120A0E3 		mov	r2, #1
 372 02e4 C4049FE5 		ldr	r0, .L33
 373 02e8 FEFFFFEB 		bl	chMBFetch
 374              	.LVL47:
 375              		.loc 1 146 0
 376 02ec 010070E3 		cmn	r0, #1
 377 02f0 0010A013 		movne	r1, #0
 378 02f4 0110A003 		moveq	r1, #1
 379 02f8 1100A0E3 		mov	r0, #17
 380              	.LVL48:
 381 02fc FEFFFFEB 		bl	_test_assert
 382              	.LVL49:
 383 0300 000050E3 		cmp	r0, #0
 384 0304 63FFFF1A 		bne	.L1
 385              		.loc 1 147 0
 386              		.syntax divided
 387              	@ 147 "../../test/testmbox.c" 1
 388 0308 9FF021E3 		msr     CPSR_c, #0x9F
 389              	@ 0 "" 2
 390              		.loc 1 148 0
 391              		.arm
 392              		.syntax unified
 393 030c 9C049FE5 		ldr	r0, .L33
 394 0310 04108DE2 		add	r1, sp, #4
 395 0314 FEFFFFEB 		bl	chMBFetchI
 396              	.LVL50:
 397 0318 0010A0E1 		mov	r1, r0
 398              	.LVL51:
 399              		.loc 1 149 0
ARM GAS  /tmp/ccYJgJ88.s 			page 8


 400              		.syntax divided
 401              	@ 149 "../../test/testmbox.c" 1
 402 031c 1FF021E3 		msr     CPSR_c, #0x1F
 403              	@ 0 "" 2
 404              		.loc 1 150 0
 405              		.arm
 406              		.syntax unified
 407 0320 010071E3 		cmn	r1, #1
 408 0324 0010A013 		movne	r1, #0
 409 0328 0110A003 		moveq	r1, #1
 410 032c 1200A0E3 		mov	r0, #18
 411              	.LVL52:
 412 0330 FEFFFFEB 		bl	_test_assert
 413              	.LVL53:
 414 0334 000050E3 		cmp	r0, #0
 415 0338 56FFFF1A 		bne	.L1
 416              		.loc 1 155 0
 417              		.syntax divided
 418              	@ 155 "../../test/testmbox.c" 1
 419 033c 9FF021E3 		msr     CPSR_c, #0x9F
 420              	@ 0 "" 2
 421              		.arm
 422              		.syntax unified
 423 0340 241095E5 		ldr	r1, [r5, #36]
 424 0344 1300A0E3 		mov	r0, #19
 425 0348 051041E2 		sub	r1, r1, #5
 426 034c 111F6FE1 		clz	r1, r1
 427 0350 A112A0E1 		lsr	r1, r1, #5
 428 0354 FEFFFFEB 		bl	_test_assert
 429              	.LVL54:
 430 0358 000050E3 		cmp	r0, #0
 431 035c 87FFFF1A 		bne	.L21
 432              		.loc 1 155 0 is_stmt 0 discriminator 2
 433              		.syntax divided
 434              	@ 155 "../../test/testmbox.c" 1
 435 0360 1FF021E3 		msr     CPSR_c, #0x1F
 436              	@ 0 "" 2
 437              		.loc 1 156 0 is_stmt 1 discriminator 2
 438              	@ 156 "../../test/testmbox.c" 1
 439 0364 9FF021E3 		msr     CPSR_c, #0x9F
 440              	@ 0 "" 2
 441              		.arm
 442              		.syntax unified
 443 0368 181095E5 		ldr	r1, [r5, #24]
 444 036c 1400A0E3 		mov	r0, #20
 445 0370 111F6FE1 		clz	r1, r1
 446 0374 A112A0E1 		lsr	r1, r1, #5
 447 0378 FEFFFFEB 		bl	_test_assert
 448              	.LVL55:
 449 037c 000050E3 		cmp	r0, #0
 450 0380 7EFFFF1A 		bne	.L21
 451              		.syntax divided
 452              	@ 156 "../../test/testmbox.c" 1
 453 0384 1FF021E3 		msr     CPSR_c, #0x1F
 454              	@ 0 "" 2
 455              		.loc 1 157 0 discriminator 2
 456              	@ 157 "../../test/testmbox.c" 1
ARM GAS  /tmp/ccYJgJ88.s 			page 9


 457 0388 9FF021E3 		msr     CPSR_c, #0x9F
 458              	@ 0 "" 2
 459              		.arm
 460              		.syntax unified
 461 038c 0C1095E5 		ldr	r1, [r5, #12]
 462 0390 083095E5 		ldr	r3, [r5, #8]
 463 0394 1500A0E3 		mov	r0, #21
 464 0398 031041E0 		sub	r1, r1, r3
 465 039c 111F6FE1 		clz	r1, r1
 466 03a0 A112A0E1 		lsr	r1, r1, #5
 467 03a4 FEFFFFEB 		bl	_test_assert
 468              	.LVL56:
 469 03a8 000050E3 		cmp	r0, #0
 470 03ac 73FFFF1A 		bne	.L21
 471              		.syntax divided
 472              	@ 157 "../../test/testmbox.c" 1
 473 03b0 1FF021E3 		msr     CPSR_c, #0x1F
 474              	@ 0 "" 2
 475              		.loc 1 162 0 discriminator 2
 476              	@ 162 "../../test/testmbox.c" 1
 477 03b4 9FF021E3 		msr     CPSR_c, #0x9F
 478              	@ 0 "" 2
 479              		.loc 1 163 0 discriminator 2
 480              		.arm
 481              		.syntax unified
 482 03b8 4110A0E3 		mov	r1, #65
 483 03bc EC039FE5 		ldr	r0, .L33
 484 03c0 FEFFFFEB 		bl	chMBPostI
 485              	.LVL57:
 486              		.loc 1 164 0 discriminator 2
 487 03c4 101F6FE1 		clz	r1, r0
 488 03c8 1600A0E3 		mov	r0, #22
 489              	.LVL58:
 490 03cc A112A0E1 		lsr	r1, r1, #5
 491 03d0 FEFFFFEB 		bl	_test_assert
 492              	.LVL59:
 493 03d4 000050E3 		cmp	r0, #0
 494 03d8 2EFFFF1A 		bne	.L1
 495              		.loc 1 165 0
 496 03dc 4210A0E3 		mov	r1, #66
 497 03e0 C8039FE5 		ldr	r0, .L33
 498 03e4 FEFFFFEB 		bl	chMBPostI
 499              	.LVL60:
 500              		.loc 1 166 0
 501 03e8 101F6FE1 		clz	r1, r0
 502 03ec 1700A0E3 		mov	r0, #23
 503              	.LVL61:
 504 03f0 A112A0E1 		lsr	r1, r1, #5
 505 03f4 FEFFFFEB 		bl	_test_assert
 506              	.LVL62:
 507 03f8 000050E3 		cmp	r0, #0
 508 03fc 25FFFF1A 		bne	.L1
 509              		.loc 1 167 0
 510 0400 4310A0E3 		mov	r1, #67
 511 0404 A4039FE5 		ldr	r0, .L33
 512 0408 FEFFFFEB 		bl	chMBPostI
 513              	.LVL63:
ARM GAS  /tmp/ccYJgJ88.s 			page 10


 514              		.loc 1 168 0
 515 040c 101F6FE1 		clz	r1, r0
 516 0410 1800A0E3 		mov	r0, #24
 517              	.LVL64:
 518 0414 A112A0E1 		lsr	r1, r1, #5
 519 0418 FEFFFFEB 		bl	_test_assert
 520              	.LVL65:
 521 041c 000050E3 		cmp	r0, #0
 522 0420 1CFFFF1A 		bne	.L1
 523              		.loc 1 169 0
 524 0424 4410A0E3 		mov	r1, #68
 525 0428 80039FE5 		ldr	r0, .L33
 526 042c FEFFFFEB 		bl	chMBPostI
 527              	.LVL66:
 528              		.loc 1 170 0
 529 0430 101F6FE1 		clz	r1, r0
 530 0434 1900A0E3 		mov	r0, #25
 531              	.LVL67:
 532 0438 A112A0E1 		lsr	r1, r1, #5
 533 043c FEFFFFEB 		bl	_test_assert
 534              	.LVL68:
 535 0440 000050E3 		cmp	r0, #0
 536 0444 13FFFF1A 		bne	.L1
 537              		.loc 1 171 0
 538 0448 4510A0E3 		mov	r1, #69
 539 044c 5C039FE5 		ldr	r0, .L33
 540 0450 FEFFFFEB 		bl	chMBPostI
 541              	.LVL69:
 542              		.loc 1 172 0
 543              		.syntax divided
 544              	@ 172 "../../test/testmbox.c" 1
 545 0454 1FF021E3 		msr     CPSR_c, #0x1F
 546              	@ 0 "" 2
 547              		.loc 1 173 0
 548              		.arm
 549              		.syntax unified
 550 0458 101F6FE1 		clz	r1, r0
 551 045c 1A00A0E3 		mov	r0, #26
 552              	.LVL70:
 553 0460 A112A0E1 		lsr	r1, r1, #5
 554 0464 FEFFFFEB 		bl	_test_assert
 555              	.LVL71:
 556 0468 000050E3 		cmp	r0, #0
 557 046c 09FFFF1A 		bne	.L1
 558              		.loc 1 174 0
 559 0470 0C1095E5 		ldr	r1, [r5, #12]
 560 0474 083095E5 		ldr	r3, [r5, #8]
 561 0478 1B00A0E3 		mov	r0, #27
 562 047c 031041E0 		sub	r1, r1, r3
 563 0480 111F6FE1 		clz	r1, r1
 564 0484 A112A0E1 		lsr	r1, r1, #5
 565 0488 FEFFFFEB 		bl	_test_assert
 566              	.LVL72:
 567 048c 000050E3 		cmp	r0, #0
 568 0490 00FFFF1A 		bne	.L1
 569 0494 0540A0E3 		mov	r4, #5
 570              	.LVL73:
ARM GAS  /tmp/ccYJgJ88.s 			page 11


 571              		.loc 1 179 0
 572 0498 1C70A0E3 		mov	r7, #28
 573              		.loc 1 177 0
 574 049c 0C639FE5 		ldr	r6, .L33
 575              	.L12:
 576              	.LVL74:
 577              		.loc 1 176 0
 578              		.syntax divided
 579              	@ 176 "../../test/testmbox.c" 1
 580 04a0 9FF021E3 		msr     CPSR_c, #0x9F
 581              	@ 0 "" 2
 582              		.loc 1 177 0
 583              		.arm
 584              		.syntax unified
 585 04a4 04108DE2 		add	r1, sp, #4
 586 04a8 0600A0E1 		mov	r0, r6
 587 04ac FEFFFFEB 		bl	chMBFetchI
 588              	.LVL75:
 589              		.loc 1 178 0
 590              		.syntax divided
 591              	@ 178 "../../test/testmbox.c" 1
 592 04b0 1FF021E3 		msr     CPSR_c, #0x1F
 593              	@ 0 "" 2
 594              		.loc 1 179 0
 595              		.arm
 596              		.syntax unified
 597 04b4 101F6FE1 		clz	r1, r0
 598 04b8 0700A0E1 		mov	r0, r7
 599              	.LVL76:
 600 04bc A112A0E1 		lsr	r1, r1, #5
 601 04c0 FEFFFFEB 		bl	_test_assert
 602              	.LVL77:
 603 04c4 000050E3 		cmp	r0, #0
 604 04c8 F2FEFF1A 		bne	.L1
 605              		.loc 1 180 0 discriminator 2
 606 04cc 0400DDE5 		ldrb	r0, [sp, #4]	@ zero_extendqisi2
 607 04d0 FEFFFFEB 		bl	test_emit_token
 608              	.LVL78:
 609              		.loc 1 175 0 discriminator 2
 610 04d4 014054E2 		subs	r4, r4, #1
 611              	.LVL79:
 612 04d8 F0FFFF1A 		bne	.L12
 613              		.loc 1 182 0
 614 04dc D0129FE5 		ldr	r1, .L33+4
 615 04e0 1D00A0E3 		mov	r0, #29
 616 04e4 FEFFFFEB 		bl	_test_assert_sequence
 617              	.LVL80:
 618 04e8 000050E3 		cmp	r0, #0
 619 04ec E9FEFF1A 		bne	.L1
 620              		.loc 1 183 0
 621              		.syntax divided
 622              	@ 183 "../../test/testmbox.c" 1
 623 04f0 9FF021E3 		msr     CPSR_c, #0x9F
 624              	@ 0 "" 2
 625              		.arm
 626              		.syntax unified
 627 04f4 241095E5 		ldr	r1, [r5, #36]
ARM GAS  /tmp/ccYJgJ88.s 			page 12


 628 04f8 1E00A0E3 		mov	r0, #30
 629 04fc 051041E2 		sub	r1, r1, #5
 630 0500 111F6FE1 		clz	r1, r1
 631 0504 A112A0E1 		lsr	r1, r1, #5
 632 0508 FEFFFFEB 		bl	_test_assert
 633              	.LVL81:
 634 050c 000050E3 		cmp	r0, #0
 635 0510 1AFFFF1A 		bne	.L21
 636              		.loc 1 183 0 is_stmt 0 discriminator 2
 637              		.syntax divided
 638              	@ 183 "../../test/testmbox.c" 1
 639 0514 1FF021E3 		msr     CPSR_c, #0x1F
 640              	@ 0 "" 2
 641              		.loc 1 184 0 is_stmt 1 discriminator 2
 642              	@ 184 "../../test/testmbox.c" 1
 643 0518 9FF021E3 		msr     CPSR_c, #0x9F
 644              	@ 0 "" 2
 645              		.arm
 646              		.syntax unified
 647 051c 181095E5 		ldr	r1, [r5, #24]
 648 0520 1F00A0E3 		mov	r0, #31
 649 0524 111F6FE1 		clz	r1, r1
 650 0528 A112A0E1 		lsr	r1, r1, #5
 651 052c FEFFFFEB 		bl	_test_assert
 652              	.LVL82:
 653 0530 000050E3 		cmp	r0, #0
 654 0534 11FFFF1A 		bne	.L21
 655              		.syntax divided
 656              	@ 184 "../../test/testmbox.c" 1
 657 0538 1FF021E3 		msr     CPSR_c, #0x1F
 658              	@ 0 "" 2
 659              		.loc 1 185 0 discriminator 2
 660              		.arm
 661              		.syntax unified
 662 053c 0C1095E5 		ldr	r1, [r5, #12]
 663 0540 083095E5 		ldr	r3, [r5, #8]
 664 0544 2000A0E3 		mov	r0, #32
 665 0548 031041E0 		sub	r1, r1, r3
 666 054c 111F6FE1 		clz	r1, r1
 667 0550 A112A0E1 		lsr	r1, r1, #5
 668 0554 FEFFFFEB 		bl	_test_assert
 669              	.LVL83:
 670 0558 000050E3 		cmp	r0, #0
 671 055c CDFEFF1A 		bne	.L1
 672              		.loc 1 187 0
 673              		.syntax divided
 674              	@ 187 "../../test/testmbox.c" 1
 675 0560 9FF021E3 		msr     CPSR_c, #0x9F
 676              	@ 0 "" 2
 677              		.loc 1 188 0
 678              		.arm
 679              		.syntax unified
 680 0564 4510A0E3 		mov	r1, #69
 681 0568 40029FE5 		ldr	r0, .L33
 682 056c FEFFFFEB 		bl	chMBPostAheadI
 683              	.LVL84:
 684              		.loc 1 189 0
ARM GAS  /tmp/ccYJgJ88.s 			page 13


 685 0570 101F6FE1 		clz	r1, r0
 686 0574 2100A0E3 		mov	r0, #33
 687              	.LVL85:
 688 0578 A112A0E1 		lsr	r1, r1, #5
 689 057c FEFFFFEB 		bl	_test_assert
 690              	.LVL86:
 691 0580 000050E3 		cmp	r0, #0
 692 0584 C3FEFF1A 		bne	.L1
 693              		.loc 1 190 0
 694 0588 4410A0E3 		mov	r1, #68
 695 058c 1C029FE5 		ldr	r0, .L33
 696 0590 FEFFFFEB 		bl	chMBPostAheadI
 697              	.LVL87:
 698              		.loc 1 191 0
 699 0594 101F6FE1 		clz	r1, r0
 700 0598 2200A0E3 		mov	r0, #34
 701              	.LVL88:
 702 059c A112A0E1 		lsr	r1, r1, #5
 703 05a0 FEFFFFEB 		bl	_test_assert
 704              	.LVL89:
 705 05a4 000050E3 		cmp	r0, #0
 706 05a8 BAFEFF1A 		bne	.L1
 707              		.loc 1 192 0
 708 05ac 4310A0E3 		mov	r1, #67
 709 05b0 F8019FE5 		ldr	r0, .L33
 710 05b4 FEFFFFEB 		bl	chMBPostAheadI
 711              	.LVL90:
 712              		.loc 1 193 0
 713 05b8 101F6FE1 		clz	r1, r0
 714 05bc 2300A0E3 		mov	r0, #35
 715              	.LVL91:
 716 05c0 A112A0E1 		lsr	r1, r1, #5
 717 05c4 FEFFFFEB 		bl	_test_assert
 718              	.LVL92:
 719 05c8 000050E3 		cmp	r0, #0
 720 05cc B1FEFF1A 		bne	.L1
 721              		.loc 1 194 0
 722 05d0 4210A0E3 		mov	r1, #66
 723 05d4 D4019FE5 		ldr	r0, .L33
 724 05d8 FEFFFFEB 		bl	chMBPostAheadI
 725              	.LVL93:
 726              		.loc 1 195 0
 727 05dc 101F6FE1 		clz	r1, r0
 728 05e0 2400A0E3 		mov	r0, #36
 729              	.LVL94:
 730 05e4 A112A0E1 		lsr	r1, r1, #5
 731 05e8 FEFFFFEB 		bl	_test_assert
 732              	.LVL95:
 733 05ec 000050E3 		cmp	r0, #0
 734 05f0 A8FEFF1A 		bne	.L1
 735              		.loc 1 196 0
 736 05f4 4110A0E3 		mov	r1, #65
 737 05f8 B0019FE5 		ldr	r0, .L33
 738 05fc FEFFFFEB 		bl	chMBPostAheadI
 739              	.LVL96:
 740              		.loc 1 197 0
 741              		.syntax divided
ARM GAS  /tmp/ccYJgJ88.s 			page 14


 742              	@ 197 "../../test/testmbox.c" 1
 743 0600 1FF021E3 		msr     CPSR_c, #0x1F
 744              	@ 0 "" 2
 745              		.loc 1 198 0
 746              		.arm
 747              		.syntax unified
 748 0604 101F6FE1 		clz	r1, r0
 749 0608 2500A0E3 		mov	r0, #37
 750              	.LVL97:
 751 060c A112A0E1 		lsr	r1, r1, #5
 752 0610 FEFFFFEB 		bl	_test_assert
 753              	.LVL98:
 754 0614 000050E3 		cmp	r0, #0
 755 0618 9EFEFF1A 		bne	.L1
 756              		.loc 1 199 0
 757 061c 0C1095E5 		ldr	r1, [r5, #12]
 758 0620 083095E5 		ldr	r3, [r5, #8]
 759 0624 2600A0E3 		mov	r0, #38
 760 0628 031041E0 		sub	r1, r1, r3
 761 062c 111F6FE1 		clz	r1, r1
 762 0630 A112A0E1 		lsr	r1, r1, #5
 763 0634 FEFFFFEB 		bl	_test_assert
 764              	.LVL99:
 765 0638 000050E3 		cmp	r0, #0
 766 063c 95FEFF1A 		bne	.L1
 767 0640 0540A0E3 		mov	r4, #5
 768              	.LVL100:
 769              		.loc 1 204 0
 770 0644 2770A0E3 		mov	r7, #39
 771              		.loc 1 202 0
 772 0648 60619FE5 		ldr	r6, .L33
 773              	.L15:
 774              	.LVL101:
 775              		.loc 1 201 0
 776              		.syntax divided
 777              	@ 201 "../../test/testmbox.c" 1
 778 064c 9FF021E3 		msr     CPSR_c, #0x9F
 779              	@ 0 "" 2
 780              		.loc 1 202 0
 781              		.arm
 782              		.syntax unified
 783 0650 04108DE2 		add	r1, sp, #4
 784 0654 0600A0E1 		mov	r0, r6
 785 0658 FEFFFFEB 		bl	chMBFetchI
 786              	.LVL102:
 787              		.loc 1 203 0
 788              		.syntax divided
 789              	@ 203 "../../test/testmbox.c" 1
 790 065c 1FF021E3 		msr     CPSR_c, #0x1F
 791              	@ 0 "" 2
 792              		.loc 1 204 0
 793              		.arm
 794              		.syntax unified
 795 0660 101F6FE1 		clz	r1, r0
 796 0664 0700A0E1 		mov	r0, r7
 797              	.LVL103:
 798 0668 A112A0E1 		lsr	r1, r1, #5
ARM GAS  /tmp/ccYJgJ88.s 			page 15


 799 066c FEFFFFEB 		bl	_test_assert
 800              	.LVL104:
 801 0670 000050E3 		cmp	r0, #0
 802 0674 87FEFF1A 		bne	.L1
 803              		.loc 1 205 0 discriminator 2
 804 0678 0400DDE5 		ldrb	r0, [sp, #4]	@ zero_extendqisi2
 805 067c FEFFFFEB 		bl	test_emit_token
 806              	.LVL105:
 807              		.loc 1 200 0 discriminator 2
 808 0680 014054E2 		subs	r4, r4, #1
 809              	.LVL106:
 810 0684 F0FFFF1A 		bne	.L15
 811              		.loc 1 207 0
 812 0688 24119FE5 		ldr	r1, .L33+4
 813 068c 2800A0E3 		mov	r0, #40
 814 0690 FEFFFFEB 		bl	_test_assert_sequence
 815              	.LVL107:
 816 0694 000050E3 		cmp	r0, #0
 817 0698 7EFEFF1A 		bne	.L1
 818              		.loc 1 208 0
 819              		.syntax divided
 820              	@ 208 "../../test/testmbox.c" 1
 821 069c 9FF021E3 		msr     CPSR_c, #0x9F
 822              	@ 0 "" 2
 823              		.arm
 824              		.syntax unified
 825 06a0 241095E5 		ldr	r1, [r5, #36]
 826 06a4 2900A0E3 		mov	r0, #41
 827 06a8 051041E2 		sub	r1, r1, #5
 828 06ac 111F6FE1 		clz	r1, r1
 829 06b0 A112A0E1 		lsr	r1, r1, #5
 830 06b4 FEFFFFEB 		bl	_test_assert
 831              	.LVL108:
 832 06b8 000050E3 		cmp	r0, #0
 833 06bc AFFEFF1A 		bne	.L21
 834              		.loc 1 208 0 is_stmt 0 discriminator 2
 835              		.syntax divided
 836              	@ 208 "../../test/testmbox.c" 1
 837 06c0 1FF021E3 		msr     CPSR_c, #0x1F
 838              	@ 0 "" 2
 839              		.loc 1 209 0 is_stmt 1 discriminator 2
 840              	@ 209 "../../test/testmbox.c" 1
 841 06c4 9FF021E3 		msr     CPSR_c, #0x9F
 842              	@ 0 "" 2
 843              		.arm
 844              		.syntax unified
 845 06c8 181095E5 		ldr	r1, [r5, #24]
 846 06cc 2A00A0E3 		mov	r0, #42
 847 06d0 111F6FE1 		clz	r1, r1
 848 06d4 A112A0E1 		lsr	r1, r1, #5
 849 06d8 FEFFFFEB 		bl	_test_assert
 850              	.LVL109:
 851 06dc 000050E3 		cmp	r0, #0
 852 06e0 A6FEFF1A 		bne	.L21
 853              		.syntax divided
 854              	@ 209 "../../test/testmbox.c" 1
 855 06e4 1FF021E3 		msr     CPSR_c, #0x1F
ARM GAS  /tmp/ccYJgJ88.s 			page 16


 856              	@ 0 "" 2
 857              		.loc 1 210 0 discriminator 2
 858              		.arm
 859              		.syntax unified
 860 06e8 0C1095E5 		ldr	r1, [r5, #12]
 861 06ec 083095E5 		ldr	r3, [r5, #8]
 862 06f0 2B00A0E3 		mov	r0, #43
 863 06f4 031041E0 		sub	r1, r1, r3
 864 06f8 111F6FE1 		clz	r1, r1
 865 06fc A112A0E1 		lsr	r1, r1, #5
 866 0700 FEFFFFEB 		bl	_test_assert
 867              	.LVL110:
 868 0704 000050E3 		cmp	r0, #0
 869 0708 62FEFF1A 		bne	.L1
 870              		.loc 1 215 0
 871 070c 9C009FE5 		ldr	r0, .L33
 872 0710 FEFFFFEB 		bl	chMBReset
 873              	.LVL111:
 874              		.loc 1 220 0
 875              		.syntax divided
 876              	@ 220 "../../test/testmbox.c" 1
 877 0714 9FF021E3 		msr     CPSR_c, #0x9F
 878              	@ 0 "" 2
 879              		.arm
 880              		.syntax unified
 881 0718 241095E5 		ldr	r1, [r5, #36]
 882 071c 2C00A0E3 		mov	r0, #44
 883 0720 051041E2 		sub	r1, r1, #5
 884 0724 111F6FE1 		clz	r1, r1
 885 0728 A112A0E1 		lsr	r1, r1, #5
 886 072c FEFFFFEB 		bl	_test_assert
 887              	.LVL112:
 888 0730 000050E3 		cmp	r0, #0
 889 0734 91FEFF1A 		bne	.L21
 890              		.loc 1 220 0 is_stmt 0 discriminator 2
 891              		.syntax divided
 892              	@ 220 "../../test/testmbox.c" 1
 893 0738 1FF021E3 		msr     CPSR_c, #0x1F
 894              	@ 0 "" 2
 895              		.loc 1 221 0 is_stmt 1 discriminator 2
 896              	@ 221 "../../test/testmbox.c" 1
 897 073c 9FF021E3 		msr     CPSR_c, #0x9F
 898              	@ 0 "" 2
 899              		.arm
 900              		.syntax unified
 901 0740 181095E5 		ldr	r1, [r5, #24]
 902 0744 2D00A0E3 		mov	r0, #45
 903 0748 111F6FE1 		clz	r1, r1
 904 074c A112A0E1 		lsr	r1, r1, #5
 905 0750 FEFFFFEB 		bl	_test_assert
 906              	.LVL113:
 907 0754 000050E3 		cmp	r0, #0
 908 0758 88FEFF1A 		bne	.L21
 909              		.syntax divided
 910              	@ 221 "../../test/testmbox.c" 1
 911 075c 1FF021E3 		msr     CPSR_c, #0x1F
 912              	@ 0 "" 2
ARM GAS  /tmp/ccYJgJ88.s 			page 17


 913              		.loc 1 222 0 discriminator 2
 914              	@ 222 "../../test/testmbox.c" 1
 915 0760 9FF021E3 		msr     CPSR_c, #0x9F
 916              	@ 0 "" 2
 917              		.arm
 918              		.syntax unified
 919 0764 001095E5 		ldr	r1, [r5]
 920 0768 083095E5 		ldr	r3, [r5, #8]
 921 076c 2E00A0E3 		mov	r0, #46
 922 0770 031041E0 		sub	r1, r1, r3
 923 0774 111F6FE1 		clz	r1, r1
 924 0778 A112A0E1 		lsr	r1, r1, #5
 925 077c FEFFFFEB 		bl	_test_assert
 926              	.LVL114:
 927 0780 000050E3 		cmp	r0, #0
 928 0784 7DFEFF1A 		bne	.L21
 929              		.syntax divided
 930              	@ 222 "../../test/testmbox.c" 1
 931 0788 1FF021E3 		msr     CPSR_c, #0x1F
 932              	@ 0 "" 2
 933              		.loc 1 223 0 discriminator 2
 934              	@ 223 "../../test/testmbox.c" 1
 935 078c 9FF021E3 		msr     CPSR_c, #0x9F
 936              	@ 0 "" 2
 937              		.arm
 938              		.syntax unified
 939 0790 001095E5 		ldr	r1, [r5]
 940 0794 0C3095E5 		ldr	r3, [r5, #12]
 941 0798 2F00A0E3 		mov	r0, #47
 942 079c 031041E0 		sub	r1, r1, r3
 943 07a0 111F6FE1 		clz	r1, r1
 944 07a4 A112A0E1 		lsr	r1, r1, #5
 945 07a8 FEFFFFEB 		bl	_test_assert
 946              	.LVL115:
 947 07ac 73FEFFEA 		b	.L21
 948              	.L34:
 949              		.align	2
 950              	.L33:
 951 07b0 00000000 		.word	.LANCHOR0
 952 07b4 00000000 		.word	.LC0
 953              		.cfi_endproc
 954              	.LFE8:
 955              		.size	mbox1_execute, .-mbox1_execute
 956              		.section	.text.mbox1_setup,"ax",%progbits
 957              		.align	2
 958              		.syntax unified
 959              		.arm
 960              		.fpu softvfp
 961              		.type	mbox1_setup, %function
 962              	mbox1_setup:
 963              	.LFB7:
 964              		.loc 1 75 0
 965              		.cfi_startproc
 966              		@ args = 0, pretend = 0, frame = 0
 967              		@ frame_needed = 0, uses_anonymous_args = 0
 968              		@ link register save eliminated.
 969              		.loc 1 77 0
ARM GAS  /tmp/ccYJgJ88.s 			page 18


 970 0000 0520A0E3 		mov	r2, #5
 971 0004 04109FE5 		ldr	r1, .L36
 972 0008 04009FE5 		ldr	r0, .L36+4
 973 000c FEFFFFEA 		b	chMBInit
 974              	.LVL116:
 975              	.L37:
 976              		.align	2
 977              	.L36:
 978 0010 00000000 		.word	test
 979 0014 00000000 		.word	.LANCHOR0
 980              		.cfi_endproc
 981              	.LFE7:
 982              		.size	mbox1_setup, .-mbox1_setup
 983              		.global	patternmbox
 984              		.global	testmbox1
 985              		.section	.data.mb1,"aw",%progbits
 986              		.align	2
 987              		.set	.LANCHOR0,. + 0
 988              		.type	mb1, %object
 989              		.size	mb1, 40
 990              	mb1:
 991 0000 00000000 		.word	test
 992 0004 14000000 		.word	test+20
 993 0008 00000000 		.word	test
 994 000c 00000000 		.word	test
 995 0010 10000000 		.word	mb1+16
 996 0014 10000000 		.word	mb1+16
 997 0018 00000000 		.word	0
 998 001c 1C000000 		.word	mb1+28
 999 0020 1C000000 		.word	mb1+28
 1000 0024 05000000 		.word	5
 1001              		.section	.rodata.mbox1_execute.str1.4,"aMS",%progbits,1
 1002              		.align	2
 1003              	.LC0:
 1004 0000 41424344 		.ascii	"ABCDE\000"
 1004      4500
 1005              		.section	.rodata.patternmbox,"a",%progbits
 1006              		.align	2
 1007              		.type	patternmbox, %object
 1008              		.size	patternmbox, 8
 1009              	patternmbox:
 1010 0000 00000000 		.word	testmbox1
 1011 0004 00000000 		.word	0
 1012              		.section	.rodata.str1.4,"aMS",%progbits,1
 1013              		.align	2
 1014              	.LC1:
 1015 0000 4D61696C 		.ascii	"Mailboxes, queuing and timeouts\000"
 1015      626F7865 
 1015      732C2071 
 1015      75657569 
 1015      6E672061 
 1016              		.section	.rodata.testmbox1,"a",%progbits
 1017              		.align	2
 1018              		.type	testmbox1, %object
 1019              		.size	testmbox1, 16
 1020              	testmbox1:
 1021 0000 00000000 		.word	.LC1
ARM GAS  /tmp/ccYJgJ88.s 			page 19


 1022 0004 00000000 		.word	mbox1_setup
 1023 0008 00000000 		.word	0
 1024 000c 00000000 		.word	mbox1_execute
 1025              		.text
 1026              	.Letext0:
 1027              		.file 2 "/usr/include/newlib/machine/_default_types.h"
 1028              		.file 3 "/usr/include/newlib/sys/_stdint.h"
 1029              		.file 4 "../../os/ports/GCC/ARM/chtypes.h"
 1030              		.file 5 "../../os/kernel/include/chlists.h"
 1031              		.file 6 "../../os/kernel/include/chthreads.h"
 1032              		.file 7 "../../os/ports/GCC/ARM/chcore.h"
 1033              		.file 8 "../../os/kernel/include/chvt.h"
 1034              		.file 9 "../../os/kernel/include/chschd.h"
 1035              		.file 10 "../../os/kernel/include/chsem.h"
 1036              		.file 11 "../../os/kernel/include/chmtx.h"
 1037              		.file 12 "../../os/kernel/include/chmboxes.h"
 1038              		.file 13 "../../os/kernel/include/chregistry.h"
 1039              		.file 14 "../../os/kernel/include/ch.h"
 1040              		.file 15 "../../test/test.h"