ARM GAS  /tmp/ccmGo9v6.s 			page 1


   1              		.cpu arm1176jz-s
   2              		.eabi_attribute 20, 1
   3              		.eabi_attribute 21, 1
   4              		.eabi_attribute 23, 3
   5              		.eabi_attribute 24, 1
   6              		.eabi_attribute 25, 1
   7              		.eabi_attribute 26, 1
   8              		.eabi_attribute 30, 2
   9              		.eabi_attribute 34, 1
  10              		.eabi_attribute 18, 4
  11              		.file	"testmsg.c"
  12              		.text
  13              	.Ltext0:
  14              		.cfi_sections	.debug_frame
  15              		.section	.text.msg1_execute,"ax",%progbits
  16              		.align	2
  17              		.syntax unified
  18              		.arm
  19              		.fpu softvfp
  20              		.type	msg1_execute, %function
  21              	msg1_execute:
  22              	.LFB8:
  23              		.file 1 "../../test/testmsg.c"
  24              		.loc 1 71 0
  25              		.cfi_startproc
  26              		@ args = 0, pretend = 0, frame = 0
  27              		@ frame_needed = 0, uses_anonymous_args = 0
  28 0000 10402DE9 		push	{r4, lr}
  29              		.cfi_def_cfa_offset 8
  30              		.cfi_offset 4, -8
  31              		.cfi_offset 14, -4
  32              		.loc 1 78 0
  33 0004 88309FE5 		ldr	r3, .L3
  34 0008 88209FE5 		ldr	r2, .L3+4
  35 000c 183093E5 		ldr	r3, [r3, #24]
  36 0010 000092E5 		ldr	r0, [r2]
  37 0014 082093E5 		ldr	r2, [r3, #8]
  38              		.loc 1 71 0
  39 0018 08D04DE2 		sub	sp, sp, #8
  40              		.cfi_def_cfa_offset 16
  41              		.loc 1 78 0
  42 001c 012082E2 		add	r2, r2, #1
  43 0020 00308DE5 		str	r3, [sp]
  44 0024 461FA0E3 		mov	r1, #280
  45 0028 6C309FE5 		ldr	r3, .L3+8
  46 002c FEFFFFEB 		bl	chThdCreateStatic
  47              	.LVL0:
  48 0030 68309FE5 		ldr	r3, .L3+12
  49 0034 000083E5 		str	r0, [r3]
  50              		.loc 1 80 0
  51 0038 FEFFFFEB 		bl	chMsgWait
  52              	.LVL1:
  53              		.loc 1 81 0
  54 003c 344090E5 		ldr	r4, [r0, #52]
  55              	.LVL2:
  56              		.loc 1 82 0
  57 0040 0410A0E1 		mov	r1, r4
ARM GAS  /tmp/ccmGo9v6.s 			page 2


  58 0044 FEFFFFEB 		bl	chMsgRelease
  59              	.LVL3:
  60              		.loc 1 83 0
  61 0048 7400EFE6 		uxtb	r0, r4
  62 004c FEFFFFEB 		bl	test_emit_token
  63              	.LVL4:
  64              		.loc 1 84 0
  65 0050 FEFFFFEB 		bl	chMsgWait
  66              	.LVL5:
  67              		.loc 1 85 0
  68 0054 344090E5 		ldr	r4, [r0, #52]
  69              	.LVL6:
  70              		.loc 1 86 0
  71 0058 0410A0E1 		mov	r1, r4
  72 005c FEFFFFEB 		bl	chMsgRelease
  73              	.LVL7:
  74              		.loc 1 87 0
  75 0060 7400EFE6 		uxtb	r0, r4
  76 0064 FEFFFFEB 		bl	test_emit_token
  77              	.LVL8:
  78              		.loc 1 88 0
  79 0068 FEFFFFEB 		bl	chMsgWait
  80              	.LVL9:
  81              		.loc 1 89 0
  82 006c 344090E5 		ldr	r4, [r0, #52]
  83              	.LVL10:
  84              		.loc 1 90 0
  85 0070 0410A0E1 		mov	r1, r4
  86 0074 FEFFFFEB 		bl	chMsgRelease
  87              	.LVL11:
  88              		.loc 1 91 0
  89 0078 7400EFE6 		uxtb	r0, r4
  90 007c FEFFFFEB 		bl	test_emit_token
  91              	.LVL12:
  92              		.loc 1 92 0
  93 0080 0100A0E3 		mov	r0, #1
  94 0084 18109FE5 		ldr	r1, .L3+16
  95              		.loc 1 93 0
  96 0088 08D08DE2 		add	sp, sp, #8
  97              		.cfi_def_cfa_offset 8
  98              		@ sp needed
  99 008c 1040BDE8 		pop	{r4, lr}
 100              		.cfi_restore 14
 101              		.cfi_restore 4
 102              		.cfi_def_cfa_offset 0
 103              	.LVL13:
 104              		.loc 1 92 0
 105 0090 FEFFFFEA 		b	_test_assert_sequence
 106              	.LVL14:
 107              	.L4:
 108              		.align	2
 109              	.L3:
 110 0094 00000000 		.word	rlist
 111 0098 00000000 		.word	wa
 112 009c 00000000 		.word	thread
 113 00a0 00000000 		.word	threads
 114 00a4 00000000 		.word	.LC0
ARM GAS  /tmp/ccmGo9v6.s 			page 3


 115              		.cfi_endproc
 116              	.LFE8:
 117              		.size	msg1_execute, .-msg1_execute
 118              		.section	.text.thread,"ax",%progbits
 119              		.align	2
 120              		.syntax unified
 121              		.arm
 122              		.fpu softvfp
 123              		.type	thread, %function
 124              	thread:
 125              	.LFB7:
 126              		.loc 1 63 0
 127              		.cfi_startproc
 128              		@ args = 0, pretend = 0, frame = 0
 129              		@ frame_needed = 0, uses_anonymous_args = 0
 130              	.LVL15:
 131 0000 10402DE9 		push	{r4, lr}
 132              		.cfi_def_cfa_offset 8
 133              		.cfi_offset 4, -8
 134              		.cfi_offset 14, -4
 135              		.loc 1 63 0
 136 0004 0040A0E1 		mov	r4, r0
 137              		.loc 1 65 0
 138 0008 4110A0E3 		mov	r1, #65
 139 000c FEFFFFEB 		bl	chMsgSend
 140              	.LVL16:
 141              		.loc 1 66 0
 142 0010 0400A0E1 		mov	r0, r4
 143 0014 4210A0E3 		mov	r1, #66
 144 0018 FEFFFFEB 		bl	chMsgSend
 145              	.LVL17:
 146              		.loc 1 67 0
 147 001c 0400A0E1 		mov	r0, r4
 148 0020 4310A0E3 		mov	r1, #67
 149 0024 FEFFFFEB 		bl	chMsgSend
 150              	.LVL18:
 151              		.loc 1 69 0
 152 0028 0000A0E3 		mov	r0, #0
 153 002c 1080BDE8 		pop	{r4, pc}
 154              		.cfi_endproc
 155              	.LFE7:
 156              		.size	thread, .-thread
 157              		.global	patternmsg
 158              		.global	testmsg1
 159              		.section	.rodata.msg1_execute.str1.4,"aMS",%progbits,1
 160              		.align	2
 161              	.LC0:
 162 0000 41424300 		.ascii	"ABC\000"
 163              		.section	.rodata.patternmsg,"a",%progbits
 164              		.align	2
 165              		.type	patternmsg, %object
 166              		.size	patternmsg, 8
 167              	patternmsg:
 168 0000 00000000 		.word	testmsg1
 169 0004 00000000 		.word	0
 170              		.section	.rodata.str1.4,"aMS",%progbits,1
 171              		.align	2
ARM GAS  /tmp/ccmGo9v6.s 			page 4


 172              	.LC1:
 173 0000 4D657373 		.ascii	"Messages, loop\000"
 173      61676573 
 173      2C206C6F 
 173      6F7000
 174              		.section	.rodata.testmsg1,"a",%progbits
 175              		.align	2
 176              		.type	testmsg1, %object
 177              		.size	testmsg1, 16
 178              	testmsg1:
 179 0000 00000000 		.word	.LC1
 180 0004 00000000 		.word	0
 181 0008 00000000 		.word	0
 182 000c 00000000 		.word	msg1_execute
 183              		.text
 184              	.Letext0:
 185              		.file 2 "/usr/include/newlib/machine/_default_types.h"
 186              		.file 3 "/usr/include/newlib/sys/_stdint.h"
 187              		.file 4 "../../os/ports/GCC/ARM/chtypes.h"
 188              		.file 5 "../../os/kernel/include/chlists.h"
 189              		.file 6 "../../os/kernel/include/chthreads.h"
 190              		.file 7 "../../os/ports/GCC/ARM/chcore.h"
 191              		.file 8 "../../os/kernel/include/chvt.h"
 192              		.file 9 "../../os/kernel/include/chschd.h"
 193              		.file 10 "../../os/kernel/include/chmtx.h"
 194              		.file 11 "../../os/kernel/include/chregistry.h"
 195              		.file 12 "../../os/kernel/include/ch.h"
 196              		.file 13 "../../test/test.h"
 197              		.file 14 "../../os/kernel/include/chmsg.h"
 198              		.section	.debug_info,"",%progbits
 199              	.Ldebug_info0:
 200 0000 1C090000 		.4byte	0x91c
 201 0004 0400     		.2byte	0x4
 202 0006 00000000 		.4byte	.Ldebug_abbrev0
 203 000a 04       		.byte	0x4
 204 000b 01       		.uleb128 0x1
 205 000c 4F040000 		.4byte	.LASF117
 206 0010 0C       		.byte	0xc
 207 0011 14020000 		.4byte	.LASF118
 208 0015 42000000 		.4byte	.LASF119
 209 0019 00000000 		.4byte	.Ldebug_ranges0+0
 210 001d 00000000 		.4byte	0
 211 0021 00000000 		.4byte	.Ldebug_line0
 212 0025 02       		.uleb128 0x2
 213 0026 04       		.byte	0x4
 214 0027 05       		.byte	0x5
 215 0028 696E7400 		.ascii	"int\000"
 216 002c 03       		.uleb128 0x3
 217 002d 04       		.byte	0x4
 218 002e 07       		.byte	0x7
 219 002f 7F010000 		.4byte	.LASF0
 220 0033 03       		.uleb128 0x3
 221 0034 01       		.byte	0x1
 222 0035 06       		.byte	0x6
 223 0036 C3000000 		.4byte	.LASF1
 224 003a 04       		.uleb128 0x4
 225 003b 1A000000 		.4byte	.LASF4
ARM GAS  /tmp/ccmGo9v6.s 			page 5


 226 003f 02       		.byte	0x2
 227 0040 1D       		.byte	0x1d
 228 0041 45000000 		.4byte	0x45
 229 0045 03       		.uleb128 0x3
 230 0046 01       		.byte	0x1
 231 0047 08       		.byte	0x8
 232 0048 3E030000 		.4byte	.LASF2
 233 004c 03       		.uleb128 0x3
 234 004d 02       		.byte	0x2
 235 004e 05       		.byte	0x5
 236 004f 56030000 		.4byte	.LASF3
 237 0053 04       		.uleb128 0x4
 238 0054 17040000 		.4byte	.LASF5
 239 0058 02       		.byte	0x2
 240 0059 2B       		.byte	0x2b
 241 005a 5E000000 		.4byte	0x5e
 242 005e 03       		.uleb128 0x3
 243 005f 02       		.byte	0x2
 244 0060 07       		.byte	0x7
 245 0061 E3010000 		.4byte	.LASF6
 246 0065 04       		.uleb128 0x4
 247 0066 3E040000 		.4byte	.LASF7
 248 006a 02       		.byte	0x2
 249 006b 3F       		.byte	0x3f
 250 006c 70000000 		.4byte	0x70
 251 0070 03       		.uleb128 0x3
 252 0071 04       		.byte	0x4
 253 0072 05       		.byte	0x5
 254 0073 15010000 		.4byte	.LASF8
 255 0077 04       		.uleb128 0x4
 256 0078 63010000 		.4byte	.LASF9
 257 007c 02       		.byte	0x2
 258 007d 41       		.byte	0x41
 259 007e 82000000 		.4byte	0x82
 260 0082 03       		.uleb128 0x3
 261 0083 04       		.byte	0x4
 262 0084 07       		.byte	0x7
 263 0085 94010000 		.4byte	.LASF10
 264 0089 03       		.uleb128 0x3
 265 008a 08       		.byte	0x8
 266 008b 05       		.byte	0x5
 267 008c B5000000 		.4byte	.LASF11
 268 0090 03       		.uleb128 0x3
 269 0091 08       		.byte	0x8
 270 0092 07       		.byte	0x7
 271 0093 2B000000 		.4byte	.LASF12
 272 0097 04       		.uleb128 0x4
 273 0098 15050000 		.4byte	.LASF13
 274 009c 03       		.byte	0x3
 275 009d 18       		.byte	0x18
 276 009e 3A000000 		.4byte	0x3a
 277 00a2 04       		.uleb128 0x4
 278 00a3 31010000 		.4byte	.LASF14
 279 00a7 03       		.byte	0x3
 280 00a8 24       		.byte	0x24
 281 00a9 53000000 		.4byte	0x53
 282 00ad 04       		.uleb128 0x4
ARM GAS  /tmp/ccmGo9v6.s 			page 6


 283 00ae 36030000 		.4byte	.LASF15
 284 00b2 03       		.byte	0x3
 285 00b3 2C       		.byte	0x2c
 286 00b4 65000000 		.4byte	0x65
 287 00b8 04       		.uleb128 0x4
 288 00b9 DB030000 		.4byte	.LASF16
 289 00bd 03       		.byte	0x3
 290 00be 30       		.byte	0x30
 291 00bf 77000000 		.4byte	0x77
 292 00c3 04       		.uleb128 0x4
 293 00c4 EC000000 		.4byte	.LASF17
 294 00c8 04       		.byte	0x4
 295 00c9 29       		.byte	0x29
 296 00ca AD000000 		.4byte	0xad
 297 00ce 04       		.uleb128 0x4
 298 00cf 0C020000 		.4byte	.LASF18
 299 00d3 04       		.byte	0x4
 300 00d4 2A       		.byte	0x2a
 301 00d5 97000000 		.4byte	0x97
 302 00d9 04       		.uleb128 0x4
 303 00da 28010000 		.4byte	.LASF19
 304 00de 04       		.byte	0x4
 305 00df 2B       		.byte	0x2b
 306 00e0 97000000 		.4byte	0x97
 307 00e4 04       		.uleb128 0x4
 308 00e5 05030000 		.4byte	.LASF20
 309 00e9 04       		.byte	0x4
 310 00ea 2C       		.byte	0x2c
 311 00eb 97000000 		.4byte	0x97
 312 00ef 04       		.uleb128 0x4
 313 00f0 0B010000 		.4byte	.LASF21
 314 00f4 04       		.byte	0x4
 315 00f5 2D       		.byte	0x2d
 316 00f6 97000000 		.4byte	0x97
 317 00fa 04       		.uleb128 0x4
 318 00fb 27030000 		.4byte	.LASF22
 319 00ff 04       		.byte	0x4
 320 0100 2E       		.byte	0x2e
 321 0101 B8000000 		.4byte	0xb8
 322 0105 04       		.uleb128 0x4
 323 0106 F6010000 		.4byte	.LASF23
 324 010a 04       		.byte	0x4
 325 010b 2F       		.byte	0x2f
 326 010c AD000000 		.4byte	0xad
 327 0110 04       		.uleb128 0x4
 328 0111 35020000 		.4byte	.LASF24
 329 0115 04       		.byte	0x4
 330 0116 31       		.byte	0x31
 331 0117 B8000000 		.4byte	0xb8
 332 011b 04       		.uleb128 0x4
 333 011c 29040000 		.4byte	.LASF25
 334 0120 04       		.byte	0x4
 335 0121 33       		.byte	0x33
 336 0122 B8000000 		.4byte	0xb8
 337 0126 05       		.uleb128 0x5
 338 0127 1B010000 		.4byte	0x11b
 339 012b 04       		.uleb128 0x4
ARM GAS  /tmp/ccmGo9v6.s 			page 7


 340 012c B3030000 		.4byte	.LASF26
 341 0130 05       		.byte	0x5
 342 0131 23       		.byte	0x23
 343 0132 36010000 		.4byte	0x136
 344 0136 06       		.uleb128 0x6
 345 0137 B3030000 		.4byte	.LASF26
 346 013b 44       		.byte	0x44
 347 013c 06       		.byte	0x6
 348 013d 57       		.byte	0x57
 349 013e 27020000 		.4byte	0x227
 350 0142 07       		.uleb128 0x7
 351 0143 95030000 		.4byte	.LASF27
 352 0147 06       		.byte	0x6
 353 0148 58       		.byte	0x58
 354 0149 48020000 		.4byte	0x248
 355 014d 00       		.byte	0
 356 014e 07       		.uleb128 0x7
 357 014f 18030000 		.4byte	.LASF28
 358 0153 06       		.byte	0x6
 359 0154 5A       		.byte	0x5a
 360 0155 48020000 		.4byte	0x248
 361 0159 04       		.byte	0x4
 362 015a 07       		.uleb128 0x7
 363 015b 98000000 		.4byte	.LASF29
 364 015f 06       		.byte	0x6
 365 0160 5C       		.byte	0x5c
 366 0161 FA000000 		.4byte	0xfa
 367 0165 08       		.byte	0x8
 368 0166 07       		.uleb128 0x7
 369 0167 5D050000 		.4byte	.LASF30
 370 016b 06       		.byte	0x6
 371 016c 5D       		.byte	0x5d
 372 016d 08030000 		.4byte	0x308
 373 0171 0C       		.byte	0xc
 374 0172 07       		.uleb128 0x7
 375 0173 4B010000 		.4byte	.LASF31
 376 0177 06       		.byte	0x6
 377 0178 5F       		.byte	0x5f
 378 0179 48020000 		.4byte	0x248
 379 017d 10       		.byte	0x10
 380 017e 07       		.uleb128 0x7
 381 017f B4020000 		.4byte	.LASF32
 382 0183 06       		.byte	0x6
 383 0184 60       		.byte	0x60
 384 0185 48020000 		.4byte	0x248
 385 0189 14       		.byte	0x14
 386 018a 07       		.uleb128 0x7
 387 018b 31050000 		.4byte	.LASF33
 388 018f 06       		.byte	0x6
 389 0190 67       		.byte	0x67
 390 0191 CA040000 		.4byte	0x4ca
 391 0195 18       		.byte	0x18
 392 0196 07       		.uleb128 0x7
 393 0197 60030000 		.4byte	.LASF34
 394 019b 06       		.byte	0x6
 395 019c 72       		.byte	0x72
 396 019d D9000000 		.4byte	0xd9
ARM GAS  /tmp/ccmGo9v6.s 			page 8


 397 01a1 1C       		.byte	0x1c
 398 01a2 07       		.uleb128 0x7
 399 01a3 AB030000 		.4byte	.LASF35
 400 01a7 06       		.byte	0x6
 401 01a8 76       		.byte	0x76
 402 01a9 CE000000 		.4byte	0xce
 403 01ad 1D       		.byte	0x1d
 404 01ae 07       		.uleb128 0x7
 405 01af FE040000 		.4byte	.LASF36
 406 01b3 06       		.byte	0x6
 407 01b4 7B       		.byte	0x7b
 408 01b5 E4000000 		.4byte	0xe4
 409 01b9 1E       		.byte	0x1e
 410 01ba 07       		.uleb128 0x7
 411 01bb 68030000 		.4byte	.LASF37
 412 01bf 06       		.byte	0x6
 413 01c0 81       		.byte	0x81
 414 01c1 EF000000 		.4byte	0xef
 415 01c5 1F       		.byte	0x1f
 416 01c6 07       		.uleb128 0x7
 417 01c7 48040000 		.4byte	.LASF38
 418 01cb 06       		.byte	0x6
 419 01cc 88       		.byte	0x88
 420 01cd 26010000 		.4byte	0x126
 421 01d1 20       		.byte	0x20
 422 01d2 08       		.uleb128 0x8
 423 01d3 705F7500 		.ascii	"p_u\000"
 424 01d7 06       		.byte	0x6
 425 01d8 AD       		.byte	0xad
 426 01d9 95040000 		.4byte	0x495
 427 01dd 24       		.byte	0x24
 428 01de 07       		.uleb128 0x7
 429 01df 63050000 		.4byte	.LASF39
 430 01e3 06       		.byte	0x6
 431 01e4 B2       		.byte	0xb2
 432 01e5 6E020000 		.4byte	0x26e
 433 01e9 28       		.byte	0x28
 434 01ea 07       		.uleb128 0x7
 435 01eb D7040000 		.4byte	.LASF40
 436 01ef 06       		.byte	0x6
 437 01f0 B8       		.byte	0xb8
 438 01f1 4E020000 		.4byte	0x24e
 439 01f5 2C       		.byte	0x2c
 440 01f6 07       		.uleb128 0x7
 441 01f7 0D000000 		.4byte	.LASF41
 442 01fb 06       		.byte	0x6
 443 01fc BC       		.byte	0xbc
 444 01fd 05010000 		.4byte	0x105
 445 0201 34       		.byte	0x34
 446 0202 07       		.uleb128 0x7
 447 0203 D0030000 		.4byte	.LASF42
 448 0207 06       		.byte	0x6
 449 0208 C2       		.byte	0xc2
 450 0209 10010000 		.4byte	0x110
 451 020d 38       		.byte	0x38
 452 020e 07       		.uleb128 0x7
 453 020f 4C030000 		.4byte	.LASF43
ARM GAS  /tmp/ccmGo9v6.s 			page 9


 454 0213 06       		.byte	0x6
 455 0214 C9       		.byte	0xc9
 456 0215 DC040000 		.4byte	0x4dc
 457 0219 3C       		.byte	0x3c
 458 021a 07       		.uleb128 0x7
 459 021b 33040000 		.4byte	.LASF44
 460 021f 06       		.byte	0x6
 461 0220 CD       		.byte	0xcd
 462 0221 FA000000 		.4byte	0xfa
 463 0225 40       		.byte	0x40
 464 0226 00       		.byte	0
 465 0227 09       		.uleb128 0x9
 466 0228 08       		.byte	0x8
 467 0229 05       		.byte	0x5
 468 022a 5A       		.byte	0x5a
 469 022b 48020000 		.4byte	0x248
 470 022f 07       		.uleb128 0x7
 471 0230 95030000 		.4byte	.LASF27
 472 0234 05       		.byte	0x5
 473 0235 5B       		.byte	0x5b
 474 0236 48020000 		.4byte	0x248
 475 023a 00       		.byte	0
 476 023b 07       		.uleb128 0x7
 477 023c 18030000 		.4byte	.LASF28
 478 0240 05       		.byte	0x5
 479 0241 5D       		.byte	0x5d
 480 0242 48020000 		.4byte	0x248
 481 0246 04       		.byte	0x4
 482 0247 00       		.byte	0
 483 0248 0A       		.uleb128 0xa
 484 0249 04       		.byte	0x4
 485 024a 2B010000 		.4byte	0x12b
 486 024e 04       		.uleb128 0x4
 487 024f C2020000 		.4byte	.LASF45
 488 0253 05       		.byte	0x5
 489 0254 5F       		.byte	0x5f
 490 0255 27020000 		.4byte	0x227
 491 0259 09       		.uleb128 0x9
 492 025a 04       		.byte	0x4
 493 025b 05       		.byte	0x5
 494 025c 64       		.byte	0x64
 495 025d 6E020000 		.4byte	0x26e
 496 0261 07       		.uleb128 0x7
 497 0262 95030000 		.4byte	.LASF27
 498 0266 05       		.byte	0x5
 499 0267 66       		.byte	0x66
 500 0268 48020000 		.4byte	0x248
 501 026c 00       		.byte	0
 502 026d 00       		.byte	0
 503 026e 04       		.uleb128 0x4
 504 026f 29020000 		.4byte	.LASF46
 505 0273 05       		.byte	0x5
 506 0274 69       		.byte	0x69
 507 0275 59020000 		.4byte	0x259
 508 0279 04       		.uleb128 0x4
 509 027a 47020000 		.4byte	.LASF47
 510 027e 07       		.byte	0x7
ARM GAS  /tmp/ccmGo9v6.s 			page 10


 511 027f 9D       		.byte	0x9d
 512 0280 B8000000 		.4byte	0xb8
 513 0284 04       		.uleb128 0x4
 514 0285 6E010000 		.4byte	.LASF48
 515 0289 07       		.byte	0x7
 516 028a A2       		.byte	0xa2
 517 028b 8F020000 		.4byte	0x28f
 518 028f 0B       		.uleb128 0xb
 519 0290 04       		.byte	0x4
 520 0291 0C       		.uleb128 0xc
 521 0292 8F020000 		.4byte	0x28f
 522 0296 06       		.uleb128 0x6
 523 0297 D0040000 		.4byte	.LASF49
 524 029b 24       		.byte	0x24
 525 029c 07       		.byte	0x7
 526 029d B9       		.byte	0xb9
 527 029e 08030000 		.4byte	0x308
 528 02a2 08       		.uleb128 0x8
 529 02a3 723400   		.ascii	"r4\000"
 530 02a6 07       		.byte	0x7
 531 02a7 BA       		.byte	0xba
 532 02a8 84020000 		.4byte	0x284
 533 02ac 00       		.byte	0
 534 02ad 08       		.uleb128 0x8
 535 02ae 723500   		.ascii	"r5\000"
 536 02b1 07       		.byte	0x7
 537 02b2 BB       		.byte	0xbb
 538 02b3 84020000 		.4byte	0x284
 539 02b7 04       		.byte	0x4
 540 02b8 08       		.uleb128 0x8
 541 02b9 723600   		.ascii	"r6\000"
 542 02bc 07       		.byte	0x7
 543 02bd BC       		.byte	0xbc
 544 02be 84020000 		.4byte	0x284
 545 02c2 08       		.byte	0x8
 546 02c3 08       		.uleb128 0x8
 547 02c4 723700   		.ascii	"r7\000"
 548 02c7 07       		.byte	0x7
 549 02c8 BD       		.byte	0xbd
 550 02c9 84020000 		.4byte	0x284
 551 02cd 0C       		.byte	0xc
 552 02ce 08       		.uleb128 0x8
 553 02cf 723800   		.ascii	"r8\000"
 554 02d2 07       		.byte	0x7
 555 02d3 BE       		.byte	0xbe
 556 02d4 84020000 		.4byte	0x284
 557 02d8 10       		.byte	0x10
 558 02d9 08       		.uleb128 0x8
 559 02da 723900   		.ascii	"r9\000"
 560 02dd 07       		.byte	0x7
 561 02de BF       		.byte	0xbf
 562 02df 84020000 		.4byte	0x284
 563 02e3 14       		.byte	0x14
 564 02e4 08       		.uleb128 0x8
 565 02e5 72313000 		.ascii	"r10\000"
 566 02e9 07       		.byte	0x7
 567 02ea C0       		.byte	0xc0
ARM GAS  /tmp/ccmGo9v6.s 			page 11


 568 02eb 84020000 		.4byte	0x284
 569 02ef 18       		.byte	0x18
 570 02f0 08       		.uleb128 0x8
 571 02f1 72313100 		.ascii	"r11\000"
 572 02f5 07       		.byte	0x7
 573 02f6 C1       		.byte	0xc1
 574 02f7 84020000 		.4byte	0x284
 575 02fb 1C       		.byte	0x1c
 576 02fc 08       		.uleb128 0x8
 577 02fd 6C7200   		.ascii	"lr\000"
 578 0300 07       		.byte	0x7
 579 0301 C2       		.byte	0xc2
 580 0302 84020000 		.4byte	0x284
 581 0306 20       		.byte	0x20
 582 0307 00       		.byte	0
 583 0308 06       		.uleb128 0x6
 584 0309 DB010000 		.4byte	.LASF50
 585 030d 04       		.byte	0x4
 586 030e 07       		.byte	0x7
 587 030f CA       		.byte	0xca
 588 0310 21030000 		.4byte	0x321
 589 0314 08       		.uleb128 0x8
 590 0315 72313300 		.ascii	"r13\000"
 591 0319 07       		.byte	0x7
 592 031a CB       		.byte	0xcb
 593 031b 21030000 		.4byte	0x321
 594 031f 00       		.byte	0
 595 0320 00       		.byte	0
 596 0321 0A       		.uleb128 0xa
 597 0322 04       		.byte	0x4
 598 0323 96020000 		.4byte	0x296
 599 0327 04       		.uleb128 0x4
 600 0328 BF010000 		.4byte	.LASF51
 601 032c 08       		.byte	0x8
 602 032d 4E       		.byte	0x4e
 603 032e 32030000 		.4byte	0x332
 604 0332 0A       		.uleb128 0xa
 605 0333 04       		.byte	0x4
 606 0334 38030000 		.4byte	0x338
 607 0338 0D       		.uleb128 0xd
 608 0339 43030000 		.4byte	0x343
 609 033d 0E       		.uleb128 0xe
 610 033e 8F020000 		.4byte	0x28f
 611 0342 00       		.byte	0
 612 0343 04       		.uleb128 0x4
 613 0344 F8030000 		.4byte	.LASF52
 614 0348 08       		.byte	0x8
 615 0349 53       		.byte	0x53
 616 034a 4E030000 		.4byte	0x34e
 617 034e 06       		.uleb128 0x6
 618 034f F8030000 		.4byte	.LASF52
 619 0353 14       		.byte	0x14
 620 0354 08       		.byte	0x8
 621 0355 5A       		.byte	0x5a
 622 0356 97030000 		.4byte	0x397
 623 035a 07       		.uleb128 0x7
 624 035b 8C010000 		.4byte	.LASF53
ARM GAS  /tmp/ccmGo9v6.s 			page 12


 625 035f 08       		.byte	0x8
 626 0360 5B       		.byte	0x5b
 627 0361 97030000 		.4byte	0x397
 628 0365 00       		.byte	0
 629 0366 07       		.uleb128 0x7
 630 0367 77010000 		.4byte	.LASF54
 631 036b 08       		.byte	0x8
 632 036c 5D       		.byte	0x5d
 633 036d 97030000 		.4byte	0x397
 634 0371 04       		.byte	0x4
 635 0372 07       		.uleb128 0x7
 636 0373 78020000 		.4byte	.LASF55
 637 0377 08       		.byte	0x8
 638 0378 5F       		.byte	0x5f
 639 0379 1B010000 		.4byte	0x11b
 640 037d 08       		.byte	0x8
 641 037e 07       		.uleb128 0x7
 642 037f 94020000 		.4byte	.LASF56
 643 0383 08       		.byte	0x8
 644 0384 60       		.byte	0x60
 645 0385 27030000 		.4byte	0x327
 646 0389 0C       		.byte	0xc
 647 038a 07       		.uleb128 0x7
 648 038b E2040000 		.4byte	.LASF57
 649 038f 08       		.byte	0x8
 650 0390 62       		.byte	0x62
 651 0391 8F020000 		.4byte	0x28f
 652 0395 10       		.byte	0x10
 653 0396 00       		.byte	0
 654 0397 0A       		.uleb128 0xa
 655 0398 04       		.byte	0x4
 656 0399 43030000 		.4byte	0x343
 657 039d 09       		.uleb128 0x9
 658 039e 10       		.byte	0x10
 659 039f 08       		.byte	0x8
 660 03a0 6C       		.byte	0x6c
 661 03a1 D6030000 		.4byte	0x3d6
 662 03a5 07       		.uleb128 0x7
 663 03a6 8C010000 		.4byte	.LASF53
 664 03aa 08       		.byte	0x8
 665 03ab 6D       		.byte	0x6d
 666 03ac 97030000 		.4byte	0x397
 667 03b0 00       		.byte	0
 668 03b1 07       		.uleb128 0x7
 669 03b2 77010000 		.4byte	.LASF54
 670 03b6 08       		.byte	0x8
 671 03b7 6F       		.byte	0x6f
 672 03b8 97030000 		.4byte	0x397
 673 03bc 04       		.byte	0x4
 674 03bd 07       		.uleb128 0x7
 675 03be 78020000 		.4byte	.LASF55
 676 03c2 08       		.byte	0x8
 677 03c3 71       		.byte	0x71
 678 03c4 1B010000 		.4byte	0x11b
 679 03c8 08       		.byte	0x8
 680 03c9 07       		.uleb128 0x7
 681 03ca 38050000 		.4byte	.LASF58
ARM GAS  /tmp/ccmGo9v6.s 			page 13


 682 03ce 08       		.byte	0x8
 683 03cf 72       		.byte	0x72
 684 03d0 26010000 		.4byte	0x126
 685 03d4 0C       		.byte	0xc
 686 03d5 00       		.byte	0
 687 03d6 04       		.uleb128 0x4
 688 03d7 4E050000 		.4byte	.LASF59
 689 03db 08       		.byte	0x8
 690 03dc 73       		.byte	0x73
 691 03dd 9D030000 		.4byte	0x39d
 692 03e1 0F       		.uleb128 0xf
 693 03e2 24000000 		.4byte	.LASF67
 694 03e6 08       		.byte	0x8
 695 03e7 D1       		.byte	0xd1
 696 03e8 D6030000 		.4byte	0x3d6
 697 03ec 09       		.uleb128 0x9
 698 03ed 1C       		.byte	0x1c
 699 03ee 09       		.byte	0x9
 700 03ef 57       		.byte	0x57
 701 03f0 3D040000 		.4byte	0x43d
 702 03f4 07       		.uleb128 0x7
 703 03f5 F0030000 		.4byte	.LASF60
 704 03f9 09       		.byte	0x9
 705 03fa 58       		.byte	0x58
 706 03fb 4E020000 		.4byte	0x24e
 707 03ff 00       		.byte	0
 708 0400 07       		.uleb128 0x7
 709 0401 7E030000 		.4byte	.LASF61
 710 0405 09       		.byte	0x9
 711 0406 59       		.byte	0x59
 712 0407 FA000000 		.4byte	0xfa
 713 040b 08       		.byte	0x8
 714 040c 07       		.uleb128 0x7
 715 040d BC020000 		.4byte	.LASF62
 716 0411 09       		.byte	0x9
 717 0412 5B       		.byte	0x5b
 718 0413 08030000 		.4byte	0x308
 719 0417 0C       		.byte	0xc
 720 0418 07       		.uleb128 0x7
 721 0419 FC010000 		.4byte	.LASF63
 722 041d 09       		.byte	0x9
 723 041e 5E       		.byte	0x5e
 724 041f 48020000 		.4byte	0x248
 725 0423 10       		.byte	0x10
 726 0424 07       		.uleb128 0x7
 727 0425 FD020000 		.4byte	.LASF64
 728 0429 09       		.byte	0x9
 729 042a 5F       		.byte	0x5f
 730 042b 48020000 		.4byte	0x248
 731 042f 14       		.byte	0x14
 732 0430 07       		.uleb128 0x7
 733 0431 F3020000 		.4byte	.LASF65
 734 0435 09       		.byte	0x9
 735 0436 62       		.byte	0x62
 736 0437 48020000 		.4byte	0x248
 737 043b 18       		.byte	0x18
 738 043c 00       		.byte	0
ARM GAS  /tmp/ccmGo9v6.s 			page 14


 739 043d 04       		.uleb128 0x4
 740 043e 05050000 		.4byte	.LASF66
 741 0442 09       		.byte	0x9
 742 0443 64       		.byte	0x64
 743 0444 EC030000 		.4byte	0x3ec
 744 0448 0F       		.uleb128 0xf
 745 0449 0F050000 		.4byte	.LASF68
 746 044d 09       		.byte	0x9
 747 044e 68       		.byte	0x68
 748 044f 3D040000 		.4byte	0x43d
 749 0453 06       		.uleb128 0x6
 750 0454 41020000 		.4byte	.LASF69
 751 0458 10       		.byte	0x10
 752 0459 0A       		.byte	0xa
 753 045a 25       		.byte	0x25
 754 045b 84040000 		.4byte	0x484
 755 045f 07       		.uleb128 0x7
 756 0460 F3000000 		.4byte	.LASF70
 757 0464 0A       		.byte	0xa
 758 0465 26       		.byte	0x26
 759 0466 4E020000 		.4byte	0x24e
 760 046a 00       		.byte	0
 761 046b 07       		.uleb128 0x7
 762 046c 55050000 		.4byte	.LASF71
 763 0470 0A       		.byte	0xa
 764 0471 28       		.byte	0x28
 765 0472 48020000 		.4byte	0x248
 766 0476 08       		.byte	0x8
 767 0477 07       		.uleb128 0x7
 768 0478 22040000 		.4byte	.LASF72
 769 047c 0A       		.byte	0xa
 770 047d 2A       		.byte	0x2a
 771 047e 84040000 		.4byte	0x484
 772 0482 0C       		.byte	0xc
 773 0483 00       		.byte	0
 774 0484 0A       		.uleb128 0xa
 775 0485 04       		.byte	0x4
 776 0486 53040000 		.4byte	0x453
 777 048a 04       		.uleb128 0x4
 778 048b 41020000 		.4byte	.LASF69
 779 048f 0A       		.byte	0xa
 780 0490 2C       		.byte	0x2c
 781 0491 53040000 		.4byte	0x453
 782 0495 10       		.uleb128 0x10
 783 0496 04       		.byte	0x4
 784 0497 06       		.byte	0x6
 785 0498 8F       		.byte	0x8f
 786 0499 CA040000 		.4byte	0x4ca
 787 049d 11       		.uleb128 0x11
 788 049e 13000000 		.4byte	.LASF73
 789 04a2 06       		.byte	0x6
 790 04a3 96       		.byte	0x96
 791 04a4 05010000 		.4byte	0x105
 792 04a8 11       		.uleb128 0x11
 793 04a9 8A000000 		.4byte	.LASF74
 794 04ad 06       		.byte	0x6
 795 04ae 9D       		.byte	0x9d
ARM GAS  /tmp/ccmGo9v6.s 			page 15


 796 04af 05010000 		.4byte	0x105
 797 04b3 11       		.uleb128 0x11
 798 04b4 2A050000 		.4byte	.LASF75
 799 04b8 06       		.byte	0x6
 800 04b9 A4       		.byte	0xa4
 801 04ba 8F020000 		.4byte	0x28f
 802 04be 11       		.uleb128 0x11
 803 04bf 8E030000 		.4byte	.LASF76
 804 04c3 06       		.byte	0x6
 805 04c4 AB       		.byte	0xab
 806 04c5 10010000 		.4byte	0x110
 807 04c9 00       		.byte	0
 808 04ca 0A       		.uleb128 0xa
 809 04cb 04       		.byte	0x4
 810 04cc D7040000 		.4byte	0x4d7
 811 04d0 03       		.uleb128 0x3
 812 04d1 01       		.byte	0x1
 813 04d2 08       		.byte	0x8
 814 04d3 05040000 		.4byte	.LASF77
 815 04d7 0C       		.uleb128 0xc
 816 04d8 D0040000 		.4byte	0x4d0
 817 04dc 0A       		.uleb128 0xa
 818 04dd 04       		.byte	0x4
 819 04de 8A040000 		.4byte	0x48a
 820 04e2 09       		.uleb128 0x9
 821 04e3 16       		.byte	0x16
 822 04e4 0B       		.byte	0xb
 823 04e5 25       		.byte	0x25
 824 04e6 C3050000 		.4byte	0x5c3
 825 04ea 07       		.uleb128 0x7
 826 04eb C8010000 		.4byte	.LASF78
 827 04ef 0B       		.byte	0xb
 828 04f0 26       		.byte	0x26
 829 04f1 C3050000 		.4byte	0x5c3
 830 04f5 00       		.byte	0
 831 04f6 07       		.uleb128 0x7
 832 04f7 64020000 		.4byte	.LASF79
 833 04fb 0B       		.byte	0xb
 834 04fc 27       		.byte	0x27
 835 04fd 97000000 		.4byte	0x97
 836 0501 04       		.byte	0x4
 837 0502 07       		.uleb128 0x7
 838 0503 CF020000 		.4byte	.LASF80
 839 0507 0B       		.byte	0xb
 840 0508 28       		.byte	0x28
 841 0509 97000000 		.4byte	0x97
 842 050d 05       		.byte	0x5
 843 050e 07       		.uleb128 0x7
 844 050f 43050000 		.4byte	.LASF81
 845 0513 0B       		.byte	0xb
 846 0514 29       		.byte	0x29
 847 0515 A2000000 		.4byte	0xa2
 848 0519 06       		.byte	0x6
 849 051a 07       		.uleb128 0x7
 850 051b 0D030000 		.4byte	.LASF82
 851 051f 0B       		.byte	0xb
 852 0520 2A       		.byte	0x2a
ARM GAS  /tmp/ccmGo9v6.s 			page 16


 853 0521 97000000 		.4byte	0x97
 854 0525 08       		.byte	0x8
 855 0526 07       		.uleb128 0x7
 856 0527 9C020000 		.4byte	.LASF83
 857 052b 0B       		.byte	0xb
 858 052c 2B       		.byte	0x2b
 859 052d 97000000 		.4byte	0x97
 860 0531 09       		.byte	0x9
 861 0532 07       		.uleb128 0x7
 862 0533 7C000000 		.4byte	.LASF84
 863 0537 0B       		.byte	0xb
 864 0538 2C       		.byte	0x2c
 865 0539 97000000 		.4byte	0x97
 866 053d 0A       		.byte	0xa
 867 053e 07       		.uleb128 0x7
 868 053f E4030000 		.4byte	.LASF85
 869 0543 0B       		.byte	0xb
 870 0544 2D       		.byte	0x2d
 871 0545 97000000 		.4byte	0x97
 872 0549 0B       		.byte	0xb
 873 054a 07       		.uleb128 0x7
 874 054b F3040000 		.4byte	.LASF86
 875 054f 0B       		.byte	0xb
 876 0550 2E       		.byte	0x2e
 877 0551 97000000 		.4byte	0x97
 878 0555 0C       		.byte	0xc
 879 0556 07       		.uleb128 0x7
 880 0557 BA030000 		.4byte	.LASF87
 881 055b 0B       		.byte	0xb
 882 055c 2F       		.byte	0x2f
 883 055d 97000000 		.4byte	0x97
 884 0561 0D       		.byte	0xd
 885 0562 07       		.uleb128 0x7
 886 0563 00000000 		.4byte	.LASF88
 887 0567 0B       		.byte	0xb
 888 0568 30       		.byte	0x30
 889 0569 97000000 		.4byte	0x97
 890 056d 0E       		.byte	0xe
 891 056e 07       		.uleb128 0x7
 892 056f A8020000 		.4byte	.LASF89
 893 0573 0B       		.byte	0xb
 894 0574 31       		.byte	0x31
 895 0575 97000000 		.4byte	0x97
 896 0579 0F       		.byte	0xf
 897 057a 07       		.uleb128 0x7
 898 057b CF000000 		.4byte	.LASF90
 899 057f 0B       		.byte	0xb
 900 0580 32       		.byte	0x32
 901 0581 97000000 		.4byte	0x97
 902 0585 10       		.byte	0x10
 903 0586 07       		.uleb128 0x7
 904 0587 9F000000 		.4byte	.LASF91
 905 058b 0B       		.byte	0xb
 906 058c 34       		.byte	0x34
 907 058d 97000000 		.4byte	0x97
 908 0591 11       		.byte	0x11
 909 0592 07       		.uleb128 0x7
ARM GAS  /tmp/ccmGo9v6.s 			page 17


 910 0593 DF000000 		.4byte	.LASF92
 911 0597 0B       		.byte	0xb
 912 0598 35       		.byte	0x35
 913 0599 97000000 		.4byte	0x97
 914 059d 12       		.byte	0x12
 915 059e 07       		.uleb128 0x7
 916 059f 6C020000 		.4byte	.LASF93
 917 05a3 0B       		.byte	0xb
 918 05a4 36       		.byte	0x36
 919 05a5 97000000 		.4byte	0x97
 920 05a9 13       		.byte	0x13
 921 05aa 07       		.uleb128 0x7
 922 05ab 9C030000 		.4byte	.LASF94
 923 05af 0B       		.byte	0xb
 924 05b0 37       		.byte	0x37
 925 05b1 97000000 		.4byte	0x97
 926 05b5 14       		.byte	0x14
 927 05b6 07       		.uleb128 0x7
 928 05b7 72030000 		.4byte	.LASF95
 929 05bb 0B       		.byte	0xb
 930 05bc 39       		.byte	0x39
 931 05bd 97000000 		.4byte	0x97
 932 05c1 15       		.byte	0x15
 933 05c2 00       		.byte	0
 934 05c3 12       		.uleb128 0x12
 935 05c4 D0040000 		.4byte	0x4d0
 936 05c8 D3050000 		.4byte	0x5d3
 937 05cc 13       		.uleb128 0x13
 938 05cd D3050000 		.4byte	0x5d3
 939 05d1 03       		.byte	0x3
 940 05d2 00       		.byte	0
 941 05d3 03       		.uleb128 0x3
 942 05d4 04       		.byte	0x4
 943 05d5 07       		.byte	0x7
 944 05d6 8B020000 		.4byte	.LASF96
 945 05da 04       		.uleb128 0x4
 946 05db 3A010000 		.4byte	.LASF97
 947 05df 0B       		.byte	0xb
 948 05e0 3A       		.byte	0x3a
 949 05e1 E2040000 		.4byte	0x4e2
 950 05e5 0C       		.uleb128 0xc
 951 05e6 DA050000 		.4byte	0x5da
 952 05ea 0F       		.uleb128 0xf
 953 05eb A6010000 		.4byte	.LASF98
 954 05ef 0B       		.byte	0xb
 955 05f0 77       		.byte	0x77
 956 05f1 E5050000 		.4byte	0x5e5
 957 05f5 12       		.uleb128 0x12
 958 05f6 79020000 		.4byte	0x279
 959 05fa 05060000 		.4byte	0x605
 960 05fe 13       		.uleb128 0x13
 961 05ff D3050000 		.4byte	0x5d3
 962 0603 26       		.byte	0x26
 963 0604 00       		.byte	0
 964 0605 0F       		.uleb128 0xf
 965 0606 53010000 		.4byte	.LASF99
 966 060a 0C       		.byte	0xc
ARM GAS  /tmp/ccmGo9v6.s 			page 18


 967 060b 82       		.byte	0x82
 968 060c F5050000 		.4byte	0x5f5
 969 0610 06       		.uleb128 0x6
 970 0611 C7030000 		.4byte	.LASF100
 971 0615 10       		.byte	0x10
 972 0616 0D       		.byte	0xd
 973 0617 3F       		.byte	0x3f
 974 0618 4D060000 		.4byte	0x64d
 975 061c 07       		.uleb128 0x7
 976 061d D6010000 		.4byte	.LASF101
 977 0621 0D       		.byte	0xd
 978 0622 40       		.byte	0x40
 979 0623 CA040000 		.4byte	0x4ca
 980 0627 00       		.byte	0
 981 0628 07       		.uleb128 0x7
 982 0629 D7020000 		.4byte	.LASF102
 983 062d 0D       		.byte	0xd
 984 062e 41       		.byte	0x41
 985 062f 53060000 		.4byte	0x653
 986 0633 04       		.byte	0x4
 987 0634 07       		.uleb128 0x7
 988 0635 AC000000 		.4byte	.LASF103
 989 0639 0D       		.byte	0xd
 990 063a 42       		.byte	0x42
 991 063b 53060000 		.4byte	0x653
 992 063f 08       		.byte	0x8
 993 0640 07       		.uleb128 0x7
 994 0641 1F030000 		.4byte	.LASF104
 995 0645 0D       		.byte	0xd
 996 0646 43       		.byte	0x43
 997 0647 53060000 		.4byte	0x653
 998 064b 0C       		.byte	0xc
 999 064c 00       		.byte	0
 1000 064d 0C       		.uleb128 0xc
 1001 064e 10060000 		.4byte	0x610
 1002 0652 14       		.uleb128 0x14
 1003 0653 0A       		.uleb128 0xa
 1004 0654 04       		.byte	0x4
 1005 0655 52060000 		.4byte	0x652
 1006 0659 15       		.uleb128 0x15
 1007 065a 7805     		.2byte	0x578
 1008 065c 0D       		.byte	0xd
 1009 065d 48       		.byte	0x48
 1010 065e 9E060000 		.4byte	0x69e
 1011 0662 08       		.uleb128 0x8
 1012 0663 543000   		.ascii	"T0\000"
 1013 0666 0D       		.byte	0xd
 1014 0667 49       		.byte	0x49
 1015 0668 9E060000 		.4byte	0x69e
 1016 066c 00       		.byte	0
 1017 066d 16       		.uleb128 0x16
 1018 066e 543100   		.ascii	"T1\000"
 1019 0671 0D       		.byte	0xd
 1020 0672 4A       		.byte	0x4a
 1021 0673 9E060000 		.4byte	0x69e
 1022 0677 1801     		.2byte	0x118
 1023 0679 16       		.uleb128 0x16
ARM GAS  /tmp/ccmGo9v6.s 			page 19


 1024 067a 543200   		.ascii	"T2\000"
 1025 067d 0D       		.byte	0xd
 1026 067e 4B       		.byte	0x4b
 1027 067f 9E060000 		.4byte	0x69e
 1028 0683 3002     		.2byte	0x230
 1029 0685 16       		.uleb128 0x16
 1030 0686 543300   		.ascii	"T3\000"
 1031 0689 0D       		.byte	0xd
 1032 068a 4C       		.byte	0x4c
 1033 068b 9E060000 		.4byte	0x69e
 1034 068f 4803     		.2byte	0x348
 1035 0691 16       		.uleb128 0x16
 1036 0692 543400   		.ascii	"T4\000"
 1037 0695 0D       		.byte	0xd
 1038 0696 4D       		.byte	0x4d
 1039 0697 9E060000 		.4byte	0x69e
 1040 069b 6004     		.2byte	0x460
 1041 069d 00       		.byte	0
 1042 069e 12       		.uleb128 0x12
 1043 069f 79020000 		.4byte	0x279
 1044 06a3 AE060000 		.4byte	0x6ae
 1045 06a7 13       		.uleb128 0x13
 1046 06a8 D3050000 		.4byte	0x5d3
 1047 06ac 45       		.byte	0x45
 1048 06ad 00       		.byte	0
 1049 06ae 17       		.uleb128 0x17
 1050 06af 0A040000 		.4byte	.LASF120
 1051 06b3 7805     		.2byte	0x578
 1052 06b5 0D       		.byte	0xd
 1053 06b6 47       		.byte	0x47
 1054 06b7 D1060000 		.4byte	0x6d1
 1055 06bb 18       		.uleb128 0x18
 1056 06bc 776100   		.ascii	"wa\000"
 1057 06bf 0D       		.byte	0xd
 1058 06c0 4E       		.byte	0x4e
 1059 06c1 59060000 		.4byte	0x659
 1060 06c5 11       		.uleb128 0x11
 1061 06c6 44010000 		.4byte	.LASF105
 1062 06ca 0D       		.byte	0xd
 1063 06cb 4F       		.byte	0x4f
 1064 06cc D1060000 		.4byte	0x6d1
 1065 06d0 00       		.byte	0
 1066 06d1 12       		.uleb128 0x12
 1067 06d2 97000000 		.4byte	0x97
 1068 06d6 E2060000 		.4byte	0x6e2
 1069 06da 19       		.uleb128 0x19
 1070 06db D3050000 		.4byte	0x5d3
 1071 06df 7705     		.2byte	0x577
 1072 06e1 00       		.byte	0
 1073 06e2 12       		.uleb128 0x12
 1074 06e3 48020000 		.4byte	0x248
 1075 06e7 F2060000 		.4byte	0x6f2
 1076 06eb 13       		.uleb128 0x13
 1077 06ec D3050000 		.4byte	0x5d3
 1078 06f0 04       		.byte	0x4
 1079 06f1 00       		.byte	0
 1080 06f2 0F       		.uleb128 0xf
ARM GAS  /tmp/ccmGo9v6.s 			page 20


 1081 06f3 04020000 		.4byte	.LASF106
 1082 06f7 0D       		.byte	0xd
 1083 06f8 A9       		.byte	0xa9
 1084 06f9 E2060000 		.4byte	0x6e2
 1085 06fd 0F       		.uleb128 0xf
 1086 06fe 93000000 		.4byte	.LASF107
 1087 0702 0D       		.byte	0xd
 1088 0703 AA       		.byte	0xaa
 1089 0704 AE060000 		.4byte	0x6ae
 1090 0708 12       		.uleb128 0x12
 1091 0709 91020000 		.4byte	0x291
 1092 070d 13070000 		.4byte	0x713
 1093 0711 1A       		.uleb128 0x1a
 1094 0712 00       		.byte	0
 1095 0713 0C       		.uleb128 0xc
 1096 0714 08070000 		.4byte	0x708
 1097 0718 1B       		.uleb128 0x1b
 1098 0719 776100   		.ascii	"wa\000"
 1099 071c 0D       		.byte	0xd
 1100 071d AB       		.byte	0xab
 1101 071e 13070000 		.4byte	0x713
 1102 0722 0F       		.uleb128 0xf
 1103 0723 AF010000 		.4byte	.LASF108
 1104 0727 0D       		.byte	0xd
 1105 0728 AC       		.byte	0xac
 1106 0729 C3000000 		.4byte	0xc3
 1107 072d 1C       		.uleb128 0x1c
 1108 072e 85030000 		.4byte	.LASF109
 1109 0732 01       		.byte	0x1
 1110 0733 5F       		.byte	0x5f
 1111 0734 4D060000 		.4byte	0x64d
 1112 0738 05       		.uleb128 0x5
 1113 0739 03       		.byte	0x3
 1114 073a 00000000 		.4byte	testmsg1
 1115 073e 12       		.uleb128 0x12
 1116 073f 59070000 		.4byte	0x759
 1117 0743 4E070000 		.4byte	0x74e
 1118 0747 13       		.uleb128 0x13
 1119 0748 D3050000 		.4byte	0x5d3
 1120 074c 01       		.byte	0x1
 1121 074d 00       		.byte	0
 1122 074e 0C       		.uleb128 0xc
 1123 074f 3E070000 		.4byte	0x73e
 1124 0753 0A       		.uleb128 0xa
 1125 0754 04       		.byte	0x4
 1126 0755 4D060000 		.4byte	0x64d
 1127 0759 0C       		.uleb128 0xc
 1128 075a 53070000 		.4byte	0x753
 1129 075e 1C       		.uleb128 0x1c
 1130 075f 80020000 		.4byte	.LASF110
 1131 0763 01       		.byte	0x1
 1132 0764 6B       		.byte	0x6b
 1133 0765 4E070000 		.4byte	0x74e
 1134 0769 05       		.uleb128 0x5
 1135 076a 03       		.byte	0x3
 1136 076b 00000000 		.4byte	patternmsg
 1137 076f 1D       		.uleb128 0x1d
ARM GAS  /tmp/ccmGo9v6.s 			page 21


 1138 0770 1D050000 		.4byte	.LASF121
 1139 0774 01       		.byte	0x1
 1140 0775 47       		.byte	0x47
 1141 0776 00000000 		.4byte	.LFB8
 1142 077a A8000000 		.4byte	.LFE8-.LFB8
 1143 077e 01       		.uleb128 0x1
 1144 077f 9C       		.byte	0x9c
 1145 0780 6B080000 		.4byte	0x86b
 1146 0784 1E       		.uleb128 0x1e
 1147 0785 747000   		.ascii	"tp\000"
 1148 0788 01       		.byte	0x1
 1149 0789 48       		.byte	0x48
 1150 078a 48020000 		.4byte	0x248
 1151 078e 00000000 		.4byte	.LLST0
 1152 0792 1E       		.uleb128 0x1e
 1153 0793 6D736700 		.ascii	"msg\000"
 1154 0797 01       		.byte	0x1
 1155 0798 49       		.byte	0x49
 1156 0799 05010000 		.4byte	0x105
 1157 079d 29000000 		.4byte	.LLST1
 1158 07a1 1F       		.uleb128 0x1f
 1159 07a2 30000000 		.4byte	.LVL0
 1160 07a6 DC080000 		.4byte	0x8dc
 1161 07aa BF070000 		.4byte	0x7bf
 1162 07ae 20       		.uleb128 0x20
 1163 07af 01       		.uleb128 0x1
 1164 07b0 51       		.byte	0x51
 1165 07b1 03       		.uleb128 0x3
 1166 07b2 0A       		.byte	0xa
 1167 07b3 1801     		.2byte	0x118
 1168 07b5 20       		.uleb128 0x20
 1169 07b6 01       		.uleb128 0x1
 1170 07b7 53       		.byte	0x53
 1171 07b8 05       		.uleb128 0x5
 1172 07b9 03       		.byte	0x3
 1173 07ba 00000000 		.4byte	thread
 1174 07be 00       		.byte	0
 1175 07bf 21       		.uleb128 0x21
 1176 07c0 3C000000 		.4byte	.LVL1
 1177 07c4 E8080000 		.4byte	0x8e8
 1178 07c8 1F       		.uleb128 0x1f
 1179 07c9 48000000 		.4byte	.LVL3
 1180 07cd F3080000 		.4byte	0x8f3
 1181 07d1 DC070000 		.4byte	0x7dc
 1182 07d5 20       		.uleb128 0x20
 1183 07d6 01       		.uleb128 0x1
 1184 07d7 51       		.byte	0x51
 1185 07d8 02       		.uleb128 0x2
 1186 07d9 74       		.byte	0x74
 1187 07da 00       		.sleb128 0
 1188 07db 00       		.byte	0
 1189 07dc 1F       		.uleb128 0x1f
 1190 07dd 50000000 		.4byte	.LVL4
 1191 07e1 FE080000 		.4byte	0x8fe
 1192 07e5 F0070000 		.4byte	0x7f0
 1193 07e9 20       		.uleb128 0x20
 1194 07ea 01       		.uleb128 0x1
ARM GAS  /tmp/ccmGo9v6.s 			page 22


 1195 07eb 50       		.byte	0x50
 1196 07ec 02       		.uleb128 0x2
 1197 07ed 74       		.byte	0x74
 1198 07ee 00       		.sleb128 0
 1199 07ef 00       		.byte	0
 1200 07f0 21       		.uleb128 0x21
 1201 07f1 54000000 		.4byte	.LVL5
 1202 07f5 E8080000 		.4byte	0x8e8
 1203 07f9 1F       		.uleb128 0x1f
 1204 07fa 60000000 		.4byte	.LVL7
 1205 07fe F3080000 		.4byte	0x8f3
 1206 0802 0D080000 		.4byte	0x80d
 1207 0806 20       		.uleb128 0x20
 1208 0807 01       		.uleb128 0x1
 1209 0808 51       		.byte	0x51
 1210 0809 02       		.uleb128 0x2
 1211 080a 74       		.byte	0x74
 1212 080b 00       		.sleb128 0
 1213 080c 00       		.byte	0
 1214 080d 1F       		.uleb128 0x1f
 1215 080e 68000000 		.4byte	.LVL8
 1216 0812 FE080000 		.4byte	0x8fe
 1217 0816 21080000 		.4byte	0x821
 1218 081a 20       		.uleb128 0x20
 1219 081b 01       		.uleb128 0x1
 1220 081c 50       		.byte	0x50
 1221 081d 02       		.uleb128 0x2
 1222 081e 74       		.byte	0x74
 1223 081f 00       		.sleb128 0
 1224 0820 00       		.byte	0
 1225 0821 21       		.uleb128 0x21
 1226 0822 6C000000 		.4byte	.LVL9
 1227 0826 E8080000 		.4byte	0x8e8
 1228 082a 1F       		.uleb128 0x1f
 1229 082b 78000000 		.4byte	.LVL11
 1230 082f F3080000 		.4byte	0x8f3
 1231 0833 3E080000 		.4byte	0x83e
 1232 0837 20       		.uleb128 0x20
 1233 0838 01       		.uleb128 0x1
 1234 0839 51       		.byte	0x51
 1235 083a 02       		.uleb128 0x2
 1236 083b 74       		.byte	0x74
 1237 083c 00       		.sleb128 0
 1238 083d 00       		.byte	0
 1239 083e 1F       		.uleb128 0x1f
 1240 083f 80000000 		.4byte	.LVL12
 1241 0843 FE080000 		.4byte	0x8fe
 1242 0847 52080000 		.4byte	0x852
 1243 084b 20       		.uleb128 0x20
 1244 084c 01       		.uleb128 0x1
 1245 084d 50       		.byte	0x50
 1246 084e 02       		.uleb128 0x2
 1247 084f 74       		.byte	0x74
 1248 0850 00       		.sleb128 0
 1249 0851 00       		.byte	0
 1250 0852 22       		.uleb128 0x22
 1251 0853 94000000 		.4byte	.LVL14
ARM GAS  /tmp/ccmGo9v6.s 			page 23


 1252 0857 09090000 		.4byte	0x909
 1253 085b 20       		.uleb128 0x20
 1254 085c 01       		.uleb128 0x1
 1255 085d 50       		.byte	0x50
 1256 085e 01       		.uleb128 0x1
 1257 085f 31       		.byte	0x31
 1258 0860 20       		.uleb128 0x20
 1259 0861 01       		.uleb128 0x1
 1260 0862 51       		.byte	0x51
 1261 0863 05       		.uleb128 0x5
 1262 0864 03       		.byte	0x3
 1263 0865 00000000 		.4byte	.LC0
 1264 0869 00       		.byte	0
 1265 086a 00       		.byte	0
 1266 086b 23       		.uleb128 0x23
 1267 086c 2F030000 		.4byte	.LASF122
 1268 0870 01       		.byte	0x1
 1269 0871 3F       		.byte	0x3f
 1270 0872 05010000 		.4byte	0x105
 1271 0876 00000000 		.4byte	.LFB7
 1272 087a 30000000 		.4byte	.LFE7-.LFB7
 1273 087e 01       		.uleb128 0x1
 1274 087f 9C       		.byte	0x9c
 1275 0880 DC080000 		.4byte	0x8dc
 1276 0884 24       		.uleb128 0x24
 1277 0885 7000     		.ascii	"p\000"
 1278 0887 01       		.byte	0x1
 1279 0888 3F       		.byte	0x3f
 1280 0889 8F020000 		.4byte	0x28f
 1281 088d 3C000000 		.4byte	.LLST2
 1282 0891 1F       		.uleb128 0x1f
 1283 0892 10000000 		.4byte	.LVL16
 1284 0896 14090000 		.4byte	0x914
 1285 089a AB080000 		.4byte	0x8ab
 1286 089e 20       		.uleb128 0x20
 1287 089f 01       		.uleb128 0x1
 1288 08a0 50       		.byte	0x50
 1289 08a1 02       		.uleb128 0x2
 1290 08a2 74       		.byte	0x74
 1291 08a3 00       		.sleb128 0
 1292 08a4 20       		.uleb128 0x20
 1293 08a5 01       		.uleb128 0x1
 1294 08a6 51       		.byte	0x51
 1295 08a7 02       		.uleb128 0x2
 1296 08a8 08       		.byte	0x8
 1297 08a9 41       		.byte	0x41
 1298 08aa 00       		.byte	0
 1299 08ab 1F       		.uleb128 0x1f
 1300 08ac 1C000000 		.4byte	.LVL17
 1301 08b0 14090000 		.4byte	0x914
 1302 08b4 C5080000 		.4byte	0x8c5
 1303 08b8 20       		.uleb128 0x20
 1304 08b9 01       		.uleb128 0x1
 1305 08ba 50       		.byte	0x50
 1306 08bb 02       		.uleb128 0x2
 1307 08bc 74       		.byte	0x74
 1308 08bd 00       		.sleb128 0
ARM GAS  /tmp/ccmGo9v6.s 			page 24


 1309 08be 20       		.uleb128 0x20
 1310 08bf 01       		.uleb128 0x1
 1311 08c0 51       		.byte	0x51
 1312 08c1 02       		.uleb128 0x2
 1313 08c2 08       		.byte	0x8
 1314 08c3 42       		.byte	0x42
 1315 08c4 00       		.byte	0
 1316 08c5 25       		.uleb128 0x25
 1317 08c6 28000000 		.4byte	.LVL18
 1318 08ca 14090000 		.4byte	0x914
 1319 08ce 20       		.uleb128 0x20
 1320 08cf 01       		.uleb128 0x1
 1321 08d0 50       		.byte	0x50
 1322 08d1 02       		.uleb128 0x2
 1323 08d2 74       		.byte	0x74
 1324 08d3 00       		.sleb128 0
 1325 08d4 20       		.uleb128 0x20
 1326 08d5 01       		.uleb128 0x1
 1327 08d6 51       		.byte	0x51
 1328 08d7 02       		.uleb128 0x2
 1329 08d8 08       		.byte	0x8
 1330 08d9 43       		.byte	0x43
 1331 08da 00       		.byte	0
 1332 08db 00       		.byte	0
 1333 08dc 26       		.uleb128 0x26
 1334 08dd 52020000 		.4byte	.LASF111
 1335 08e1 52020000 		.4byte	.LASF111
 1336 08e5 06       		.byte	0x6
 1337 08e6 6401     		.2byte	0x164
 1338 08e8 27       		.uleb128 0x27
 1339 08e9 E9040000 		.4byte	.LASF112
 1340 08ed E9040000 		.4byte	.LASF112
 1341 08f1 0E       		.byte	0xe
 1342 08f2 4B       		.byte	0x4b
 1343 08f3 27       		.uleb128 0x27
 1344 08f4 6D050000 		.4byte	.LASF113
 1345 08f8 6D050000 		.4byte	.LASF113
 1346 08fc 0E       		.byte	0xe
 1347 08fd 4C       		.byte	0x4c
 1348 08fe 27       		.uleb128 0x27
 1349 08ff FB000000 		.4byte	.LASF114
 1350 0903 FB000000 		.4byte	.LASF114
 1351 0907 0D       		.byte	0xd
 1352 0908 5A       		.byte	0x5a
 1353 0909 27       		.uleb128 0x27
 1354 090a DD020000 		.4byte	.LASF115
 1355 090e DD020000 		.4byte	.LASF115
 1356 0912 0D       		.byte	0xd
 1357 0913 5D       		.byte	0x5d
 1358 0914 27       		.uleb128 0x27
 1359 0915 1E010000 		.4byte	.LASF116
 1360 0919 1E010000 		.4byte	.LASF116
 1361 091d 0E       		.byte	0xe
 1362 091e 4A       		.byte	0x4a
 1363 091f 00       		.byte	0
 1364              		.section	.debug_abbrev,"",%progbits
 1365              	.Ldebug_abbrev0:
ARM GAS  /tmp/ccmGo9v6.s 			page 25


 1366 0000 01       		.uleb128 0x1
 1367 0001 11       		.uleb128 0x11
 1368 0002 01       		.byte	0x1
 1369 0003 25       		.uleb128 0x25
 1370 0004 0E       		.uleb128 0xe
 1371 0005 13       		.uleb128 0x13
 1372 0006 0B       		.uleb128 0xb
 1373 0007 03       		.uleb128 0x3
 1374 0008 0E       		.uleb128 0xe
 1375 0009 1B       		.uleb128 0x1b
 1376 000a 0E       		.uleb128 0xe
 1377 000b 55       		.uleb128 0x55
 1378 000c 17       		.uleb128 0x17
 1379 000d 11       		.uleb128 0x11
 1380 000e 01       		.uleb128 0x1
 1381 000f 10       		.uleb128 0x10
 1382 0010 17       		.uleb128 0x17
 1383 0011 00       		.byte	0
 1384 0012 00       		.byte	0
 1385 0013 02       		.uleb128 0x2
 1386 0014 24       		.uleb128 0x24
 1387 0015 00       		.byte	0
 1388 0016 0B       		.uleb128 0xb
 1389 0017 0B       		.uleb128 0xb
 1390 0018 3E       		.uleb128 0x3e
 1391 0019 0B       		.uleb128 0xb
 1392 001a 03       		.uleb128 0x3
 1393 001b 08       		.uleb128 0x8
 1394 001c 00       		.byte	0
 1395 001d 00       		.byte	0
 1396 001e 03       		.uleb128 0x3
 1397 001f 24       		.uleb128 0x24
 1398 0020 00       		.byte	0
 1399 0021 0B       		.uleb128 0xb
 1400 0022 0B       		.uleb128 0xb
 1401 0023 3E       		.uleb128 0x3e
 1402 0024 0B       		.uleb128 0xb
 1403 0025 03       		.uleb128 0x3
 1404 0026 0E       		.uleb128 0xe
 1405 0027 00       		.byte	0
 1406 0028 00       		.byte	0
 1407 0029 04       		.uleb128 0x4
 1408 002a 16       		.uleb128 0x16
 1409 002b 00       		.byte	0
 1410 002c 03       		.uleb128 0x3
 1411 002d 0E       		.uleb128 0xe
 1412 002e 3A       		.uleb128 0x3a
 1413 002f 0B       		.uleb128 0xb
 1414 0030 3B       		.uleb128 0x3b
 1415 0031 0B       		.uleb128 0xb
 1416 0032 49       		.uleb128 0x49
 1417 0033 13       		.uleb128 0x13
 1418 0034 00       		.byte	0
 1419 0035 00       		.byte	0
 1420 0036 05       		.uleb128 0x5
 1421 0037 35       		.uleb128 0x35
 1422 0038 00       		.byte	0
ARM GAS  /tmp/ccmGo9v6.s 			page 26


 1423 0039 49       		.uleb128 0x49
 1424 003a 13       		.uleb128 0x13
 1425 003b 00       		.byte	0
 1426 003c 00       		.byte	0
 1427 003d 06       		.uleb128 0x6
 1428 003e 13       		.uleb128 0x13
 1429 003f 01       		.byte	0x1
 1430 0040 03       		.uleb128 0x3
 1431 0041 0E       		.uleb128 0xe
 1432 0042 0B       		.uleb128 0xb
 1433 0043 0B       		.uleb128 0xb
 1434 0044 3A       		.uleb128 0x3a
 1435 0045 0B       		.uleb128 0xb
 1436 0046 3B       		.uleb128 0x3b
 1437 0047 0B       		.uleb128 0xb
 1438 0048 01       		.uleb128 0x1
 1439 0049 13       		.uleb128 0x13
 1440 004a 00       		.byte	0
 1441 004b 00       		.byte	0
 1442 004c 07       		.uleb128 0x7
 1443 004d 0D       		.uleb128 0xd
 1444 004e 00       		.byte	0
 1445 004f 03       		.uleb128 0x3
 1446 0050 0E       		.uleb128 0xe
 1447 0051 3A       		.uleb128 0x3a
 1448 0052 0B       		.uleb128 0xb
 1449 0053 3B       		.uleb128 0x3b
 1450 0054 0B       		.uleb128 0xb
 1451 0055 49       		.uleb128 0x49
 1452 0056 13       		.uleb128 0x13
 1453 0057 38       		.uleb128 0x38
 1454 0058 0B       		.uleb128 0xb
 1455 0059 00       		.byte	0
 1456 005a 00       		.byte	0
 1457 005b 08       		.uleb128 0x8
 1458 005c 0D       		.uleb128 0xd
 1459 005d 00       		.byte	0
 1460 005e 03       		.uleb128 0x3
 1461 005f 08       		.uleb128 0x8
 1462 0060 3A       		.uleb128 0x3a
 1463 0061 0B       		.uleb128 0xb
 1464 0062 3B       		.uleb128 0x3b
 1465 0063 0B       		.uleb128 0xb
 1466 0064 49       		.uleb128 0x49
 1467 0065 13       		.uleb128 0x13
 1468 0066 38       		.uleb128 0x38
 1469 0067 0B       		.uleb128 0xb
 1470 0068 00       		.byte	0
 1471 0069 00       		.byte	0
 1472 006a 09       		.uleb128 0x9
 1473 006b 13       		.uleb128 0x13
 1474 006c 01       		.byte	0x1
 1475 006d 0B       		.uleb128 0xb
 1476 006e 0B       		.uleb128 0xb
 1477 006f 3A       		.uleb128 0x3a
 1478 0070 0B       		.uleb128 0xb
 1479 0071 3B       		.uleb128 0x3b
ARM GAS  /tmp/ccmGo9v6.s 			page 27


 1480 0072 0B       		.uleb128 0xb
 1481 0073 01       		.uleb128 0x1
 1482 0074 13       		.uleb128 0x13
 1483 0075 00       		.byte	0
 1484 0076 00       		.byte	0
 1485 0077 0A       		.uleb128 0xa
 1486 0078 0F       		.uleb128 0xf
 1487 0079 00       		.byte	0
 1488 007a 0B       		.uleb128 0xb
 1489 007b 0B       		.uleb128 0xb
 1490 007c 49       		.uleb128 0x49
 1491 007d 13       		.uleb128 0x13
 1492 007e 00       		.byte	0
 1493 007f 00       		.byte	0
 1494 0080 0B       		.uleb128 0xb
 1495 0081 0F       		.uleb128 0xf
 1496 0082 00       		.byte	0
 1497 0083 0B       		.uleb128 0xb
 1498 0084 0B       		.uleb128 0xb
 1499 0085 00       		.byte	0
 1500 0086 00       		.byte	0
 1501 0087 0C       		.uleb128 0xc
 1502 0088 26       		.uleb128 0x26
 1503 0089 00       		.byte	0
 1504 008a 49       		.uleb128 0x49
 1505 008b 13       		.uleb128 0x13
 1506 008c 00       		.byte	0
 1507 008d 00       		.byte	0
 1508 008e 0D       		.uleb128 0xd
 1509 008f 15       		.uleb128 0x15
 1510 0090 01       		.byte	0x1
 1511 0091 27       		.uleb128 0x27
 1512 0092 19       		.uleb128 0x19
 1513 0093 01       		.uleb128 0x1
 1514 0094 13       		.uleb128 0x13
 1515 0095 00       		.byte	0
 1516 0096 00       		.byte	0
 1517 0097 0E       		.uleb128 0xe
 1518 0098 05       		.uleb128 0x5
 1519 0099 00       		.byte	0
 1520 009a 49       		.uleb128 0x49
 1521 009b 13       		.uleb128 0x13
 1522 009c 00       		.byte	0
 1523 009d 00       		.byte	0
 1524 009e 0F       		.uleb128 0xf
 1525 009f 34       		.uleb128 0x34
 1526 00a0 00       		.byte	0
 1527 00a1 03       		.uleb128 0x3
 1528 00a2 0E       		.uleb128 0xe
 1529 00a3 3A       		.uleb128 0x3a
 1530 00a4 0B       		.uleb128 0xb
 1531 00a5 3B       		.uleb128 0x3b
 1532 00a6 0B       		.uleb128 0xb
 1533 00a7 49       		.uleb128 0x49
 1534 00a8 13       		.uleb128 0x13
 1535 00a9 3F       		.uleb128 0x3f
 1536 00aa 19       		.uleb128 0x19
ARM GAS  /tmp/ccmGo9v6.s 			page 28


 1537 00ab 3C       		.uleb128 0x3c
 1538 00ac 19       		.uleb128 0x19
 1539 00ad 00       		.byte	0
 1540 00ae 00       		.byte	0
 1541 00af 10       		.uleb128 0x10
 1542 00b0 17       		.uleb128 0x17
 1543 00b1 01       		.byte	0x1
 1544 00b2 0B       		.uleb128 0xb
 1545 00b3 0B       		.uleb128 0xb
 1546 00b4 3A       		.uleb128 0x3a
 1547 00b5 0B       		.uleb128 0xb
 1548 00b6 3B       		.uleb128 0x3b
 1549 00b7 0B       		.uleb128 0xb
 1550 00b8 01       		.uleb128 0x1
 1551 00b9 13       		.uleb128 0x13
 1552 00ba 00       		.byte	0
 1553 00bb 00       		.byte	0
 1554 00bc 11       		.uleb128 0x11
 1555 00bd 0D       		.uleb128 0xd
 1556 00be 00       		.byte	0
 1557 00bf 03       		.uleb128 0x3
 1558 00c0 0E       		.uleb128 0xe
 1559 00c1 3A       		.uleb128 0x3a
 1560 00c2 0B       		.uleb128 0xb
 1561 00c3 3B       		.uleb128 0x3b
 1562 00c4 0B       		.uleb128 0xb
 1563 00c5 49       		.uleb128 0x49
 1564 00c6 13       		.uleb128 0x13
 1565 00c7 00       		.byte	0
 1566 00c8 00       		.byte	0
 1567 00c9 12       		.uleb128 0x12
 1568 00ca 01       		.uleb128 0x1
 1569 00cb 01       		.byte	0x1
 1570 00cc 49       		.uleb128 0x49
 1571 00cd 13       		.uleb128 0x13
 1572 00ce 01       		.uleb128 0x1
 1573 00cf 13       		.uleb128 0x13
 1574 00d0 00       		.byte	0
 1575 00d1 00       		.byte	0
 1576 00d2 13       		.uleb128 0x13
 1577 00d3 21       		.uleb128 0x21
 1578 00d4 00       		.byte	0
 1579 00d5 49       		.uleb128 0x49
 1580 00d6 13       		.uleb128 0x13
 1581 00d7 2F       		.uleb128 0x2f
 1582 00d8 0B       		.uleb128 0xb
 1583 00d9 00       		.byte	0
 1584 00da 00       		.byte	0
 1585 00db 14       		.uleb128 0x14
 1586 00dc 15       		.uleb128 0x15
 1587 00dd 00       		.byte	0
 1588 00de 27       		.uleb128 0x27
 1589 00df 19       		.uleb128 0x19
 1590 00e0 00       		.byte	0
 1591 00e1 00       		.byte	0
 1592 00e2 15       		.uleb128 0x15
 1593 00e3 13       		.uleb128 0x13
ARM GAS  /tmp/ccmGo9v6.s 			page 29


 1594 00e4 01       		.byte	0x1
 1595 00e5 0B       		.uleb128 0xb
 1596 00e6 05       		.uleb128 0x5
 1597 00e7 3A       		.uleb128 0x3a
 1598 00e8 0B       		.uleb128 0xb
 1599 00e9 3B       		.uleb128 0x3b
 1600 00ea 0B       		.uleb128 0xb
 1601 00eb 01       		.uleb128 0x1
 1602 00ec 13       		.uleb128 0x13
 1603 00ed 00       		.byte	0
 1604 00ee 00       		.byte	0
 1605 00ef 16       		.uleb128 0x16
 1606 00f0 0D       		.uleb128 0xd
 1607 00f1 00       		.byte	0
 1608 00f2 03       		.uleb128 0x3
 1609 00f3 08       		.uleb128 0x8
 1610 00f4 3A       		.uleb128 0x3a
 1611 00f5 0B       		.uleb128 0xb
 1612 00f6 3B       		.uleb128 0x3b
 1613 00f7 0B       		.uleb128 0xb
 1614 00f8 49       		.uleb128 0x49
 1615 00f9 13       		.uleb128 0x13
 1616 00fa 38       		.uleb128 0x38
 1617 00fb 05       		.uleb128 0x5
 1618 00fc 00       		.byte	0
 1619 00fd 00       		.byte	0
 1620 00fe 17       		.uleb128 0x17
 1621 00ff 17       		.uleb128 0x17
 1622 0100 01       		.byte	0x1
 1623 0101 03       		.uleb128 0x3
 1624 0102 0E       		.uleb128 0xe
 1625 0103 0B       		.uleb128 0xb
 1626 0104 05       		.uleb128 0x5
 1627 0105 3A       		.uleb128 0x3a
 1628 0106 0B       		.uleb128 0xb
 1629 0107 3B       		.uleb128 0x3b
 1630 0108 0B       		.uleb128 0xb
 1631 0109 01       		.uleb128 0x1
 1632 010a 13       		.uleb128 0x13
 1633 010b 00       		.byte	0
 1634 010c 00       		.byte	0
 1635 010d 18       		.uleb128 0x18
 1636 010e 0D       		.uleb128 0xd
 1637 010f 00       		.byte	0
 1638 0110 03       		.uleb128 0x3
 1639 0111 08       		.uleb128 0x8
 1640 0112 3A       		.uleb128 0x3a
 1641 0113 0B       		.uleb128 0xb
 1642 0114 3B       		.uleb128 0x3b
 1643 0115 0B       		.uleb128 0xb
 1644 0116 49       		.uleb128 0x49
 1645 0117 13       		.uleb128 0x13
 1646 0118 00       		.byte	0
 1647 0119 00       		.byte	0
 1648 011a 19       		.uleb128 0x19
 1649 011b 21       		.uleb128 0x21
 1650 011c 00       		.byte	0
ARM GAS  /tmp/ccmGo9v6.s 			page 30


 1651 011d 49       		.uleb128 0x49
 1652 011e 13       		.uleb128 0x13
 1653 011f 2F       		.uleb128 0x2f
 1654 0120 05       		.uleb128 0x5
 1655 0121 00       		.byte	0
 1656 0122 00       		.byte	0
 1657 0123 1A       		.uleb128 0x1a
 1658 0124 21       		.uleb128 0x21
 1659 0125 00       		.byte	0
 1660 0126 00       		.byte	0
 1661 0127 00       		.byte	0
 1662 0128 1B       		.uleb128 0x1b
 1663 0129 34       		.uleb128 0x34
 1664 012a 00       		.byte	0
 1665 012b 03       		.uleb128 0x3
 1666 012c 08       		.uleb128 0x8
 1667 012d 3A       		.uleb128 0x3a
 1668 012e 0B       		.uleb128 0xb
 1669 012f 3B       		.uleb128 0x3b
 1670 0130 0B       		.uleb128 0xb
 1671 0131 49       		.uleb128 0x49
 1672 0132 13       		.uleb128 0x13
 1673 0133 3F       		.uleb128 0x3f
 1674 0134 19       		.uleb128 0x19
 1675 0135 3C       		.uleb128 0x3c
 1676 0136 19       		.uleb128 0x19
 1677 0137 00       		.byte	0
 1678 0138 00       		.byte	0
 1679 0139 1C       		.uleb128 0x1c
 1680 013a 34       		.uleb128 0x34
 1681 013b 00       		.byte	0
 1682 013c 03       		.uleb128 0x3
 1683 013d 0E       		.uleb128 0xe
 1684 013e 3A       		.uleb128 0x3a
 1685 013f 0B       		.uleb128 0xb
 1686 0140 3B       		.uleb128 0x3b
 1687 0141 0B       		.uleb128 0xb
 1688 0142 49       		.uleb128 0x49
 1689 0143 13       		.uleb128 0x13
 1690 0144 3F       		.uleb128 0x3f
 1691 0145 19       		.uleb128 0x19
 1692 0146 02       		.uleb128 0x2
 1693 0147 18       		.uleb128 0x18
 1694 0148 00       		.byte	0
 1695 0149 00       		.byte	0
 1696 014a 1D       		.uleb128 0x1d
 1697 014b 2E       		.uleb128 0x2e
 1698 014c 01       		.byte	0x1
 1699 014d 03       		.uleb128 0x3
 1700 014e 0E       		.uleb128 0xe
 1701 014f 3A       		.uleb128 0x3a
 1702 0150 0B       		.uleb128 0xb
 1703 0151 3B       		.uleb128 0x3b
 1704 0152 0B       		.uleb128 0xb
 1705 0153 27       		.uleb128 0x27
 1706 0154 19       		.uleb128 0x19
 1707 0155 11       		.uleb128 0x11
ARM GAS  /tmp/ccmGo9v6.s 			page 31


 1708 0156 01       		.uleb128 0x1
 1709 0157 12       		.uleb128 0x12
 1710 0158 06       		.uleb128 0x6
 1711 0159 40       		.uleb128 0x40
 1712 015a 18       		.uleb128 0x18
 1713 015b 9742     		.uleb128 0x2117
 1714 015d 19       		.uleb128 0x19
 1715 015e 01       		.uleb128 0x1
 1716 015f 13       		.uleb128 0x13
 1717 0160 00       		.byte	0
 1718 0161 00       		.byte	0
 1719 0162 1E       		.uleb128 0x1e
 1720 0163 34       		.uleb128 0x34
 1721 0164 00       		.byte	0
 1722 0165 03       		.uleb128 0x3
 1723 0166 08       		.uleb128 0x8
 1724 0167 3A       		.uleb128 0x3a
 1725 0168 0B       		.uleb128 0xb
 1726 0169 3B       		.uleb128 0x3b
 1727 016a 0B       		.uleb128 0xb
 1728 016b 49       		.uleb128 0x49
 1729 016c 13       		.uleb128 0x13
 1730 016d 02       		.uleb128 0x2
 1731 016e 17       		.uleb128 0x17
 1732 016f 00       		.byte	0
 1733 0170 00       		.byte	0
 1734 0171 1F       		.uleb128 0x1f
 1735 0172 898201   		.uleb128 0x4109
 1736 0175 01       		.byte	0x1
 1737 0176 11       		.uleb128 0x11
 1738 0177 01       		.uleb128 0x1
 1739 0178 31       		.uleb128 0x31
 1740 0179 13       		.uleb128 0x13
 1741 017a 01       		.uleb128 0x1
 1742 017b 13       		.uleb128 0x13
 1743 017c 00       		.byte	0
 1744 017d 00       		.byte	0
 1745 017e 20       		.uleb128 0x20
 1746 017f 8A8201   		.uleb128 0x410a
 1747 0182 00       		.byte	0
 1748 0183 02       		.uleb128 0x2
 1749 0184 18       		.uleb128 0x18
 1750 0185 9142     		.uleb128 0x2111
 1751 0187 18       		.uleb128 0x18
 1752 0188 00       		.byte	0
 1753 0189 00       		.byte	0
 1754 018a 21       		.uleb128 0x21
 1755 018b 898201   		.uleb128 0x4109
 1756 018e 00       		.byte	0
 1757 018f 11       		.uleb128 0x11
 1758 0190 01       		.uleb128 0x1
 1759 0191 31       		.uleb128 0x31
 1760 0192 13       		.uleb128 0x13
 1761 0193 00       		.byte	0
 1762 0194 00       		.byte	0
 1763 0195 22       		.uleb128 0x22
 1764 0196 898201   		.uleb128 0x4109
ARM GAS  /tmp/ccmGo9v6.s 			page 32


 1765 0199 01       		.byte	0x1
 1766 019a 11       		.uleb128 0x11
 1767 019b 01       		.uleb128 0x1
 1768 019c 9542     		.uleb128 0x2115
 1769 019e 19       		.uleb128 0x19
 1770 019f 31       		.uleb128 0x31
 1771 01a0 13       		.uleb128 0x13
 1772 01a1 00       		.byte	0
 1773 01a2 00       		.byte	0
 1774 01a3 23       		.uleb128 0x23
 1775 01a4 2E       		.uleb128 0x2e
 1776 01a5 01       		.byte	0x1
 1777 01a6 03       		.uleb128 0x3
 1778 01a7 0E       		.uleb128 0xe
 1779 01a8 3A       		.uleb128 0x3a
 1780 01a9 0B       		.uleb128 0xb
 1781 01aa 3B       		.uleb128 0x3b
 1782 01ab 0B       		.uleb128 0xb
 1783 01ac 27       		.uleb128 0x27
 1784 01ad 19       		.uleb128 0x19
 1785 01ae 49       		.uleb128 0x49
 1786 01af 13       		.uleb128 0x13
 1787 01b0 11       		.uleb128 0x11
 1788 01b1 01       		.uleb128 0x1
 1789 01b2 12       		.uleb128 0x12
 1790 01b3 06       		.uleb128 0x6
 1791 01b4 40       		.uleb128 0x40
 1792 01b5 18       		.uleb128 0x18
 1793 01b6 9742     		.uleb128 0x2117
 1794 01b8 19       		.uleb128 0x19
 1795 01b9 01       		.uleb128 0x1
 1796 01ba 13       		.uleb128 0x13
 1797 01bb 00       		.byte	0
 1798 01bc 00       		.byte	0
 1799 01bd 24       		.uleb128 0x24
 1800 01be 05       		.uleb128 0x5
 1801 01bf 00       		.byte	0
 1802 01c0 03       		.uleb128 0x3
 1803 01c1 08       		.uleb128 0x8
 1804 01c2 3A       		.uleb128 0x3a
 1805 01c3 0B       		.uleb128 0xb
 1806 01c4 3B       		.uleb128 0x3b
 1807 01c5 0B       		.uleb128 0xb
 1808 01c6 49       		.uleb128 0x49
 1809 01c7 13       		.uleb128 0x13
 1810 01c8 02       		.uleb128 0x2
 1811 01c9 17       		.uleb128 0x17
 1812 01ca 00       		.byte	0
 1813 01cb 00       		.byte	0
 1814 01cc 25       		.uleb128 0x25
 1815 01cd 898201   		.uleb128 0x4109
 1816 01d0 01       		.byte	0x1
 1817 01d1 11       		.uleb128 0x11
 1818 01d2 01       		.uleb128 0x1
 1819 01d3 31       		.uleb128 0x31
 1820 01d4 13       		.uleb128 0x13
 1821 01d5 00       		.byte	0
ARM GAS  /tmp/ccmGo9v6.s 			page 33


 1822 01d6 00       		.byte	0
 1823 01d7 26       		.uleb128 0x26
 1824 01d8 2E       		.uleb128 0x2e
 1825 01d9 00       		.byte	0
 1826 01da 3F       		.uleb128 0x3f
 1827 01db 19       		.uleb128 0x19
 1828 01dc 3C       		.uleb128 0x3c
 1829 01dd 19       		.uleb128 0x19
 1830 01de 6E       		.uleb128 0x6e
 1831 01df 0E       		.uleb128 0xe
 1832 01e0 03       		.uleb128 0x3
 1833 01e1 0E       		.uleb128 0xe
 1834 01e2 3A       		.uleb128 0x3a
 1835 01e3 0B       		.uleb128 0xb
 1836 01e4 3B       		.uleb128 0x3b
 1837 01e5 05       		.uleb128 0x5
 1838 01e6 00       		.byte	0
 1839 01e7 00       		.byte	0
 1840 01e8 27       		.uleb128 0x27
 1841 01e9 2E       		.uleb128 0x2e
 1842 01ea 00       		.byte	0
 1843 01eb 3F       		.uleb128 0x3f
 1844 01ec 19       		.uleb128 0x19
 1845 01ed 3C       		.uleb128 0x3c
 1846 01ee 19       		.uleb128 0x19
 1847 01ef 6E       		.uleb128 0x6e
 1848 01f0 0E       		.uleb128 0xe
 1849 01f1 03       		.uleb128 0x3
 1850 01f2 0E       		.uleb128 0xe
 1851 01f3 3A       		.uleb128 0x3a
 1852 01f4 0B       		.uleb128 0xb
 1853 01f5 3B       		.uleb128 0x3b
 1854 01f6 0B       		.uleb128 0xb
 1855 01f7 00       		.byte	0
 1856 01f8 00       		.byte	0
 1857 01f9 00       		.byte	0
 1858              		.section	.debug_loc,"",%progbits
 1859              	.Ldebug_loc0:
 1860              	.LLST0:
 1861 0000 3C000000 		.4byte	.LVL1
 1862 0004 47000000 		.4byte	.LVL3-1
 1863 0008 0100     		.2byte	0x1
 1864 000a 50       		.byte	0x50
 1865 000b 54000000 		.4byte	.LVL5
 1866 000f 5F000000 		.4byte	.LVL7-1
 1867 0013 0100     		.2byte	0x1
 1868 0015 50       		.byte	0x50
 1869 0016 6C000000 		.4byte	.LVL9
 1870 001a 77000000 		.4byte	.LVL11-1
 1871 001e 0100     		.2byte	0x1
 1872 0020 50       		.byte	0x50
 1873 0021 00000000 		.4byte	0
 1874 0025 00000000 		.4byte	0
 1875              	.LLST1:
 1876 0029 40000000 		.4byte	.LVL2
 1877 002d 90000000 		.4byte	.LVL13
 1878 0031 0100     		.2byte	0x1
ARM GAS  /tmp/ccmGo9v6.s 			page 34


 1879 0033 54       		.byte	0x54
 1880 0034 00000000 		.4byte	0
 1881 0038 00000000 		.4byte	0
 1882              	.LLST2:
 1883 003c 00000000 		.4byte	.LVL15
 1884 0040 0F000000 		.4byte	.LVL16-1
 1885 0044 0100     		.2byte	0x1
 1886 0046 50       		.byte	0x50
 1887 0047 0F000000 		.4byte	.LVL16-1
 1888 004b 30000000 		.4byte	.LFE7
 1889 004f 0100     		.2byte	0x1
 1890 0051 54       		.byte	0x54
 1891 0052 00000000 		.4byte	0
 1892 0056 00000000 		.4byte	0
 1893              		.section	.debug_aranges,"",%progbits
 1894 0000 24000000 		.4byte	0x24
 1895 0004 0200     		.2byte	0x2
 1896 0006 00000000 		.4byte	.Ldebug_info0
 1897 000a 04       		.byte	0x4
 1898 000b 00       		.byte	0
 1899 000c 0000     		.2byte	0
 1900 000e 0000     		.2byte	0
 1901 0010 00000000 		.4byte	.LFB8
 1902 0014 A8000000 		.4byte	.LFE8-.LFB8
 1903 0018 00000000 		.4byte	.LFB7
 1904 001c 30000000 		.4byte	.LFE7-.LFB7
 1905 0020 00000000 		.4byte	0
 1906 0024 00000000 		.4byte	0
 1907              		.section	.debug_ranges,"",%progbits
 1908              	.Ldebug_ranges0:
 1909 0000 00000000 		.4byte	.LFB8
 1910 0004 A8000000 		.4byte	.LFE8
 1911 0008 00000000 		.4byte	.LFB7
 1912 000c 30000000 		.4byte	.LFE7
 1913 0010 00000000 		.4byte	0
 1914 0014 00000000 		.4byte	0
 1915              		.section	.debug_line,"",%progbits
 1916              	.Ldebug_line0:
 1917 0000 70010000 		.section	.debug_str,"MS",%progbits,1
 1917      02003201 
 1917      00000201 
 1917      FB0E0D00 
 1917      01010101 
 1918              	.LASF88:
 1919 0000 63665F6F 		.ascii	"cf_off_older\000"
 1919      66665F6F 
 1919      6C646572 
 1919      00
 1920              	.LASF41:
 1921 000d 705F6D73 		.ascii	"p_msg\000"
 1921      6700
 1922              	.LASF73:
 1923 0013 7264796D 		.ascii	"rdymsg\000"
 1923      736700
 1924              	.LASF4:
 1925 001a 5F5F7569 		.ascii	"__uint8_t\000"
 1925      6E74385F 
ARM GAS  /tmp/ccmGo9v6.s 			page 35


 1925      7400
 1926              	.LASF67:
 1927 0024 76746C69 		.ascii	"vtlist\000"
 1927      737400
 1928              	.LASF12:
 1929 002b 6C6F6E67 		.ascii	"long long unsigned int\000"
 1929      206C6F6E 
 1929      6720756E 
 1929      7369676E 
 1929      65642069 
 1930              	.LASF119:
 1931 0042 2F686F6D 		.ascii	"/home/lmr/Downloads/ChibiOS-RPi/ChibiOS-RPi/demos/P"
 1931      652F6C6D 
 1931      722F446F 
 1931      776E6C6F 
 1931      6164732F 
 1932 0075 726F6A65 		.ascii	"roject\000"
 1932      637400
 1933              	.LASF84:
 1934 007c 63685F74 		.ascii	"ch_threadsize\000"
 1934      68726561 
 1934      6473697A 
 1934      6500
 1935              	.LASF74:
 1936 008a 65786974 		.ascii	"exitcode\000"
 1936      636F6465 
 1936      00
 1937              	.LASF107:
 1938 0093 74657374 		.ascii	"test\000"
 1938      00
 1939              	.LASF29:
 1940 0098 705F7072 		.ascii	"p_prio\000"
 1940      696F00
 1941              	.LASF91:
 1942 009f 63665F6F 		.ascii	"cf_off_state\000"
 1942      66665F73 
 1942      74617465 
 1942      00
 1943              	.LASF103:
 1944 00ac 74656172 		.ascii	"teardown\000"
 1944      646F776E 
 1944      00
 1945              	.LASF11:
 1946 00b5 6C6F6E67 		.ascii	"long long int\000"
 1946      206C6F6E 
 1946      6720696E 
 1946      7400
 1947              	.LASF1:
 1948 00c3 7369676E 		.ascii	"signed char\000"
 1948      65642063 
 1948      68617200 
 1949              	.LASF90:
 1950 00cf 63665F6F 		.ascii	"cf_off_stklimit\000"
 1950      66665F73 
 1950      746B6C69 
 1950      6D697400 
 1951              	.LASF92:
ARM GAS  /tmp/ccmGo9v6.s 			page 36


 1952 00df 63665F6F 		.ascii	"cf_off_flags\000"
 1952      66665F66 
 1952      6C616773 
 1952      00
 1953              	.LASF17:
 1954 00ec 626F6F6C 		.ascii	"bool_t\000"
 1954      5F7400
 1955              	.LASF70:
 1956 00f3 6D5F7175 		.ascii	"m_queue\000"
 1956      65756500 
 1957              	.LASF114:
 1958 00fb 74657374 		.ascii	"test_emit_token\000"
 1958      5F656D69 
 1958      745F746F 
 1958      6B656E00 
 1959              	.LASF21:
 1960 010b 74736C69 		.ascii	"tslices_t\000"
 1960      6365735F 
 1960      7400
 1961              	.LASF8:
 1962 0115 6C6F6E67 		.ascii	"long int\000"
 1962      20696E74 
 1962      00
 1963              	.LASF116:
 1964 011e 63684D73 		.ascii	"chMsgSend\000"
 1964      6753656E 
 1964      6400
 1965              	.LASF19:
 1966 0128 74737461 		.ascii	"tstate_t\000"
 1966      74655F74 
 1966      00
 1967              	.LASF14:
 1968 0131 75696E74 		.ascii	"uint16_t\000"
 1968      31365F74 
 1968      00
 1969              	.LASF97:
 1970 013a 63686465 		.ascii	"chdebug_t\000"
 1970      6275675F 
 1970      7400
 1971              	.LASF105:
 1972 0144 62756666 		.ascii	"buffer\000"
 1972      657200
 1973              	.LASF31:
 1974 014b 705F6E65 		.ascii	"p_newer\000"
 1974      77657200 
 1975              	.LASF99:
 1976 0153 5F69646C 		.ascii	"_idle_thread_wa\000"
 1976      655F7468 
 1976      72656164 
 1976      5F776100 
 1977              	.LASF9:
 1978 0163 5F5F7569 		.ascii	"__uint32_t\000"
 1978      6E743332 
 1978      5F7400
 1979              	.LASF48:
 1980 016e 72656761 		.ascii	"regarm_t\000"
 1980      726D5F74 
ARM GAS  /tmp/ccmGo9v6.s 			page 37


 1980      00
 1981              	.LASF54:
 1982 0177 76745F70 		.ascii	"vt_prev\000"
 1982      72657600 
 1983              	.LASF0:
 1984 017f 756E7369 		.ascii	"unsigned int\000"
 1984      676E6564 
 1984      20696E74 
 1984      00
 1985              	.LASF53:
 1986 018c 76745F6E 		.ascii	"vt_next\000"
 1986      65787400 
 1987              	.LASF10:
 1988 0194 6C6F6E67 		.ascii	"long unsigned int\000"
 1988      20756E73 
 1988      69676E65 
 1988      6420696E 
 1988      7400
 1989              	.LASF98:
 1990 01a6 63685F64 		.ascii	"ch_debug\000"
 1990      65627567 
 1990      00
 1991              	.LASF108:
 1992 01af 74657374 		.ascii	"test_timer_done\000"
 1992      5F74696D 
 1992      65725F64 
 1992      6F6E6500 
 1993              	.LASF51:
 1994 01bf 76746675 		.ascii	"vtfunc_t\000"
 1994      6E635F74 
 1994      00
 1995              	.LASF78:
 1996 01c8 63685F69 		.ascii	"ch_identifier\000"
 1996      64656E74 
 1996      69666965 
 1996      7200
 1997              	.LASF101:
 1998 01d6 6E616D65 		.ascii	"name\000"
 1998      00
 1999              	.LASF50:
 2000 01db 636F6E74 		.ascii	"context\000"
 2000      65787400 
 2001              	.LASF6:
 2002 01e3 73686F72 		.ascii	"short unsigned int\000"
 2002      7420756E 
 2002      7369676E 
 2002      65642069 
 2002      6E7400
 2003              	.LASF23:
 2004 01f6 6D73675F 		.ascii	"msg_t\000"
 2004      7400
 2005              	.LASF63:
 2006 01fc 725F6E65 		.ascii	"r_newer\000"
 2006      77657200 
 2007              	.LASF106:
 2008 0204 74687265 		.ascii	"threads\000"
 2008      61647300 
ARM GAS  /tmp/ccmGo9v6.s 			page 38


 2009              	.LASF18:
 2010 020c 746D6F64 		.ascii	"tmode_t\000"
 2010      655F7400 
 2011              	.LASF118:
 2012 0214 2E2E2F2E 		.ascii	"../../test/testmsg.c\000"
 2012      2E2F7465 
 2012      73742F74 
 2012      6573746D 
 2012      73672E63 
 2013              	.LASF46:
 2014 0229 54687265 		.ascii	"ThreadsList\000"
 2014      6164734C 
 2014      69737400 
 2015              	.LASF24:
 2016 0235 6576656E 		.ascii	"eventmask_t\000"
 2016      746D6173 
 2016      6B5F7400 
 2017              	.LASF69:
 2018 0241 4D757465 		.ascii	"Mutex\000"
 2018      7800
 2019              	.LASF47:
 2020 0247 73746B61 		.ascii	"stkalign_t\000"
 2020      6C69676E 
 2020      5F7400
 2021              	.LASF111:
 2022 0252 63685468 		.ascii	"chThdCreateStatic\000"
 2022      64437265 
 2022      61746553 
 2022      74617469 
 2022      6300
 2023              	.LASF79:
 2024 0264 63685F7A 		.ascii	"ch_zero\000"
 2024      65726F00 
 2025              	.LASF93:
 2026 026c 63665F6F 		.ascii	"cf_off_refs\000"
 2026      66665F72 
 2026      65667300 
 2027              	.LASF55:
 2028 0278 76745F74 		.ascii	"vt_time\000"
 2028      696D6500 
 2029              	.LASF110:
 2030 0280 70617474 		.ascii	"patternmsg\000"
 2030      65726E6D 
 2030      736700
 2031              	.LASF96:
 2032 028b 73697A65 		.ascii	"sizetype\000"
 2032      74797065 
 2032      00
 2033              	.LASF56:
 2034 0294 76745F66 		.ascii	"vt_func\000"
 2034      756E6300 
 2035              	.LASF83:
 2036 029c 63685F74 		.ascii	"ch_timesize\000"
 2036      696D6573 
 2036      697A6500 
 2037              	.LASF89:
 2038 02a8 63665F6F 		.ascii	"cf_off_name\000"
ARM GAS  /tmp/ccmGo9v6.s 			page 39


 2038      66665F6E 
 2038      616D6500 
 2039              	.LASF32:
 2040 02b4 705F6F6C 		.ascii	"p_older\000"
 2040      64657200 
 2041              	.LASF62:
 2042 02bc 725F6374 		.ascii	"r_ctx\000"
 2042      7800
 2043              	.LASF45:
 2044 02c2 54687265 		.ascii	"ThreadsQueue\000"
 2044      61647351 
 2044      75657565 
 2044      00
 2045              	.LASF80:
 2046 02cf 63685F73 		.ascii	"ch_size\000"
 2046      697A6500 
 2047              	.LASF102:
 2048 02d7 73657475 		.ascii	"setup\000"
 2048      7000
 2049              	.LASF115:
 2050 02dd 5F746573 		.ascii	"_test_assert_sequence\000"
 2050      745F6173 
 2050      73657274 
 2050      5F736571 
 2050      75656E63 
 2051              	.LASF65:
 2052 02f3 725F6375 		.ascii	"r_current\000"
 2052      7272656E 
 2052      7400
 2053              	.LASF64:
 2054 02fd 725F6F6C 		.ascii	"r_older\000"
 2054      64657200 
 2055              	.LASF20:
 2056 0305 74726566 		.ascii	"trefs_t\000"
 2056      735F7400 
 2057              	.LASF82:
 2058 030d 63685F70 		.ascii	"ch_ptrsize\000"
 2058      74727369 
 2058      7A6500
 2059              	.LASF28:
 2060 0318 705F7072 		.ascii	"p_prev\000"
 2060      657600
 2061              	.LASF104:
 2062 031f 65786563 		.ascii	"execute\000"
 2062      75746500 
 2063              	.LASF22:
 2064 0327 74707269 		.ascii	"tprio_t\000"
 2064      6F5F7400 
 2065              	.LASF122:
 2066 032f 74687265 		.ascii	"thread\000"
 2066      616400
 2067              	.LASF15:
 2068 0336 696E7433 		.ascii	"int32_t\000"
 2068      325F7400 
 2069              	.LASF2:
 2070 033e 756E7369 		.ascii	"unsigned char\000"
 2070      676E6564 
ARM GAS  /tmp/ccmGo9v6.s 			page 40


 2070      20636861 
 2070      7200
 2071              	.LASF43:
 2072 034c 705F6D74 		.ascii	"p_mtxlist\000"
 2072      786C6973 
 2072      7400
 2073              	.LASF3:
 2074 0356 73686F72 		.ascii	"short int\000"
 2074      7420696E 
 2074      7400
 2075              	.LASF34:
 2076 0360 705F7374 		.ascii	"p_state\000"
 2076      61746500 
 2077              	.LASF37:
 2078 0368 705F7072 		.ascii	"p_preempt\000"
 2078      65656D70 
 2078      7400
 2079              	.LASF95:
 2080 0372 63665F6F 		.ascii	"cf_off_time\000"
 2080      66665F74 
 2080      696D6500 
 2081              	.LASF61:
 2082 037e 725F7072 		.ascii	"r_prio\000"
 2082      696F00
 2083              	.LASF109:
 2084 0385 74657374 		.ascii	"testmsg1\000"
 2084      6D736731 
 2084      00
 2085              	.LASF76:
 2086 038e 65776D61 		.ascii	"ewmask\000"
 2086      736B00
 2087              	.LASF27:
 2088 0395 705F6E65 		.ascii	"p_next\000"
 2088      787400
 2089              	.LASF94:
 2090 039c 63665F6F 		.ascii	"cf_off_preempt\000"
 2090      66665F70 
 2090      7265656D 
 2090      707400
 2091              	.LASF35:
 2092 03ab 705F666C 		.ascii	"p_flags\000"
 2092      61677300 
 2093              	.LASF26:
 2094 03b3 54687265 		.ascii	"Thread\000"
 2094      616400
 2095              	.LASF87:
 2096 03ba 63665F6F 		.ascii	"cf_off_newer\000"
 2096      66665F6E 
 2096      65776572 
 2096      00
 2097              	.LASF100:
 2098 03c7 74657374 		.ascii	"testcase\000"
 2098      63617365 
 2098      00
 2099              	.LASF42:
 2100 03d0 705F6570 		.ascii	"p_epending\000"
 2100      656E6469 
ARM GAS  /tmp/ccmGo9v6.s 			page 41


 2100      6E6700
 2101              	.LASF16:
 2102 03db 75696E74 		.ascii	"uint32_t\000"
 2102      33325F74 
 2102      00
 2103              	.LASF85:
 2104 03e4 63665F6F 		.ascii	"cf_off_prio\000"
 2104      66665F70 
 2104      72696F00 
 2105              	.LASF60:
 2106 03f0 725F7175 		.ascii	"r_queue\000"
 2106      65756500 
 2107              	.LASF52:
 2108 03f8 56697274 		.ascii	"VirtualTimer\000"
 2108      75616C54 
 2108      696D6572 
 2108      00
 2109              	.LASF77:
 2110 0405 63686172 		.ascii	"char\000"
 2110      00
 2111              	.LASF120:
 2112 040a 74657374 		.ascii	"test_buffers\000"
 2112      5F627566 
 2112      66657273 
 2112      00
 2113              	.LASF5:
 2114 0417 5F5F7569 		.ascii	"__uint16_t\000"
 2114      6E743136 
 2114      5F7400
 2115              	.LASF72:
 2116 0422 6D5F6E65 		.ascii	"m_next\000"
 2116      787400
 2117              	.LASF25:
 2118 0429 73797374 		.ascii	"systime_t\000"
 2118      696D655F 
 2118      7400
 2119              	.LASF44:
 2120 0433 705F7265 		.ascii	"p_realprio\000"
 2120      616C7072 
 2120      696F00
 2121              	.LASF7:
 2122 043e 5F5F696E 		.ascii	"__int32_t\000"
 2122      7433325F 
 2122      7400
 2123              	.LASF38:
 2124 0448 705F7469 		.ascii	"p_time\000"
 2124      6D6500
 2125              	.LASF117:
 2126 044f 474E5520 		.ascii	"GNU C11 6.3.1 20170620 -mcpu=arm1176jz-s -mno-thumb"
 2126      43313120 
 2126      362E332E 
 2126      31203230 
 2126      31373036 
 2127 0482 2D696E74 		.ascii	"-interwork -ggdb -O2 -fomit-frame-pointer -ffunctio"
 2127      6572776F 
 2127      726B202D 
 2127      67676462 
ARM GAS  /tmp/ccmGo9v6.s 			page 42


 2127      202D4F32 
 2128 04b5 6E2D7365 		.ascii	"n-sections -fdata-sections\000"
 2128      6374696F 
 2128      6E73202D 
 2128      66646174 
 2128      612D7365 
 2129              	.LASF49:
 2130 04d0 696E7463 		.ascii	"intctx\000"
 2130      747800
 2131              	.LASF40:
 2132 04d7 705F6D73 		.ascii	"p_msgqueue\000"
 2132      67717565 
 2132      756500
 2133              	.LASF57:
 2134 04e2 76745F70 		.ascii	"vt_par\000"
 2134      617200
 2135              	.LASF112:
 2136 04e9 63684D73 		.ascii	"chMsgWait\000"
 2136      67576169 
 2136      7400
 2137              	.LASF86:
 2138 04f3 63665F6F 		.ascii	"cf_off_ctx\000"
 2138      66665F63 
 2138      747800
 2139              	.LASF36:
 2140 04fe 705F7265 		.ascii	"p_refs\000"
 2140      667300
 2141              	.LASF66:
 2142 0505 52656164 		.ascii	"ReadyList\000"
 2142      794C6973 
 2142      7400
 2143              	.LASF68:
 2144 050f 726C6973 		.ascii	"rlist\000"
 2144      7400
 2145              	.LASF13:
 2146 0515 75696E74 		.ascii	"uint8_t\000"
 2146      385F7400 
 2147              	.LASF121:
 2148 051d 6D736731 		.ascii	"msg1_execute\000"
 2148      5F657865 
 2148      63757465 
 2148      00
 2149              	.LASF75:
 2150 052a 77746F62 		.ascii	"wtobjp\000"
 2150      6A7000
 2151              	.LASF33:
 2152 0531 705F6E61 		.ascii	"p_name\000"
 2152      6D6500
 2153              	.LASF58:
 2154 0538 76745F73 		.ascii	"vt_systime\000"
 2154      79737469 
 2154      6D6500
 2155              	.LASF81:
 2156 0543 63685F76 		.ascii	"ch_version\000"
 2156      65727369 
 2156      6F6E00
 2157              	.LASF59:
ARM GAS  /tmp/ccmGo9v6.s 			page 43


 2158 054e 56544C69 		.ascii	"VTList\000"
 2158      737400
 2159              	.LASF71:
 2160 0555 6D5F6F77 		.ascii	"m_owner\000"
 2160      6E657200 
 2161              	.LASF30:
 2162 055d 705F6374 		.ascii	"p_ctx\000"
 2162      7800
 2163              	.LASF39:
 2164 0563 705F7761 		.ascii	"p_waiting\000"
 2164      6974696E 
 2164      6700
 2165              	.LASF113:
 2166 056d 63684D73 		.ascii	"chMsgRelease\000"
 2166      6752656C 
 2166      65617365 
 2166      00
 2167              		.ident	"GCC: (15:6.3.1+svn253039-1build1) 6.3.1 20170620"
ARM GAS  /tmp/ccmGo9v6.s 			page 44


DEFINED SYMBOLS
                            *ABS*:0000000000000000 testmsg.c
     /tmp/ccmGo9v6.s:16     .text.msg1_execute:0000000000000000 $a
     /tmp/ccmGo9v6.s:21     .text.msg1_execute:0000000000000000 msg1_execute
     /tmp/ccmGo9v6.s:110    .text.msg1_execute:0000000000000094 $d
     /tmp/ccmGo9v6.s:124    .text.thread:0000000000000000 thread
     /tmp/ccmGo9v6.s:119    .text.thread:0000000000000000 $a
     /tmp/ccmGo9v6.s:167    .rodata.patternmsg:0000000000000000 patternmsg
     /tmp/ccmGo9v6.s:178    .rodata.testmsg1:0000000000000000 testmsg1
     /tmp/ccmGo9v6.s:160    .rodata.msg1_execute.str1.4:0000000000000000 $d
     /tmp/ccmGo9v6.s:164    .rodata.patternmsg:0000000000000000 $d
     /tmp/ccmGo9v6.s:171    .rodata.str1.4:0000000000000000 $d
     /tmp/ccmGo9v6.s:175    .rodata.testmsg1:0000000000000000 $d
                     .debug_frame:0000000000000010 $d

UNDEFINED SYMBOLS
chThdCreateStatic
chMsgWait
chMsgRelease
test_emit_token
_test_assert_sequence
rlist
wa
threads
chMsgSend
