ARM GAS  /tmp/ccMy9U0R.s 			page 1


   1              		.cpu arm1176jz-s
   2              		.eabi_attribute 20, 1
   3              		.eabi_attribute 21, 1
   4              		.eabi_attribute 23, 3
   5              		.eabi_attribute 24, 1
   6              		.eabi_attribute 25, 1
   7              		.eabi_attribute 26, 1
   8              		.eabi_attribute 30, 2
   9              		.eabi_attribute 34, 1
  10              		.eabi_attribute 18, 4
  11              		.file	"testsem.c"
  12              		.text
  13              	.Ltext0:
  14              		.cfi_sections	.debug_frame
  15              		.section	.text.sem1_execute,"ax",%progbits
  16              		.align	2
  17              		.syntax unified
  18              		.arm
  19              		.fpu softvfp
  20              		.type	sem1_execute, %function
  21              	sem1_execute:
  22              	.LFB9:
  23              		.file 1 "../../test/testsem.c"
  24              		.loc 1 88 0
  25              		.cfi_startproc
  26              		@ args = 0, pretend = 0, frame = 0
  27              		@ frame_needed = 0, uses_anonymous_args = 0
  28 0000 F0412DE9 		push	{r4, r5, r6, r7, r8, lr}
  29              		.cfi_def_cfa_offset 24
  30              		.cfi_offset 4, -24
  31              		.cfi_offset 5, -20
  32              		.cfi_offset 6, -16
  33              		.cfi_offset 7, -12
  34              		.cfi_offset 8, -8
  35              		.cfi_offset 14, -4
  36              		.loc 1 90 0
  37 0004 8C619FE5 		ldr	r6, .L6
  38 0008 8C419FE5 		ldr	r4, .L6+4
  39 000c 183096E5 		ldr	r3, [r6, #24]
  40 0010 008094E5 		ldr	r8, [r4]
  41 0014 082093E5 		ldr	r2, [r3, #8]
  42 0018 80719FE5 		ldr	r7, .L6+8
  43              		.loc 1 88 0
  44 001c 08D04DE2 		sub	sp, sp, #8
  45              		.cfi_def_cfa_offset 32
  46              		.loc 1 90 0
  47 0020 052082E2 		add	r2, r2, #5
  48 0024 78319FE5 		ldr	r3, .L6+12
  49 0028 461FA0E3 		mov	r1, #280
  50 002c 0800A0E1 		mov	r0, r8
  51 0030 00708DE5 		str	r7, [sp]
  52 0034 FEFFFFEB 		bl	chThdCreateStatic
  53              	.LVL0:
  54              		.loc 1 91 0
  55 0038 183096E5 		ldr	r3, [r6, #24]
  56              		.loc 1 90 0
  57 003c 64519FE5 		ldr	r5, .L6+16
ARM GAS  /tmp/ccMy9U0R.s 			page 2


  58              		.loc 1 91 0
  59 0040 082093E5 		ldr	r2, [r3, #8]
  60 0044 041094E5 		ldr	r1, [r4, #4]
  61 0048 5C319FE5 		ldr	r3, .L6+20
  62              		.loc 1 90 0
  63 004c 000085E5 		str	r0, [r5]
  64              		.loc 1 91 0
  65 0050 012082E2 		add	r2, r2, #1
  66 0054 0100A0E1 		mov	r0, r1
  67 0058 00308DE5 		str	r3, [sp]
  68 005c 461FA0E3 		mov	r1, #280
  69 0060 3C319FE5 		ldr	r3, .L6+12
  70 0064 FEFFFFEB 		bl	chThdCreateStatic
  71              	.LVL1:
  72              		.loc 1 92 0
  73 0068 183096E5 		ldr	r3, [r6, #24]
  74 006c 081094E5 		ldr	r1, [r4, #8]
  75 0070 082093E5 		ldr	r2, [r3, #8]
  76 0074 34319FE5 		ldr	r3, .L6+24
  77              		.loc 1 91 0
  78 0078 040085E5 		str	r0, [r5, #4]
  79              		.loc 1 92 0
  80 007c 032082E2 		add	r2, r2, #3
  81 0080 0100A0E1 		mov	r0, r1
  82 0084 00308DE5 		str	r3, [sp]
  83 0088 461FA0E3 		mov	r1, #280
  84 008c 10319FE5 		ldr	r3, .L6+12
  85 0090 FEFFFFEB 		bl	chThdCreateStatic
  86              	.LVL2:
  87              		.loc 1 93 0
  88 0094 183096E5 		ldr	r3, [r6, #24]
  89 0098 0C1094E5 		ldr	r1, [r4, #12]
  90 009c 082093E5 		ldr	r2, [r3, #8]
  91 00a0 0C319FE5 		ldr	r3, .L6+28
  92              		.loc 1 92 0
  93 00a4 080085E5 		str	r0, [r5, #8]
  94              		.loc 1 93 0
  95 00a8 042082E2 		add	r2, r2, #4
  96 00ac 0100A0E1 		mov	r0, r1
  97 00b0 00308DE5 		str	r3, [sp]
  98 00b4 461FA0E3 		mov	r1, #280
  99 00b8 E4309FE5 		ldr	r3, .L6+12
 100 00bc FEFFFFEB 		bl	chThdCreateStatic
 101              	.LVL3:
 102              		.loc 1 94 0
 103 00c0 183096E5 		ldr	r3, [r6, #24]
 104 00c4 101094E5 		ldr	r1, [r4, #16]
 105 00c8 082093E5 		ldr	r2, [r3, #8]
 106 00cc E4309FE5 		ldr	r3, .L6+32
 107 00d0 022082E2 		add	r2, r2, #2
 108              		.loc 1 93 0
 109 00d4 0C0085E5 		str	r0, [r5, #12]
 110              		.loc 1 94 0
 111 00d8 00308DE5 		str	r3, [sp]
 112 00dc 0100A0E1 		mov	r0, r1
 113 00e0 BC309FE5 		ldr	r3, .L6+12
 114 00e4 461FA0E3 		mov	r1, #280
ARM GAS  /tmp/ccMy9U0R.s 			page 3


 115 00e8 FEFFFFEB 		bl	chThdCreateStatic
 116              	.LVL4:
 117              		.loc 1 95 0
 118 00ec C8409FE5 		ldr	r4, .L6+36
 119              		.loc 1 94 0
 120 00f0 100085E5 		str	r0, [r5, #16]
 121              		.loc 1 95 0
 122 00f4 0400A0E1 		mov	r0, r4
 123 00f8 FEFFFFEB 		bl	chSemSignal
 124              	.LVL5:
 125              		.loc 1 96 0
 126 00fc 0400A0E1 		mov	r0, r4
 127 0100 FEFFFFEB 		bl	chSemSignal
 128              	.LVL6:
 129              		.loc 1 97 0
 130 0104 0400A0E1 		mov	r0, r4
 131 0108 FEFFFFEB 		bl	chSemSignal
 132              	.LVL7:
 133              		.loc 1 98 0
 134 010c 0400A0E1 		mov	r0, r4
 135 0110 FEFFFFEB 		bl	chSemSignal
 136              	.LVL8:
 137              		.loc 1 99 0
 138 0114 0400A0E1 		mov	r0, r4
 139 0118 FEFFFFEB 		bl	chSemSignal
 140              	.LVL9:
 141              		.loc 1 100 0
 142 011c FEFFFFEB 		bl	test_wait_threads
 143              	.LVL10:
 144              		.loc 1 104 0
 145 0120 98109FE5 		ldr	r1, .L6+40
 146 0124 0100A0E3 		mov	r0, #1
 147 0128 FEFFFFEB 		bl	_test_assert_sequence
 148              	.LVL11:
 149 012c 000050E3 		cmp	r0, #0
 150 0130 0100000A 		beq	.L5
 151              		.loc 1 112 0
 152 0134 08D08DE2 		add	sp, sp, #8
 153              		.cfi_remember_state
 154              		.cfi_def_cfa_offset 24
 155              		@ sp needed
 156 0138 F081BDE8 		pop	{r4, r5, r6, r7, r8, pc}
 157              	.L5:
 158              		.cfi_restore_state
 159              		.loc 1 106 0
 160 013c 183096E5 		ldr	r3, [r6, #24]
 161 0140 0800A0E1 		mov	r0, r8
 162 0144 082093E5 		ldr	r2, [r3, #8]
 163 0148 461FA0E3 		mov	r1, #280
 164 014c 50309FE5 		ldr	r3, .L6+12
 165 0150 052082E2 		add	r2, r2, #5
 166 0154 00708DE5 		str	r7, [sp]
 167 0158 FEFFFFEB 		bl	chThdCreateStatic
 168              	.LVL12:
 169 015c 000085E5 		str	r0, [r5]
 170              		.loc 1 107 0
 171              		.syntax divided
ARM GAS  /tmp/ccMy9U0R.s 			page 4


 172              	@ 107 "../../test/testsem.c" 1
 173 0160 9FF021E3 		msr     CPSR_c, #0x9F
 174              	@ 0 "" 2
 175              		.loc 1 108 0
 176              		.arm
 177              		.syntax unified
 178 0164 0210A0E3 		mov	r1, #2
 179 0168 0400A0E1 		mov	r0, r4
 180 016c FEFFFFEB 		bl	chSemAddCounterI
 181              	.LVL13:
 182              		.loc 1 109 0
 183              		.syntax divided
 184              	@ 109 "../../test/testsem.c" 1
 185 0170 1FF021E3 		msr     CPSR_c, #0x1F
 186              	@ 0 "" 2
 187              		.loc 1 110 0
 188              		.arm
 189              		.syntax unified
 190 0174 FEFFFFEB 		bl	test_wait_threads
 191              	.LVL14:
 192              		.loc 1 111 0
 193 0178 081094E5 		ldr	r1, [r4, #8]
 194 017c 0200A0E3 		mov	r0, #2
 195 0180 011041E2 		sub	r1, r1, #1
 196 0184 111F6FE1 		clz	r1, r1
 197 0188 A112A0E1 		lsr	r1, r1, #5
 198              		.loc 1 112 0
 199 018c 08D08DE2 		add	sp, sp, #8
 200              		.cfi_def_cfa_offset 24
 201              		@ sp needed
 202 0190 F041BDE8 		pop	{r4, r5, r6, r7, r8, lr}
 203              		.cfi_restore 14
 204              		.cfi_restore 8
 205              		.cfi_restore 7
 206              		.cfi_restore 6
 207              		.cfi_restore 5
 208              		.cfi_restore 4
 209              		.cfi_def_cfa_offset 0
 210              		.loc 1 111 0
 211 0194 FEFFFFEA 		b	_test_assert
 212              	.LVL15:
 213              	.L7:
 214              		.align	2
 215              	.L6:
 216 0198 00000000 		.word	rlist
 217 019c 00000000 		.word	wa
 218 01a0 00000000 		.word	.LC0
 219 01a4 00000000 		.word	thread1
 220 01a8 00000000 		.word	threads
 221 01ac 04000000 		.word	.LC1
 222 01b0 08000000 		.word	.LC2
 223 01b4 0C000000 		.word	.LC3
 224 01b8 10000000 		.word	.LC4
 225 01bc 00000000 		.word	.LANCHOR0
 226 01c0 14000000 		.word	.LC5
 227              		.cfi_endproc
 228              	.LFE9:
ARM GAS  /tmp/ccMy9U0R.s 			page 5


 229              		.size	sem1_execute, .-sem1_execute
 230              		.section	.text.thread3,"ax",%progbits
 231              		.align	2
 232              		.syntax unified
 233              		.arm
 234              		.fpu softvfp
 235              		.type	thread3, %function
 236              	thread3:
 237              	.LFB14:
 238              		.loc 1 213 0
 239              		.cfi_startproc
 240              		@ args = 0, pretend = 0, frame = 0
 241              		@ frame_needed = 0, uses_anonymous_args = 0
 242              	.LVL16:
 243 0000 10402DE9 		push	{r4, lr}
 244              		.cfi_def_cfa_offset 8
 245              		.cfi_offset 4, -8
 246              		.cfi_offset 14, -4
 247              		.loc 1 216 0
 248 0004 14409FE5 		ldr	r4, .L10
 249 0008 0400A0E1 		mov	r0, r4
 250              	.LVL17:
 251 000c FEFFFFEB 		bl	chSemWait
 252              	.LVL18:
 253              		.loc 1 217 0
 254 0010 0400A0E1 		mov	r0, r4
 255 0014 FEFFFFEB 		bl	chSemSignal
 256              	.LVL19:
 257              		.loc 1 219 0
 258 0018 0000A0E3 		mov	r0, #0
 259 001c 1080BDE8 		pop	{r4, pc}
 260              	.L11:
 261              		.align	2
 262              	.L10:
 263 0020 00000000 		.word	.LANCHOR0
 264              		.cfi_endproc
 265              	.LFE14:
 266              		.size	thread3, .-thread3
 267              		.section	.text.thread1,"ax",%progbits
 268              		.align	2
 269              		.syntax unified
 270              		.arm
 271              		.fpu softvfp
 272              		.type	thread1, %function
 273              	thread1:
 274              	.LFB8:
 275              		.loc 1 81 0
 276              		.cfi_startproc
 277              		@ args = 0, pretend = 0, frame = 0
 278              		@ frame_needed = 0, uses_anonymous_args = 0
 279              	.LVL20:
 280 0000 10402DE9 		push	{r4, lr}
 281              		.cfi_def_cfa_offset 8
 282              		.cfi_offset 4, -8
 283              		.cfi_offset 14, -4
 284              		.loc 1 81 0
 285 0004 0040A0E1 		mov	r4, r0
ARM GAS  /tmp/ccMy9U0R.s 			page 6


 286              		.loc 1 83 0
 287 0008 10009FE5 		ldr	r0, .L14
 288              	.LVL21:
 289 000c FEFFFFEB 		bl	chSemWait
 290              	.LVL22:
 291              		.loc 1 84 0
 292 0010 0000D4E5 		ldrb	r0, [r4]	@ zero_extendqisi2
 293 0014 FEFFFFEB 		bl	test_emit_token
 294              	.LVL23:
 295              		.loc 1 86 0
 296 0018 0000A0E3 		mov	r0, #0
 297 001c 1080BDE8 		pop	{r4, pc}
 298              	.L15:
 299              		.align	2
 300              	.L14:
 301 0020 00000000 		.word	.LANCHOR0
 302              		.cfi_endproc
 303              	.LFE8:
 304              		.size	thread1, .-thread1
 305              		.section	.text.sem3_setup,"ax",%progbits
 306              		.align	2
 307              		.syntax unified
 308              		.arm
 309              		.fpu softvfp
 310              		.type	sem3_setup, %function
 311              	sem3_setup:
 312              	.LFB13:
 313              		.loc 1 208 0
 314              		.cfi_startproc
 315              		@ args = 0, pretend = 0, frame = 0
 316              		@ frame_needed = 0, uses_anonymous_args = 0
 317              		@ link register save eliminated.
 318              		.loc 1 210 0
 319 0000 0010A0E3 		mov	r1, #0
 320 0004 00009FE5 		ldr	r0, .L17
 321 0008 FEFFFFEA 		b	chSemInit
 322              	.LVL24:
 323              	.L18:
 324              		.align	2
 325              	.L17:
 326 000c 00000000 		.word	.LANCHOR0
 327              		.cfi_endproc
 328              	.LFE13:
 329              		.size	sem3_setup, .-sem3_setup
 330              		.section	.text.sem2_setup,"ax",%progbits
 331              		.align	2
 332              		.syntax unified
 333              		.arm
 334              		.fpu softvfp
 335              		.type	sem2_setup, %function
 336              	sem2_setup:
 337              	.LFB21:
 338              		.cfi_startproc
 339              		@ args = 0, pretend = 0, frame = 0
 340              		@ frame_needed = 0, uses_anonymous_args = 0
 341              		@ link register save eliminated.
 342 0000 FEFFFFEA 		b	sem3_setup
ARM GAS  /tmp/ccMy9U0R.s 			page 7


 343              		.cfi_endproc
 344              	.LFE21:
 345              		.size	sem2_setup, .-sem2_setup
 346              		.section	.text.sem1_setup,"ax",%progbits
 347              		.align	2
 348              		.syntax unified
 349              		.arm
 350              		.fpu softvfp
 351              		.type	sem1_setup, %function
 352              	sem1_setup:
 353              	.LFB23:
 354              		.cfi_startproc
 355              		@ args = 0, pretend = 0, frame = 0
 356              		@ frame_needed = 0, uses_anonymous_args = 0
 357              		@ link register save eliminated.
 358 0000 FEFFFFEA 		b	sem3_setup
 359              		.cfi_endproc
 360              	.LFE23:
 361              		.size	sem1_setup, .-sem1_setup
 362              		.section	.text.thread2,"ax",%progbits
 363              		.align	2
 364              		.syntax unified
 365              		.arm
 366              		.fpu softvfp
 367              		.type	thread2, %function
 368              	thread2:
 369              	.LFB11:
 370              		.loc 1 137 0
 371              		.cfi_startproc
 372              		@ args = 0, pretend = 0, frame = 0
 373              		@ frame_needed = 0, uses_anonymous_args = 0
 374              	.LVL25:
 375              		.loc 1 137 0
 376 0000 10402DE9 		push	{r4, lr}
 377              		.cfi_def_cfa_offset 8
 378              		.cfi_offset 4, -8
 379              		.cfi_offset 14, -4
 380              		.loc 1 140 0
 381 0004 3200A0E3 		mov	r0, #50
 382              	.LVL26:
 383 0008 FEFFFFEB 		bl	chThdSleep
 384              	.LVL27:
 385              		.loc 1 141 0
 386              		.syntax divided
 387              	@ 141 "../../test/testsem.c" 1
 388 000c 9FF021E3 		msr     CPSR_c, #0x9F
 389              	@ 0 "" 2
 390              		.loc 1 142 0
 391              		.arm
 392              		.syntax unified
 393 0010 10009FE5 		ldr	r0, .L23
 394 0014 FEFFFFEB 		bl	chSemSignalI
 395              	.LVL28:
 396              		.loc 1 143 0
 397 0018 FEFFFFEB 		bl	chSchRescheduleS
 398              	.LVL29:
 399              		.loc 1 144 0
ARM GAS  /tmp/ccMy9U0R.s 			page 8


 400              		.syntax divided
 401              	@ 144 "../../test/testsem.c" 1
 402 001c 1FF021E3 		msr     CPSR_c, #0x1F
 403              	@ 0 "" 2
 404              		.loc 1 146 0
 405              		.arm
 406              		.syntax unified
 407 0020 0000A0E3 		mov	r0, #0
 408 0024 1080BDE8 		pop	{r4, pc}
 409              	.L24:
 410              		.align	2
 411              	.L23:
 412 0028 00000000 		.word	.LANCHOR0
 413              		.cfi_endproc
 414              	.LFE11:
 415              		.size	thread2, .-thread2
 416              		.section	.text.thread4,"ax",%progbits
 417              		.align	2
 418              		.syntax unified
 419              		.arm
 420              		.fpu softvfp
 421              		.type	thread4, %function
 422              	thread4:
 423              	.LFB16:
 424              		.loc 1 249 0
 425              		.cfi_startproc
 426              		@ args = 0, pretend = 0, frame = 0
 427              		@ frame_needed = 0, uses_anonymous_args = 0
 428              	.LVL30:
 429 0000 10402DE9 		push	{r4, lr}
 430              		.cfi_def_cfa_offset 8
 431              		.cfi_offset 4, -8
 432              		.cfi_offset 14, -4
 433              		.loc 1 251 0
 434              		.syntax divided
 435              	@ 251 "../../test/testsem.c" 1
 436 0004 9FF021E3 		msr     CPSR_c, #0x9F
 437              	@ 0 "" 2
 438              		.arm
 439              		.syntax unified
 440 0008 083090E5 		ldr	r3, [r0, #8]
 441 000c 000053E3 		cmp	r3, #0
 442 0010 030000DA 		ble	.L28
 443              	.LVL31:
 444              	.L26:
 445              		.loc 1 251 0 is_stmt 0 discriminator 3
 446 0014 FEFFFFEB 		bl	chSchRescheduleS
 447              	.LVL32:
 448              		.syntax divided
 449              	@ 251 "../../test/testsem.c" 1
 450 0018 1FF021E3 		msr     CPSR_c, #0x1F
 451              	@ 0 "" 2
 452              		.loc 1 253 0 is_stmt 1 discriminator 3
 453              		.arm
 454              		.syntax unified
 455 001c 0000A0E3 		mov	r0, #0
 456 0020 1080BDE8 		pop	{r4, pc}
ARM GAS  /tmp/ccMy9U0R.s 			page 9


 457              	.LVL33:
 458              	.L28:
 459              		.loc 1 251 0 discriminator 1
 460 0024 FEFFFFEB 		bl	chSemSignalI
 461              	.LVL34:
 462 0028 F9FFFFEA 		b	.L26
 463              		.cfi_endproc
 464              	.LFE16:
 465              		.size	thread4, .-thread4
 466              		.section	.text.sem4_execute,"ax",%progbits
 467              		.align	2
 468              		.syntax unified
 469              		.arm
 470              		.fpu softvfp
 471              		.type	sem4_execute, %function
 472              	sem4_execute:
 473              	.LFB17:
 474              		.loc 1 255 0
 475              		.cfi_startproc
 476              		@ args = 0, pretend = 0, frame = 16
 477              		@ frame_needed = 0, uses_anonymous_args = 0
 478 0000 04E02DE5 		str	lr, [sp, #-4]!
 479              		.cfi_def_cfa_offset 4
 480              		.cfi_offset 14, -4
 481 0004 1CD04DE2 		sub	sp, sp, #28
 482              		.cfi_def_cfa_offset 32
 483              		.loc 1 259 0
 484 0008 0C008DE2 		add	r0, sp, #12
 485 000c 0010A0E3 		mov	r1, #0
 486 0010 FEFFFFEB 		bl	chSemInit
 487              	.LVL35:
 488              		.loc 1 260 0
 489 0014 0C008DE2 		add	r0, sp, #12
 490 0018 0010A0E3 		mov	r1, #0
 491 001c FEFFFFEB 		bl	chSemReset
 492              	.LVL36:
 493              		.loc 1 261 0
 494 0020 14109DE5 		ldr	r1, [sp, #20]
 495 0024 0100A0E3 		mov	r0, #1
 496 0028 000051E3 		cmp	r1, #0
 497 002c 0010A0C3 		movgt	r1, #0
 498 0030 0110A0D3 		movle	r1, #1
 499 0034 FEFFFFEB 		bl	_test_assert
 500              	.LVL37:
 501 0038 000050E3 		cmp	r0, #0
 502 003c 0100000A 		beq	.L36
 503              	.L29:
 504              		.loc 1 283 0
 505 0040 1CD08DE2 		add	sp, sp, #28
 506              		.cfi_remember_state
 507              		.cfi_def_cfa_offset 4
 508              		@ sp needed
 509 0044 04F09DE4 		ldr	pc, [sp], #4
 510              	.L36:
 511              		.cfi_restore_state
 512              		.loc 1 265 0
 513 0048 18319FE5 		ldr	r3, .L39
ARM GAS  /tmp/ccMy9U0R.s 			page 10


 514              		.loc 1 264 0
 515 004c 18219FE5 		ldr	r2, .L39+4
 516              		.loc 1 265 0
 517 0050 183093E5 		ldr	r3, [r3, #24]
 518              		.loc 1 264 0
 519 0054 000092E5 		ldr	r0, [r2]
 520 0058 082093E5 		ldr	r2, [r3, #8]
 521 005c 0C308DE2 		add	r3, sp, #12
 522 0060 012042E2 		sub	r2, r2, #1
 523 0064 461FA0E3 		mov	r1, #280
 524 0068 00308DE5 		str	r3, [sp]
 525 006c FC309FE5 		ldr	r3, .L39+8
 526 0070 FEFFFFEB 		bl	chThdCreateStatic
 527              	.LVL38:
 528 0074 F8309FE5 		ldr	r3, .L39+12
 529 0078 000083E5 		str	r0, [r3]
 530              		.loc 1 268 0
 531 007c 0C008DE2 		add	r0, sp, #12
 532 0080 FEFFFFEB 		bl	chSemWait
 533              	.LVL39:
 534              		.loc 1 271 0
 535 0084 14109DE5 		ldr	r1, [sp, #20]
 536 0088 0200A0E3 		mov	r0, #2
 537 008c 000051E3 		cmp	r1, #0
 538 0090 0010A0C3 		movgt	r1, #0
 539 0094 0110A0D3 		movle	r1, #1
 540 0098 FEFFFFEB 		bl	_test_assert
 541              	.LVL40:
 542 009c 000050E3 		cmp	r0, #0
 543 00a0 E6FFFF1A 		bne	.L29
 544              		.loc 1 275 0
 545              		.syntax divided
 546              	@ 275 "../../test/testsem.c" 1
 547 00a4 9FF021E3 		msr     CPSR_c, #0x9F
 548              	@ 0 "" 2
 549              		.arm
 550              		.syntax unified
 551 00a8 14309DE5 		ldr	r3, [sp, #20]
 552 00ac 000053E3 		cmp	r3, #0
 553 00b0 290000DA 		ble	.L37
 554              	.L33:
 555              		.loc 1 275 0 is_stmt 0 discriminator 3
 556 00b4 FEFFFFEB 		bl	chSchRescheduleS
 557              	.LVL41:
 558              		.syntax divided
 559              	@ 275 "../../test/testsem.c" 1
 560 00b8 1FF021E3 		msr     CPSR_c, #0x1F
 561              	@ 0 "" 2
 562              		.loc 1 276 0 is_stmt 1 discriminator 3
 563              		.arm
 564              		.syntax unified
 565 00bc 14109DE5 		ldr	r1, [sp, #20]
 566 00c0 0300A0E3 		mov	r0, #3
 567 00c4 000051E3 		cmp	r1, #0
 568 00c8 0010A0D3 		movle	r1, #0
 569 00cc 0110A0C3 		movgt	r1, #1
 570 00d0 FEFFFFEB 		bl	_test_assert
ARM GAS  /tmp/ccMy9U0R.s 			page 11


 571              	.LVL42:
 572 00d4 000050E3 		cmp	r0, #0
 573 00d8 D8FFFF1A 		bne	.L29
 574              		.loc 1 277 0
 575 00dc 14109DE5 		ldr	r1, [sp, #20]
 576 00e0 0400A0E3 		mov	r0, #4
 577 00e4 011041E2 		sub	r1, r1, #1
 578 00e8 111F6FE1 		clz	r1, r1
 579 00ec A112A0E1 		lsr	r1, r1, #5
 580 00f0 FEFFFFEB 		bl	_test_assert
 581              	.LVL43:
 582 00f4 000050E3 		cmp	r0, #0
 583 00f8 D0FFFF1A 		bne	.L29
 584              		.loc 1 280 0
 585              		.syntax divided
 586              	@ 280 "../../test/testsem.c" 1
 587 00fc 9FF021E3 		msr     CPSR_c, #0x9F
 588              	@ 0 "" 2
 589              		.arm
 590              		.syntax unified
 591 0100 14309DE5 		ldr	r3, [sp, #20]
 592 0104 000053E3 		cmp	r3, #0
 593 0108 100000DA 		ble	.L38
 594              	.L34:
 595              		.loc 1 280 0 is_stmt 0 discriminator 3
 596 010c FEFFFFEB 		bl	chSchRescheduleS
 597              	.LVL44:
 598              		.syntax divided
 599              	@ 280 "../../test/testsem.c" 1
 600 0110 1FF021E3 		msr     CPSR_c, #0x1F
 601              	@ 0 "" 2
 602              		.loc 1 281 0 is_stmt 1 discriminator 3
 603              		.arm
 604              		.syntax unified
 605 0114 14109DE5 		ldr	r1, [sp, #20]
 606 0118 0300A0E3 		mov	r0, #3
 607 011c 000051E3 		cmp	r1, #0
 608 0120 0010A0D3 		movle	r1, #0
 609 0124 0110A0C3 		movgt	r1, #1
 610 0128 FEFFFFEB 		bl	_test_assert
 611              	.LVL45:
 612 012c 000050E3 		cmp	r0, #0
 613 0130 C2FFFF1A 		bne	.L29
 614              		.loc 1 282 0
 615 0134 14109DE5 		ldr	r1, [sp, #20]
 616 0138 0500A0E3 		mov	r0, #5
 617 013c 011041E2 		sub	r1, r1, #1
 618 0140 111F6FE1 		clz	r1, r1
 619 0144 A112A0E1 		lsr	r1, r1, #5
 620 0148 FEFFFFEB 		bl	_test_assert
 621              	.LVL46:
 622 014c BBFFFFEA 		b	.L29
 623              	.L38:
 624              		.loc 1 280 0 discriminator 1
 625 0150 0C008DE2 		add	r0, sp, #12
 626 0154 FEFFFFEB 		bl	chSemSignalI
 627              	.LVL47:
ARM GAS  /tmp/ccMy9U0R.s 			page 12


 628 0158 EBFFFFEA 		b	.L34
 629              	.L37:
 630              		.loc 1 275 0 discriminator 1
 631 015c 0C008DE2 		add	r0, sp, #12
 632 0160 FEFFFFEB 		bl	chSemSignalI
 633              	.LVL48:
 634 0164 D2FFFFEA 		b	.L33
 635              	.L40:
 636              		.align	2
 637              	.L39:
 638 0168 00000000 		.word	rlist
 639 016c 00000000 		.word	wa
 640 0170 00000000 		.word	thread4
 641 0174 00000000 		.word	threads
 642              		.cfi_endproc
 643              	.LFE17:
 644              		.size	sem4_execute, .-sem4_execute
 645              		.section	.text.sem2_execute,"ax",%progbits
 646              		.align	2
 647              		.syntax unified
 648              		.arm
 649              		.fpu softvfp
 650              		.type	sem2_execute, %function
 651              	sem2_execute:
 652              	.LFB12:
 653              		.loc 1 148 0
 654              		.cfi_startproc
 655              		@ args = 0, pretend = 0, frame = 0
 656              		@ frame_needed = 0, uses_anonymous_args = 0
 657 0000 F04F2DE9 		push	{r4, r5, r6, r7, r8, r9, r10, fp, lr}
 658              		.cfi_def_cfa_offset 36
 659              		.cfi_offset 4, -36
 660              		.cfi_offset 5, -32
 661              		.cfi_offset 6, -28
 662              		.cfi_offset 7, -24
 663              		.cfi_offset 8, -20
 664              		.cfi_offset 9, -16
 665              		.cfi_offset 10, -12
 666              		.cfi_offset 11, -8
 667              		.cfi_offset 14, -4
 668              		.loc 1 156 0
 669 0004 D4419FE5 		ldr	r4, .L49
 670 0008 0010A0E3 		mov	r1, #0
 671              		.loc 1 148 0
 672 000c 0CD04DE2 		sub	sp, sp, #12
 673              		.cfi_def_cfa_offset 48
 674              		.loc 1 156 0
 675 0010 0400A0E1 		mov	r0, r4
 676 0014 FEFFFFEB 		bl	chSemWaitTimeout
 677              	.LVL49:
 678              		.loc 1 157 0
 679 0018 010070E3 		cmn	r0, #1
 680 001c 0010A013 		movne	r1, #0
 681 0020 0110A003 		moveq	r1, #1
 682 0024 0100A0E3 		mov	r0, #1
 683              	.LVL50:
 684 0028 FEFFFFEB 		bl	_test_assert
ARM GAS  /tmp/ccMy9U0R.s 			page 13


 685              	.LVL51:
 686 002c 000050E3 		cmp	r0, #0
 687 0030 0100000A 		beq	.L48
 688              	.L41:
 689              		.loc 1 186 0
 690 0034 0CD08DE2 		add	sp, sp, #12
 691              		.cfi_remember_state
 692              		.cfi_def_cfa_offset 36
 693              		@ sp needed
 694 0038 F08FBDE8 		pop	{r4, r5, r6, r7, r8, r9, r10, fp, pc}
 695              	.L48:
 696              		.cfi_restore_state
 697              		.loc 1 158 0
 698 003c 001094E5 		ldr	r1, [r4]
 699 0040 0200A0E3 		mov	r0, #2
 700 0044 041041E0 		sub	r1, r1, r4
 701 0048 111F6FE1 		clz	r1, r1
 702 004c A112A0E1 		lsr	r1, r1, #5
 703 0050 FEFFFFEB 		bl	_test_assert
 704              	.LVL52:
 705 0054 000050E3 		cmp	r0, #0
 706 0058 F5FFFF1A 		bne	.L41
 707              		.loc 1 159 0
 708 005c 081094E5 		ldr	r1, [r4, #8]
 709 0060 0300A0E3 		mov	r0, #3
 710 0064 111F6FE1 		clz	r1, r1
 711 0068 A112A0E1 		lsr	r1, r1, #5
 712 006c FEFFFFEB 		bl	_test_assert
 713              	.LVL53:
 714 0070 003050E2 		subs	r3, r0, #0
 715 0074 EEFFFF1A 		bne	.L41
 716              	.LBB4:
 717              	.LBB5:
 718              		.loc 1 164 0
 719 0078 64219FE5 		ldr	r2, .L49+4
 720 007c 64119FE5 		ldr	r1, .L49+8
 721 0080 182092E5 		ldr	r2, [r2, #24]
 722 0084 000091E5 		ldr	r0, [r1]
 723 0088 082092E5 		ldr	r2, [r2, #8]
 724 008c 461FA0E3 		mov	r1, #280
 725 0090 012042E2 		sub	r2, r2, #1
 726 0094 00308DE5 		str	r3, [sp]
 727 0098 4C319FE5 		ldr	r3, .L49+12
 728 009c FEFFFFEB 		bl	chThdCreateStatic
 729              	.LVL54:
 730 00a0 48319FE5 		ldr	r3, .L49+16
 731              		.loc 1 166 0
 732 00a4 7D1FA0E3 		mov	r1, #500
 733              		.loc 1 164 0
 734 00a8 000083E5 		str	r0, [r3]
 735              		.loc 1 166 0
 736 00ac 0400A0E1 		mov	r0, r4
 737 00b0 FEFFFFEB 		bl	chSemWaitTimeout
 738              	.LVL55:
 739 00b4 0050A0E1 		mov	r5, r0
 740              	.LVL56:
 741              		.loc 1 167 0
ARM GAS  /tmp/ccMy9U0R.s 			page 14


 742 00b8 FEFFFFEB 		bl	test_wait_threads
 743              	.LVL57:
 744              		.loc 1 168 0
 745 00bc 151F6FE1 		clz	r1, r5
 746 00c0 0400A0E3 		mov	r0, #4
 747 00c4 A112A0E1 		lsr	r1, r1, #5
 748 00c8 FEFFFFEB 		bl	_test_assert
 749              	.LVL58:
 750 00cc 000050E3 		cmp	r0, #0
 751 00d0 D7FFFF1A 		bne	.L41
 752              		.loc 1 169 0
 753 00d4 001094E5 		ldr	r1, [r4]
 754 00d8 0500A0E3 		mov	r0, #5
 755 00dc 041041E0 		sub	r1, r1, r4
 756 00e0 111F6FE1 		clz	r1, r1
 757 00e4 A112A0E1 		lsr	r1, r1, #5
 758 00e8 FEFFFFEB 		bl	_test_assert
 759              	.LVL59:
 760 00ec 000050E3 		cmp	r0, #0
 761 00f0 CFFFFF1A 		bne	.L41
 762              		.loc 1 170 0
 763 00f4 081094E5 		ldr	r1, [r4, #8]
 764 00f8 0600A0E3 		mov	r0, #6
 765 00fc 111F6FE1 		clz	r1, r1
 766 0100 A112A0E1 		lsr	r1, r1, #5
 767 0104 FEFFFFEB 		bl	_test_assert
 768              	.LVL60:
 769 0108 000050E3 		cmp	r0, #0
 770 010c C8FFFF1A 		bne	.L41
 771              		.loc 1 176 0
 772 0110 4150A0E3 		mov	r5, #65
 773              	.LVL61:
 774              		.loc 1 179 0
 775 0114 7D8FA0E3 		mov	r8, #500
 776 0118 0470A0E1 		mov	r7, r4
 777              		.loc 1 180 0
 778 011c 0760A0E3 		mov	r6, #7
 779              		.loc 1 181 0
 780 0120 08A0A0E3 		mov	r10, #8
 781              		.loc 1 182 0
 782 0124 0990A0E3 		mov	r9, #9
 783              		.loc 1 175 0
 784 0128 FEFFFFEB 		bl	test_wait_tick
 785              	.LVL62:
 786              		.loc 1 176 0
 787 012c C0309FE5 		ldr	r3, .L49+20
 788 0130 0CB093E5 		ldr	fp, [r3, #12]
 789              	.LVL63:
 790              	.L45:
 791              		.loc 1 178 0
 792 0134 0500A0E1 		mov	r0, r5
 793 0138 FEFFFFEB 		bl	test_emit_token
 794              	.LVL64:
 795              		.loc 1 179 0
 796 013c 0810A0E1 		mov	r1, r8
 797 0140 0700A0E1 		mov	r0, r7
 798 0144 FEFFFFEB 		bl	chSemWaitTimeout
ARM GAS  /tmp/ccMy9U0R.s 			page 15


 799              	.LVL65:
 800              		.loc 1 180 0
 801 0148 010070E3 		cmn	r0, #1
 802 014c 0010A013 		movne	r1, #0
 803 0150 0110A003 		moveq	r1, #1
 804 0154 0600A0E1 		mov	r0, r6
 805              	.LVL66:
 806 0158 FEFFFFEB 		bl	_test_assert
 807              	.LVL67:
 808 015c 000050E3 		cmp	r0, #0
 809 0160 B3FFFF1A 		bne	.L41
 810              		.loc 1 181 0
 811 0164 001094E5 		ldr	r1, [r4]
 812 0168 0A00A0E1 		mov	r0, r10
 813 016c 041041E0 		sub	r1, r1, r4
 814 0170 111F6FE1 		clz	r1, r1
 815 0174 A112A0E1 		lsr	r1, r1, #5
 816 0178 FEFFFFEB 		bl	_test_assert
 817              	.LVL68:
 818 017c 000050E3 		cmp	r0, #0
 819 0180 ABFFFF1A 		bne	.L41
 820              		.loc 1 182 0
 821 0184 081094E5 		ldr	r1, [r4, #8]
 822 0188 0900A0E1 		mov	r0, r9
 823 018c 111F6FE1 		clz	r1, r1
 824 0190 A112A0E1 		lsr	r1, r1, #5
 825 0194 FEFFFFEB 		bl	_test_assert
 826              	.LVL69:
 827 0198 015085E2 		add	r5, r5, #1
 828 019c 000050E3 		cmp	r0, #0
 829 01a0 7550EFE6 		uxtb	r5, r5
 830 01a4 A2FFFF1A 		bne	.L41
 831              		.loc 1 177 0
 832 01a8 460055E3 		cmp	r5, #70
 833 01ac E0FFFF1A 		bne	.L45
 834              		.loc 1 184 0
 835 01b0 40109FE5 		ldr	r1, .L49+24
 836 01b4 0A00A0E3 		mov	r0, #10
 837 01b8 FEFFFFEB 		bl	_test_assert_sequence
 838              	.LVL70:
 839 01bc 000050E3 		cmp	r0, #0
 840 01c0 9BFFFF1A 		bne	.L41
 841              		.loc 1 185 0
 842 01c4 0B00A0E3 		mov	r0, #11
 843 01c8 271D8BE2 		add	r1, fp, #2496
 844 01cc 092081E2 		add	r2, r1, #9
 845 01d0 041081E2 		add	r1, r1, #4
 846              	.LBE5:
 847              	.LBE4:
 848              		.loc 1 186 0
 849 01d4 0CD08DE2 		add	sp, sp, #12
 850              		.cfi_def_cfa_offset 36
 851              		@ sp needed
 852 01d8 F04FBDE8 		pop	{r4, r5, r6, r7, r8, r9, r10, fp, lr}
 853              		.cfi_restore 14
 854              		.cfi_restore 11
 855              		.cfi_restore 10
ARM GAS  /tmp/ccMy9U0R.s 			page 16


 856              		.cfi_restore 9
 857              		.cfi_restore 8
 858              		.cfi_restore 7
 859              		.cfi_restore 6
 860              		.cfi_restore 5
 861              		.cfi_restore 4
 862              		.cfi_def_cfa_offset 0
 863              	.LVL71:
 864              	.LBB7:
 865              	.LBB6:
 866              		.loc 1 185 0
 867 01dc FEFFFFEA 		b	_test_assert_time_window
 868              	.LVL72:
 869              	.L50:
 870              		.align	2
 871              	.L49:
 872 01e0 00000000 		.word	.LANCHOR0
 873 01e4 00000000 		.word	rlist
 874 01e8 00000000 		.word	wa
 875 01ec 00000000 		.word	thread2
 876 01f0 00000000 		.word	threads
 877 01f4 00000000 		.word	vtlist
 878 01f8 14000000 		.word	.LC5
 879              	.LBE6:
 880              	.LBE7:
 881              		.cfi_endproc
 882              	.LFE12:
 883              		.size	sem2_execute, .-sem2_execute
 884              		.section	.text.sem3_execute,"ax",%progbits
 885              		.align	2
 886              		.syntax unified
 887              		.arm
 888              		.fpu softvfp
 889              		.type	sem3_execute, %function
 890              	sem3_execute:
 891              	.LFB15:
 892              		.loc 1 221 0
 893              		.cfi_startproc
 894              		@ args = 0, pretend = 0, frame = 0
 895              		@ frame_needed = 0, uses_anonymous_args = 0
 896              		.loc 1 223 0
 897 0000 0030A0E3 		mov	r3, #0
 898              		.loc 1 221 0
 899 0004 10402DE9 		push	{r4, lr}
 900              		.cfi_def_cfa_offset 8
 901              		.cfi_offset 4, -8
 902              		.cfi_offset 14, -4
 903              		.loc 1 223 0
 904 0008 C8209FE5 		ldr	r2, .L57
 905 000c C8109FE5 		ldr	r1, .L57+4
 906 0010 182092E5 		ldr	r2, [r2, #24]
 907              		.loc 1 221 0
 908 0014 08D04DE2 		sub	sp, sp, #8
 909              		.cfi_def_cfa_offset 16
 910              		.loc 1 223 0
 911 0018 082092E5 		ldr	r2, [r2, #8]
 912 001c 000091E5 		ldr	r0, [r1]
ARM GAS  /tmp/ccMy9U0R.s 			page 17


 913 0020 012082E2 		add	r2, r2, #1
 914 0024 00308DE5 		str	r3, [sp]
 915 0028 461FA0E3 		mov	r1, #280
 916 002c AC309FE5 		ldr	r3, .L57+8
 917 0030 FEFFFFEB 		bl	chThdCreateStatic
 918              	.LVL73:
 919              		.loc 1 224 0
 920 0034 A8409FE5 		ldr	r4, .L57+12
 921              		.loc 1 223 0
 922 0038 A8309FE5 		ldr	r3, .L57+16
 923              		.loc 1 224 0
 924 003c 0410A0E1 		mov	r1, r4
 925              		.loc 1 223 0
 926 0040 000083E5 		str	r0, [r3]
 927              		.loc 1 224 0
 928 0044 0400A0E1 		mov	r0, r4
 929 0048 FEFFFFEB 		bl	chSemSignalWait
 930              	.LVL74:
 931              		.loc 1 225 0
 932 004c 001094E5 		ldr	r1, [r4]
 933 0050 0100A0E3 		mov	r0, #1
 934 0054 041041E0 		sub	r1, r1, r4
 935 0058 111F6FE1 		clz	r1, r1
 936 005c A112A0E1 		lsr	r1, r1, #5
 937 0060 FEFFFFEB 		bl	_test_assert
 938              	.LVL75:
 939 0064 000050E3 		cmp	r0, #0
 940 0068 0100000A 		beq	.L56
 941              	.L51:
 942              		.loc 1 231 0
 943 006c 08D08DE2 		add	sp, sp, #8
 944              		.cfi_remember_state
 945              		.cfi_def_cfa_offset 8
 946              		@ sp needed
 947 0070 1080BDE8 		pop	{r4, pc}
 948              	.L56:
 949              		.cfi_restore_state
 950              		.loc 1 226 0
 951 0074 081094E5 		ldr	r1, [r4, #8]
 952 0078 0200A0E3 		mov	r0, #2
 953 007c 111F6FE1 		clz	r1, r1
 954 0080 A112A0E1 		lsr	r1, r1, #5
 955 0084 FEFFFFEB 		bl	_test_assert
 956              	.LVL76:
 957 0088 000050E3 		cmp	r0, #0
 958 008c F6FFFF1A 		bne	.L51
 959              	.LBB10:
 960              	.LBB11:
 961              		.loc 1 228 0
 962 0090 0410A0E1 		mov	r1, r4
 963 0094 0400A0E1 		mov	r0, r4
 964 0098 FEFFFFEB 		bl	chSemSignalWait
 965              	.LVL77:
 966              		.loc 1 229 0
 967 009c 001094E5 		ldr	r1, [r4]
 968 00a0 0300A0E3 		mov	r0, #3
 969 00a4 041041E0 		sub	r1, r1, r4
ARM GAS  /tmp/ccMy9U0R.s 			page 18


 970 00a8 111F6FE1 		clz	r1, r1
 971 00ac A112A0E1 		lsr	r1, r1, #5
 972 00b0 FEFFFFEB 		bl	_test_assert
 973              	.LVL78:
 974 00b4 000050E3 		cmp	r0, #0
 975 00b8 EBFFFF1A 		bne	.L51
 976              		.loc 1 230 0
 977 00bc 081094E5 		ldr	r1, [r4, #8]
 978 00c0 0400A0E3 		mov	r0, #4
 979 00c4 111F6FE1 		clz	r1, r1
 980 00c8 A112A0E1 		lsr	r1, r1, #5
 981              	.LBE11:
 982              	.LBE10:
 983              		.loc 1 231 0
 984 00cc 08D08DE2 		add	sp, sp, #8
 985              		.cfi_def_cfa_offset 8
 986              		@ sp needed
 987 00d0 1040BDE8 		pop	{r4, lr}
 988              		.cfi_restore 14
 989              		.cfi_restore 4
 990              		.cfi_def_cfa_offset 0
 991              	.LBB13:
 992              	.LBB12:
 993              		.loc 1 230 0
 994 00d4 FEFFFFEA 		b	_test_assert
 995              	.LVL79:
 996              	.L58:
 997              		.align	2
 998              	.L57:
 999 00d8 00000000 		.word	rlist
 1000 00dc 00000000 		.word	wa
 1001 00e0 00000000 		.word	thread3
 1002 00e4 00000000 		.word	.LANCHOR0
 1003 00e8 00000000 		.word	threads
 1004              	.LBE12:
 1005              	.LBE13:
 1006              		.cfi_endproc
 1007              	.LFE15:
 1008              		.size	sem3_execute, .-sem3_execute
 1009              		.global	patternsem
 1010              		.global	testsem4
 1011              		.global	testsem3
 1012              		.global	testsem2
 1013              		.global	testsem1
 1014              		.section	.data.sem1,"aw",%progbits
 1015              		.align	2
 1016              		.set	.LANCHOR0,. + 0
 1017              		.type	sem1, %object
 1018              		.size	sem1, 12
 1019              	sem1:
 1020 0000 00000000 		.word	sem1
 1021 0004 00000000 		.word	sem1
 1022 0008 00000000 		.word	0
 1023              		.section	.rodata.patternsem,"a",%progbits
 1024              		.align	2
 1025              		.type	patternsem, %object
 1026              		.size	patternsem, 20
ARM GAS  /tmp/ccMy9U0R.s 			page 19


 1027              	patternsem:
 1028 0000 00000000 		.word	testsem1
 1029 0004 00000000 		.word	testsem2
 1030 0008 00000000 		.word	testsem3
 1031 000c 00000000 		.word	testsem4
 1032 0010 00000000 		.word	0
 1033              		.section	.rodata.sem1_execute.str1.4,"aMS",%progbits,1
 1034              		.align	2
 1035              	.LC0:
 1036 0000 4100     		.ascii	"A\000"
 1037 0002 0000     		.space	2
 1038              	.LC1:
 1039 0004 4200     		.ascii	"B\000"
 1040 0006 0000     		.space	2
 1041              	.LC2:
 1042 0008 4300     		.ascii	"C\000"
 1043 000a 0000     		.space	2
 1044              	.LC3:
 1045 000c 4400     		.ascii	"D\000"
 1046 000e 0000     		.space	2
 1047              	.LC4:
 1048 0010 4500     		.ascii	"E\000"
 1049 0012 0000     		.space	2
 1050              	.LC5:
 1051 0014 41424344 		.ascii	"ABCDE\000"
 1051      4500
 1052              		.section	.rodata.str1.4,"aMS",%progbits,1
 1053              		.align	2
 1054              	.LC6:
 1055 0000 42696E61 		.ascii	"Binary Semaphores, functionality\000"
 1055      72792053 
 1055      656D6170 
 1055      686F7265 
 1055      732C2066 
 1056 0021 000000   		.space	3
 1057              	.LC7:
 1058 0024 53656D61 		.ascii	"Semaphores, atomic signal-wait\000"
 1058      70686F72 
 1058      65732C20 
 1058      61746F6D 
 1058      69632073 
 1059 0043 00       		.space	1
 1060              	.LC8:
 1061 0044 53656D61 		.ascii	"Semaphores, timeout\000"
 1061      70686F72 
 1061      65732C20 
 1061      74696D65 
 1061      6F757400 
 1062              	.LC9:
 1063 0058 53656D61 		.ascii	"Semaphores, enqueuing\000"
 1063      70686F72 
 1063      65732C20 
 1063      656E7175 
 1063      6575696E 
 1064              		.section	.rodata.testsem1,"a",%progbits
 1065              		.align	2
 1066              		.type	testsem1, %object
ARM GAS  /tmp/ccMy9U0R.s 			page 20


 1067              		.size	testsem1, 16
 1068              	testsem1:
 1069 0000 58000000 		.word	.LC9
 1070 0004 00000000 		.word	sem1_setup
 1071 0008 00000000 		.word	0
 1072 000c 00000000 		.word	sem1_execute
 1073              		.section	.rodata.testsem2,"a",%progbits
 1074              		.align	2
 1075              		.type	testsem2, %object
 1076              		.size	testsem2, 16
 1077              	testsem2:
 1078 0000 44000000 		.word	.LC8
 1079 0004 00000000 		.word	sem2_setup
 1080 0008 00000000 		.word	0
 1081 000c 00000000 		.word	sem2_execute
 1082              		.section	.rodata.testsem3,"a",%progbits
 1083              		.align	2
 1084              		.type	testsem3, %object
 1085              		.size	testsem3, 16
 1086              	testsem3:
 1087 0000 24000000 		.word	.LC7
 1088 0004 00000000 		.word	sem3_setup
 1089 0008 00000000 		.word	0
 1090 000c 00000000 		.word	sem3_execute
 1091              		.section	.rodata.testsem4,"a",%progbits
 1092              		.align	2
 1093              		.type	testsem4, %object
 1094              		.size	testsem4, 16
 1095              	testsem4:
 1096 0000 00000000 		.word	.LC6
 1097 0004 00000000 		.word	0
 1098 0008 00000000 		.word	0
 1099 000c 00000000 		.word	sem4_execute
 1100              		.text
 1101              	.Letext0:
 1102              		.file 2 "/usr/include/newlib/machine/_default_types.h"
 1103              		.file 3 "/usr/include/newlib/sys/_stdint.h"
 1104              		.file 4 "../../os/ports/GCC/ARM/chtypes.h"
 1105              		.file 5 "../../os/kernel/include/chlists.h"
 1106              		.file 6 "../../os/kernel/include/chthreads.h"
 1107              		.file 7 "../../os/ports/GCC/ARM/chcore.h"
 1108              		.file 8 "../../os/kernel/include/chvt.h"
 1109              		.file 9 "../../os/kernel/include/chschd.h"
 1110              		.file 10 "../../os/kernel/include/chsem.h"
 1111              		.file 11 "../../os/kernel/include/chbsem.h"
 1112              		.file 12 "../../os/kernel/include/chmtx.h"
 1113              		.file 13 "../../os/kernel/include/chregistry.h"
 1114              		.file 14 "../../os/kernel/include/ch.h"
 1115              		.file 15 "../../test/test.h"