ARM GAS  /tmp/cc8DnOcF.s 			page 1


   1              		.cpu arm1176jz-s
   2              		.eabi_attribute 20, 1
   3              		.eabi_attribute 21, 1
   4              		.eabi_attribute 23, 3
   5              		.eabi_attribute 24, 1
   6              		.eabi_attribute 25, 1
   7              		.eabi_attribute 26, 1
   8              		.eabi_attribute 30, 2
   9              		.eabi_attribute 34, 1
  10              		.eabi_attribute 18, 4
  11              		.file	"test.c"
  12              		.text
  13              	.Ltext0:
  14              		.cfi_sections	.debug_frame
  15              		.section	.text.tmr,"ax",%progbits
  16              		.align	2
  17              		.syntax unified
  18              		.arm
  19              		.fpu softvfp
  20              		.type	tmr, %function
  21              	tmr:
  22              	.LFB21:
  23              		.file 1 "../../test/test.c"
  24              		.loc 1 265 0
  25              		.cfi_startproc
  26              		@ args = 0, pretend = 0, frame = 0
  27              		@ frame_needed = 0, uses_anonymous_args = 0
  28              		@ link register save eliminated.
  29              	.LVL0:
  30              		.loc 1 268 0
  31 0000 0120A0E3 		mov	r2, #1
  32 0004 04309FE5 		ldr	r3, .L2
  33 0008 002083E5 		str	r2, [r3]
  34 000c 1EFF2FE1 		bx	lr
  35              	.L3:
  36              		.align	2
  37              	.L2:
  38 0010 00000000 		.word	test_timer_done
  39              		.cfi_endproc
  40              	.LFE21:
  41              		.size	tmr, .-tmr
  42              		.section	.text.print_line,"ax",%progbits
  43              		.align	2
  44              		.syntax unified
  45              		.arm
  46              		.fpu softvfp
  47              		.type	print_line, %function
  48              	print_line:
  49              	.LFB24:
  50              		.loc 1 304 0
  51              		.cfi_startproc
  52              		@ args = 0, pretend = 0, frame = 0
  53              		@ frame_needed = 0, uses_anonymous_args = 0
  54              	.LVL1:
  55 0000 70402DE9 		push	{r4, r5, r6, lr}
  56              		.cfi_def_cfa_offset 16
  57              		.cfi_offset 4, -16
ARM GAS  /tmp/cc8DnOcF.s 			page 2


  58              		.cfi_offset 5, -12
  59              		.cfi_offset 6, -8
  60              		.cfi_offset 14, -4
  61              		.loc 1 304 0
  62 0004 4C40A0E3 		mov	r4, #76
  63              		.loc 1 308 0
  64 0008 2D60A0E3 		mov	r6, #45
  65 000c 34509FE5 		ldr	r5, .L9
  66              	.LVL2:
  67              	.L5:
  68              		.loc 1 308 0 is_stmt 0 discriminator 3
  69 0010 000095E5 		ldr	r0, [r5]
  70 0014 0610A0E1 		mov	r1, r6
  71 0018 003090E5 		ldr	r3, [r0]
  72 001c 083093E5 		ldr	r3, [r3, #8]
  73 0020 33FF2FE1 		blx	r3
  74              	.LVL3:
  75              		.loc 1 307 0 is_stmt 1 discriminator 3
  76 0024 014054E2 		subs	r4, r4, #1
  77              	.LVL4:
  78 0028 F8FFFF1A 		bne	.L5
  79              		.loc 1 309 0
  80 002c 000095E5 		ldr	r0, [r5]
  81 0030 0220A0E3 		mov	r2, #2
  82              		.loc 1 310 0
  83 0034 7040BDE8 		pop	{r4, r5, r6, lr}
  84              		.cfi_restore 14
  85              		.cfi_restore 6
  86              		.cfi_restore 5
  87              		.cfi_restore 4
  88              		.cfi_def_cfa_offset 0
  89              	.LVL5:
  90              		.loc 1 309 0
  91 0038 003090E5 		ldr	r3, [r0]
  92 003c 08109FE5 		ldr	r1, .L9+4
  93 0040 003093E5 		ldr	r3, [r3]
  94 0044 13FF2FE1 		bx	r3
  95              	.LVL6:
  96              	.L10:
  97              		.align	2
  98              	.L9:
  99 0048 00000000 		.word	.LANCHOR0
 100 004c 00000000 		.word	.LC0
 101              		.cfi_endproc
 102              	.LFE24:
 103              		.size	print_line, .-print_line
 104              		.section	.text.test_printn,"ax",%progbits
 105              		.align	2
 106              		.global	test_printn
 107              		.syntax unified
 108              		.arm
 109              		.fpu softvfp
 110              		.type	test_printn, %function
 111              	test_printn:
 112              	.LFB7:
 113              		.loc 1 95 0
 114              		.cfi_startproc
ARM GAS  /tmp/cc8DnOcF.s 			page 3


 115              		@ args = 0, pretend = 0, frame = 16
 116              		@ frame_needed = 0, uses_anonymous_args = 0
 117              	.LVL7:
 118              		.loc 1 98 0
 119 0000 000050E3 		cmp	r0, #0
 120 0004 1D00000A 		beq	.L20
 121              		.loc 1 95 0
 122 0008 70402DE9 		push	{r4, r5, r6, lr}
 123              		.cfi_def_cfa_offset 16
 124              		.cfi_offset 4, -16
 125              		.cfi_offset 5, -12
 126              		.cfi_offset 6, -8
 127              		.cfi_offset 14, -4
 128 000c 10D04DE2 		sub	sp, sp, #16
 129              		.cfi_def_cfa_offset 32
 130 0010 0D50A0E1 		mov	r5, sp
 131 0014 0D40A0E1 		mov	r4, sp
 132              		.loc 1 103 0
 133 0018 78C09FE5 		ldr	ip, .L22
 134 001c 000000EA 		b	.L13
 135              	.LVL8:
 136              	.L17:
 137 0020 0240A0E1 		mov	r4, r2
 138              	.LVL9:
 139              	.L13:
 140 0024 0420A0E1 		mov	r2, r4
 141              	.LVL10:
 142 0028 9C1083E0 		umull	r1, r3, ip, r0
 143 002c A331A0E1 		lsr	r3, r3, #3
 144              	.LVL11:
 145 0030 031183E0 		add	r1, r3, r3, lsl #2
 146 0034 810040E0 		sub	r0, r0, r1, lsl #1
 147 0038 301080E2 		add	r1, r0, #48
 148 003c 7110EFE6 		uxtb	r1, r1
 149              		.loc 1 102 0
 150 0040 000053E2 		subs	r0, r3, #0
 151              		.loc 1 103 0
 152 0044 0110C2E4 		strb	r1, [r2], #1
 153              	.LVL12:
 154              		.loc 1 102 0
 155 0048 F4FFFF1A 		bne	.L17
 156              		.loc 1 104 0
 157 004c 050052E1 		cmp	r2, r5
 158 0050 0800009A 		bls	.L11
 159 0054 40609FE5 		ldr	r6, .L22+4
 160 0058 000000EA 		b	.L15
 161              	.LVL13:
 162              	.L21:
 163 005c 011074E5 		ldrb	r1, [r4, #-1]!	@ zero_extendqisi2
 164              	.LVL14:
 165              	.L15:
 166              		.loc 1 105 0
 167 0060 000096E5 		ldr	r0, [r6]
 168              	.LVL15:
 169 0064 003090E5 		ldr	r3, [r0]
 170 0068 083093E5 		ldr	r3, [r3, #8]
 171 006c 33FF2FE1 		blx	r3
ARM GAS  /tmp/cc8DnOcF.s 			page 4


 172              	.LVL16:
 173              		.loc 1 104 0
 174 0070 050054E1 		cmp	r4, r5
 175 0074 F8FFFF1A 		bne	.L21
 176              	.LVL17:
 177              	.L11:
 178              		.loc 1 107 0
 179 0078 10D08DE2 		add	sp, sp, #16
 180              		.cfi_def_cfa_offset 16
 181              		@ sp needed
 182 007c 7080BDE8 		pop	{r4, r5, r6, pc}
 183              	.LVL18:
 184              	.L20:
 185              		.cfi_def_cfa_offset 0
 186              		.cfi_restore 4
 187              		.cfi_restore 5
 188              		.cfi_restore 6
 189              		.cfi_restore 14
 190              	.LBB50:
 191              	.LBB51:
 192              		.loc 1 99 0
 193 0080 14309FE5 		ldr	r3, .L22+4
 194 0084 3010A0E3 		mov	r1, #48
 195 0088 000093E5 		ldr	r0, [r3]
 196              	.LVL19:
 197 008c 003090E5 		ldr	r3, [r0]
 198 0090 083093E5 		ldr	r3, [r3, #8]
 199 0094 13FF2FE1 		bx	r3
 200              	.LVL20:
 201              	.L23:
 202              		.align	2
 203              	.L22:
 204 0098 CDCCCCCC 		.word	-858993459
 205 009c 00000000 		.word	.LANCHOR0
 206              	.LBE51:
 207              	.LBE50:
 208              		.cfi_endproc
 209              	.LFE7:
 210              		.size	test_printn, .-test_printn
 211              		.section	.text.test_print,"ax",%progbits
 212              		.align	2
 213              		.global	test_print
 214              		.syntax unified
 215              		.arm
 216              		.fpu softvfp
 217              		.type	test_print, %function
 218              	test_print:
 219              	.LFB8:
 220              		.loc 1 114 0
 221              		.cfi_startproc
 222              		@ args = 0, pretend = 0, frame = 0
 223              		@ frame_needed = 0, uses_anonymous_args = 0
 224              	.LVL21:
 225              		.loc 1 116 0
 226 0000 0010D0E5 		ldrb	r1, [r0]	@ zero_extendqisi2
 227 0004 000051E3 		cmp	r1, #0
 228 0008 1EFF2F01 		bxeq	lr
ARM GAS  /tmp/cc8DnOcF.s 			page 5


 229              		.loc 1 114 0
 230 000c 70402DE9 		push	{r4, r5, r6, lr}
 231              		.cfi_def_cfa_offset 16
 232              		.cfi_offset 4, -16
 233              		.cfi_offset 5, -12
 234              		.cfi_offset 6, -8
 235              		.cfi_offset 14, -4
 236 0010 0040A0E1 		mov	r4, r0
 237 0014 1C509FE5 		ldr	r5, .L33
 238              	.LVL22:
 239              	.L26:
 240              		.loc 1 117 0
 241 0018 000095E5 		ldr	r0, [r5]
 242 001c 003090E5 		ldr	r3, [r0]
 243 0020 083093E5 		ldr	r3, [r3, #8]
 244 0024 33FF2FE1 		blx	r3
 245              	.LVL23:
 246              		.loc 1 116 0
 247 0028 0110F4E5 		ldrb	r1, [r4, #1]!	@ zero_extendqisi2
 248              	.LVL24:
 249 002c 000051E3 		cmp	r1, #0
 250 0030 F8FFFF1A 		bne	.L26
 251 0034 7080BDE8 		pop	{r4, r5, r6, pc}
 252              	.L34:
 253              		.align	2
 254              	.L33:
 255 0038 00000000 		.word	.LANCHOR0
 256              		.cfi_endproc
 257              	.LFE8:
 258              		.size	test_print, .-test_print
 259              		.section	.text.test_println,"ax",%progbits
 260              		.align	2
 261              		.global	test_println
 262              		.syntax unified
 263              		.arm
 264              		.fpu softvfp
 265              		.type	test_println, %function
 266              	test_println:
 267              	.LFB9:
 268              		.loc 1 125 0
 269              		.cfi_startproc
 270              		@ args = 0, pretend = 0, frame = 0
 271              		@ frame_needed = 0, uses_anonymous_args = 0
 272              	.LVL25:
 273 0000 70402DE9 		push	{r4, r5, r6, lr}
 274              		.cfi_def_cfa_offset 16
 275              		.cfi_offset 4, -16
 276              		.cfi_offset 5, -12
 277              		.cfi_offset 6, -8
 278              		.cfi_offset 14, -4
 279              	.LBB52:
 280              	.LBB53:
 281              		.loc 1 116 0
 282 0004 0010D0E5 		ldrb	r1, [r0]	@ zero_extendqisi2
 283 0008 000051E3 		cmp	r1, #0
 284 000c 0040A011 		movne	r4, r0
 285 0010 40509F15 		ldrne	r5, .L42
ARM GAS  /tmp/cc8DnOcF.s 			page 6


 286 0014 0D00000A 		beq	.L41
 287              	.LVL26:
 288              	.L37:
 289              		.loc 1 117 0
 290 0018 000095E5 		ldr	r0, [r5]
 291 001c 003090E5 		ldr	r3, [r0]
 292 0020 083093E5 		ldr	r3, [r3, #8]
 293 0024 33FF2FE1 		blx	r3
 294              	.LVL27:
 295              		.loc 1 116 0
 296 0028 0110F4E5 		ldrb	r1, [r4, #1]!	@ zero_extendqisi2
 297              	.LVL28:
 298 002c 000051E3 		cmp	r1, #0
 299 0030 F8FFFF1A 		bne	.L37
 300              	.LVL29:
 301              	.L38:
 302              	.LBE53:
 303              	.LBE52:
 304              		.loc 1 128 0
 305 0034 000095E5 		ldr	r0, [r5]
 306 0038 0220A0E3 		mov	r2, #2
 307              		.loc 1 129 0
 308 003c 7040BDE8 		pop	{r4, r5, r6, lr}
 309              		.cfi_remember_state
 310              		.cfi_restore 14
 311              		.cfi_restore 6
 312              		.cfi_restore 5
 313              		.cfi_restore 4
 314              		.cfi_def_cfa_offset 0
 315              		.loc 1 128 0
 316 0040 003090E5 		ldr	r3, [r0]
 317 0044 10109FE5 		ldr	r1, .L42+4
 318 0048 003093E5 		ldr	r3, [r3]
 319 004c 13FF2FE1 		bx	r3
 320              	.LVL30:
 321              	.L41:
 322              		.cfi_restore_state
 323 0050 00509FE5 		ldr	r5, .L42
 324 0054 F6FFFFEA 		b	.L38
 325              	.L43:
 326              		.align	2
 327              	.L42:
 328 0058 00000000 		.word	.LANCHOR0
 329 005c 00000000 		.word	.LC0
 330              		.cfi_endproc
 331              	.LFE9:
 332              		.size	test_println, .-test_println
 333              		.section	.text.test_emit_token,"ax",%progbits
 334              		.align	2
 335              		.global	test_emit_token
 336              		.syntax unified
 337              		.arm
 338              		.fpu softvfp
 339              		.type	test_emit_token, %function
 340              	test_emit_token:
 341              	.LFB12:
 342              		.loc 1 151 0
ARM GAS  /tmp/cc8DnOcF.s 			page 7


 343              		.cfi_startproc
 344              		@ args = 0, pretend = 0, frame = 0
 345              		@ frame_needed = 0, uses_anonymous_args = 0
 346              		@ link register save eliminated.
 347              	.LVL31:
 348              		.loc 1 153 0
 349              		.syntax divided
 350              	@ 153 "../../test/test.c" 1
 351 0000 9FF021E3 		msr     CPSR_c, #0x9F
 352              	@ 0 "" 2
 353              		.loc 1 154 0
 354              		.arm
 355              		.syntax unified
 356 0004 14309FE5 		ldr	r3, .L45
 357 0008 002093E5 		ldr	r2, [r3]
 358 000c 011082E2 		add	r1, r2, #1
 359 0010 0000C2E5 		strb	r0, [r2]
 360 0014 001083E5 		str	r1, [r3]
 361              		.loc 1 155 0
 362              		.syntax divided
 363              	@ 155 "../../test/test.c" 1
 364 0018 1FF021E3 		msr     CPSR_c, #0x1F
 365              	@ 0 "" 2
 366              		.arm
 367              		.syntax unified
 368 001c 1EFF2FE1 		bx	lr
 369              	.L46:
 370              		.align	2
 371              	.L45:
 372 0020 00000000 		.word	.LANCHOR1
 373              		.cfi_endproc
 374              	.LFE12:
 375              		.size	test_emit_token, .-test_emit_token
 376              		.section	.text._test_fail,"ax",%progbits
 377              		.align	2
 378              		.global	_test_fail
 379              		.syntax unified
 380              		.arm
 381              		.fpu softvfp
 382              		.type	_test_fail, %function
 383              	_test_fail:
 384              	.LFB13:
 385              		.loc 1 161 0
 386              		.cfi_startproc
 387              		@ args = 0, pretend = 0, frame = 0
 388              		@ frame_needed = 0, uses_anonymous_args = 0
 389              		@ link register save eliminated.
 390              	.LVL32:
 391              		.loc 1 163 0
 392 0000 0130A0E3 		mov	r3, #1
 393              		.loc 1 165 0
 394 0004 18C09FE5 		ldr	ip, .L48
 395              		.loc 1 163 0
 396 0008 18109FE5 		ldr	r1, .L48+4
 397              		.loc 1 164 0
 398 000c 18209FE5 		ldr	r2, .L48+8
 399              		.loc 1 165 0
ARM GAS  /tmp/cc8DnOcF.s 			page 8


 400 0010 00008CE5 		str	r0, [ip]
 401              		.loc 1 163 0
 402 0014 003081E5 		str	r3, [r1]
 403              		.loc 1 164 0
 404 0018 003082E5 		str	r3, [r2]
 405              		.loc 1 167 0
 406 001c 0300A0E1 		mov	r0, r3
 407              	.LVL33:
 408 0020 1EFF2FE1 		bx	lr
 409              	.L49:
 410              		.align	2
 411              	.L48:
 412 0024 00000000 		.word	.LANCHOR4
 413 0028 00000000 		.word	.LANCHOR2
 414 002c 00000000 		.word	.LANCHOR3
 415              		.cfi_endproc
 416              	.LFE13:
 417              		.size	_test_fail, .-_test_fail
 418              		.section	.text._test_assert,"ax",%progbits
 419              		.align	2
 420              		.global	_test_assert
 421              		.syntax unified
 422              		.arm
 423              		.fpu softvfp
 424              		.type	_test_assert, %function
 425              	_test_assert:
 426              	.LFB14:
 427              		.loc 1 169 0
 428              		.cfi_startproc
 429              		@ args = 0, pretend = 0, frame = 0
 430              		@ frame_needed = 0, uses_anonymous_args = 0
 431              		@ link register save eliminated.
 432              	.LVL34:
 433              		.loc 1 171 0
 434 0000 000051E3 		cmp	r1, #0
 435              	.LVL35:
 436              	.LBB54:
 437              	.LBB55:
 438              		.loc 1 163 0
 439 0004 0130A003 		moveq	r3, #1
 440              	.LBE55:
 441              	.LBE54:
 442              		.loc 1 173 0
 443 0008 0030A013 		movne	r3, #0
 444              	.LBB57:
 445              	.LBB56:
 446              		.loc 1 163 0
 447 000c 18C09F05 		ldreq	ip, .L53
 448              		.loc 1 164 0
 449 0010 18109F05 		ldreq	r1, .L53+4
 450              	.LVL36:
 451              		.loc 1 165 0
 452 0014 18209F05 		ldreq	r2, .L53+8
 453              		.loc 1 163 0
 454 0018 00308C05 		streq	r3, [ip]
 455              		.loc 1 165 0
 456 001c 00008205 		streq	r0, [r2]
ARM GAS  /tmp/cc8DnOcF.s 			page 9


 457              	.LVL37:
 458              		.loc 1 164 0
 459 0020 00308105 		streq	r3, [r1]
 460              	.LBE56:
 461              	.LBE57:
 462              		.loc 1 174 0
 463 0024 0300A0E1 		mov	r0, r3
 464              	.LVL38:
 465 0028 1EFF2FE1 		bx	lr
 466              	.L54:
 467              		.align	2
 468              	.L53:
 469 002c 00000000 		.word	.LANCHOR2
 470 0030 00000000 		.word	.LANCHOR3
 471 0034 00000000 		.word	.LANCHOR4
 472              		.cfi_endproc
 473              	.LFE14:
 474              		.size	_test_assert, .-_test_assert
 475              		.section	.text._test_assert_sequence,"ax",%progbits
 476              		.align	2
 477              		.global	_test_assert_sequence
 478              		.syntax unified
 479              		.arm
 480              		.fpu softvfp
 481              		.type	_test_assert_sequence, %function
 482              	_test_assert_sequence:
 483              	.LFB15:
 484              		.loc 1 176 0
 485              		.cfi_startproc
 486              		@ args = 0, pretend = 0, frame = 0
 487              		@ frame_needed = 0, uses_anonymous_args = 0
 488              	.LVL39:
 489 0000 30402DE9 		push	{r4, r5, lr}
 490              		.cfi_def_cfa_offset 12
 491              		.cfi_offset 4, -12
 492              		.cfi_offset 5, -8
 493              		.cfi_offset 14, -4
 494 0004 60409FE5 		ldr	r4, .L62
 495              		.loc 1 177 0
 496 0008 60509FE5 		ldr	r5, .L62+4
 497 000c 00E094E5 		ldr	lr, [r4]
 498 0010 0530A0E1 		mov	r3, r5
 499              		.loc 1 178 0
 500 0014 030000EA 		b	.L56
 501              	.LVL40:
 502              	.L58:
 503              		.loc 1 179 0
 504 0018 01C0D3E4 		ldrb	ip, [r3], #1	@ zero_extendqisi2
 505              	.LVL41:
 506 001c 0120D1E4 		ldrb	r2, [r1], #1	@ zero_extendqisi2
 507              	.LVL42:
 508 0020 02005CE1 		cmp	ip, r2
 509 0024 0700001A 		bne	.L59
 510              	.LVL43:
 511              	.L56:
 512              		.loc 1 178 0
 513 0028 0E0053E1 		cmp	r3, lr
ARM GAS  /tmp/cc8DnOcF.s 			page 10


 514 002c F9FFFF3A 		bcc	.L58
 515              		.loc 1 182 0
 516 0030 0030D1E5 		ldrb	r3, [r1]	@ zero_extendqisi2
 517              	.LVL44:
 518 0034 000053E3 		cmp	r3, #0
 519 0038 0200001A 		bne	.L59
 520              	.LBB58:
 521              	.LBB59:
 522              		.loc 1 136 0
 523 003c 005084E5 		str	r5, [r4]
 524              	.LBE59:
 525              	.LBE58:
 526              		.loc 1 186 0
 527 0040 0300A0E1 		mov	r0, r3
 528              	.LVL45:
 529 0044 3080BDE8 		pop	{r4, r5, pc}
 530              	.LVL46:
 531              	.L59:
 532              	.LBB60:
 533              	.LBB61:
 534              		.loc 1 163 0
 535 0048 0130A0E3 		mov	r3, #1
 536 004c 20C09FE5 		ldr	ip, .L62+8
 537              		.loc 1 164 0
 538 0050 20109FE5 		ldr	r1, .L62+12
 539              		.loc 1 165 0
 540 0054 20209FE5 		ldr	r2, .L62+16
 541              		.loc 1 163 0
 542 0058 00308CE5 		str	r3, [ip]
 543              		.loc 1 165 0
 544 005c 000082E5 		str	r0, [r2]
 545              	.LVL47:
 546              		.loc 1 164 0
 547 0060 003081E5 		str	r3, [r1]
 548              	.LBE61:
 549              	.LBE60:
 550              		.loc 1 186 0
 551 0064 0300A0E1 		mov	r0, r3
 552              	.LVL48:
 553 0068 3080BDE8 		pop	{r4, r5, pc}
 554              	.L63:
 555              		.align	2
 556              	.L62:
 557 006c 00000000 		.word	.LANCHOR1
 558 0070 00000000 		.word	.LANCHOR5
 559 0074 00000000 		.word	.LANCHOR2
 560 0078 00000000 		.word	.LANCHOR3
 561 007c 00000000 		.word	.LANCHOR4
 562              		.cfi_endproc
 563              	.LFE15:
 564              		.size	_test_assert_sequence, .-_test_assert_sequence
 565              		.section	.text._test_assert_time_window,"ax",%progbits
 566              		.align	2
 567              		.global	_test_assert_time_window
 568              		.syntax unified
 569              		.arm
 570              		.fpu softvfp
ARM GAS  /tmp/cc8DnOcF.s 			page 11


 571              		.type	_test_assert_time_window, %function
 572              	_test_assert_time_window:
 573              	.LFB16:
 574              		.loc 1 188 0
 575              		.cfi_startproc
 576              		@ args = 0, pretend = 0, frame = 0
 577              		@ frame_needed = 0, uses_anonymous_args = 0
 578              	.LVL49:
 579 0000 0130A0E1 		mov	r3, r1
 580 0004 10402DE9 		push	{r4, lr}
 581              		.cfi_def_cfa_offset 8
 582              		.cfi_offset 4, -8
 583              		.cfi_offset 14, -4
 584              		.loc 1 190 0
 585 0008 0210A0E1 		mov	r1, r2
 586              	.LVL50:
 587              		.loc 1 188 0
 588 000c 0040A0E1 		mov	r4, r0
 589              		.loc 1 190 0
 590 0010 0300A0E1 		mov	r0, r3
 591              	.LVL51:
 592 0014 FEFFFFEB 		bl	chTimeIsWithin
 593              	.LVL52:
 594              	.LBB62:
 595              	.LBB63:
 596              		.loc 1 171 0
 597 0018 000050E3 		cmp	r0, #0
 598              	.LVL53:
 599              	.LBB64:
 600              	.LBB65:
 601              		.loc 1 163 0
 602 001c 0100A003 		moveq	r0, #1
 603              	.LVL54:
 604 0020 18109F05 		ldreq	r1, .L68
 605              		.loc 1 164 0
 606 0024 18209F05 		ldreq	r2, .L68+4
 607              		.loc 1 165 0
 608 0028 18309F05 		ldreq	r3, .L68+8
 609              		.loc 1 163 0
 610 002c 00008105 		streq	r0, [r1]
 611              		.loc 1 164 0
 612 0030 00008205 		streq	r0, [r2]
 613              		.loc 1 165 0
 614 0034 00408305 		streq	r4, [r3]
 615              	.LVL55:
 616              	.LBE65:
 617              	.LBE64:
 618              		.loc 1 173 0
 619 0038 0000A013 		movne	r0, #0
 620              	.LVL56:
 621              	.LBE63:
 622              	.LBE62:
 623              		.loc 1 191 0
 624 003c 1080BDE8 		pop	{r4, pc}
 625              	.L69:
 626              		.align	2
 627              	.L68:
ARM GAS  /tmp/cc8DnOcF.s 			page 12


 628 0040 00000000 		.word	.LANCHOR2
 629 0044 00000000 		.word	.LANCHOR3
 630 0048 00000000 		.word	.LANCHOR4
 631              		.cfi_endproc
 632              	.LFE16:
 633              		.size	_test_assert_time_window, .-_test_assert_time_window
 634              		.section	.text.test_terminate_threads,"ax",%progbits
 635              		.align	2
 636              		.global	test_terminate_threads
 637              		.syntax unified
 638              		.arm
 639              		.fpu softvfp
 640              		.type	test_terminate_threads, %function
 641              	test_terminate_threads:
 642              	.LFB17:
 643              		.loc 1 200 0
 644              		.cfi_startproc
 645              		@ args = 0, pretend = 0, frame = 0
 646              		@ frame_needed = 0, uses_anonymous_args = 0
 647              	.LVL57:
 648 0000 70402DE9 		push	{r4, r5, r6, lr}
 649              		.cfi_def_cfa_offset 16
 650              		.cfi_offset 4, -16
 651              		.cfi_offset 5, -12
 652              		.cfi_offset 6, -8
 653              		.cfi_offset 14, -4
 654 0004 1C409FE5 		ldr	r4, .L78
 655 0008 145084E2 		add	r5, r4, #20
 656              	.LVL58:
 657              	.L72:
 658              		.loc 1 204 0
 659 000c 040094E4 		ldr	r0, [r4], #4
 660 0010 000050E3 		cmp	r0, #0
 661 0014 0000000A 		beq	.L71
 662              		.loc 1 205 0
 663 0018 FEFFFFEB 		bl	chThdTerminate
 664              	.LVL59:
 665              	.L71:
 666              		.loc 1 203 0 discriminator 2
 667 001c 050054E1 		cmp	r4, r5
 668 0020 F9FFFF1A 		bne	.L72
 669              		.loc 1 206 0
 670 0024 7080BDE8 		pop	{r4, r5, r6, pc}
 671              	.L79:
 672              		.align	2
 673              	.L78:
 674 0028 00000000 		.word	threads
 675              		.cfi_endproc
 676              	.LFE17:
 677              		.size	test_terminate_threads, .-test_terminate_threads
 678              		.section	.text.test_wait_threads,"ax",%progbits
 679              		.align	2
 680              		.global	test_wait_threads
 681              		.syntax unified
 682              		.arm
 683              		.fpu softvfp
 684              		.type	test_wait_threads, %function
ARM GAS  /tmp/cc8DnOcF.s 			page 13


 685              	test_wait_threads:
 686              	.LFB18:
 687              		.loc 1 211 0
 688              		.cfi_startproc
 689              		@ args = 0, pretend = 0, frame = 0
 690              		@ frame_needed = 0, uses_anonymous_args = 0
 691              	.LVL60:
 692 0000 70402DE9 		push	{r4, r5, r6, lr}
 693              		.cfi_def_cfa_offset 16
 694              		.cfi_offset 4, -16
 695              		.cfi_offset 5, -12
 696              		.cfi_offset 6, -8
 697              		.cfi_offset 14, -4
 698              		.loc 1 217 0
 699 0004 0060A0E3 		mov	r6, #0
 700 0008 24409FE5 		ldr	r4, .L88
 701 000c 145084E2 		add	r5, r4, #20
 702              	.LVL61:
 703              	.L82:
 704              		.loc 1 215 0
 705 0010 000094E5 		ldr	r0, [r4]
 706 0014 000050E3 		cmp	r0, #0
 707 0018 0100000A 		beq	.L81
 708              		.loc 1 216 0
 709 001c FEFFFFEB 		bl	chThdWait
 710              	.LVL62:
 711              		.loc 1 217 0
 712 0020 006084E5 		str	r6, [r4]
 713              	.L81:
 714 0024 044084E2 		add	r4, r4, #4
 715              		.loc 1 214 0 discriminator 2
 716 0028 050054E1 		cmp	r4, r5
 717 002c F7FFFF1A 		bne	.L82
 718              		.loc 1 219 0
 719 0030 7080BDE8 		pop	{r4, r5, r6, pc}
 720              	.L89:
 721              		.align	2
 722              	.L88:
 723 0034 00000000 		.word	threads
 724              		.cfi_endproc
 725              	.LFE18:
 726              		.size	test_wait_threads, .-test_wait_threads
 727              		.section	.text.test_cpu_pulse,"ax",%progbits
 728              		.align	2
 729              		.global	test_cpu_pulse
 730              		.syntax unified
 731              		.arm
 732              		.fpu softvfp
 733              		.type	test_cpu_pulse, %function
 734              	test_cpu_pulse:
 735              	.LFB19:
 736              		.loc 1 228 0
 737              		.cfi_startproc
 738              		@ args = 0, pretend = 0, frame = 0
 739              		@ frame_needed = 0, uses_anonymous_args = 0
 740              		@ link register save eliminated.
 741              	.LVL63:
ARM GAS  /tmp/cc8DnOcF.s 			page 14


 742              		.loc 1 232 0
 743 0000 FA3FA0E3 		mov	r3, #1000
 744 0004 930003E0 		mul	r3, r3, r0
 745              		.loc 1 231 0
 746 0008 64209FE5 		ldr	r2, .L97
 747              		.loc 1 232 0
 748 000c 64109FE5 		ldr	r1, .L97+4
 749              		.loc 1 231 0
 750 0010 18C092E5 		ldr	ip, [r2, #24]
 751              		.loc 1 232 0
 752 0014 FA3F43E2 		sub	r3, r3, #1000
 753 0018 912383E0 		umull	r2, r3, r1, r3
 754              		.loc 1 231 0
 755 001c 20009CE5 		ldr	r0, [ip, #32]
 756              	.LVL64:
 757              		.loc 1 232 0
 758 0020 011080E2 		add	r1, r0, #1
 759 0024 231381E0 		add	r1, r1, r3, lsr #6
 760              	.LVL65:
 761 0028 060000EA 		b	.L93
 762              	.LVL66:
 763              	.L96:
 764              		.loc 1 239 0 discriminator 1
 765 002c 020050E1 		cmp	r0, r2
 766 0030 0130A093 		movls	r3, #1
 767 0034 0030A083 		movhi	r3, #0
 768 0038 020051E1 		cmp	r1, r2
 769 003c 0030A093 		movls	r3, #0
 770              		.loc 1 240 0 discriminator 1
 771 0040 000053E3 		cmp	r3, #0
 772 0044 0900000A 		beq	.L95
 773              	.LVL67:
 774              	.L93:
 775              		.loc 1 239 0
 776 0048 010050E1 		cmp	r0, r1
 777              		.loc 1 234 0
 778 004c 20209CE5 		ldr	r2, [ip, #32]
 779              	.LVL68:
 780              		.loc 1 239 0
 781 0050 F5FFFF3A 		bcc	.L96
 782              		.loc 1 240 0 discriminator 2
 783 0054 020051E1 		cmp	r1, r2
 784 0058 0030A093 		movls	r3, #0
 785 005c 0130A083 		movhi	r3, #1
 786 0060 020050E1 		cmp	r0, r2
 787 0064 01308393 		orrls	r3, r3, #1
 788 0068 000053E3 		cmp	r3, #0
 789 006c F5FFFF1A 		bne	.L93
 790              	.L95:
 791              		.loc 1 241 0
 792 0070 1EFF2FE1 		bx	lr
 793              	.L98:
 794              		.align	2
 795              	.L97:
 796 0074 00000000 		.word	rlist
 797 0078 D34D6210 		.word	274877907
 798              		.cfi_endproc
ARM GAS  /tmp/cc8DnOcF.s 			page 15


 799              	.LFE19:
 800              		.size	test_cpu_pulse, .-test_cpu_pulse
 801              		.section	.text.test_wait_tick,"ax",%progbits
 802              		.align	2
 803              		.global	test_wait_tick
 804              		.syntax unified
 805              		.arm
 806              		.fpu softvfp
 807              		.type	test_wait_tick, %function
 808              	test_wait_tick:
 809              	.LFB20:
 810              		.loc 1 249 0
 811              		.cfi_startproc
 812              		@ args = 0, pretend = 0, frame = 0
 813              		@ frame_needed = 0, uses_anonymous_args = 0
 814 0000 10402DE9 		push	{r4, lr}
 815              		.cfi_def_cfa_offset 8
 816              		.cfi_offset 4, -8
 817              		.cfi_offset 14, -4
 818              		.loc 1 251 0
 819 0004 0100A0E3 		mov	r0, #1
 820 0008 FEFFFFEB 		bl	chThdSleep
 821              	.LVL69:
 822              		.loc 1 252 0
 823 000c 04309FE5 		ldr	r3, .L101
 824 0010 0C0093E5 		ldr	r0, [r3, #12]
 825              		.loc 1 253 0
 826 0014 1080BDE8 		pop	{r4, pc}
 827              	.L102:
 828              		.align	2
 829              	.L101:
 830 0018 00000000 		.word	vtlist
 831              		.cfi_endproc
 832              	.LFE20:
 833              		.size	test_wait_tick, .-test_wait_tick
 834              		.section	.text.test_start_timer,"ax",%progbits
 835              		.align	2
 836              		.global	test_start_timer
 837              		.syntax unified
 838              		.arm
 839              		.fpu softvfp
 840              		.type	test_start_timer, %function
 841              	test_start_timer:
 842              	.LFB22:
 843              		.loc 1 276 0
 844              		.cfi_startproc
 845              		@ args = 0, pretend = 0, frame = 0
 846              		@ frame_needed = 0, uses_anonymous_args = 0
 847              	.LVL70:
 848              		.loc 1 279 0
 849 0000 0030A0E3 		mov	r3, #0
 850 0004 38209FE5 		ldr	r2, .L105
 851              	.LVL71:
 852              		.loc 1 276 0
 853 0008 10402DE9 		push	{r4, lr}
 854              		.cfi_def_cfa_offset 8
 855              		.cfi_offset 4, -8
ARM GAS  /tmp/cc8DnOcF.s 			page 16


 856              		.cfi_offset 14, -4
 857              		.loc 1 279 0
 858 000c 003082E5 		str	r3, [r2]
 859              		.loc 1 280 0
 860              		.syntax divided
 861              	@ 280 "../../test/test.c" 1
 862 0010 9FF021E3 		msr     CPSR_c, #0x9F
 863              	@ 0 "" 2
 864              		.loc 1 278 0
 865              		.arm
 866              		.syntax unified
 867 0014 FA1FA0E3 		mov	r1, #1000
 868 0018 910001E0 		mul	r1, r1, r0
 869 001c 24009FE5 		ldr	r0, .L105+4
 870              	.LVL72:
 871 0020 FA1F41E2 		sub	r1, r1, #1000
 872 0024 902181E0 		umull	r2, r1, r0, r1
 873 0028 2113A0E1 		lsr	r1, r1, #6
 874              		.loc 1 280 0
 875 002c 011081E2 		add	r1, r1, #1
 876 0030 14209FE5 		ldr	r2, .L105+8
 877 0034 14009FE5 		ldr	r0, .L105+12
 878 0038 FEFFFFEB 		bl	chVTSetI
 879              	.LVL73:
 880              		.syntax divided
 881              	@ 280 "../../test/test.c" 1
 882 003c 1FF021E3 		msr     CPSR_c, #0x1F
 883              	@ 0 "" 2
 884              		.arm
 885              		.syntax unified
 886 0040 1080BDE8 		pop	{r4, pc}
 887              	.L106:
 888              		.align	2
 889              	.L105:
 890 0044 00000000 		.word	test_timer_done
 891 0048 D34D6210 		.word	274877907
 892 004c 00000000 		.word	tmr
 893 0050 00000000 		.word	.LANCHOR6
 894              		.cfi_endproc
 895              	.LFE22:
 896              		.size	test_start_timer, .-test_start_timer
 897              		.section	.text.TestThread,"ax",%progbits
 898              		.align	2
 899              		.global	TestThread
 900              		.syntax unified
 901              		.arm
 902              		.fpu softvfp
 903              		.type	TestThread, %function
 904              	TestThread:
 905              	.LFB25:
 906              		.loc 1 318 0
 907              		.cfi_startproc
 908              		@ args = 0, pretend = 0, frame = 16
 909              		@ frame_needed = 0, uses_anonymous_args = 0
 910              	.LVL74:
 911 0000 F04F2DE9 		push	{r4, r5, r6, r7, r8, r9, r10, fp, lr}
 912              		.cfi_def_cfa_offset 36
ARM GAS  /tmp/cc8DnOcF.s 			page 17


 913              		.cfi_offset 4, -36
 914              		.cfi_offset 5, -32
 915              		.cfi_offset 6, -28
 916              		.cfi_offset 7, -24
 917              		.cfi_offset 8, -20
 918              		.cfi_offset 9, -16
 919              		.cfi_offset 10, -12
 920              		.cfi_offset 11, -8
 921              		.cfi_offset 14, -4
 922              		.loc 1 321 0
 923 0004 DC439FE5 		ldr	r4, .L157
 924              		.loc 1 318 0
 925 0008 14D04DE2 		sub	sp, sp, #20
 926              		.cfi_def_cfa_offset 56
 927              		.loc 1 321 0
 928 000c 000084E5 		str	r0, [r4]
 929              		.loc 1 322 0
 930 0010 D4039FE5 		ldr	r0, .L157+4
 931              	.LVL75:
 932 0014 FEFFFFEB 		bl	test_println
 933              	.LVL76:
 934              		.loc 1 323 0
 935 0018 D0039FE5 		ldr	r0, .L157+8
 936 001c FEFFFFEB 		bl	test_println
 937              	.LVL77:
 938              		.loc 1 324 0
 939 0020 CC039FE5 		ldr	r0, .L157+12
 940 0024 FEFFFFEB 		bl	test_println
 941              	.LVL78:
 942 0028 2A10A0E3 		mov	r1, #42
 943 002c C4539FE5 		ldr	r5, .L157+16
 944              	.LVL79:
 945              	.L108:
 946              	.LBB100:
 947              	.LBB101:
 948              		.loc 1 117 0
 949 0030 000094E5 		ldr	r0, [r4]
 950 0034 003090E5 		ldr	r3, [r0]
 951 0038 083093E5 		ldr	r3, [r3, #8]
 952 003c 33FF2FE1 		blx	r3
 953              	.LVL80:
 954              		.loc 1 116 0
 955 0040 0110F5E5 		ldrb	r1, [r5, #1]!	@ zero_extendqisi2
 956              	.LVL81:
 957 0044 000051E3 		cmp	r1, #0
 958 0048 F8FFFF1A 		bne	.L108
 959              	.LVL82:
 960              	.LBE101:
 961              	.LBE100:
 962              		.loc 1 326 0
 963 004c A8039FE5 		ldr	r0, .L157+20
 964 0050 FEFFFFEB 		bl	test_println
 965              	.LVL83:
 966 0054 2A10A0E3 		mov	r1, #42
 967 0058 A0539FE5 		ldr	r5, .L157+24
 968              	.LVL84:
 969              	.L109:
ARM GAS  /tmp/cc8DnOcF.s 			page 18


 970              	.LBB102:
 971              	.LBB103:
 972              		.loc 1 117 0
 973 005c 000094E5 		ldr	r0, [r4]
 974 0060 003090E5 		ldr	r3, [r0]
 975 0064 083093E5 		ldr	r3, [r3, #8]
 976 0068 33FF2FE1 		blx	r3
 977              	.LVL85:
 978              		.loc 1 116 0
 979 006c 0110F5E5 		ldrb	r1, [r5, #1]!	@ zero_extendqisi2
 980              	.LVL86:
 981 0070 000051E3 		cmp	r1, #0
 982 0074 F8FFFF1A 		bne	.L109
 983              	.LVL87:
 984              	.LBE103:
 985              	.LBE102:
 986              		.loc 1 328 0
 987 0078 84039FE5 		ldr	r0, .L157+28
 988 007c FEFFFFEB 		bl	test_println
 989              	.LVL88:
 990 0080 2A10A0E3 		mov	r1, #42
 991 0084 7C539FE5 		ldr	r5, .L157+32
 992              	.LVL89:
 993              	.L110:
 994              	.LBB104:
 995              	.LBB105:
 996              		.loc 1 117 0
 997 0088 000094E5 		ldr	r0, [r4]
 998 008c 003090E5 		ldr	r3, [r0]
 999 0090 083093E5 		ldr	r3, [r3, #8]
 1000 0094 33FF2FE1 		blx	r3
 1001              	.LVL90:
 1002              		.loc 1 116 0
 1003 0098 0110F5E5 		ldrb	r1, [r5, #1]!	@ zero_extendqisi2
 1004              	.LVL91:
 1005 009c 000051E3 		cmp	r1, #0
 1006 00a0 F8FFFF1A 		bne	.L110
 1007              	.LVL92:
 1008              	.LBE105:
 1009              	.LBE104:
 1010              		.loc 1 331 0
 1011 00a4 60039FE5 		ldr	r0, .L157+36
 1012 00a8 FEFFFFEB 		bl	test_println
 1013              	.LVL93:
 1014 00ac 2A10A0E3 		mov	r1, #42
 1015 00b0 58539FE5 		ldr	r5, .L157+40
 1016              	.LVL94:
 1017              	.L111:
 1018              	.LBB106:
 1019              	.LBB107:
 1020              		.loc 1 117 0
 1021 00b4 000094E5 		ldr	r0, [r4]
 1022 00b8 003090E5 		ldr	r3, [r0]
 1023 00bc 083093E5 		ldr	r3, [r3, #8]
 1024 00c0 33FF2FE1 		blx	r3
 1025              	.LVL95:
 1026              		.loc 1 116 0
ARM GAS  /tmp/cc8DnOcF.s 			page 19


 1027 00c4 0110F5E5 		ldrb	r1, [r5, #1]!	@ zero_extendqisi2
 1028              	.LVL96:
 1029 00c8 000051E3 		cmp	r1, #0
 1030 00cc F8FFFF1A 		bne	.L111
 1031              	.LVL97:
 1032              	.LBE107:
 1033              	.LBE106:
 1034              		.loc 1 334 0
 1035 00d0 3C039FE5 		ldr	r0, .L157+44
 1036 00d4 FEFFFFEB 		bl	test_println
 1037              	.LVL98:
 1038 00d8 2A10A0E3 		mov	r1, #42
 1039 00dc 34539FE5 		ldr	r5, .L157+48
 1040              	.LVL99:
 1041              	.L112:
 1042              	.LBB108:
 1043              	.LBB109:
 1044              		.loc 1 117 0
 1045 00e0 000094E5 		ldr	r0, [r4]
 1046 00e4 003090E5 		ldr	r3, [r0]
 1047 00e8 083093E5 		ldr	r3, [r3, #8]
 1048 00ec 33FF2FE1 		blx	r3
 1049              	.LVL100:
 1050              		.loc 1 116 0
 1051 00f0 0110F5E5 		ldrb	r1, [r5, #1]!	@ zero_extendqisi2
 1052              	.LVL101:
 1053 00f4 000051E3 		cmp	r1, #0
 1054 00f8 F8FFFF1A 		bne	.L112
 1055              	.LVL102:
 1056              	.LBE109:
 1057              	.LBE108:
 1058              		.loc 1 337 0
 1059 00fc 18039FE5 		ldr	r0, .L157+52
 1060 0100 FEFFFFEB 		bl	test_println
 1061              	.LVL103:
 1062 0104 2A10A0E3 		mov	r1, #42
 1063 0108 10539FE5 		ldr	r5, .L157+56
 1064              	.LVL104:
 1065              	.L113:
 1066              	.LBB110:
 1067              	.LBB111:
 1068              		.loc 1 117 0
 1069 010c 000094E5 		ldr	r0, [r4]
 1070 0110 003090E5 		ldr	r3, [r0]
 1071 0114 083093E5 		ldr	r3, [r3, #8]
 1072 0118 33FF2FE1 		blx	r3
 1073              	.LVL105:
 1074              		.loc 1 116 0
 1075 011c 0110F5E5 		ldrb	r1, [r5, #1]!	@ zero_extendqisi2
 1076              	.LVL106:
 1077 0120 000051E3 		cmp	r1, #0
 1078 0124 F8FFFF1A 		bne	.L113
 1079              	.LVL107:
 1080              	.LBE111:
 1081              	.LBE110:
 1082              		.loc 1 341 0
 1083 0128 F4029FE5 		ldr	r0, .L157+60
ARM GAS  /tmp/cc8DnOcF.s 			page 20


 1084 012c FEFFFFEB 		bl	test_println
 1085              	.LVL108:
 1086 0130 2A10A0E3 		mov	r1, #42
 1087 0134 EC529FE5 		ldr	r5, .L157+64
 1088              	.LVL109:
 1089              	.L114:
 1090              	.LBB112:
 1091              	.LBB113:
 1092              		.loc 1 117 0
 1093 0138 000094E5 		ldr	r0, [r4]
 1094 013c 003090E5 		ldr	r3, [r0]
 1095 0140 083093E5 		ldr	r3, [r3, #8]
 1096 0144 33FF2FE1 		blx	r3
 1097              	.LVL110:
 1098              		.loc 1 116 0
 1099 0148 0110F5E5 		ldrb	r1, [r5, #1]!	@ zero_extendqisi2
 1100              	.LVL111:
 1101 014c 000051E3 		cmp	r1, #0
 1102 0150 F8FFFF1A 		bne	.L114
 1103              	.LBE113:
 1104              	.LBE112:
 1105              		.loc 1 345 0
 1106 0154 D0029FE5 		ldr	r0, .L157+68
 1107 0158 04108DE5 		str	r1, [sp, #4]
 1108              	.LVL112:
 1109 015c FEFFFFEB 		bl	test_println
 1110              	.LVL113:
 1111              		.loc 1 351 0
 1112 0160 84029FE5 		ldr	r0, .L157+4
 1113 0164 FEFFFFEB 		bl	test_println
 1114              	.LVL114:
 1115              		.loc 1 353 0
 1116 0168 C0329FE5 		ldr	r3, .L157+72
 1117 016c 04109DE5 		ldr	r1, [sp, #4]
 1118 0170 BC829FE5 		ldr	r8, .L157+76
 1119 0174 001083E5 		str	r1, [r3]
 1120              	.LVL115:
 1121 0178 B8329FE5 		ldr	r3, .L157+80
 1122              	.LBB114:
 1123              	.LBB115:
 1124              	.LBB116:
 1125              	.LBB117:
 1126              		.loc 1 136 0
 1127 017c B8629FE5 		ldr	r6, .L157+84
 1128 0180 08308DE5 		str	r3, [sp, #8]
 1129              	.LBE117:
 1130              	.LBE116:
 1131              	.LBE115:
 1132              	.LBE114:
 1133              		.loc 1 353 0
 1134 0184 B4329FE5 		ldr	r3, .L157+88
 1135              	.LBB125:
 1136              	.LBB122:
 1137              	.LBB120:
 1138              	.LBB118:
 1139              		.loc 1 136 0
 1140 0188 B4B29FE5 		ldr	fp, .L157+92
ARM GAS  /tmp/cc8DnOcF.s 			page 21


 1141              	.LBE118:
 1142              	.LBE120:
 1143              		.loc 1 291 0
 1144 018c B4A29FE5 		ldr	r10, .L157+96
 1145              		.loc 1 293 0
 1146 0190 B4729FE5 		ldr	r7, .L157+100
 1147              	.LBE122:
 1148              	.LBE125:
 1149              		.loc 1 353 0
 1150 0194 0C308DE5 		str	r3, [sp, #12]
 1151              	.LVL116:
 1152              	.L115:
 1153              	.LBB126:
 1154              	.LBB127:
 1155              		.loc 1 142 0
 1156 0198 0090A0E3 		mov	r9, #0
 1157 019c 04309DE5 		ldr	r3, [sp, #4]
 1158 01a0 048048E2 		sub	r8, r8, #4
 1159 01a4 013083E2 		add	r3, r3, #1
 1160 01a8 04308DE5 		str	r3, [sp, #4]
 1161              	.LVL117:
 1162              	.L133:
 1163              	.LBE127:
 1164              	.LBE126:
 1165              		.loc 1 357 0
 1166 01ac 043098E5 		ldr	r3, [r8, #4]
 1167 01b0 000053E3 		cmp	r3, #0
 1168 01b4 6900000A 		beq	.L156
 1169              	.L131:
 1170              		.loc 1 358 0
 1171 01b8 FEFFFFEB 		bl	print_line
 1172              	.LVL118:
 1173 01bc 2D10A0E3 		mov	r1, #45
 1174 01c0 88529FE5 		ldr	r5, .L157+104
 1175              	.LVL119:
 1176              	.L116:
 1177              	.LBB129:
 1178              	.LBB130:
 1179              		.loc 1 117 0
 1180 01c4 000094E5 		ldr	r0, [r4]
 1181 01c8 003090E5 		ldr	r3, [r0]
 1182 01cc 083093E5 		ldr	r3, [r3, #8]
 1183 01d0 33FF2FE1 		blx	r3
 1184              	.LVL120:
 1185              		.loc 1 116 0
 1186 01d4 0110F5E5 		ldrb	r1, [r5, #1]!	@ zero_extendqisi2
 1187              	.LVL121:
 1188 01d8 000051E3 		cmp	r1, #0
 1189 01dc F8FFFF1A 		bne	.L116
 1190              	.LVL122:
 1191              	.LBE130:
 1192              	.LBE129:
 1193              		.loc 1 360 0
 1194 01e0 04009DE5 		ldr	r0, [sp, #4]
 1195 01e4 FEFFFFEB 		bl	test_printn
 1196              	.LVL123:
 1197              	.LBB131:
ARM GAS  /tmp/cc8DnOcF.s 			page 22


 1198              	.LBB132:
 1199              		.loc 1 117 0
 1200 01e8 000094E5 		ldr	r0, [r4]
 1201              	.LVL124:
 1202 01ec 2E10A0E3 		mov	r1, #46
 1203 01f0 003090E5 		ldr	r3, [r0]
 1204              	.LBE132:
 1205              	.LBE131:
 1206              		.loc 1 362 0
 1207 01f4 019089E2 		add	r9, r9, #1
 1208              	.LVL125:
 1209              	.LBB134:
 1210              	.LBB133:
 1211              		.loc 1 117 0
 1212 01f8 083093E5 		ldr	r3, [r3, #8]
 1213 01fc 33FF2FE1 		blx	r3
 1214              	.LVL126:
 1215              	.LBE133:
 1216              	.LBE134:
 1217              		.loc 1 362 0
 1218 0200 0900A0E1 		mov	r0, r9
 1219 0204 FEFFFFEB 		bl	test_printn
 1220              	.LVL127:
 1221 0208 2010A0E3 		mov	r1, #32
 1222 020c 40529FE5 		ldr	r5, .L157+108
 1223              	.LVL128:
 1224              	.L117:
 1225              	.LBB135:
 1226              	.LBB136:
 1227              		.loc 1 117 0
 1228 0210 000094E5 		ldr	r0, [r4]
 1229 0214 003090E5 		ldr	r3, [r0]
 1230 0218 083093E5 		ldr	r3, [r3, #8]
 1231 021c 33FF2FE1 		blx	r3
 1232              	.LVL129:
 1233              		.loc 1 116 0
 1234 0220 0110F5E5 		ldrb	r1, [r5, #1]!	@ zero_extendqisi2
 1235              	.LVL130:
 1236 0224 000051E3 		cmp	r1, #0
 1237 0228 F8FFFF1A 		bne	.L117
 1238              	.LVL131:
 1239              	.LBE136:
 1240              	.LBE135:
 1241              		.loc 1 364 0
 1242 022c 0430B8E5 		ldr	r3, [r8, #4]!
 1243 0230 005093E5 		ldr	r5, [r3]
 1244              	.LVL132:
 1245              	.LBB137:
 1246              	.LBB138:
 1247              		.loc 1 116 0
 1248 0234 0010D5E5 		ldrb	r1, [r5]	@ zero_extendqisi2
 1249 0238 000051E3 		cmp	r1, #0
 1250 023c 0600000A 		beq	.L122
 1251              	.LVL133:
 1252              	.L121:
 1253              		.loc 1 117 0
 1254 0240 000094E5 		ldr	r0, [r4]
ARM GAS  /tmp/cc8DnOcF.s 			page 23


 1255 0244 003090E5 		ldr	r3, [r0]
 1256 0248 083093E5 		ldr	r3, [r3, #8]
 1257 024c 33FF2FE1 		blx	r3
 1258              	.LVL134:
 1259              		.loc 1 116 0
 1260 0250 0110F5E5 		ldrb	r1, [r5, #1]!	@ zero_extendqisi2
 1261              	.LVL135:
 1262 0254 000051E3 		cmp	r1, #0
 1263 0258 F8FFFF1A 		bne	.L121
 1264              	.LVL136:
 1265              	.L122:
 1266              	.LBE138:
 1267              	.LBE137:
 1268              		.loc 1 365 0
 1269 025c F4019FE5 		ldr	r0, .L157+112
 1270 0260 FEFFFFEB 		bl	test_println
 1271              	.LVL137:
 1272              		.loc 1 367 0
 1273 0264 C800A0E3 		mov	r0, #200
 1274 0268 FEFFFFEB 		bl	chThdSleep
 1275              	.LVL138:
 1276              	.LBB139:
 1277              	.LBB123:
 1278              		.loc 1 291 0
 1279 026c 0030A0E3 		mov	r3, #0
 1280              	.LBE123:
 1281              	.LBE139:
 1282              		.loc 1 369 0
 1283 0270 005098E5 		ldr	r5, [r8]
 1284              	.LVL139:
 1285              	.LBB140:
 1286              	.LBB124:
 1287              	.LBB121:
 1288              	.LBB119:
 1289              		.loc 1 136 0
 1290 0274 00B086E5 		str	fp, [r6]
 1291              	.LBE119:
 1292              	.LBE121:
 1293              		.loc 1 295 0
 1294 0278 042095E5 		ldr	r2, [r5, #4]
 1295              		.loc 1 291 0
 1296 027c 00308AE5 		str	r3, [r10]
 1297              	.LVL140:
 1298              		.loc 1 295 0
 1299 0280 030052E1 		cmp	r2, r3
 1300              		.loc 1 293 0
 1301 0284 003087E5 		str	r3, [r7]
 1302              	.LVL141:
 1303 0288 043087E5 		str	r3, [r7, #4]
 1304              	.LVL142:
 1305 028c 083087E5 		str	r3, [r7, #8]
 1306              	.LVL143:
 1307 0290 0C3087E5 		str	r3, [r7, #12]
 1308              	.LVL144:
 1309 0294 103087E5 		str	r3, [r7, #16]
 1310              	.LVL145:
 1311              		.loc 1 295 0
ARM GAS  /tmp/cc8DnOcF.s 			page 24


 1312 0298 0000000A 		beq	.L120
 1313              		.loc 1 296 0
 1314 029c 32FF2FE1 		blx	r2
 1315              	.LVL146:
 1316              	.L120:
 1317              		.loc 1 297 0
 1318 02a0 0C3095E5 		ldr	r3, [r5, #12]
 1319 02a4 33FF2FE1 		blx	r3
 1320              	.LVL147:
 1321              		.loc 1 298 0
 1322 02a8 083095E5 		ldr	r3, [r5, #8]
 1323 02ac 000053E3 		cmp	r3, #0
 1324 02b0 0000000A 		beq	.L123
 1325              		.loc 1 299 0
 1326 02b4 33FF2FE1 		blx	r3
 1327              	.LVL148:
 1328              	.L123:
 1329              		.loc 1 301 0
 1330 02b8 FEFFFFEB 		bl	test_wait_threads
 1331              	.LVL149:
 1332              	.LBE124:
 1333              	.LBE140:
 1334              		.loc 1 370 0
 1335 02bc 00309AE5 		ldr	r3, [r10]
 1336 02c0 000053E3 		cmp	r3, #0
 1337 02c4 2E00000A 		beq	.L124
 1338 02c8 2D10A0E3 		mov	r1, #45
 1339 02cc 88519FE5 		ldr	r5, .L157+116
 1340              	.L125:
 1341              	.LVL150:
 1342              	.LBB141:
 1343              	.LBB142:
 1344              		.loc 1 117 0
 1345 02d0 000094E5 		ldr	r0, [r4]
 1346 02d4 003090E5 		ldr	r3, [r0]
 1347 02d8 083093E5 		ldr	r3, [r3, #8]
 1348 02dc 33FF2FE1 		blx	r3
 1349              	.LVL151:
 1350              		.loc 1 116 0
 1351 02e0 0110F5E5 		ldrb	r1, [r5, #1]!	@ zero_extendqisi2
 1352              	.LVL152:
 1353 02e4 000051E3 		cmp	r1, #0
 1354 02e8 F8FFFF1A 		bne	.L125
 1355              	.LVL153:
 1356              	.LBE142:
 1357              	.LBE141:
 1358              		.loc 1 372 0
 1359 02ec 6C319FE5 		ldr	r3, .L157+120
 1360 02f0 6C519FE5 		ldr	r5, .L157+124
 1361 02f4 000093E5 		ldr	r0, [r3]
 1362 02f8 FEFFFFEB 		bl	test_printn
 1363              	.LVL154:
 1364 02fc 2010A0E3 		mov	r1, #32
 1365              	.LVL155:
 1366              	.L126:
 1367              	.LBB143:
 1368              	.LBB144:
ARM GAS  /tmp/cc8DnOcF.s 			page 25


 1369              		.loc 1 117 0
 1370 0300 000094E5 		ldr	r0, [r4]
 1371 0304 003090E5 		ldr	r3, [r0]
 1372 0308 083093E5 		ldr	r3, [r3, #8]
 1373 030c 33FF2FE1 		blx	r3
 1374              	.LVL156:
 1375              		.loc 1 116 0
 1376 0310 0110F5E5 		ldrb	r1, [r5, #1]!	@ zero_extendqisi2
 1377              	.LVL157:
 1378 0314 000051E3 		cmp	r1, #0
 1379 0318 F8FFFF1A 		bne	.L126
 1380              	.LVL158:
 1381              	.LBE144:
 1382              	.LBE143:
 1383              	.LBB145:
 1384              	.LBB128:
 1385              		.loc 1 142 0
 1386 031c 003096E5 		ldr	r3, [r6]
 1387 0320 0B0053E1 		cmp	r3, fp
 1388 0324 18519F85 		ldrhi	r5, .L157+92
 1389              	.LVL159:
 1390 0328 0700009A 		bls	.L130
 1391              	.LVL160:
 1392              	.L129:
 1393              		.loc 1 143 0
 1394 032c 000094E5 		ldr	r0, [r4]
 1395 0330 0110D5E4 		ldrb	r1, [r5], #1	@ zero_extendqisi2
 1396              	.LVL161:
 1397 0334 003090E5 		ldr	r3, [r0]
 1398 0338 083093E5 		ldr	r3, [r3, #8]
 1399 033c 33FF2FE1 		blx	r3
 1400              	.LVL162:
 1401              		.loc 1 142 0
 1402 0340 003096E5 		ldr	r3, [r6]
 1403 0344 030055E1 		cmp	r5, r3
 1404 0348 F7FFFF3A 		bcc	.L129
 1405              	.LVL163:
 1406              	.L130:
 1407              	.LBE128:
 1408              	.LBE145:
 1409              		.loc 1 375 0
 1410 034c 14019FE5 		ldr	r0, .L157+128
 1411 0350 FEFFFFEB 		bl	test_println
 1412              	.LVL164:
 1413              		.loc 1 357 0
 1414 0354 043098E5 		ldr	r3, [r8, #4]
 1415 0358 000053E3 		cmp	r3, #0
 1416 035c 95FFFF1A 		bne	.L131
 1417              	.L156:
 1418              	.LVL165:
 1419              		.loc 1 355 0
 1420 0360 0C309DE5 		ldr	r3, [sp, #12]
 1421 0364 000053E3 		cmp	r3, #0
 1422 0368 0800000A 		beq	.L132
 1423              		.loc 1 381 0
 1424 036c 0380A0E1 		mov	r8, r3
 1425 0370 08309DE5 		ldr	r3, [sp, #8]
ARM GAS  /tmp/cc8DnOcF.s 			page 26


 1426 0374 0420B3E5 		ldr	r2, [r3, #4]!
 1427 0378 0C208DE5 		str	r2, [sp, #12]
 1428 037c 08308DE5 		str	r3, [sp, #8]
 1429 0380 84FFFFEA 		b	.L115
 1430              	.LVL166:
 1431              	.L124:
 1432              		.loc 1 378 0
 1433 0384 E0009FE5 		ldr	r0, .L157+132
 1434 0388 FEFFFFEB 		bl	test_println
 1435              	.LVL167:
 1436 038c 86FFFFEA 		b	.L133
 1437              	.LVL168:
 1438              	.L132:
 1439              		.loc 1 383 0
 1440 0390 FEFFFFEB 		bl	print_line
 1441              	.LVL169:
 1442              		.loc 1 384 0
 1443 0394 50009FE5 		ldr	r0, .L157+4
 1444 0398 FEFFFFEB 		bl	test_println
 1445              	.LVL170:
 1446 039c 4610A0E3 		mov	r1, #70
 1447 03a0 C8509FE5 		ldr	r5, .L157+136
 1448              	.LVL171:
 1449              	.L134:
 1450              	.LBB146:
 1451              	.LBB147:
 1452              		.loc 1 117 0
 1453 03a4 000094E5 		ldr	r0, [r4]
 1454 03a8 003090E5 		ldr	r3, [r0]
 1455 03ac 083093E5 		ldr	r3, [r3, #8]
 1456 03b0 33FF2FE1 		blx	r3
 1457              	.LVL172:
 1458              		.loc 1 116 0
 1459 03b4 0110F5E5 		ldrb	r1, [r5, #1]!	@ zero_extendqisi2
 1460              	.LVL173:
 1461 03b8 000051E3 		cmp	r1, #0
 1462 03bc F8FFFF1A 		bne	.L134
 1463              	.LVL174:
 1464              	.LBE147:
 1465              	.LBE146:
 1466              		.loc 1 386 0
 1467 03c0 68309FE5 		ldr	r3, .L157+72
 1468 03c4 003093E5 		ldr	r3, [r3]
 1469 03c8 000053E3 		cmp	r3, #0
 1470              		.loc 1 387 0
 1471 03cc A0009F15 		ldrne	r0, .L157+140
 1472              		.loc 1 389 0
 1473 03d0 A0009F05 		ldreq	r0, .L157+144
 1474 03d4 FEFFFFEB 		bl	test_println
 1475              	.LVL175:
 1476              		.loc 1 392 0
 1477 03d8 50309FE5 		ldr	r3, .L157+72
 1478 03dc 000093E5 		ldr	r0, [r3]
 1479 03e0 14D08DE2 		add	sp, sp, #20
 1480              		.cfi_def_cfa_offset 36
 1481              		@ sp needed
 1482 03e4 F08FBDE8 		pop	{r4, r5, r6, r7, r8, r9, r10, fp, pc}
ARM GAS  /tmp/cc8DnOcF.s 			page 27


 1483              	.LVL176:
 1484              	.L158:
 1485              		.align	2
 1486              	.L157:
 1487 03e8 00000000 		.word	.LANCHOR0
 1488 03ec CC000000 		.word	.LC13
 1489 03f0 D0000000 		.word	.LC14
 1490 03f4 EC000000 		.word	.LC15
 1491 03f8 00000000 		.word	.LC1
 1492 03fc F0000000 		.word	.LC16
 1493 0400 14000000 		.word	.LC2
 1494 0404 00010000 		.word	.LC17
 1495 0408 28000000 		.word	.LC3
 1496 040c 18010000 		.word	.LC18
 1497 0410 3C000000 		.word	.LC4
 1498 0414 2C010000 		.word	.LC19
 1499 0418 50000000 		.word	.LC5
 1500 041c 34010000 		.word	.LC20
 1501 0420 64000000 		.word	.LC6
 1502 0424 44010000 		.word	.LC21
 1503 0428 78000000 		.word	.LC7
 1504 042c 54010000 		.word	.LC22
 1505 0430 00000000 		.word	.LANCHOR3
 1506 0434 00000000 		.word	patternthd
 1507 0438 04000000 		.word	.LANCHOR7+4
 1508 043c 00000000 		.word	.LANCHOR1
 1509 0440 00000000 		.word	patternsem
 1510 0444 00000000 		.word	.LANCHOR5
 1511 0448 00000000 		.word	.LANCHOR2
 1512 044c 00000000 		.word	threads
 1513 0450 8C000000 		.word	.LC8
 1514 0454 9C000000 		.word	.LC9
 1515 0458 5C010000 		.word	.LC23
 1516 045c A0000000 		.word	.LC10
 1517 0460 00000000 		.word	.LANCHOR4
 1518 0464 B8000000 		.word	.LC11
 1519 0468 60010000 		.word	.LC24
 1520 046c 64010000 		.word	.LC25
 1521 0470 BC000000 		.word	.LC12
 1522 0474 78010000 		.word	.LC26
 1523 0478 80010000 		.word	.LC27
 1524              		.cfi_endproc
 1525              	.LFE25:
 1526              		.size	TestThread, .-TestThread
 1527              		.comm	test_timer_done,4,4
 1528              		.global	wa
 1529              		.comm	threads,20,4
 1530              		.comm	test,1400,4
 1531              		.section	.bss.chp,"aw",%nobits
 1532              		.align	2
 1533              		.set	.LANCHOR0,. + 0
 1534              		.type	chp, %object
 1535              		.size	chp, 4
 1536              	chp:
 1537 0000 00000000 		.space	4
 1538              		.section	.bss.failpoint,"aw",%nobits
 1539              		.align	2
ARM GAS  /tmp/cc8DnOcF.s 			page 28


 1540              		.set	.LANCHOR4,. + 0
 1541              		.type	failpoint, %object
 1542              		.size	failpoint, 4
 1543              	failpoint:
 1544 0000 00000000 		.space	4
 1545              		.section	.bss.global_fail,"aw",%nobits
 1546              		.align	2
 1547              		.set	.LANCHOR3,. + 0
 1548              		.type	global_fail, %object
 1549              		.size	global_fail, 4
 1550              	global_fail:
 1551 0000 00000000 		.space	4
 1552              		.section	.bss.local_fail,"aw",%nobits
 1553              		.align	2
 1554              		.set	.LANCHOR2,. + 0
 1555              		.type	local_fail, %object
 1556              		.size	local_fail, 4
 1557              	local_fail:
 1558 0000 00000000 		.space	4
 1559              		.section	.bss.tokens_buffer,"aw",%nobits
 1560              		.align	2
 1561              		.set	.LANCHOR5,. + 0
 1562              		.type	tokens_buffer, %object
 1563              		.size	tokens_buffer, 16
 1564              	tokens_buffer:
 1565 0000 00000000 		.space	16
 1565      00000000 
 1565      00000000 
 1565      00000000 
 1566              		.section	.bss.tokp,"aw",%nobits
 1567              		.align	2
 1568              		.set	.LANCHOR1,. + 0
 1569              		.type	tokp, %object
 1570              		.size	tokp, 4
 1571              	tokp:
 1572 0000 00000000 		.space	4
 1573              		.section	.bss.vt,"aw",%nobits
 1574              		.align	2
 1575              		.set	.LANCHOR6,. + 0
 1576              		.type	vt, %object
 1577              		.size	vt, 20
 1578              	vt:
 1579 0000 00000000 		.space	20
 1579      00000000 
 1579      00000000 
 1579      00000000 
 1579      00000000 
 1580              		.section	.rodata.TestThread.str1.4,"aMS",%progbits,1
 1581              		.align	2
 1582              	.LC1:
 1583 0000 2A2A2A20 		.ascii	"*** Kernel:       \000"
 1583      4B65726E 
 1583      656C3A20 
 1583      20202020 
 1583      202000
 1584 0013 00       		.space	1
 1585              	.LC2:
ARM GAS  /tmp/cc8DnOcF.s 			page 29


 1586 0014 2A2A2A20 		.ascii	"*** Compiled:     \000"
 1586      436F6D70 
 1586      696C6564 
 1586      3A202020 
 1586      202000
 1587 0027 00       		.space	1
 1588              	.LC3:
 1589 0028 2A2A2A20 		.ascii	"*** Compiler:     \000"
 1589      436F6D70 
 1589      696C6572 
 1589      3A202020 
 1589      202000
 1590 003b 00       		.space	1
 1591              	.LC4:
 1592 003c 2A2A2A20 		.ascii	"*** Architecture: \000"
 1592      41726368 
 1592      69746563 
 1592      74757265 
 1592      3A2000
 1593 004f 00       		.space	1
 1594              	.LC5:
 1595 0050 2A2A2A20 		.ascii	"*** Core Variant: \000"
 1595      436F7265 
 1595      20566172 
 1595      69616E74 
 1595      3A2000
 1596 0063 00       		.space	1
 1597              	.LC6:
 1598 0064 2A2A2A20 		.ascii	"*** Port Info:    \000"
 1598      506F7274 
 1598      20496E66 
 1598      6F3A2020 
 1598      202000
 1599 0077 00       		.space	1
 1600              	.LC7:
 1601 0078 2A2A2A20 		.ascii	"*** Platform:     \000"
 1601      506C6174 
 1601      666F726D 
 1601      3A202020 
 1601      202000
 1602 008b 00       		.space	1
 1603              	.LC8:
 1604 008c 2D2D2D20 		.ascii	"--- Test Case \000"
 1604      54657374 
 1604      20436173 
 1604      652000
 1605 009b 00       		.space	1
 1606              	.LC9:
 1607 009c 202800   		.ascii	" (\000"
 1608 009f 00       		.space	1
 1609              	.LC10:
 1610 00a0 2D2D2D20 		.ascii	"--- Result: FAILURE (#\000"
 1610      52657375 
 1610      6C743A20 
 1610      4641494C 
 1610      55524520 
 1611 00b7 00       		.space	1
ARM GAS  /tmp/cc8DnOcF.s 			page 30


 1612              	.LC11:
 1613 00b8 205B00   		.ascii	" [\000"
 1614 00bb 00       		.space	1
 1615              	.LC12:
 1616 00bc 46696E61 		.ascii	"Final result: \000"
 1616      6C207265 
 1616      73756C74 
 1616      3A2000
 1617 00cb 00       		.space	1
 1618              	.LC13:
 1619 00cc 00       		.ascii	"\000"
 1620 00cd 000000   		.space	3
 1621              	.LC14:
 1622 00d0 2A2A2A20 		.ascii	"*** ChibiOS/RT test suite\000"
 1622      43686962 
 1622      694F532F 
 1622      52542074 
 1622      65737420 
 1623 00ea 0000     		.space	2
 1624              	.LC15:
 1625 00ec 2A2A2A00 		.ascii	"***\000"
 1626              	.LC16:
 1627 00f0 322E352E 		.ascii	"2.5.1unstable\000"
 1627      31756E73 
 1627      7461626C 
 1627      6500
 1628 00fe 0000     		.space	2
 1629              	.LC17:
 1630 0100 4A616E20 		.ascii	"Jan  9 2020 - 17:02:54\000"
 1630      20392032 
 1630      30323020 
 1630      2D203137 
 1630      3A30323A 
 1631 0117 00       		.space	1
 1632              	.LC18:
 1633 0118 47434320 		.ascii	"GCC 6.3.1 20170620\000"
 1633      362E332E 
 1633      31203230 
 1633      31373036 
 1633      323000
 1634 012b 00       		.space	1
 1635              	.LC19:
 1636 012c 41524D31 		.ascii	"ARM11\000"
 1636      3100
 1637 0132 0000     		.space	2
 1638              	.LC20:
 1639 0134 41524D31 		.ascii	"ARM1176JZF-S\000"
 1639      3137364A 
 1639      5A462D53 
 1639      00
 1640 0141 000000   		.space	3
 1641              	.LC21:
 1642 0144 50757265 		.ascii	"Pure ARM mode\000"
 1642      2041524D 
 1642      206D6F64 
 1642      6500
 1643 0152 0000     		.space	2
ARM GAS  /tmp/cc8DnOcF.s 			page 31


 1644              	.LC22:
 1645 0154 42434D32 		.ascii	"BCM2835\000"
 1645      38333500 
 1646              	.LC23:
 1647 015c 2900     		.ascii	")\000"
 1648 015e 0000     		.space	2
 1649              	.LC24:
 1650 0160 5D2900   		.ascii	"])\000"
 1651 0163 00       		.space	1
 1652              	.LC25:
 1653 0164 2D2D2D20 		.ascii	"--- Result: SUCCESS\000"
 1653      52657375 
 1653      6C743A20 
 1653      53554343 
 1653      45535300 
 1654              	.LC26:
 1655 0178 4641494C 		.ascii	"FAILURE\000"
 1655      55524500 
 1656              	.LC27:
 1657 0180 53554343 		.ascii	"SUCCESS\000"
 1657      45535300 
 1658              		.section	.rodata.patterns,"a",%progbits
 1659              		.align	2
 1660              		.set	.LANCHOR7,. + 0
 1661              		.type	patterns, %object
 1662              		.size	patterns, 48
 1663              	patterns:
 1664 0000 00000000 		.word	patternthd
 1665 0004 00000000 		.word	patternsem
 1666 0008 00000000 		.word	patternmtx
 1667 000c 00000000 		.word	patternmsg
 1668 0010 00000000 		.word	patternmbox
 1669 0014 00000000 		.word	patternevt
 1670 0018 00000000 		.word	patternheap
 1671 001c 00000000 		.word	patternpools
 1672 0020 00000000 		.word	patterndyn
 1673 0024 00000000 		.word	patternqueues
 1674 0028 00000000 		.word	patternbmk
 1675 002c 00000000 		.word	0
 1676              		.section	.rodata.print_line.str1.4,"aMS",%progbits,1
 1677              		.align	2
 1678              	.LC0:
 1679 0000 0D0A00   		.ascii	"\015\012\000"
 1680              		.section	.rodata.wa,"a",%progbits
 1681              		.align	2
 1682              		.type	wa, %object
 1683              		.size	wa, 20
 1684              	wa:
 1685 0000 00000000 		.word	test
 1686 0004 18010000 		.word	test+280
 1687 0008 30020000 		.word	test+560
 1688 000c 48030000 		.word	test+840
 1689 0010 60040000 		.word	test+1120
 1690              		.text
 1691              	.Letext0:
 1692              		.file 2 "/usr/lib/gcc/arm-none-eabi/6.3.1/include/stddef.h"
 1693              		.file 3 "/usr/include/newlib/machine/_default_types.h"
ARM GAS  /tmp/cc8DnOcF.s 			page 32


 1694              		.file 4 "/usr/include/newlib/sys/_stdint.h"
 1695              		.file 5 "../../os/ports/GCC/ARM/chtypes.h"
 1696              		.file 6 "../../os/kernel/include/chlists.h"
 1697              		.file 7 "../../os/kernel/include/chthreads.h"
 1698              		.file 8 "../../os/ports/GCC/ARM/chcore.h"
 1699              		.file 9 "../../os/kernel/include/chvt.h"
 1700              		.file 10 "../../os/kernel/include/chschd.h"
 1701              		.file 11 "../../os/kernel/include/chmtx.h"
 1702              		.file 12 "../../os/kernel/include/chevents.h"
 1703              		.file 13 "../../os/kernel/include/chregistry.h"
 1704              		.file 14 "../../os/kernel/include/chqueues.h"
 1705              		.file 15 "../../os/kernel/include/chstreams.h"
 1706              		.file 16 "../../os/kernel/include/ch.h"
 1707              		.file 17 "../../os/hal/platforms/BCM2835/bcm2835.h"
 1708              		.file 18 "../../os/hal/platforms/BCM2835/pal_lld.h"
 1709              		.file 19 "../../os/hal/include/i2c.h"
 1710              		.file 20 "../../os/hal/platforms/BCM2835/i2c_lld.h"
 1711              		.file 21 "../../os/hal/include/serial.h"
 1712              		.file 22 "../../os/hal/include/spi.h"
 1713              		.file 23 "../../os/hal/platforms/BCM2835/spi_lld.h"
 1714              		.file 24 "../../test/test.h"
 1715              		.file 25 "../../os/hal/platforms/BCM2835/serial_lld.h"
 1716              		.file 26 "../../test/testthd.h"
 1717              		.file 27 "../../test/testsem.h"
 1718              		.file 28 "../../test/testmtx.h"
 1719              		.file 29 "../../test/testmsg.h"
 1720              		.file 30 "../../test/testmbox.h"
 1721              		.file 31 "../../test/testevt.h"
 1722              		.file 32 "../../test/testheap.h"
 1723              		.file 33 "../../test/testpools.h"
 1724              		.file 34 "../../test/testdyn.h"
 1725              		.file 35 "../../test/testqueues.h"
 1726              		.file 36 "../../test/testbmk.h"