
build/ch.elf:     file format elf32-littlearm
build/ch.elf
architecture: arm, flags 0x00000112:
EXEC_P, HAS_SYMS, D_PAGED
start address 0x00008000

Program Header:
    LOAD off    0x00000000 vaddr 0x00000000 paddr 0x00000000 align 2**16
         filesz 0x0000bd60 memsz 0x0000c348 flags rwx
private flags = 5000200: [Version5 EABI] [soft-float ABI]

Sections:
Idx Name          Size      VMA       LMA       File off  Algn
  0 .text         00003d54  00008000  00008000  00008000  2**4
                  CONTENTS, ALLOC, LOAD, READONLY, CODE
  1 .data         0000000c  0000bd54  0000bd54  0000bd54  2**2
                  CONTENTS, ALLOC, LOAD, DATA
  2 .bss          000005e8  0000bd60  0000bd60  0000bd60  2**2
                  ALLOC
  3 .ARM.attributes 00000033  00000000  00000000  0000bd60  2**0
                  CONTENTS, READONLY
  4 .comment      00000031  00000000  00000000  0000bd93  2**0
                  CONTENTS, READONLY
  5 .debug_info   0001526a  00000000  00000000  0000bdc4  2**0
                  CONTENTS, READONLY, DEBUGGING
  6 .debug_abbrev 00003adb  00000000  00000000  0002102e  2**0
                  CONTENTS, READONLY, DEBUGGING
  7 .debug_loc    00004583  00000000  00000000  00024b09  2**0
                  CONTENTS, READONLY, DEBUGGING
  8 .debug_aranges 00000928  00000000  00000000  00029090  2**3
                  CONTENTS, READONLY, DEBUGGING
  9 .debug_ranges 00000be8  00000000  00000000  000299b8  2**0
                  CONTENTS, READONLY, DEBUGGING
 10 .debug_line   00004c0e  00000000  00000000  0002a5a0  2**0
                  CONTENTS, READONLY, DEBUGGING
 11 .debug_str    00001877  00000000  00000000  0002f1ae  2**0
                  CONTENTS, READONLY, DEBUGGING
 12 .debug_frame  000016d0  00000000  00000000  00030a28  2**2
                  CONTENTS, READONLY, DEBUGGING
SYMBOL TABLE:
00008000 l    d  .text	00000000 .text
0000bd54 l    d  .data	00000000 .data
0000bd60 l    d  .bss	00000000 .bss
00000000 l    d  .ARM.attributes	00000000 .ARM.attributes
00000000 l    d  .comment	00000000 .comment
00000000 l    d  .debug_info	00000000 .debug_info
00000000 l    d  .debug_abbrev	00000000 .debug_abbrev
00000000 l    d  .debug_loc	00000000 .debug_loc
00000000 l    d  .debug_aranges	00000000 .debug_aranges
00000000 l    d  .debug_ranges	00000000 .debug_ranges
00000000 l    d  .debug_line	00000000 .debug_line
00000000 l    d  .debug_str	00000000 .debug_str
00000000 l    d  .debug_frame	00000000 .debug_frame
00000000 l    df *ABS*	00000000 build/obj/vectors.o
00008000 l       .text	00000000 _start
00008020 l       .text	00000000 _reset
00008024 l       .text	00000000 _undefined
00008028 l       .text	00000000 _swi
0000802c l       .text	00000000 _prefetch
00008030 l       .text	00000000 _abort
00008038 l       .text	00000000 _irq
0000803c l       .text	00000000 _fiq
00000000 l    df *ABS*	00000000 build/obj/crt0.o
00000010 l       *ABS*	00000000 MODE_USR
00000011 l       *ABS*	00000000 MODE_FIQ
00000012 l       *ABS*	00000000 MODE_IRQ
00000013 l       *ABS*	00000000 MODE_SVC
00000017 l       *ABS*	00000000 MODE_ABT
0000001b l       *ABS*	00000000 MODE_UND
0000001f l       *ABS*	00000000 MODE_SYS
00000080 l       *ABS*	00000000 I_BIT
00000040 l       *ABS*	00000000 F_BIT
000080ac l       .text	00000000 bssloop
000080c0 l       .text	00000000 .loop
000080c4 l       .text	00000000 hwinit0
00000000 l    df *ABS*	00000000 build/obj/chcoreasm.o
00000010 l       *ABS*	00000000 MODE_USR
00000011 l       *ABS*	00000000 MODE_FIQ
00000012 l       *ABS*	00000000 MODE_IRQ
00000013 l       *ABS*	00000000 MODE_SVC
00000017 l       *ABS*	00000000 MODE_ABT
0000001b l       *ABS*	00000000 MODE_UND
0000001f l       *ABS*	00000000 MODE_SYS
00000080 l       *ABS*	00000000 I_BIT
00000040 l       *ABS*	00000000 F_BIT
00000000 l    df *ABS*	00000000 _udivsi3.o
000081c0 l       .text	00000000 .udivsi3_skip_div0_test
00000000 l    df *ABS*	00000000 _dvmd_tls.o
00000000 l    df *ABS*	00000000 _arm_addsubdf3.o
00000000 l    df *ABS*	00000000 _arm_muldivdf3.o
00000000 l    df *ABS*	00000000 _arm_fixdfsi.o
00000000 l    df *ABS*	00000000 _arm_truncdfsf2.o
00000000 l    df *ABS*	00000000 _arm_cmpsf2.o
00000000 l    df *ABS*	00000000 _arm_fixsfsi.o
00000000 l    df *ABS*	00000000 chsys.c
0000bd60 l     O .bss	00000044 mainthread.4736
00000000 l    df *ABS*	00000000 chvt.c
00000000 l    df *ABS*	00000000 chschd.c
00009030 l     F .text	000000ac wakeup
00000000 l    df *ABS*	00000000 chthreads.c
00000000 l    df *ABS*	00000000 chdynamic.c
00000000 l    df *ABS*	00000000 chsem.c
00000000 l    df *ABS*	00000000 chmtx.c
00000000 l    df *ABS*	00000000 chevents.c
00000000 l    df *ABS*	00000000 chqueues.c
00009a80 l     F .text	0000003c qwait
00000000 l    df *ABS*	00000000 chmemcore.c
0000bda4 l     O .bss	00000004 endmem
0000bda8 l     O .bss	00000004 nextmem
00000000 l    df *ABS*	00000000 chheap.c
0000bdac l     O .bss	0000001c default_heap
00000000 l    df *ABS*	00000000 hal.c
00000000 l    df *ABS*	00000000 i2c.c
00000000 l    df *ABS*	00000000 serial.c
0000a140 l     F .text	00000008 readt
0000a150 l     F .text	0000000c read
0000a160 l     F .text	00000008 writet
0000a170 l     F .text	0000000c write
0000a180 l     F .text	00000008 gett
0000a190 l     F .text	0000000c get
0000a1a0 l     F .text	00000008 putt
0000a1b0 l     F .text	0000000c put
0000bca0 l     O .text	00000020 vmt
00000000 l    df *ABS*	00000000 spi.c
00000000 l    df *ABS*	00000000 tm.c
0000a310 l     F .text	00000014 tm_start
0000a330 l     F .text	0000004c tm_stop
0000bdc8 l     O .bss	00000004 measurement_offset
00000000 l    df *ABS*	00000000 hal_lld.c
00000000 l    df *ABS*	00000000 pal_lld.c
0000a480 l     F .text	00000054 set_gpio_in.isra.0
00000000 l    df *ABS*	00000000 serial_lld.c
0000a570 l     F .text	00000018 output_notify
0000bcc0 l     O .text	00000004 default_config
00000000 l    df *ABS*	00000000 i2c_lld.c
0000a730 l     F .text	00000074 i2c_lld_safety_timeout
00000000 l    df *ABS*	00000000 spi_lld.c
00000000 l    df *ABS*	00000000 bcm2835.c
00000000 l    df *ABS*	00000000 board.c
00000000 l    df *ABS*	00000000 chprintf.c
00000000 l    df *ABS*	00000000 main.c
0000b5e0 l     F .text	000002f0 Thread_LCD
0000b8d0 l     F .text	0000016c Thread_Arduino
0000ba40 l     F .text	000000cc Thread_I2C
0000bde0 l     O .bss	00000118 waThread_Arduino
0000bef8 l     O .bss	00000118 waThread_I2C
0000c010 l     O .bss	00000118 waThread_LCD
00000000 l    df *ABS*	00000000 chregistry.c
0000bcd0 g     O .text	00000000 pal_default_config
00008ed0 g     F .text	00000090 chSysTimerHandlerI
00009610 g     F .text	00000008 chThdExit
00009a40 g     F .text	00000040 chEvtBroadcastFlagsI
000091b0 g     F .text	00000074 chSchGoSleepTimeoutS
0000a080 g     F .text	00000004 i2cInit
000097b0 g     F .text	00000178 chMtxLockS
000086ac g     F .text	00000060 .hidden __floatdidf
00009f80 g     F .text	000000c8 chHeapFree
0000aba0 g     F .text	000001a8 spi_lld_serve_interrupt
000081b0 g       .text	00000000 get_cpsr
0000bd54 g       .text	00000000 __exidx_end
00008dd0 g     F .text	0000005c .hidden __fixsfsi
00009160 g     F .text	00000044 chSchGoSleepS
00008180  w      .text	00000000 UndHandler
0000c348 g       *ABS*	00000000 __heap_base__
0000c294 g     O .bss	00000040 I2C1
0000c2d4 g     O .bss	00000040 I2C0
0000bd54 g       .data	00000000 _etext
0000c1f0 g     O .bss	00000018 IOPORT1
0000049c g       *ABS*	00000000 __stacks_total_size__
00009230 g     F .text	000000a0 chSchWakeupS
0000a250 g     F .text	0000004c sdIncomingDataI
00009d90 g     F .text	00000080 chOQGetI
000090e0 g     F .text	00000024 _scheduler_init
00009410 g     F .text	00000024 chSchRescheduleS
000094d0 g     F .text	000000ac chThdCreateStatic
00008dac g     F .text	00000018 .hidden __aeabi_fcmpgt
00008630 g     F .text	00000028 .hidden __floatsidf
00009110 g     F .text	00000044 chSchReadyI
0000a0b0 g     F .text	00000024 i2cStart
00008f60 g     F .text	00000024 _vt_init
000081c0 g     F .text	000000f4 .hidden __udivsi3
00009f50 g     F .text	00000028 _heap_init
0000a050 g     F .text	0000002c halInit
00008cb8 g     F .text	0000006c .hidden __lesf2
0000bd60 g       .bss	00000000 _bss_start
00009320 g     F .text	00000078 chSchDoRescheduleBehind
06007b44 g       *ABS*	00000000 __heap_end__
0000860c g     F .text	00000024 .hidden __aeabi_ui2d
0000c208 g     O .bss	00000018 IOPORT0
000082f0 g     F .text	00000000 .hidden __aeabi_drsub
00000004 g       *ABS*	00000000 __abt_stack_size__
00008040 g       .text	00000000 ResetHandler
00009c10 g     F .text	000000a8 chIQReadTimeout
0000bd54 g     O .data	0000000c smph
0000a430 g     F .text	00000050 hal_lld_init
00008658 g     F .text	00000040 .hidden __extendsfdf2
000089a0 g     F .text	0000020c .hidden __aeabi_ddiv
0000bdde g     O .bss	00000001 temperature
000082fc g     F .text	00000310 .hidden __adddf3
00008cc0 g     F .text	00000064 .hidden __nesf2
0000ad50 g     F .text	0000000c spi_lld_init
0000bd54 g       .text	00000000 __exidx_start
00008710 g     F .text	00000290 .hidden __aeabi_dmul
000096e0 g     F .text	00000068 chSemWait
0000ad60 g     F .text	0000004c bcm2835_gpio_fnsel
000095a0 g     F .text	00000068 chThdExitS
0000860c g     F .text	00000024 .hidden __floatunsidf
0000bdcc g     O .bss	00000001 distance
0000c314 g     O .bss	00000028 SPI0
00008c10 g     F .text	000000a0 .hidden __aeabi_d2f
00008f90 g     F .text	00000060 chVTSetI
0000c348 g       .bss	00000000 _bss_end
00008d94 g     F .text	00000018 .hidden __aeabi_fcmpge
00008bb0 g     F .text	0000005c .hidden __fixdfsi
0000a640 g     F .text	00000018 sd_lld_init
000096d0 g     F .text	00000010 chSemInit
00008cb0 g     F .text	00000074 .hidden __gtsf2
000082fc g     F .text	00000310 .hidden __aeabi_dadd
0000a990 g     F .text	000000cc i2c_lld_master_receive_timeout
00009930 g     F .text	00000014 chMtxLock
00008d7c g     F .text	00000018 .hidden __aeabi_fcmple
00008698 g     F .text	00000074 .hidden __aeabi_ul2d
00009440 g     F .text	00000020 chSchDoReschedule
00008e50 g     F .text	00000078 chSysInit
00009580 g     F .text	0000001c chThdSleep
00009ac0 g     F .text	00000038 chIQInit
0000a2a0 g     F .text	00000034 sdRequestDataI
0000bdcd g     O .bss	00000001 humidity
0000a2f0 g     F .text	0000001c spiObjectInit
0000a4e0 g     F .text	0000008c _pal_lld_init
0000a1c0 g     F .text	00000004 sdInit
000082f8 g     F .text	00000314 .hidden __aeabi_dsub
0000bdd0 g     O .bss	00000005 request
00009ec0 g     F .text	00000034 _core_init
00008698 g     F .text	00000074 .hidden __floatundidf
0000a230 g     F .text	00000020 sdStart
00000080 g       *ABS*	00000000 __irq_stack_size__
000080f0 g       .text	00000000 _port_switch_arm
00000400 g       *ABS*	00000000 __sys_stack_size__
05ffffe0 g       *ABS*	00000000 __ram_size__
00008dd0 g     F .text	0000005c .hidden __aeabi_f2iz
00008cc0 g     F .text	00000064 .hidden __eqsf2
000081a0 g       .text	00000000 arm_enable_irq
0000c1c4 g     O .bss	00000010 vtlist
00009f00 g     F .text	00000044 chCoreAlloc
00008630 g     F .text	00000028 .hidden __aeabi_i2d
0000a7b0 g     F .text	00000148 i2c_lld_serve_interrupt
000082e0  w    F .text	00000004 .hidden __aeabi_ldiv0
000089a0 g     F .text	0000020c .hidden __divdf3
00008710 g     F .text	00000290 .hidden __muldf3
0000bd54 g       *ABS*	00000000 _textdata
00008000 g       .text	00000000 _text
00008180  w      .text	00000000 PrefetchHandler
00008cc0 g     F .text	00000064 .hidden __cmpsf2
0000bb10 g     F .text	0000015c main
0000c1d4 g     O .bss	0000001c rlist
00008cb8 g     F .text	0000006c .hidden __ltsf2
0000a2e0 g     F .text	00000004 spiInit
000081c0 g     F .text	00000000 .hidden __aeabi_uidiv
0000aa60 g     F .text	0000013c i2c_lld_master_transmit_timeout
00008c10 g     F .text	000000a0 .hidden __truncdfsf2
000086ac g     F .text	00000060 .hidden __aeabi_l2d
00009790 g     F .text	00000014 chMtxInit
00008e30 g     F .text	00000020 _idle_thread
00009e10 g     F .text	000000ac chOQWriteTimeout
00008d34 g     F .text	00000018 .hidden __aeabi_cfcmple
0000bc80 g     O .text	00000016 ch_debug
0000ae00 g     F .text	000007d4 chprintf
000099f0 g     F .text	00000050 chEvtSignalI
00008000 g       .text	00000000 __ram_start__
00008160 g       .text	00000000 _port_thread_start
0000adb0 g     F .text	0000003c bcm2835_delay
000093a0 g     F .text	00000070 chSchDoRescheduleAhead
0000a0e0 g     F .text	00000058 i2cMasterTransmitTimeout
0000a900 g     F .text	0000001c i2c_lld_init
00008cb0 g     F .text	00000074 .hidden __gesf2
0000bdd8 g     O .bss	00000006 result
00008d4c g     F .text	00000018 .hidden __aeabi_fcmpeq
0000a090 g     F .text	00000018 i2cObjectInit
00009670 g     F .text	00000054 chThdRelease
00008d24 g     F .text	00000028 .hidden __aeabi_cfrcmple
0000c128 g     O .bss	0000009c _idle_thread_wa
00009cc0 g     F .text	00000034 chOQInit
00009b90 g     F .text	00000074 chIQGetTimeout
0000bd54 g       .data	00000000 _data
00008100 g       .text	00000000 _port_irq_common
00008180  w      .text	00000000 AbortHandler
00009b00 g     F .text	0000008c chIQPutI
0000a380 g     F .text	00000064 tmInit
0000c33c g     O .bss	0000000c coords
00008d64 g     F .text	00000018 .hidden __aeabi_fcmplt
00009950 g     F .text	000000a0 chMtxUnlock
000082b4 g     F .text	00000020 .hidden __aeabi_uidivmod
0000bd60 g       .data	00000000 _edata
06007fe0 g       *ABS*	00000000 __ram_end__
0000c348 g       .bss	00000000 _end
0000a920 g     F .text	00000068 i2c_lld_start
00008ff0 g     F .text	0000003c chVTResetI
00008180 g       .text	00000000 _unhandled_exception
0000a1d0 g     F .text	00000060 sdObjectInit
06007b44 g       *ABS*	00000000 __main_thread_stack_base__
0000a590 g     F .text	000000a8 sd_lld_serve_interrupt
0000a3f0 g     F .text	00000040 IrqHandler
00008bb0 g     F .text	0000005c .hidden __aeabi_d2iz
00008d34 g     F .text	00000018 .hidden __aeabi_cfcmpeq
00008180  w      .text	00000000 SwiHandler
000082e0  w    F .text	00000004 .hidden __aeabi_idiv0
00009620 g     F .text	00000050 chThdWait
000092d0 g     F .text	00000044 chSchIsPreemptionRequired
0000c220 g     O .bss	00000074 SD1
00000010 g       *ABS*	00000000 __fiq_stack_size__
00009460 g     F .text	00000070 _thread_init
00000004 g       *ABS*	00000000 __svc_stack_size__
00000004 g       *ABS*	00000000 __und_stack_size__
00009d00 g     F .text	0000008c chOQPutTimeout
00008658 g     F .text	00000040 .hidden __aeabi_f2d
0000adf0 g     F .text	00000004 boardInit
0000a660 g     F .text	000000c4 sd_lld_start
000080c0  w      .text	00000000 _main_exit_handler
000082f8 g     F .text	00000314 .hidden __subdf3
00008184 g       .text	00000000 __early_init
00009750 g     F .text	00000038 chSemSignalI
00008180  w      .text	00000000 FiqHandler



Disassembly of section .text:

00008000 <__ram_start__>:
    8000:	e59ff018 	ldr	pc, [pc, #24]	; 8020 <_reset>
    8004:	e59ff018 	ldr	pc, [pc, #24]	; 8024 <_undefined>
    8008:	e59ff018 	ldr	pc, [pc, #24]	; 8028 <_swi>
    800c:	e59ff018 	ldr	pc, [pc, #24]	; 802c <_prefetch>
    8010:	e59ff018 	ldr	pc, [pc, #24]	; 8030 <_abort>
    8014:	e320f000 	nop	{0}
    8018:	e59ff018 	ldr	pc, [pc, #24]	; 8038 <_irq>
    801c:	e59ff018 	ldr	pc, [pc, #24]	; 803c <_fiq>

00008020 <_reset>:
    8020:	00008040 	andeq	r8, r0, r0, asr #32

00008024 <_undefined>:
    8024:	00008180 	andeq	r8, r0, r0, lsl #3

00008028 <_swi>:
    8028:	00008180 	andeq	r8, r0, r0, lsl #3

0000802c <_prefetch>:
    802c:	00008180 	andeq	r8, r0, r0, lsl #3

00008030 <_abort>:
    8030:	00008180 	andeq	r8, r0, r0, lsl #3
    8034:	00000000 	andeq	r0, r0, r0

00008038 <_irq>:
    8038:	0000a3f0 	strdeq	sl, [r0], -r0

0000803c <_fiq>:
    803c:	00008180 	andeq	r8, r0, r0, lsl #3

00008040 <ResetHandler>:
    8040:	e59f0080 	ldr	r0, [pc, #128]	; 80c8 <hwinit0+0x4>
    8044:	e321f0db 	msr	CPSR_c, #219	; 0xdb
    8048:	e1a0d000 	mov	sp, r0
    804c:	e59f1078 	ldr	r1, [pc, #120]	; 80cc <hwinit0+0x8>
    8050:	e0400001 	sub	r0, r0, r1
    8054:	e321f0d7 	msr	CPSR_c, #215	; 0xd7
    8058:	e1a0d000 	mov	sp, r0
    805c:	e59f106c 	ldr	r1, [pc, #108]	; 80d0 <hwinit0+0xc>
    8060:	e0400001 	sub	r0, r0, r1
    8064:	e321f0d1 	msr	CPSR_c, #209	; 0xd1
    8068:	e1a0d000 	mov	sp, r0
    806c:	e59f1060 	ldr	r1, [pc, #96]	; 80d4 <hwinit0+0x10>
    8070:	e0400001 	sub	r0, r0, r1
    8074:	e321f0d2 	msr	CPSR_c, #210	; 0xd2
    8078:	e1a0d000 	mov	sp, r0
    807c:	e59f1054 	ldr	r1, [pc, #84]	; 80d8 <hwinit0+0x14>
    8080:	e0400001 	sub	r0, r0, r1
    8084:	e321f0d3 	msr	CPSR_c, #211	; 0xd3
    8088:	e1a0d000 	mov	sp, r0
    808c:	e59f1048 	ldr	r1, [pc, #72]	; 80dc <hwinit0+0x18>
    8090:	e0400001 	sub	r0, r0, r1
    8094:	e321f0df 	msr	CPSR_c, #223	; 0xdf
    8098:	e1a0d000 	mov	sp, r0
    809c:	eb000038 	bl	8184 <__early_init>
    80a0:	e3a00000 	mov	r0, #0
    80a4:	e59f1034 	ldr	r1, [pc, #52]	; 80e0 <hwinit0+0x1c>
    80a8:	e59f2034 	ldr	r2, [pc, #52]	; 80e4 <hwinit0+0x20>

000080ac <bssloop>:
    80ac:	e1510002 	cmp	r1, r2
    80b0:	34810004 	strcc	r0, [r1], #4
    80b4:	3afffffc 	bcc	80ac <bssloop>
    80b8:	eb000e94 	bl	bb10 <main>
    80bc:	eaffffff 	b	80c0 <_main_exit_handler>

000080c0 <_main_exit_handler>:
    80c0:	eafffffe 	b	80c0 <_main_exit_handler>

000080c4 <hwinit0>:
    80c4:	e12fff1e 	bx	lr
    80c8:	06007fe0 	streq	r7, [r0], -r0, ror #31
    80cc:	00000004 	andeq	r0, r0, r4
    80d0:	00000004 	andeq	r0, r0, r4
    80d4:	00000010 	andeq	r0, r0, r0, lsl r0
    80d8:	00000080 	andeq	r0, r0, r0, lsl #1
    80dc:	00000004 	andeq	r0, r0, r4
    80e0:	0000bd60 	andeq	fp, r0, r0, ror #26
    80e4:	0000c348 	andeq	ip, r0, r8, asr #6
	...

000080f0 <_port_switch_arm>:
    80f0:	e92d4ff0 	push	{r4, r5, r6, r7, r8, r9, sl, fp, lr}
    80f4:	e581d00c 	str	sp, [r1, #12]
    80f8:	e590d00c 	ldr	sp, [r0, #12]
    80fc:	e8bd8ff0 	pop	{r4, r5, r6, r7, r8, r9, sl, fp, pc}

00008100 <_port_irq_common>:
    8100:	eb000472 	bl	92d0 <chSchIsPreemptionRequired>
    8104:	e3500000 	cmp	r0, #0
    8108:	08bd500f 	popeq	{r0, r1, r2, r3, ip, lr}
    810c:	025ef004 	subseq	pc, lr, #4
    8110:	e8bd500f 	pop	{r0, r1, r2, r3, ip, lr}
    8114:	e321f09f 	msr	CPSR_c, #159	; 0x9f
    8118:	e92d500f 	push	{r0, r1, r2, r3, ip, lr}
    811c:	e321f092 	msr	CPSR_c, #146	; 0x92
    8120:	e14f0000 	mrs	r0, SPSR
    8124:	e1a0100e 	mov	r1, lr
    8128:	e321f09f 	msr	CPSR_c, #159	; 0x9f
    812c:	e92d0003 	push	{r0, r1}
    8130:	eb0004c2 	bl	9440 <chSchDoReschedule>
    8134:	e8bd0003 	pop	{r0, r1}
    8138:	e321f092 	msr	CPSR_c, #146	; 0x92
    813c:	e16ff000 	msr	SPSR_fsxc, r0
    8140:	e1a0e001 	mov	lr, r1
    8144:	e321f09f 	msr	CPSR_c, #159	; 0x9f
    8148:	e8bd500f 	pop	{r0, r1, r2, r3, ip, lr}
    814c:	e321f092 	msr	CPSR_c, #146	; 0x92
    8150:	e25ef004 	subs	pc, lr, #4
    8154:	e320f000 	nop	{0}
    8158:	e320f000 	nop	{0}
    815c:	e320f000 	nop	{0}

00008160 <_port_thread_start>:
    8160:	e321f01f 	msr	CPSR_c, #31
    8164:	e1a00005 	mov	r0, r5
    8168:	e1a0e00f 	mov	lr, pc
    816c:	e12fff14 	bx	r4
    8170:	eb000526 	bl	9610 <chThdExit>
	...

00008180 <_unhandled_exception>:
    8180:	eafffffe 	b	8180 <_unhandled_exception>

00008184 <__early_init>:
    8184:	e3a00902 	mov	r0, #32768	; 0x8000
    8188:	e3a01000 	mov	r1, #0
    818c:	e8b003fc 	ldm	r0!, {r2, r3, r4, r5, r6, r7, r8, r9}
    8190:	e8a103fc 	stmia	r1!, {r2, r3, r4, r5, r6, r7, r8, r9}
    8194:	e8b003fc 	ldm	r0!, {r2, r3, r4, r5, r6, r7, r8, r9}
    8198:	e8a103fc 	stmia	r1!, {r2, r3, r4, r5, r6, r7, r8, r9}
    819c:	e12fff1e 	bx	lr

000081a0 <arm_enable_irq>:
    81a0:	e10f0000 	mrs	r0, CPSR
    81a4:	e3c00080 	bic	r0, r0, #128	; 0x80
    81a8:	e121f000 	msr	CPSR_c, r0
    81ac:	e12fff1e 	bx	lr

000081b0 <get_cpsr>:
    81b0:	e10f0000 	mrs	r0, CPSR
    81b4:	e12fff1e 	bx	lr
	...

000081c0 <__aeabi_uidiv>:
    81c0:	e2512001 	subs	r2, r1, #1
    81c4:	012fff1e 	bxeq	lr
    81c8:	3a000036 	bcc	82a8 <__aeabi_uidiv+0xe8>
    81cc:	e1500001 	cmp	r0, r1
    81d0:	9a000022 	bls	8260 <__aeabi_uidiv+0xa0>
    81d4:	e1110002 	tst	r1, r2
    81d8:	0a000023 	beq	826c <__aeabi_uidiv+0xac>
    81dc:	e311020e 	tst	r1, #-536870912	; 0xe0000000
    81e0:	01a01181 	lsleq	r1, r1, #3
    81e4:	03a03008 	moveq	r3, #8
    81e8:	13a03001 	movne	r3, #1
    81ec:	e3510201 	cmp	r1, #268435456	; 0x10000000
    81f0:	31510000 	cmpcc	r1, r0
    81f4:	31a01201 	lslcc	r1, r1, #4
    81f8:	31a03203 	lslcc	r3, r3, #4
    81fc:	3afffffa 	bcc	81ec <__aeabi_uidiv+0x2c>
    8200:	e3510102 	cmp	r1, #-2147483648	; 0x80000000
    8204:	31510000 	cmpcc	r1, r0
    8208:	31a01081 	lslcc	r1, r1, #1
    820c:	31a03083 	lslcc	r3, r3, #1
    8210:	3afffffa 	bcc	8200 <__aeabi_uidiv+0x40>
    8214:	e3a02000 	mov	r2, #0
    8218:	e1500001 	cmp	r0, r1
    821c:	20400001 	subcs	r0, r0, r1
    8220:	21822003 	orrcs	r2, r2, r3
    8224:	e15000a1 	cmp	r0, r1, lsr #1
    8228:	204000a1 	subcs	r0, r0, r1, lsr #1
    822c:	218220a3 	orrcs	r2, r2, r3, lsr #1
    8230:	e1500121 	cmp	r0, r1, lsr #2
    8234:	20400121 	subcs	r0, r0, r1, lsr #2
    8238:	21822123 	orrcs	r2, r2, r3, lsr #2
    823c:	e15001a1 	cmp	r0, r1, lsr #3
    8240:	204001a1 	subcs	r0, r0, r1, lsr #3
    8244:	218221a3 	orrcs	r2, r2, r3, lsr #3
    8248:	e3500000 	cmp	r0, #0
    824c:	11b03223 	lsrsne	r3, r3, #4
    8250:	11a01221 	lsrne	r1, r1, #4
    8254:	1affffef 	bne	8218 <__aeabi_uidiv+0x58>
    8258:	e1a00002 	mov	r0, r2
    825c:	e12fff1e 	bx	lr
    8260:	03a00001 	moveq	r0, #1
    8264:	13a00000 	movne	r0, #0
    8268:	e12fff1e 	bx	lr
    826c:	e3510801 	cmp	r1, #65536	; 0x10000
    8270:	21a01821 	lsrcs	r1, r1, #16
    8274:	23a02010 	movcs	r2, #16
    8278:	33a02000 	movcc	r2, #0
    827c:	e3510c01 	cmp	r1, #256	; 0x100
    8280:	21a01421 	lsrcs	r1, r1, #8
    8284:	22822008 	addcs	r2, r2, #8
    8288:	e3510010 	cmp	r1, #16
    828c:	21a01221 	lsrcs	r1, r1, #4
    8290:	22822004 	addcs	r2, r2, #4
    8294:	e3510004 	cmp	r1, #4
    8298:	82822003 	addhi	r2, r2, #3
    829c:	908220a1 	addls	r2, r2, r1, lsr #1
    82a0:	e1a00230 	lsr	r0, r0, r2
    82a4:	e12fff1e 	bx	lr
    82a8:	e3500000 	cmp	r0, #0
    82ac:	13e00000 	mvnne	r0, #0
    82b0:	ea00000a 	b	82e0 <__aeabi_idiv0>

000082b4 <__aeabi_uidivmod>:
    82b4:	e3510000 	cmp	r1, #0
    82b8:	0afffffa 	beq	82a8 <__aeabi_uidiv+0xe8>
    82bc:	e92d4003 	push	{r0, r1, lr}
    82c0:	ebffffbe 	bl	81c0 <__aeabi_uidiv>
    82c4:	e8bd4006 	pop	{r1, r2, lr}
    82c8:	e0030092 	mul	r3, r2, r0
    82cc:	e0411003 	sub	r1, r1, r3
    82d0:	e12fff1e 	bx	lr
	...

000082e0 <__aeabi_idiv0>:
    82e0:	e12fff1e 	bx	lr
	...

000082f0 <__aeabi_drsub>:
    82f0:	e2211102 	eor	r1, r1, #-2147483648	; 0x80000000
    82f4:	ea000000 	b	82fc <__adddf3>

000082f8 <__aeabi_dsub>:
    82f8:	e2233102 	eor	r3, r3, #-2147483648	; 0x80000000

000082fc <__adddf3>:
    82fc:	e92d4030 	push	{r4, r5, lr}
    8300:	e1a04081 	lsl	r4, r1, #1
    8304:	e1a05083 	lsl	r5, r3, #1
    8308:	e1340005 	teq	r4, r5
    830c:	01300002 	teqeq	r0, r2
    8310:	1194c000 	orrsne	ip, r4, r0
    8314:	1195c002 	orrsne	ip, r5, r2
    8318:	11f0cac4 	mvnsne	ip, r4, asr #21
    831c:	11f0cac5 	mvnsne	ip, r5, asr #21
    8320:	0a00008c 	beq	8558 <__adddf3+0x25c>
    8324:	e1a04aa4 	lsr	r4, r4, #21
    8328:	e0745aa5 	rsbs	r5, r4, r5, lsr #21
    832c:	b2655000 	rsblt	r5, r5, #0
    8330:	da000006 	ble	8350 <__adddf3+0x54>
    8334:	e0844005 	add	r4, r4, r5
    8338:	e0202002 	eor	r2, r0, r2
    833c:	e0213003 	eor	r3, r1, r3
    8340:	e0220000 	eor	r0, r2, r0
    8344:	e0231001 	eor	r1, r3, r1
    8348:	e0202002 	eor	r2, r0, r2
    834c:	e0213003 	eor	r3, r1, r3
    8350:	e3550036 	cmp	r5, #54	; 0x36
    8354:	88bd4030 	pophi	{r4, r5, lr}
    8358:	812fff1e 	bxhi	lr
    835c:	e3110102 	tst	r1, #-2147483648	; 0x80000000
    8360:	e1a01601 	lsl	r1, r1, #12
    8364:	e3a0c601 	mov	ip, #1048576	; 0x100000
    8368:	e18c1621 	orr	r1, ip, r1, lsr #12
    836c:	0a000001 	beq	8378 <__adddf3+0x7c>
    8370:	e2700000 	rsbs	r0, r0, #0
    8374:	e2e11000 	rsc	r1, r1, #0
    8378:	e3130102 	tst	r3, #-2147483648	; 0x80000000
    837c:	e1a03603 	lsl	r3, r3, #12
    8380:	e18c3623 	orr	r3, ip, r3, lsr #12
    8384:	0a000001 	beq	8390 <__adddf3+0x94>
    8388:	e2722000 	rsbs	r2, r2, #0
    838c:	e2e33000 	rsc	r3, r3, #0
    8390:	e1340005 	teq	r4, r5
    8394:	0a000069 	beq	8540 <__adddf3+0x244>
    8398:	e2444001 	sub	r4, r4, #1
    839c:	e275e020 	rsbs	lr, r5, #32
    83a0:	ba000005 	blt	83bc <__adddf3+0xc0>
    83a4:	e1a0ce12 	lsl	ip, r2, lr
    83a8:	e0900532 	adds	r0, r0, r2, lsr r5
    83ac:	e2a11000 	adc	r1, r1, #0
    83b0:	e0900e13 	adds	r0, r0, r3, lsl lr
    83b4:	e0b11553 	adcs	r1, r1, r3, asr r5
    83b8:	ea000006 	b	83d8 <__adddf3+0xdc>
    83bc:	e2455020 	sub	r5, r5, #32
    83c0:	e28ee020 	add	lr, lr, #32
    83c4:	e3520001 	cmp	r2, #1
    83c8:	e1a0ce13 	lsl	ip, r3, lr
    83cc:	238cc002 	orrcs	ip, ip, #2
    83d0:	e0900553 	adds	r0, r0, r3, asr r5
    83d4:	e0b11fc3 	adcs	r1, r1, r3, asr #31
    83d8:	e2015102 	and	r5, r1, #-2147483648	; 0x80000000
    83dc:	5a000002 	bpl	83ec <__adddf3+0xf0>
    83e0:	e27cc000 	rsbs	ip, ip, #0
    83e4:	e2f00000 	rscs	r0, r0, #0
    83e8:	e2e11000 	rsc	r1, r1, #0
    83ec:	e3510601 	cmp	r1, #1048576	; 0x100000
    83f0:	3a00000f 	bcc	8434 <__adddf3+0x138>
    83f4:	e3510602 	cmp	r1, #2097152	; 0x200000
    83f8:	3a000006 	bcc	8418 <__adddf3+0x11c>
    83fc:	e1b010a1 	lsrs	r1, r1, #1
    8400:	e1b00060 	rrxs	r0, r0
    8404:	e1a0c06c 	rrx	ip, ip
    8408:	e2844001 	add	r4, r4, #1
    840c:	e1a02a84 	lsl	r2, r4, #21
    8410:	e3720501 	cmn	r2, #4194304	; 0x400000
    8414:	2a00006b 	bcs	85c8 <__adddf3+0x2cc>
    8418:	e35c0102 	cmp	ip, #-2147483648	; 0x80000000
    841c:	01b0c0a0 	lsrseq	ip, r0, #1
    8420:	e2b00000 	adcs	r0, r0, #0
    8424:	e0a11a04 	adc	r1, r1, r4, lsl #20
    8428:	e1811005 	orr	r1, r1, r5
    842c:	e8bd4030 	pop	{r4, r5, lr}
    8430:	e12fff1e 	bx	lr
    8434:	e1b0c08c 	lsls	ip, ip, #1
    8438:	e0b00000 	adcs	r0, r0, r0
    843c:	e0a11001 	adc	r1, r1, r1
    8440:	e3110601 	tst	r1, #1048576	; 0x100000
    8444:	e2444001 	sub	r4, r4, #1
    8448:	1afffff2 	bne	8418 <__adddf3+0x11c>
    844c:	e3310000 	teq	r1, #0
    8450:	13a03014 	movne	r3, #20
    8454:	03a03034 	moveq	r3, #52	; 0x34
    8458:	01a01000 	moveq	r1, r0
    845c:	03a00000 	moveq	r0, #0
    8460:	e1a02001 	mov	r2, r1
    8464:	e3520801 	cmp	r2, #65536	; 0x10000
    8468:	21a02822 	lsrcs	r2, r2, #16
    846c:	22433010 	subcs	r3, r3, #16
    8470:	e3520c01 	cmp	r2, #256	; 0x100
    8474:	21a02422 	lsrcs	r2, r2, #8
    8478:	22433008 	subcs	r3, r3, #8
    847c:	e3520010 	cmp	r2, #16
    8480:	21a02222 	lsrcs	r2, r2, #4
    8484:	22433004 	subcs	r3, r3, #4
    8488:	e3520004 	cmp	r2, #4
    848c:	22433002 	subcs	r3, r3, #2
    8490:	304330a2 	subcc	r3, r3, r2, lsr #1
    8494:	e04331a2 	sub	r3, r3, r2, lsr #3
    8498:	e2532020 	subs	r2, r3, #32
    849c:	aa000007 	bge	84c0 <__adddf3+0x1c4>
    84a0:	e292200c 	adds	r2, r2, #12
    84a4:	da000004 	ble	84bc <__adddf3+0x1c0>
    84a8:	e282c014 	add	ip, r2, #20
    84ac:	e262200c 	rsb	r2, r2, #12
    84b0:	e1a00c11 	lsl	r0, r1, ip
    84b4:	e1a01231 	lsr	r1, r1, r2
    84b8:	ea000004 	b	84d0 <__adddf3+0x1d4>
    84bc:	e2822014 	add	r2, r2, #20
    84c0:	d262c020 	rsble	ip, r2, #32
    84c4:	e1a01211 	lsl	r1, r1, r2
    84c8:	d1811c30 	orrle	r1, r1, r0, lsr ip
    84cc:	d1a00210 	lslle	r0, r0, r2
    84d0:	e0544003 	subs	r4, r4, r3
    84d4:	a0811a04 	addge	r1, r1, r4, lsl #20
    84d8:	a1811005 	orrge	r1, r1, r5
    84dc:	a8bd4030 	popge	{r4, r5, lr}
    84e0:	a12fff1e 	bxge	lr
    84e4:	e1e04004 	mvn	r4, r4
    84e8:	e254401f 	subs	r4, r4, #31
    84ec:	aa00000f 	bge	8530 <__adddf3+0x234>
    84f0:	e294400c 	adds	r4, r4, #12
    84f4:	ca000006 	bgt	8514 <__adddf3+0x218>
    84f8:	e2844014 	add	r4, r4, #20
    84fc:	e2642020 	rsb	r2, r4, #32
    8500:	e1a00430 	lsr	r0, r0, r4
    8504:	e1800211 	orr	r0, r0, r1, lsl r2
    8508:	e1851431 	orr	r1, r5, r1, lsr r4
    850c:	e8bd4030 	pop	{r4, r5, lr}
    8510:	e12fff1e 	bx	lr
    8514:	e264400c 	rsb	r4, r4, #12
    8518:	e2642020 	rsb	r2, r4, #32
    851c:	e1a00230 	lsr	r0, r0, r2
    8520:	e1800411 	orr	r0, r0, r1, lsl r4
    8524:	e1a01005 	mov	r1, r5
    8528:	e8bd4030 	pop	{r4, r5, lr}
    852c:	e12fff1e 	bx	lr
    8530:	e1a00431 	lsr	r0, r1, r4
    8534:	e1a01005 	mov	r1, r5
    8538:	e8bd4030 	pop	{r4, r5, lr}
    853c:	e12fff1e 	bx	lr
    8540:	e3340000 	teq	r4, #0
    8544:	e2233601 	eor	r3, r3, #1048576	; 0x100000
    8548:	02211601 	eoreq	r1, r1, #1048576	; 0x100000
    854c:	02844001 	addeq	r4, r4, #1
    8550:	12455001 	subne	r5, r5, #1
    8554:	eaffff8f 	b	8398 <__adddf3+0x9c>
    8558:	e1f0cac4 	mvns	ip, r4, asr #21
    855c:	11f0cac5 	mvnsne	ip, r5, asr #21
    8560:	0a00001d 	beq	85dc <__adddf3+0x2e0>
    8564:	e1340005 	teq	r4, r5
    8568:	01300002 	teqeq	r0, r2
    856c:	0a000004 	beq	8584 <__adddf3+0x288>
    8570:	e194c000 	orrs	ip, r4, r0
    8574:	01a01003 	moveq	r1, r3
    8578:	01a00002 	moveq	r0, r2
    857c:	e8bd4030 	pop	{r4, r5, lr}
    8580:	e12fff1e 	bx	lr
    8584:	e1310003 	teq	r1, r3
    8588:	13a01000 	movne	r1, #0
    858c:	13a00000 	movne	r0, #0
    8590:	18bd4030 	popne	{r4, r5, lr}
    8594:	112fff1e 	bxne	lr
    8598:	e1b0caa4 	lsrs	ip, r4, #21
    859c:	1a000004 	bne	85b4 <__adddf3+0x2b8>
    85a0:	e1b00080 	lsls	r0, r0, #1
    85a4:	e0b11001 	adcs	r1, r1, r1
    85a8:	23811102 	orrcs	r1, r1, #-2147483648	; 0x80000000
    85ac:	e8bd4030 	pop	{r4, r5, lr}
    85b0:	e12fff1e 	bx	lr
    85b4:	e2944501 	adds	r4, r4, #4194304	; 0x400000
    85b8:	32811601 	addcc	r1, r1, #1048576	; 0x100000
    85bc:	38bd4030 	popcc	{r4, r5, lr}
    85c0:	312fff1e 	bxcc	lr
    85c4:	e2015102 	and	r5, r1, #-2147483648	; 0x80000000
    85c8:	e385147f 	orr	r1, r5, #2130706432	; 0x7f000000
    85cc:	e381160f 	orr	r1, r1, #15728640	; 0xf00000
    85d0:	e3a00000 	mov	r0, #0
    85d4:	e8bd4030 	pop	{r4, r5, lr}
    85d8:	e12fff1e 	bx	lr
    85dc:	e1f0cac4 	mvns	ip, r4, asr #21
    85e0:	11a01003 	movne	r1, r3
    85e4:	11a00002 	movne	r0, r2
    85e8:	01f0cac5 	mvnseq	ip, r5, asr #21
    85ec:	11a03001 	movne	r3, r1
    85f0:	11a02000 	movne	r2, r0
    85f4:	e1904601 	orrs	r4, r0, r1, lsl #12
    85f8:	01925603 	orrseq	r5, r2, r3, lsl #12
    85fc:	01310003 	teqeq	r1, r3
    8600:	13811702 	orrne	r1, r1, #524288	; 0x80000
    8604:	e8bd4030 	pop	{r4, r5, lr}
    8608:	e12fff1e 	bx	lr

0000860c <__aeabi_ui2d>:
    860c:	e3300000 	teq	r0, #0
    8610:	03a01000 	moveq	r1, #0
    8614:	012fff1e 	bxeq	lr
    8618:	e92d4030 	push	{r4, r5, lr}
    861c:	e3a04b01 	mov	r4, #1024	; 0x400
    8620:	e2844032 	add	r4, r4, #50	; 0x32
    8624:	e3a05000 	mov	r5, #0
    8628:	e3a01000 	mov	r1, #0
    862c:	eaffff86 	b	844c <__adddf3+0x150>

00008630 <__aeabi_i2d>:
    8630:	e3300000 	teq	r0, #0
    8634:	03a01000 	moveq	r1, #0
    8638:	012fff1e 	bxeq	lr
    863c:	e92d4030 	push	{r4, r5, lr}
    8640:	e3a04b01 	mov	r4, #1024	; 0x400
    8644:	e2844032 	add	r4, r4, #50	; 0x32
    8648:	e2105102 	ands	r5, r0, #-2147483648	; 0x80000000
    864c:	42600000 	rsbmi	r0, r0, #0
    8650:	e3a01000 	mov	r1, #0
    8654:	eaffff7c 	b	844c <__adddf3+0x150>

00008658 <__aeabi_f2d>:
    8658:	e1b02080 	lsls	r2, r0, #1
    865c:	e1a011c2 	asr	r1, r2, #3
    8660:	e1a01061 	rrx	r1, r1
    8664:	e1a00e02 	lsl	r0, r2, #28
    8668:	121234ff 	andsne	r3, r2, #-16777216	; 0xff000000
    866c:	133304ff 	teqne	r3, #-16777216	; 0xff000000
    8670:	1221130e 	eorne	r1, r1, #939524096	; 0x38000000
    8674:	112fff1e 	bxne	lr
    8678:	e3320000 	teq	r2, #0
    867c:	133304ff 	teqne	r3, #-16777216	; 0xff000000
    8680:	012fff1e 	bxeq	lr
    8684:	e92d4030 	push	{r4, r5, lr}
    8688:	e3a04d0e 	mov	r4, #896	; 0x380
    868c:	e2015102 	and	r5, r1, #-2147483648	; 0x80000000
    8690:	e3c11102 	bic	r1, r1, #-2147483648	; 0x80000000
    8694:	eaffff6c 	b	844c <__adddf3+0x150>

00008698 <__aeabi_ul2d>:
    8698:	e1902001 	orrs	r2, r0, r1
    869c:	012fff1e 	bxeq	lr
    86a0:	e92d4030 	push	{r4, r5, lr}
    86a4:	e3a05000 	mov	r5, #0
    86a8:	ea000006 	b	86c8 <__aeabi_l2d+0x1c>

000086ac <__aeabi_l2d>:
    86ac:	e1902001 	orrs	r2, r0, r1
    86b0:	012fff1e 	bxeq	lr
    86b4:	e92d4030 	push	{r4, r5, lr}
    86b8:	e2115102 	ands	r5, r1, #-2147483648	; 0x80000000
    86bc:	5a000001 	bpl	86c8 <__aeabi_l2d+0x1c>
    86c0:	e2700000 	rsbs	r0, r0, #0
    86c4:	e2e11000 	rsc	r1, r1, #0
    86c8:	e3a04b01 	mov	r4, #1024	; 0x400
    86cc:	e2844032 	add	r4, r4, #50	; 0x32
    86d0:	e1b0cb21 	lsrs	ip, r1, #22
    86d4:	0affff44 	beq	83ec <__adddf3+0xf0>
    86d8:	e3a02003 	mov	r2, #3
    86dc:	e1b0c1ac 	lsrs	ip, ip, #3
    86e0:	12822003 	addne	r2, r2, #3
    86e4:	e1b0c1ac 	lsrs	ip, ip, #3
    86e8:	12822003 	addne	r2, r2, #3
    86ec:	e08221ac 	add	r2, r2, ip, lsr #3
    86f0:	e2623020 	rsb	r3, r2, #32
    86f4:	e1a0c310 	lsl	ip, r0, r3
    86f8:	e1a00230 	lsr	r0, r0, r2
    86fc:	e1800311 	orr	r0, r0, r1, lsl r3
    8700:	e1a01231 	lsr	r1, r1, r2
    8704:	e0844002 	add	r4, r4, r2
    8708:	eaffff37 	b	83ec <__adddf3+0xf0>
    870c:	00000000 	andeq	r0, r0, r0

00008710 <__aeabi_dmul>:
    8710:	e92d4070 	push	{r4, r5, r6, lr}
    8714:	e3a0c0ff 	mov	ip, #255	; 0xff
    8718:	e38ccc07 	orr	ip, ip, #1792	; 0x700
    871c:	e01c4a21 	ands	r4, ip, r1, lsr #20
    8720:	101c5a23 	andsne	r5, ip, r3, lsr #20
    8724:	1134000c 	teqne	r4, ip
    8728:	1135000c 	teqne	r5, ip
    872c:	0b000075 	bleq	8908 <__aeabi_dmul+0x1f8>
    8730:	e0844005 	add	r4, r4, r5
    8734:	e0216003 	eor	r6, r1, r3
    8738:	e1c11a8c 	bic	r1, r1, ip, lsl #21
    873c:	e1c33a8c 	bic	r3, r3, ip, lsl #21
    8740:	e1905601 	orrs	r5, r0, r1, lsl #12
    8744:	11925603 	orrsne	r5, r2, r3, lsl #12
    8748:	e3811601 	orr	r1, r1, #1048576	; 0x100000
    874c:	e3833601 	orr	r3, r3, #1048576	; 0x100000
    8750:	0a00001d 	beq	87cc <__aeabi_dmul+0xbc>
    8754:	e08ec290 	umull	ip, lr, r0, r2
    8758:	e3a05000 	mov	r5, #0
    875c:	e0a5e291 	umlal	lr, r5, r1, r2
    8760:	e2062102 	and	r2, r6, #-2147483648	; 0x80000000
    8764:	e0a5e390 	umlal	lr, r5, r0, r3
    8768:	e3a06000 	mov	r6, #0
    876c:	e0a65391 	umlal	r5, r6, r1, r3
    8770:	e33c0000 	teq	ip, #0
    8774:	138ee001 	orrne	lr, lr, #1
    8778:	e24440ff 	sub	r4, r4, #255	; 0xff
    877c:	e3560c02 	cmp	r6, #512	; 0x200
    8780:	e2c44c03 	sbc	r4, r4, #768	; 0x300
    8784:	2a000002 	bcs	8794 <__aeabi_dmul+0x84>
    8788:	e1b0e08e 	lsls	lr, lr, #1
    878c:	e0b55005 	adcs	r5, r5, r5
    8790:	e0a66006 	adc	r6, r6, r6
    8794:	e1821586 	orr	r1, r2, r6, lsl #11
    8798:	e1811aa5 	orr	r1, r1, r5, lsr #21
    879c:	e1a00585 	lsl	r0, r5, #11
    87a0:	e1800aae 	orr	r0, r0, lr, lsr #21
    87a4:	e1a0e58e 	lsl	lr, lr, #11
    87a8:	e254c0fd 	subs	ip, r4, #253	; 0xfd
    87ac:	835c0c07 	cmphi	ip, #1792	; 0x700
    87b0:	8a000011 	bhi	87fc <__aeabi_dmul+0xec>
    87b4:	e35e0102 	cmp	lr, #-2147483648	; 0x80000000
    87b8:	01b0e0a0 	lsrseq	lr, r0, #1
    87bc:	e2b00000 	adcs	r0, r0, #0
    87c0:	e0a11a04 	adc	r1, r1, r4, lsl #20
    87c4:	e8bd4070 	pop	{r4, r5, r6, lr}
    87c8:	e12fff1e 	bx	lr
    87cc:	e2066102 	and	r6, r6, #-2147483648	; 0x80000000
    87d0:	e1861001 	orr	r1, r6, r1
    87d4:	e1800002 	orr	r0, r0, r2
    87d8:	e0211003 	eor	r1, r1, r3
    87dc:	e05440ac 	subs	r4, r4, ip, lsr #1
    87e0:	c074500c 	rsbsgt	r5, r4, ip
    87e4:	c1811a04 	orrgt	r1, r1, r4, lsl #20
    87e8:	c8bd4070 	popgt	{r4, r5, r6, lr}
    87ec:	c12fff1e 	bxgt	lr
    87f0:	e3811601 	orr	r1, r1, #1048576	; 0x100000
    87f4:	e3a0e000 	mov	lr, #0
    87f8:	e2544001 	subs	r4, r4, #1
    87fc:	ca00005d 	bgt	8978 <__aeabi_dmul+0x268>
    8800:	e3740036 	cmn	r4, #54	; 0x36
    8804:	d3a00000 	movle	r0, #0
    8808:	d2011102 	andle	r1, r1, #-2147483648	; 0x80000000
    880c:	d8bd4070 	pople	{r4, r5, r6, lr}
    8810:	d12fff1e 	bxle	lr
    8814:	e2644000 	rsb	r4, r4, #0
    8818:	e2544020 	subs	r4, r4, #32
    881c:	aa00001a 	bge	888c <__aeabi_dmul+0x17c>
    8820:	e294400c 	adds	r4, r4, #12
    8824:	ca00000c 	bgt	885c <__aeabi_dmul+0x14c>
    8828:	e2844014 	add	r4, r4, #20
    882c:	e2645020 	rsb	r5, r4, #32
    8830:	e1a03510 	lsl	r3, r0, r5
    8834:	e1a00430 	lsr	r0, r0, r4
    8838:	e1800511 	orr	r0, r0, r1, lsl r5
    883c:	e2012102 	and	r2, r1, #-2147483648	; 0x80000000
    8840:	e3c11102 	bic	r1, r1, #-2147483648	; 0x80000000
    8844:	e0900fa3 	adds	r0, r0, r3, lsr #31
    8848:	e0a21431 	adc	r1, r2, r1, lsr r4
    884c:	e19ee083 	orrs	lr, lr, r3, lsl #1
    8850:	01c00fa3 	biceq	r0, r0, r3, lsr #31
    8854:	e8bd4070 	pop	{r4, r5, r6, lr}
    8858:	e12fff1e 	bx	lr
    885c:	e264400c 	rsb	r4, r4, #12
    8860:	e2645020 	rsb	r5, r4, #32
    8864:	e1a03410 	lsl	r3, r0, r4
    8868:	e1a00530 	lsr	r0, r0, r5
    886c:	e1800411 	orr	r0, r0, r1, lsl r4
    8870:	e2011102 	and	r1, r1, #-2147483648	; 0x80000000
    8874:	e0900fa3 	adds	r0, r0, r3, lsr #31
    8878:	e2a11000 	adc	r1, r1, #0
    887c:	e19ee083 	orrs	lr, lr, r3, lsl #1
    8880:	01c00fa3 	biceq	r0, r0, r3, lsr #31
    8884:	e8bd4070 	pop	{r4, r5, r6, lr}
    8888:	e12fff1e 	bx	lr
    888c:	e2645020 	rsb	r5, r4, #32
    8890:	e18ee510 	orr	lr, lr, r0, lsl r5
    8894:	e1a03430 	lsr	r3, r0, r4
    8898:	e1833511 	orr	r3, r3, r1, lsl r5
    889c:	e1a00431 	lsr	r0, r1, r4
    88a0:	e2011102 	and	r1, r1, #-2147483648	; 0x80000000
    88a4:	e1c00431 	bic	r0, r0, r1, lsr r4
    88a8:	e0800fa3 	add	r0, r0, r3, lsr #31
    88ac:	e19ee083 	orrs	lr, lr, r3, lsl #1
    88b0:	01c00fa3 	biceq	r0, r0, r3, lsr #31
    88b4:	e8bd4070 	pop	{r4, r5, r6, lr}
    88b8:	e12fff1e 	bx	lr
    88bc:	e3340000 	teq	r4, #0
    88c0:	1a000008 	bne	88e8 <__aeabi_dmul+0x1d8>
    88c4:	e2016102 	and	r6, r1, #-2147483648	; 0x80000000
    88c8:	e1b00080 	lsls	r0, r0, #1
    88cc:	e0a11001 	adc	r1, r1, r1
    88d0:	e3110601 	tst	r1, #1048576	; 0x100000
    88d4:	02444001 	subeq	r4, r4, #1
    88d8:	0afffffa 	beq	88c8 <__aeabi_dmul+0x1b8>
    88dc:	e1811006 	orr	r1, r1, r6
    88e0:	e3350000 	teq	r5, #0
    88e4:	112fff1e 	bxne	lr
    88e8:	e2036102 	and	r6, r3, #-2147483648	; 0x80000000
    88ec:	e1b02082 	lsls	r2, r2, #1
    88f0:	e0a33003 	adc	r3, r3, r3
    88f4:	e3130601 	tst	r3, #1048576	; 0x100000
    88f8:	02455001 	subeq	r5, r5, #1
    88fc:	0afffffa 	beq	88ec <__aeabi_dmul+0x1dc>
    8900:	e1833006 	orr	r3, r3, r6
    8904:	e12fff1e 	bx	lr
    8908:	e134000c 	teq	r4, ip
    890c:	e00c5a23 	and	r5, ip, r3, lsr #20
    8910:	1135000c 	teqne	r5, ip
    8914:	0a000007 	beq	8938 <__aeabi_dmul+0x228>
    8918:	e1906081 	orrs	r6, r0, r1, lsl #1
    891c:	11926083 	orrsne	r6, r2, r3, lsl #1
    8920:	1affffe5 	bne	88bc <__aeabi_dmul+0x1ac>
    8924:	e0211003 	eor	r1, r1, r3
    8928:	e2011102 	and	r1, r1, #-2147483648	; 0x80000000
    892c:	e3a00000 	mov	r0, #0
    8930:	e8bd4070 	pop	{r4, r5, r6, lr}
    8934:	e12fff1e 	bx	lr
    8938:	e1906081 	orrs	r6, r0, r1, lsl #1
    893c:	01a00002 	moveq	r0, r2
    8940:	01a01003 	moveq	r1, r3
    8944:	11926083 	orrsne	r6, r2, r3, lsl #1
    8948:	0a000010 	beq	8990 <__aeabi_dmul+0x280>
    894c:	e134000c 	teq	r4, ip
    8950:	1a000001 	bne	895c <__aeabi_dmul+0x24c>
    8954:	e1906601 	orrs	r6, r0, r1, lsl #12
    8958:	1a00000c 	bne	8990 <__aeabi_dmul+0x280>
    895c:	e135000c 	teq	r5, ip
    8960:	1a000003 	bne	8974 <__aeabi_dmul+0x264>
    8964:	e1926603 	orrs	r6, r2, r3, lsl #12
    8968:	11a00002 	movne	r0, r2
    896c:	11a01003 	movne	r1, r3
    8970:	1a000006 	bne	8990 <__aeabi_dmul+0x280>
    8974:	e0211003 	eor	r1, r1, r3
    8978:	e2011102 	and	r1, r1, #-2147483648	; 0x80000000
    897c:	e381147f 	orr	r1, r1, #2130706432	; 0x7f000000
    8980:	e381160f 	orr	r1, r1, #15728640	; 0xf00000
    8984:	e3a00000 	mov	r0, #0
    8988:	e8bd4070 	pop	{r4, r5, r6, lr}
    898c:	e12fff1e 	bx	lr
    8990:	e381147f 	orr	r1, r1, #2130706432	; 0x7f000000
    8994:	e381173e 	orr	r1, r1, #16252928	; 0xf80000
    8998:	e8bd4070 	pop	{r4, r5, r6, lr}
    899c:	e12fff1e 	bx	lr

000089a0 <__aeabi_ddiv>:
    89a0:	e92d4070 	push	{r4, r5, r6, lr}
    89a4:	e3a0c0ff 	mov	ip, #255	; 0xff
    89a8:	e38ccc07 	orr	ip, ip, #1792	; 0x700
    89ac:	e01c4a21 	ands	r4, ip, r1, lsr #20
    89b0:	101c5a23 	andsne	r5, ip, r3, lsr #20
    89b4:	1134000c 	teqne	r4, ip
    89b8:	1135000c 	teqne	r5, ip
    89bc:	0b00005e 	bleq	8b3c <__aeabi_ddiv+0x19c>
    89c0:	e0444005 	sub	r4, r4, r5
    89c4:	e021e003 	eor	lr, r1, r3
    89c8:	e1925603 	orrs	r5, r2, r3, lsl #12
    89cc:	e1a01601 	lsl	r1, r1, #12
    89d0:	0a00004c 	beq	8b08 <__aeabi_ddiv+0x168>
    89d4:	e1a03603 	lsl	r3, r3, #12
    89d8:	e3a05201 	mov	r5, #268435456	; 0x10000000
    89dc:	e1853223 	orr	r3, r5, r3, lsr #4
    89e0:	e1833c22 	orr	r3, r3, r2, lsr #24
    89e4:	e1a02402 	lsl	r2, r2, #8
    89e8:	e1855221 	orr	r5, r5, r1, lsr #4
    89ec:	e1855c20 	orr	r5, r5, r0, lsr #24
    89f0:	e1a06400 	lsl	r6, r0, #8
    89f4:	e20e1102 	and	r1, lr, #-2147483648	; 0x80000000
    89f8:	e1550003 	cmp	r5, r3
    89fc:	01560002 	cmpeq	r6, r2
    8a00:	e2a440fd 	adc	r4, r4, #253	; 0xfd
    8a04:	e2844c03 	add	r4, r4, #768	; 0x300
    8a08:	2a000001 	bcs	8a14 <__aeabi_ddiv+0x74>
    8a0c:	e1b030a3 	lsrs	r3, r3, #1
    8a10:	e1a02062 	rrx	r2, r2
    8a14:	e0566002 	subs	r6, r6, r2
    8a18:	e0c55003 	sbc	r5, r5, r3
    8a1c:	e1b030a3 	lsrs	r3, r3, #1
    8a20:	e1a02062 	rrx	r2, r2
    8a24:	e3a00601 	mov	r0, #1048576	; 0x100000
    8a28:	e3a0c702 	mov	ip, #524288	; 0x80000
    8a2c:	e056e002 	subs	lr, r6, r2
    8a30:	e0d5e003 	sbcs	lr, r5, r3
    8a34:	20466002 	subcs	r6, r6, r2
    8a38:	21a0500e 	movcs	r5, lr
    8a3c:	2180000c 	orrcs	r0, r0, ip
    8a40:	e1b030a3 	lsrs	r3, r3, #1
    8a44:	e1a02062 	rrx	r2, r2
    8a48:	e056e002 	subs	lr, r6, r2
    8a4c:	e0d5e003 	sbcs	lr, r5, r3
    8a50:	20466002 	subcs	r6, r6, r2
    8a54:	21a0500e 	movcs	r5, lr
    8a58:	218000ac 	orrcs	r0, r0, ip, lsr #1
    8a5c:	e1b030a3 	lsrs	r3, r3, #1
    8a60:	e1a02062 	rrx	r2, r2
    8a64:	e056e002 	subs	lr, r6, r2
    8a68:	e0d5e003 	sbcs	lr, r5, r3
    8a6c:	20466002 	subcs	r6, r6, r2
    8a70:	21a0500e 	movcs	r5, lr
    8a74:	2180012c 	orrcs	r0, r0, ip, lsr #2
    8a78:	e1b030a3 	lsrs	r3, r3, #1
    8a7c:	e1a02062 	rrx	r2, r2
    8a80:	e056e002 	subs	lr, r6, r2
    8a84:	e0d5e003 	sbcs	lr, r5, r3
    8a88:	20466002 	subcs	r6, r6, r2
    8a8c:	21a0500e 	movcs	r5, lr
    8a90:	218001ac 	orrcs	r0, r0, ip, lsr #3
    8a94:	e195e006 	orrs	lr, r5, r6
    8a98:	0a00000d 	beq	8ad4 <__aeabi_ddiv+0x134>
    8a9c:	e1a05205 	lsl	r5, r5, #4
    8aa0:	e1855e26 	orr	r5, r5, r6, lsr #28
    8aa4:	e1a06206 	lsl	r6, r6, #4
    8aa8:	e1a03183 	lsl	r3, r3, #3
    8aac:	e1833ea2 	orr	r3, r3, r2, lsr #29
    8ab0:	e1a02182 	lsl	r2, r2, #3
    8ab4:	e1b0c22c 	lsrs	ip, ip, #4
    8ab8:	1affffdb 	bne	8a2c <__aeabi_ddiv+0x8c>
    8abc:	e3110601 	tst	r1, #1048576	; 0x100000
    8ac0:	1a000006 	bne	8ae0 <__aeabi_ddiv+0x140>
    8ac4:	e1811000 	orr	r1, r1, r0
    8ac8:	e3a00000 	mov	r0, #0
    8acc:	e3a0c102 	mov	ip, #-2147483648	; 0x80000000
    8ad0:	eaffffd5 	b	8a2c <__aeabi_ddiv+0x8c>
    8ad4:	e3110601 	tst	r1, #1048576	; 0x100000
    8ad8:	01811000 	orreq	r1, r1, r0
    8adc:	03a00000 	moveq	r0, #0
    8ae0:	e254c0fd 	subs	ip, r4, #253	; 0xfd
    8ae4:	835c0c07 	cmphi	ip, #1792	; 0x700
    8ae8:	8affff43 	bhi	87fc <__aeabi_dmul+0xec>
    8aec:	e055c003 	subs	ip, r5, r3
    8af0:	0056c002 	subseq	ip, r6, r2
    8af4:	01b0c0a0 	lsrseq	ip, r0, #1
    8af8:	e2b00000 	adcs	r0, r0, #0
    8afc:	e0a11a04 	adc	r1, r1, r4, lsl #20
    8b00:	e8bd4070 	pop	{r4, r5, r6, lr}
    8b04:	e12fff1e 	bx	lr
    8b08:	e20ee102 	and	lr, lr, #-2147483648	; 0x80000000
    8b0c:	e18e1621 	orr	r1, lr, r1, lsr #12
    8b10:	e09440ac 	adds	r4, r4, ip, lsr #1
    8b14:	c074500c 	rsbsgt	r5, r4, ip
    8b18:	c1811a04 	orrgt	r1, r1, r4, lsl #20
    8b1c:	c8bd4070 	popgt	{r4, r5, r6, lr}
    8b20:	c12fff1e 	bxgt	lr
    8b24:	e3811601 	orr	r1, r1, #1048576	; 0x100000
    8b28:	e3a0e000 	mov	lr, #0
    8b2c:	e2544001 	subs	r4, r4, #1
    8b30:	eaffff31 	b	87fc <__aeabi_dmul+0xec>
    8b34:	e185e006 	orr	lr, r5, r6
    8b38:	eaffff2f 	b	87fc <__aeabi_dmul+0xec>
    8b3c:	e00c5a23 	and	r5, ip, r3, lsr #20
    8b40:	e134000c 	teq	r4, ip
    8b44:	0135000c 	teqeq	r5, ip
    8b48:	0affff90 	beq	8990 <__aeabi_dmul+0x280>
    8b4c:	e134000c 	teq	r4, ip
    8b50:	1a000006 	bne	8b70 <__aeabi_ddiv+0x1d0>
    8b54:	e1904601 	orrs	r4, r0, r1, lsl #12
    8b58:	1affff8c 	bne	8990 <__aeabi_dmul+0x280>
    8b5c:	e135000c 	teq	r5, ip
    8b60:	1affff83 	bne	8974 <__aeabi_dmul+0x264>
    8b64:	e1a00002 	mov	r0, r2
    8b68:	e1a01003 	mov	r1, r3
    8b6c:	eaffff87 	b	8990 <__aeabi_dmul+0x280>
    8b70:	e135000c 	teq	r5, ip
    8b74:	1a000004 	bne	8b8c <__aeabi_ddiv+0x1ec>
    8b78:	e1925603 	orrs	r5, r2, r3, lsl #12
    8b7c:	0affff68 	beq	8924 <__aeabi_dmul+0x214>
    8b80:	e1a00002 	mov	r0, r2
    8b84:	e1a01003 	mov	r1, r3
    8b88:	eaffff80 	b	8990 <__aeabi_dmul+0x280>
    8b8c:	e1906081 	orrs	r6, r0, r1, lsl #1
    8b90:	11926083 	orrsne	r6, r2, r3, lsl #1
    8b94:	1affff48 	bne	88bc <__aeabi_dmul+0x1ac>
    8b98:	e1904081 	orrs	r4, r0, r1, lsl #1
    8b9c:	1affff74 	bne	8974 <__aeabi_dmul+0x264>
    8ba0:	e1925083 	orrs	r5, r2, r3, lsl #1
    8ba4:	1affff5e 	bne	8924 <__aeabi_dmul+0x214>
    8ba8:	eaffff78 	b	8990 <__aeabi_dmul+0x280>
    8bac:	00000000 	andeq	r0, r0, r0

00008bb0 <__aeabi_d2iz>:
    8bb0:	e1a02081 	lsl	r2, r1, #1
    8bb4:	e2922602 	adds	r2, r2, #2097152	; 0x200000
    8bb8:	2a00000c 	bcs	8bf0 <__aeabi_d2iz+0x40>
    8bbc:	5a000009 	bpl	8be8 <__aeabi_d2iz+0x38>
    8bc0:	e3e03e3e 	mvn	r3, #992	; 0x3e0
    8bc4:	e0532ac2 	subs	r2, r3, r2, asr #21
    8bc8:	9a00000a 	bls	8bf8 <__aeabi_d2iz+0x48>
    8bcc:	e1a03581 	lsl	r3, r1, #11
    8bd0:	e3833102 	orr	r3, r3, #-2147483648	; 0x80000000
    8bd4:	e1833aa0 	orr	r3, r3, r0, lsr #21
    8bd8:	e3110102 	tst	r1, #-2147483648	; 0x80000000
    8bdc:	e1a00233 	lsr	r0, r3, r2
    8be0:	12600000 	rsbne	r0, r0, #0
    8be4:	e12fff1e 	bx	lr
    8be8:	e3a00000 	mov	r0, #0
    8bec:	e12fff1e 	bx	lr
    8bf0:	e1900601 	orrs	r0, r0, r1, lsl #12
    8bf4:	1a000002 	bne	8c04 <__aeabi_d2iz+0x54>
    8bf8:	e2110102 	ands	r0, r1, #-2147483648	; 0x80000000
    8bfc:	03e00102 	mvneq	r0, #-2147483648	; 0x80000000
    8c00:	e12fff1e 	bx	lr
    8c04:	e3a00000 	mov	r0, #0
    8c08:	e12fff1e 	bx	lr
    8c0c:	00000000 	andeq	r0, r0, r0

00008c10 <__aeabi_d2f>:
    8c10:	e1a02081 	lsl	r2, r1, #1
    8c14:	e2523207 	subs	r3, r2, #1879048192	; 0x70000000
    8c18:	2253c602 	subscs	ip, r3, #2097152	; 0x200000
    8c1c:	227cc57f 	rsbscs	ip, ip, #532676608	; 0x1fc00000
    8c20:	9a000006 	bls	8c40 <__aeabi_d2f+0x30>
    8c24:	e201c102 	and	ip, r1, #-2147483648	; 0x80000000
    8c28:	e1a02180 	lsl	r2, r0, #3
    8c2c:	e18c0ea0 	orr	r0, ip, r0, lsr #29
    8c30:	e3520102 	cmp	r2, #-2147483648	; 0x80000000
    8c34:	e0a00103 	adc	r0, r0, r3, lsl #2
    8c38:	03c00001 	biceq	r0, r0, #1
    8c3c:	e12fff1e 	bx	lr
    8c40:	e3110101 	tst	r1, #1073741824	; 0x40000000
    8c44:	1a00000f 	bne	8c88 <__aeabi_d2f+0x78>
    8c48:	e293262e 	adds	r2, r3, #48234496	; 0x2e00000
    8c4c:	b2010102 	andlt	r0, r1, #-2147483648	; 0x80000000
    8c50:	b12fff1e 	bxlt	lr
    8c54:	e3811601 	orr	r1, r1, #1048576	; 0x100000
    8c58:	e1a02aa2 	lsr	r2, r2, #21
    8c5c:	e2622018 	rsb	r2, r2, #24
    8c60:	e262c020 	rsb	ip, r2, #32
    8c64:	e1b03c10 	lsls	r3, r0, ip
    8c68:	e1a00230 	lsr	r0, r0, r2
    8c6c:	13800001 	orrne	r0, r0, #1
    8c70:	e1a03581 	lsl	r3, r1, #11
    8c74:	e1a035a3 	lsr	r3, r3, #11
    8c78:	e1800c13 	orr	r0, r0, r3, lsl ip
    8c7c:	e1a03233 	lsr	r3, r3, r2
    8c80:	e1a03083 	lsl	r3, r3, #1
    8c84:	eaffffe6 	b	8c24 <__aeabi_d2f+0x14>
    8c88:	e1f03ac2 	mvns	r3, r2, asr #21
    8c8c:	1a000003 	bne	8ca0 <__aeabi_d2f+0x90>
    8c90:	e1903601 	orrs	r3, r0, r1, lsl #12
    8c94:	13a0047f 	movne	r0, #2130706432	; 0x7f000000
    8c98:	13800503 	orrne	r0, r0, #12582912	; 0xc00000
    8c9c:	112fff1e 	bxne	lr
    8ca0:	e2010102 	and	r0, r1, #-2147483648	; 0x80000000
    8ca4:	e380047f 	orr	r0, r0, #2130706432	; 0x7f000000
    8ca8:	e3800502 	orr	r0, r0, #8388608	; 0x800000
    8cac:	e12fff1e 	bx	lr

00008cb0 <__gesf2>:
    8cb0:	e3e0c000 	mvn	ip, #0
    8cb4:	ea000002 	b	8cc4 <__cmpsf2+0x4>

00008cb8 <__lesf2>:
    8cb8:	e3a0c001 	mov	ip, #1
    8cbc:	ea000000 	b	8cc4 <__cmpsf2+0x4>

00008cc0 <__cmpsf2>:
    8cc0:	e3a0c001 	mov	ip, #1
    8cc4:	e52dc004 	push	{ip}		; (str ip, [sp, #-4]!)
    8cc8:	e1a02080 	lsl	r2, r0, #1
    8ccc:	e1a03081 	lsl	r3, r1, #1
    8cd0:	e1f0cc42 	mvns	ip, r2, asr #24
    8cd4:	11f0cc43 	mvnsne	ip, r3, asr #24
    8cd8:	0a000007 	beq	8cfc <__cmpsf2+0x3c>
    8cdc:	e28dd004 	add	sp, sp, #4
    8ce0:	e192c0a3 	orrs	ip, r2, r3, lsr #1
    8ce4:	11300001 	teqne	r0, r1
    8ce8:	50520003 	subspl	r0, r2, r3
    8cec:	81a00fc1 	asrhi	r0, r1, #31
    8cf0:	31e00fc1 	mvncc	r0, r1, asr #31
    8cf4:	13800001 	orrne	r0, r0, #1
    8cf8:	e12fff1e 	bx	lr
    8cfc:	e1f0cc42 	mvns	ip, r2, asr #24
    8d00:	1a000001 	bne	8d0c <__cmpsf2+0x4c>
    8d04:	e1b0c480 	lsls	ip, r0, #9
    8d08:	1a000003 	bne	8d1c <__cmpsf2+0x5c>
    8d0c:	e1f0cc43 	mvns	ip, r3, asr #24
    8d10:	1afffff1 	bne	8cdc <__cmpsf2+0x1c>
    8d14:	e1b0c481 	lsls	ip, r1, #9
    8d18:	0affffef 	beq	8cdc <__cmpsf2+0x1c>
    8d1c:	e49d0004 	pop	{r0}		; (ldr r0, [sp], #4)
    8d20:	e12fff1e 	bx	lr

00008d24 <__aeabi_cfrcmple>:
    8d24:	e1a0c000 	mov	ip, r0
    8d28:	e1a00001 	mov	r0, r1
    8d2c:	e1a0100c 	mov	r1, ip
    8d30:	eaffffff 	b	8d34 <__aeabi_cfcmpeq>

00008d34 <__aeabi_cfcmpeq>:
    8d34:	e92d400f 	push	{r0, r1, r2, r3, lr}
    8d38:	ebffffe0 	bl	8cc0 <__cmpsf2>
    8d3c:	e3500000 	cmp	r0, #0
    8d40:	43700000 	cmnmi	r0, #0
    8d44:	e8bd400f 	pop	{r0, r1, r2, r3, lr}
    8d48:	e12fff1e 	bx	lr

00008d4c <__aeabi_fcmpeq>:
    8d4c:	e52de008 	str	lr, [sp, #-8]!
    8d50:	ebfffff7 	bl	8d34 <__aeabi_cfcmpeq>
    8d54:	03a00001 	moveq	r0, #1
    8d58:	13a00000 	movne	r0, #0
    8d5c:	e49de008 	ldr	lr, [sp], #8
    8d60:	e12fff1e 	bx	lr

00008d64 <__aeabi_fcmplt>:
    8d64:	e52de008 	str	lr, [sp, #-8]!
    8d68:	ebfffff1 	bl	8d34 <__aeabi_cfcmpeq>
    8d6c:	33a00001 	movcc	r0, #1
    8d70:	23a00000 	movcs	r0, #0
    8d74:	e49de008 	ldr	lr, [sp], #8
    8d78:	e12fff1e 	bx	lr

00008d7c <__aeabi_fcmple>:
    8d7c:	e52de008 	str	lr, [sp, #-8]!
    8d80:	ebffffeb 	bl	8d34 <__aeabi_cfcmpeq>
    8d84:	93a00001 	movls	r0, #1
    8d88:	83a00000 	movhi	r0, #0
    8d8c:	e49de008 	ldr	lr, [sp], #8
    8d90:	e12fff1e 	bx	lr

00008d94 <__aeabi_fcmpge>:
    8d94:	e52de008 	str	lr, [sp, #-8]!
    8d98:	ebffffe1 	bl	8d24 <__aeabi_cfrcmple>
    8d9c:	93a00001 	movls	r0, #1
    8da0:	83a00000 	movhi	r0, #0
    8da4:	e49de008 	ldr	lr, [sp], #8
    8da8:	e12fff1e 	bx	lr

00008dac <__aeabi_fcmpgt>:
    8dac:	e52de008 	str	lr, [sp, #-8]!
    8db0:	ebffffdb 	bl	8d24 <__aeabi_cfrcmple>
    8db4:	33a00001 	movcc	r0, #1
    8db8:	23a00000 	movcs	r0, #0
    8dbc:	e49de008 	ldr	lr, [sp], #8
    8dc0:	e12fff1e 	bx	lr
	...

00008dd0 <__aeabi_f2iz>:
    8dd0:	e1a02080 	lsl	r2, r0, #1
    8dd4:	e352047f 	cmp	r2, #2130706432	; 0x7f000000
    8dd8:	3a000008 	bcc	8e00 <__aeabi_f2iz+0x30>
    8ddc:	e3a0309e 	mov	r3, #158	; 0x9e
    8de0:	e0532c22 	subs	r2, r3, r2, lsr #24
    8de4:	9a000007 	bls	8e08 <__aeabi_f2iz+0x38>
    8de8:	e1a03400 	lsl	r3, r0, #8
    8dec:	e3833102 	orr	r3, r3, #-2147483648	; 0x80000000
    8df0:	e3100102 	tst	r0, #-2147483648	; 0x80000000
    8df4:	e1a00233 	lsr	r0, r3, r2
    8df8:	12600000 	rsbne	r0, r0, #0
    8dfc:	e12fff1e 	bx	lr
    8e00:	e3a00000 	mov	r0, #0
    8e04:	e12fff1e 	bx	lr
    8e08:	e3720061 	cmn	r2, #97	; 0x61
    8e0c:	1a000001 	bne	8e18 <__aeabi_f2iz+0x48>
    8e10:	e1b02480 	lsls	r2, r0, #9
    8e14:	1a000002 	bne	8e24 <__aeabi_f2iz+0x54>
    8e18:	e2100102 	ands	r0, r0, #-2147483648	; 0x80000000
    8e1c:	03e00102 	mvneq	r0, #-2147483648	; 0x80000000
    8e20:	e12fff1e 	bx	lr
    8e24:	e3a00000 	mov	r0, #0
    8e28:	e12fff1e 	bx	lr
    8e2c:	00000000 	andeq	r0, r0, r0

00008e30 <_idle_thread>:
    8e30:	e59f3010 	ldr	r3, [pc, #16]	; 8e48 <_idle_thread+0x18>
    8e34:	e59f2010 	ldr	r2, [pc, #16]	; 8e4c <_idle_thread+0x1c>
    8e38:	e5933018 	ldr	r3, [r3, #24]
    8e3c:	e5832018 	str	r2, [r3, #24]
    8e40:	ee070f90 	mcr	15, 0, r0, cr7, cr0, {4}
    8e44:	eafffffd 	b	8e40 <_idle_thread+0x10>
    8e48:	0000c1d4 	ldrdeq	ip, [r0], -r4
    8e4c:	0000bc70 	andeq	fp, r0, r0, ror ip

00008e50 <chSysInit>:
    8e50:	e52de004 	push	{lr}		; (str lr, [sp, #-4]!)
    8e54:	e24dd00c 	sub	sp, sp, #12
    8e58:	eb0000a0 	bl	90e0 <_scheduler_init>
    8e5c:	eb00003f 	bl	8f60 <_vt_init>
    8e60:	eb000416 	bl	9ec0 <_core_init>
    8e64:	eb000439 	bl	9f50 <_heap_init>
    8e68:	e3a01040 	mov	r1, #64	; 0x40
    8e6c:	e59f0040 	ldr	r0, [pc, #64]	; 8eb4 <chSysInit+0x64>
    8e70:	eb00017a 	bl	9460 <_thread_init>
    8e74:	e3a02001 	mov	r2, #1
    8e78:	e59f3038 	ldr	r3, [pc, #56]	; 8eb8 <chSysInit+0x68>
    8e7c:	e5c0201c 	strb	r2, [r0, #28]
    8e80:	e5830018 	str	r0, [r3, #24]
    8e84:	e321f01f 	msr	CPSR_c, #31
    8e88:	e3a01000 	mov	r1, #0
    8e8c:	e5933018 	ldr	r3, [r3, #24]
    8e90:	e59f0024 	ldr	r0, [pc, #36]	; 8ebc <chSysInit+0x6c>
    8e94:	e5830018 	str	r0, [r3, #24]
    8e98:	e58d1000 	str	r1, [sp]
    8e9c:	e59f301c 	ldr	r3, [pc, #28]	; 8ec0 <chSysInit+0x70>
    8ea0:	e3a0109c 	mov	r1, #156	; 0x9c
    8ea4:	e59f0018 	ldr	r0, [pc, #24]	; 8ec4 <chSysInit+0x74>
    8ea8:	eb000188 	bl	94d0 <chThdCreateStatic>
    8eac:	e28dd00c 	add	sp, sp, #12
    8eb0:	e49df004 	pop	{pc}		; (ldr pc, [sp], #4)
    8eb4:	0000bd60 	andeq	fp, r0, r0, ror #26
    8eb8:	0000c1d4 	ldrdeq	ip, [r0], -r4
    8ebc:	0000bc80 	andeq	fp, r0, r0, lsl #25
    8ec0:	00008e30 	andeq	r8, r0, r0, lsr lr
    8ec4:	0000c128 	andeq	ip, r0, r8, lsr #2
	...

00008ed0 <chSysTimerHandlerI>:
    8ed0:	e92d4070 	push	{r4, r5, r6, lr}
    8ed4:	e59f307c 	ldr	r3, [pc, #124]	; 8f58 <chSysTimerHandlerI+0x88>
    8ed8:	e59f407c 	ldr	r4, [pc, #124]	; 8f5c <chSysTimerHandlerI+0x8c>
    8edc:	e5933018 	ldr	r3, [r3, #24]
    8ee0:	e5d3201f 	ldrb	r2, [r3, #31]
    8ee4:	e3520000 	cmp	r2, #0
    8ee8:	12422001 	subne	r2, r2, #1
    8eec:	15c3201f 	strbne	r2, [r3, #31]
    8ef0:	e5932020 	ldr	r2, [r3, #32]
    8ef4:	e2822001 	add	r2, r2, #1
    8ef8:	e5832020 	str	r2, [r3, #32]
    8efc:	e594200c 	ldr	r2, [r4, #12]
    8f00:	e5943000 	ldr	r3, [r4]
    8f04:	e2822001 	add	r2, r2, #1
    8f08:	e1530004 	cmp	r3, r4
    8f0c:	e584200c 	str	r2, [r4, #12]
    8f10:	08bd8070 	popeq	{r4, r5, r6, pc}
    8f14:	e5935008 	ldr	r5, [r3, #8]
    8f18:	e2455001 	sub	r5, r5, #1
    8f1c:	e3550000 	cmp	r5, #0
    8f20:	e5835008 	str	r5, [r3, #8]
    8f24:	18bd8070 	popne	{r4, r5, r6, pc}
    8f28:	e5932000 	ldr	r2, [r3]
    8f2c:	e593100c 	ldr	r1, [r3, #12]
    8f30:	e5930010 	ldr	r0, [r3, #16]
    8f34:	e583500c 	str	r5, [r3, #12]
    8f38:	e5842000 	str	r2, [r4]
    8f3c:	e5824004 	str	r4, [r2, #4]
    8f40:	e12fff31 	blx	r1
    8f44:	e5943000 	ldr	r3, [r4]
    8f48:	e5932008 	ldr	r2, [r3, #8]
    8f4c:	e3520000 	cmp	r2, #0
    8f50:	0afffff4 	beq	8f28 <chSysTimerHandlerI+0x58>
    8f54:	e8bd8070 	pop	{r4, r5, r6, pc}
    8f58:	0000c1d4 	ldrdeq	ip, [r0], -r4
    8f5c:	0000c1c4 	andeq	ip, r0, r4, asr #3

00008f60 <_vt_init>:
    8f60:	e3e01000 	mvn	r1, #0
    8f64:	e3a02000 	mov	r2, #0
    8f68:	e59f3010 	ldr	r3, [pc, #16]	; 8f80 <_vt_init+0x20>
    8f6c:	e5831008 	str	r1, [r3, #8]
    8f70:	e5833004 	str	r3, [r3, #4]
    8f74:	e5833000 	str	r3, [r3]
    8f78:	e583200c 	str	r2, [r3, #12]
    8f7c:	e12fff1e 	bx	lr
    8f80:	0000c1c4 	andeq	ip, r0, r4, asr #3
	...

00008f90 <chVTSetI>:
    8f90:	e59fc054 	ldr	ip, [pc, #84]	; 8fec <chVTSetI+0x5c>
    8f94:	e5803010 	str	r3, [r0, #16]
    8f98:	e59c3000 	ldr	r3, [ip]
    8f9c:	e580200c 	str	r2, [r0, #12]
    8fa0:	e5932008 	ldr	r2, [r3, #8]
    8fa4:	e1510002 	cmp	r1, r2
    8fa8:	9a000004 	bls	8fc0 <chVTSetI+0x30>
    8fac:	e5933000 	ldr	r3, [r3]
    8fb0:	e0411002 	sub	r1, r1, r2
    8fb4:	e5932008 	ldr	r2, [r3, #8]
    8fb8:	e1520001 	cmp	r2, r1
    8fbc:	3afffffa 	bcc	8fac <chVTSetI+0x1c>
    8fc0:	e5932004 	ldr	r2, [r3, #4]
    8fc4:	e153000c 	cmp	r3, ip
    8fc8:	e5802004 	str	r2, [r0, #4]
    8fcc:	e5803000 	str	r3, [r0]
    8fd0:	e5830004 	str	r0, [r3, #4]
    8fd4:	e5820000 	str	r0, [r2]
    8fd8:	e5801008 	str	r1, [r0, #8]
    8fdc:	15932008 	ldrne	r2, [r3, #8]
    8fe0:	10421001 	subne	r1, r2, r1
    8fe4:	15831008 	strne	r1, [r3, #8]
    8fe8:	e12fff1e 	bx	lr
    8fec:	0000c1c4 	andeq	ip, r0, r4, asr #3

00008ff0 <chVTResetI>:
    8ff0:	e5903000 	ldr	r3, [r0]
    8ff4:	e59f202c 	ldr	r2, [pc, #44]	; 9028 <chVTResetI+0x38>
    8ff8:	e1530002 	cmp	r3, r2
    8ffc:	15932008 	ldrne	r2, [r3, #8]
    9000:	15901008 	ldrne	r1, [r0, #8]
    9004:	10822001 	addne	r2, r2, r1
    9008:	e3a01000 	mov	r1, #0
    900c:	15832008 	strne	r2, [r3, #8]
    9010:	e5902004 	ldr	r2, [r0, #4]
    9014:	e5823000 	str	r3, [r2]
    9018:	e5903000 	ldr	r3, [r0]
    901c:	e5832004 	str	r2, [r3, #4]
    9020:	e580100c 	str	r1, [r0, #12]
    9024:	e12fff1e 	bx	lr
    9028:	0000c1c4 	andeq	ip, r0, r4, asr #3
    902c:	00000000 	andeq	r0, r0, r0

00009030 <wakeup>:
    9030:	e5d0301c 	ldrb	r3, [r0, #28]
    9034:	e353000d 	cmp	r3, #13
    9038:	979ff103 	ldrls	pc, [pc, r3, lsl #2]
    903c:	ea000015 	b	9098 <wakeup+0x68>
    9040:	000090d4 	ldrdeq	r9, [r0], -r4
    9044:	00009098 	muleq	r0, r8, r0
    9048:	00009098 	muleq	r0, r8, r0
    904c:	00009078 	andeq	r9, r0, r8, ror r0
    9050:	00009098 	muleq	r0, r8, r0
    9054:	00009088 	andeq	r9, r0, r8, lsl #1
    9058:	00009098 	muleq	r0, r8, r0
    905c:	00009098 	muleq	r0, r8, r0
    9060:	00009098 	muleq	r0, r8, r0
    9064:	00009098 	muleq	r0, r8, r0
    9068:	00009098 	muleq	r0, r8, r0
    906c:	00009098 	muleq	r0, r8, r0
    9070:	00009098 	muleq	r0, r8, r0
    9074:	00009088 	andeq	r9, r0, r8, lsl #1
    9078:	e5902024 	ldr	r2, [r0, #36]	; 0x24
    907c:	e5923008 	ldr	r3, [r2, #8]
    9080:	e2833001 	add	r3, r3, #1
    9084:	e5823008 	str	r3, [r2, #8]
    9088:	e890000c 	ldm	r0, {r2, r3}
    908c:	e5832000 	str	r2, [r3]
    9090:	e5902000 	ldr	r2, [r0]
    9094:	e5823004 	str	r3, [r2, #4]
    9098:	e3e0c000 	mvn	ip, #0
    909c:	e3a02000 	mov	r2, #0
    90a0:	e5901008 	ldr	r1, [r0, #8]
    90a4:	e59f302c 	ldr	r3, [pc, #44]	; 90d8 <wakeup+0xa8>
    90a8:	e580c024 	str	ip, [r0, #36]	; 0x24
    90ac:	e5c0201c 	strb	r2, [r0, #28]
    90b0:	e5933000 	ldr	r3, [r3]
    90b4:	e5932008 	ldr	r2, [r3, #8]
    90b8:	e1520001 	cmp	r2, r1
    90bc:	2afffffb 	bcs	90b0 <wakeup+0x80>
    90c0:	e5932004 	ldr	r2, [r3, #4]
    90c4:	e5803000 	str	r3, [r0]
    90c8:	e5802004 	str	r2, [r0, #4]
    90cc:	e5830004 	str	r0, [r3, #4]
    90d0:	e5820000 	str	r0, [r2]
    90d4:	e12fff1e 	bx	lr
    90d8:	0000c1d4 	ldrdeq	ip, [r0], -r4
    90dc:	00000000 	andeq	r0, r0, r0

000090e0 <_scheduler_init>:
    90e0:	e3a02000 	mov	r2, #0
    90e4:	e59f3014 	ldr	r3, [pc, #20]	; 9100 <_scheduler_init+0x20>
    90e8:	e5832008 	str	r2, [r3, #8]
    90ec:	e5833004 	str	r3, [r3, #4]
    90f0:	e5833000 	str	r3, [r3]
    90f4:	e5833014 	str	r3, [r3, #20]
    90f8:	e5833010 	str	r3, [r3, #16]
    90fc:	e12fff1e 	bx	lr
    9100:	0000c1d4 	ldrdeq	ip, [r0], -r4
	...

00009110 <chSchReadyI>:
    9110:	e3a02000 	mov	r2, #0
    9114:	e1a0c000 	mov	ip, r0
    9118:	e5901008 	ldr	r1, [r0, #8]
    911c:	e59f302c 	ldr	r3, [pc, #44]	; 9150 <chSchReadyI+0x40>
    9120:	e5c0201c 	strb	r2, [r0, #28]
    9124:	e5933000 	ldr	r3, [r3]
    9128:	e5932008 	ldr	r2, [r3, #8]
    912c:	e1520001 	cmp	r2, r1
    9130:	2afffffb 	bcs	9124 <chSchReadyI+0x14>
    9134:	e5932004 	ldr	r2, [r3, #4]
    9138:	e1a0000c 	mov	r0, ip
    913c:	e58c3000 	str	r3, [ip]
    9140:	e58c2004 	str	r2, [ip, #4]
    9144:	e583c004 	str	ip, [r3, #4]
    9148:	e582c000 	str	ip, [r2]
    914c:	e12fff1e 	bx	lr
    9150:	0000c1d4 	ldrdeq	ip, [r0], -r4
	...

00009160 <chSchGoSleepS>:
    9160:	e3a0c014 	mov	ip, #20
    9164:	e52de004 	push	{lr}		; (str lr, [sp, #-4]!)
    9168:	e3a0e001 	mov	lr, #1
    916c:	e59f302c 	ldr	r3, [pc, #44]	; 91a0 <chSchGoSleepS+0x40>
    9170:	e5931018 	ldr	r1, [r3, #24]
    9174:	e5932000 	ldr	r2, [r3]
    9178:	e5c1001c 	strb	r0, [r1, #28]
    917c:	e5c1c01f 	strb	ip, [r1, #31]
    9180:	e592c000 	ldr	ip, [r2]
    9184:	e1a00002 	mov	r0, r2
    9188:	e58c3004 	str	r3, [ip, #4]
    918c:	e5c2e01c 	strb	lr, [r2, #28]
    9190:	e583c000 	str	ip, [r3]
    9194:	e49de004 	pop	{lr}		; (ldr lr, [sp], #4)
    9198:	e5832018 	str	r2, [r3, #24]
    919c:	eafffbd3 	b	80f0 <_port_switch_arm>
    91a0:	0000c1d4 	ldrdeq	ip, [r0], -r4
	...

000091b0 <chSchGoSleepTimeoutS>:
    91b0:	e92d4030 	push	{r4, r5, lr}
    91b4:	e3710001 	cmn	r1, #1
    91b8:	e24dd01c 	sub	sp, sp, #28
    91bc:	0a000010 	beq	9204 <chSchGoSleepTimeoutS+0x54>
    91c0:	e1a05000 	mov	r5, r0
    91c4:	e59f4050 	ldr	r4, [pc, #80]	; 921c <chSchGoSleepTimeoutS+0x6c>
    91c8:	e28d0004 	add	r0, sp, #4
    91cc:	e5943018 	ldr	r3, [r4, #24]
    91d0:	e59f2048 	ldr	r2, [pc, #72]	; 9220 <chSchGoSleepTimeoutS+0x70>
    91d4:	ebffff6d 	bl	8f90 <chVTSetI>
    91d8:	e1a00005 	mov	r0, r5
    91dc:	ebffffdf 	bl	9160 <chSchGoSleepS>
    91e0:	e59d3010 	ldr	r3, [sp, #16]
    91e4:	e3530000 	cmp	r3, #0
    91e8:	0a000001 	beq	91f4 <chSchGoSleepTimeoutS+0x44>
    91ec:	e28d0004 	add	r0, sp, #4
    91f0:	ebffff7e 	bl	8ff0 <chVTResetI>
    91f4:	e5943018 	ldr	r3, [r4, #24]
    91f8:	e5930024 	ldr	r0, [r3, #36]	; 0x24
    91fc:	e28dd01c 	add	sp, sp, #28
    9200:	e8bd8030 	pop	{r4, r5, pc}
    9204:	ebffffd5 	bl	9160 <chSchGoSleepS>
    9208:	e59f400c 	ldr	r4, [pc, #12]	; 921c <chSchGoSleepTimeoutS+0x6c>
    920c:	e5943018 	ldr	r3, [r4, #24]
    9210:	e5930024 	ldr	r0, [r3, #36]	; 0x24
    9214:	e28dd01c 	add	sp, sp, #28
    9218:	e8bd8030 	pop	{r4, r5, pc}
    921c:	0000c1d4 	ldrdeq	ip, [r0], -r4
    9220:	00009030 	andeq	r9, r0, r0, lsr r0
	...

00009230 <chSchWakeupS>:
    9230:	e59f3094 	ldr	r3, [pc, #148]	; 92cc <chSchWakeupS+0x9c>
    9234:	e92d4030 	push	{r4, r5, lr}
    9238:	e593e018 	ldr	lr, [r3, #24]
    923c:	e5801024 	str	r1, [r0, #36]	; 0x24
    9240:	e1a0c000 	mov	ip, r0
    9244:	e5901008 	ldr	r1, [r0, #8]
    9248:	e59e0008 	ldr	r0, [lr, #8]
    924c:	e1510000 	cmp	r1, r0
    9250:	8a00000b 	bhi	9284 <chSchWakeupS+0x54>
    9254:	e3a02000 	mov	r2, #0
    9258:	e5cc201c 	strb	r2, [ip, #28]
    925c:	e5933000 	ldr	r3, [r3]
    9260:	e5932008 	ldr	r2, [r3, #8]
    9264:	e1510002 	cmp	r1, r2
    9268:	9afffffb 	bls	925c <chSchWakeupS+0x2c>
    926c:	e5932004 	ldr	r2, [r3, #4]
    9270:	e58c3000 	str	r3, [ip]
    9274:	e58c2004 	str	r2, [ip, #4]
    9278:	e583c004 	str	ip, [r3, #4]
    927c:	e582c000 	str	ip, [r2]
    9280:	e8bd8030 	pop	{r4, r5, pc}
    9284:	e3a01000 	mov	r1, #0
    9288:	e1a02003 	mov	r2, r3
    928c:	e5ce101c 	strb	r1, [lr, #28]
    9290:	e5922000 	ldr	r2, [r2]
    9294:	e5921008 	ldr	r1, [r2, #8]
    9298:	e1500001 	cmp	r0, r1
    929c:	9afffffb 	bls	9290 <chSchWakeupS+0x60>
    92a0:	e3a05001 	mov	r5, #1
    92a4:	e5924004 	ldr	r4, [r2, #4]
    92a8:	e1a0100e 	mov	r1, lr
    92ac:	e88e0014 	stm	lr, {r2, r4}
    92b0:	e582e004 	str	lr, [r2, #4]
    92b4:	e584e000 	str	lr, [r4]
    92b8:	e5cc501c 	strb	r5, [ip, #28]
    92bc:	e1a0000c 	mov	r0, ip
    92c0:	e8bd4030 	pop	{r4, r5, lr}
    92c4:	e583c018 	str	ip, [r3, #24]
    92c8:	eafffb88 	b	80f0 <_port_switch_arm>
    92cc:	0000c1d4 	ldrdeq	ip, [r0], -r4

000092d0 <chSchIsPreemptionRequired>:
    92d0:	e59f2038 	ldr	r2, [pc, #56]	; 9310 <chSchIsPreemptionRequired+0x40>
    92d4:	e5923018 	ldr	r3, [r2, #24]
    92d8:	e5921000 	ldr	r1, [r2]
    92dc:	e5d3201f 	ldrb	r2, [r3, #31]
    92e0:	e5910008 	ldr	r0, [r1, #8]
    92e4:	e3520000 	cmp	r2, #0
    92e8:	e5933008 	ldr	r3, [r3, #8]
    92ec:	1a000003 	bne	9300 <chSchIsPreemptionRequired+0x30>
    92f0:	e1500003 	cmp	r0, r3
    92f4:	33a00000 	movcc	r0, #0
    92f8:	23a00001 	movcs	r0, #1
    92fc:	e12fff1e 	bx	lr
    9300:	e1500003 	cmp	r0, r3
    9304:	93a00000 	movls	r0, #0
    9308:	83a00001 	movhi	r0, #1
    930c:	e12fff1e 	bx	lr
    9310:	0000c1d4 	ldrdeq	ip, [r0], -r4
	...

00009320 <chSchDoRescheduleBehind>:
    9320:	e3a01001 	mov	r1, #1
    9324:	e92d4030 	push	{r4, r5, lr}
    9328:	e3a05014 	mov	r5, #20
    932c:	e3a04000 	mov	r4, #0
    9330:	e59f205c 	ldr	r2, [pc, #92]	; 9394 <chSchDoRescheduleBehind+0x74>
    9334:	e5920000 	ldr	r0, [r2]
    9338:	e592c018 	ldr	ip, [r2, #24]
    933c:	e590e000 	ldr	lr, [r0]
    9340:	e1a03000 	mov	r3, r0
    9344:	e58e2004 	str	r2, [lr, #4]
    9348:	e5c0101c 	strb	r1, [r0, #28]
    934c:	e59c1008 	ldr	r1, [ip, #8]
    9350:	e582e000 	str	lr, [r2]
    9354:	e5820018 	str	r0, [r2, #24]
    9358:	e5cc501f 	strb	r5, [ip, #31]
    935c:	e5cc401c 	strb	r4, [ip, #28]
    9360:	ea000000 	b	9368 <chSchDoRescheduleBehind+0x48>
    9364:	e5933000 	ldr	r3, [r3]
    9368:	e5932008 	ldr	r2, [r3, #8]
    936c:	e1520001 	cmp	r2, r1
    9370:	2afffffb 	bcs	9364 <chSchDoRescheduleBehind+0x44>
    9374:	e5932004 	ldr	r2, [r3, #4]
    9378:	e1a0100c 	mov	r1, ip
    937c:	e8bd4030 	pop	{r4, r5, lr}
    9380:	e58c3000 	str	r3, [ip]
    9384:	e58c2004 	str	r2, [ip, #4]
    9388:	e583c004 	str	ip, [r3, #4]
    938c:	e582c000 	str	ip, [r2]
    9390:	eafffb56 	b	80f0 <_port_switch_arm>
    9394:	0000c1d4 	ldrdeq	ip, [r0], -r4
	...

000093a0 <chSchDoRescheduleAhead>:
    93a0:	e3a01001 	mov	r1, #1
    93a4:	e92d4010 	push	{r4, lr}
    93a8:	e3a04000 	mov	r4, #0
    93ac:	e59f2058 	ldr	r2, [pc, #88]	; 940c <chSchDoRescheduleAhead+0x6c>
    93b0:	e5920000 	ldr	r0, [r2]
    93b4:	e592c018 	ldr	ip, [r2, #24]
    93b8:	e590e000 	ldr	lr, [r0]
    93bc:	e1a03000 	mov	r3, r0
    93c0:	e58e2004 	str	r2, [lr, #4]
    93c4:	e5c0101c 	strb	r1, [r0, #28]
    93c8:	e59c1008 	ldr	r1, [ip, #8]
    93cc:	e582e000 	str	lr, [r2]
    93d0:	e5820018 	str	r0, [r2, #24]
    93d4:	e5cc401c 	strb	r4, [ip, #28]
    93d8:	ea000000 	b	93e0 <chSchDoRescheduleAhead+0x40>
    93dc:	e5933000 	ldr	r3, [r3]
    93e0:	e5932008 	ldr	r2, [r3, #8]
    93e4:	e1520001 	cmp	r2, r1
    93e8:	8afffffb 	bhi	93dc <chSchDoRescheduleAhead+0x3c>
    93ec:	e5932004 	ldr	r2, [r3, #4]
    93f0:	e1a0100c 	mov	r1, ip
    93f4:	e8bd4010 	pop	{r4, lr}
    93f8:	e58c3000 	str	r3, [ip]
    93fc:	e58c2004 	str	r2, [ip, #4]
    9400:	e583c004 	str	ip, [r3, #4]
    9404:	e582c000 	str	ip, [r2]
    9408:	eafffb38 	b	80f0 <_port_switch_arm>
    940c:	0000c1d4 	ldrdeq	ip, [r0], -r4

00009410 <chSchRescheduleS>:
    9410:	e59f3018 	ldr	r3, [pc, #24]	; 9430 <chSchRescheduleS+0x20>
    9414:	e5932000 	ldr	r2, [r3]
    9418:	e5933018 	ldr	r3, [r3, #24]
    941c:	e5922008 	ldr	r2, [r2, #8]
    9420:	e5933008 	ldr	r3, [r3, #8]
    9424:	e1520003 	cmp	r2, r3
    9428:	912fff1e 	bxls	lr
    942c:	eaffffdb 	b	93a0 <chSchDoRescheduleAhead>
    9430:	0000c1d4 	ldrdeq	ip, [r0], -r4
	...

00009440 <chSchDoReschedule>:
    9440:	e59f3014 	ldr	r3, [pc, #20]	; 945c <chSchDoReschedule+0x1c>
    9444:	e5933018 	ldr	r3, [r3, #24]
    9448:	e5d3301f 	ldrb	r3, [r3, #31]
    944c:	e3530000 	cmp	r3, #0
    9450:	0a000000 	beq	9458 <chSchDoReschedule+0x18>
    9454:	eaffffd1 	b	93a0 <chSchDoRescheduleAhead>
    9458:	eaffffb0 	b	9320 <chSchDoRescheduleBehind>
    945c:	0000c1d4 	ldrdeq	ip, [r0], -r4

00009460 <_thread_init>:
    9460:	e92d4070 	push	{r4, r5, r6, lr}
    9464:	e3a02000 	mov	r2, #0
    9468:	e3a06002 	mov	r6, #2
    946c:	e3a05014 	mov	r5, #20
    9470:	e3a04001 	mov	r4, #1
    9474:	e59fc050 	ldr	ip, [pc, #80]	; 94cc <_thread_init+0x6c>
    9478:	e5801008 	str	r1, [r0, #8]
    947c:	e59ce014 	ldr	lr, [ip, #20]
    9480:	e5801040 	str	r1, [r0, #64]	; 0x40
    9484:	e580c010 	str	ip, [r0, #16]
    9488:	e580e014 	str	lr, [r0, #20]
    948c:	e280102c 	add	r1, r0, #44	; 0x2c
    9490:	e58c0014 	str	r0, [ip, #20]
    9494:	e280c028 	add	ip, r0, #40	; 0x28
    9498:	e5c0601c 	strb	r6, [r0, #28]
    949c:	e5c0501f 	strb	r5, [r0, #31]
    94a0:	e5c0401e 	strb	r4, [r0, #30]
    94a4:	e5c0201d 	strb	r2, [r0, #29]
    94a8:	e580203c 	str	r2, [r0, #60]	; 0x3c
    94ac:	e5802038 	str	r2, [r0, #56]	; 0x38
    94b0:	e5802020 	str	r2, [r0, #32]
    94b4:	e5802018 	str	r2, [r0, #24]
    94b8:	e58e0010 	str	r0, [lr, #16]
    94bc:	e580c028 	str	ip, [r0, #40]	; 0x28
    94c0:	e5801030 	str	r1, [r0, #48]	; 0x30
    94c4:	e580102c 	str	r1, [r0, #44]	; 0x2c
    94c8:	e8bd8070 	pop	{r4, r5, r6, pc}
    94cc:	0000c1d4 	ldrdeq	ip, [r0], -r4

000094d0 <chThdCreateStatic>:
    94d0:	e92d41f0 	push	{r4, r5, r6, r7, r8, lr}
    94d4:	e59d8018 	ldr	r8, [sp, #24]
    94d8:	e1a04000 	mov	r4, r0
    94dc:	e321f09f 	msr	CPSR_c, #159	; 0x9f
    94e0:	e3a05002 	mov	r5, #2
    94e4:	e3a0c000 	mov	ip, #0
    94e8:	e3a07014 	mov	r7, #20
    94ec:	e3a06001 	mov	r6, #1
    94f0:	e2411024 	sub	r1, r1, #36	; 0x24
    94f4:	e080e001 	add	lr, r0, r1
    94f8:	e580e00c 	str	lr, [r0, #12]
    94fc:	e7803001 	str	r3, [r0, r1]
    9500:	e59f306c 	ldr	r3, [pc, #108]	; 9574 <chThdCreateStatic+0xa4>
    9504:	e59f106c 	ldr	r1, [pc, #108]	; 9578 <chThdCreateStatic+0xa8>
    9508:	e58e8004 	str	r8, [lr, #4]
    950c:	e58e1020 	str	r1, [lr, #32]
    9510:	e593e014 	ldr	lr, [r3, #20]
    9514:	e5802008 	str	r2, [r0, #8]
    9518:	e5802040 	str	r2, [r0, #64]	; 0x40
    951c:	e5c0501c 	strb	r5, [r0, #28]
    9520:	e280202c 	add	r2, r0, #44	; 0x2c
    9524:	e2805028 	add	r5, r0, #40	; 0x28
    9528:	e5803010 	str	r3, [r0, #16]
    952c:	e580e014 	str	lr, [r0, #20]
    9530:	e5c0701f 	strb	r7, [r0, #31]
    9534:	e5c0601e 	strb	r6, [r0, #30]
    9538:	e5c0c01d 	strb	ip, [r0, #29]
    953c:	e5830014 	str	r0, [r3, #20]
    9540:	e580c03c 	str	ip, [r0, #60]	; 0x3c
    9544:	e580c038 	str	ip, [r0, #56]	; 0x38
    9548:	e580c020 	str	ip, [r0, #32]
    954c:	e580c018 	str	ip, [r0, #24]
    9550:	e1a0100c 	mov	r1, ip
    9554:	e58e0010 	str	r0, [lr, #16]
    9558:	e5805028 	str	r5, [r0, #40]	; 0x28
    955c:	e5802030 	str	r2, [r0, #48]	; 0x30
    9560:	e580202c 	str	r2, [r0, #44]	; 0x2c
    9564:	ebffff31 	bl	9230 <chSchWakeupS>
    9568:	e321f01f 	msr	CPSR_c, #31
    956c:	e1a00004 	mov	r0, r4
    9570:	e8bd81f0 	pop	{r4, r5, r6, r7, r8, pc}
    9574:	0000c1d4 	ldrdeq	ip, [r0], -r4
    9578:	00008160 	andeq	r8, r0, r0, ror #2
    957c:	00000000 	andeq	r0, r0, r0

00009580 <chThdSleep>:
    9580:	e92d4010 	push	{r4, lr}
    9584:	e1a01000 	mov	r1, r0
    9588:	e321f09f 	msr	CPSR_c, #159	; 0x9f
    958c:	e3a00006 	mov	r0, #6
    9590:	ebffff06 	bl	91b0 <chSchGoSleepTimeoutS>
    9594:	e321f01f 	msr	CPSR_c, #31
    9598:	e8bd8010 	pop	{r4, pc}
    959c:	00000000 	andeq	r0, r0, r0

000095a0 <chThdExitS>:
    95a0:	e59f305c 	ldr	r3, [pc, #92]	; 9604 <chThdExitS+0x64>
    95a4:	e92d4070 	push	{r4, r5, r6, lr}
    95a8:	e5934018 	ldr	r4, [r3, #24]
    95ac:	e1a05004 	mov	r5, r4
    95b0:	e5840024 	str	r0, [r4, #36]	; 0x24
    95b4:	e5b50028 	ldr	r0, [r5, #40]!	; 0x28
    95b8:	e1500005 	cmp	r0, r5
    95bc:	0a000005 	beq	95d8 <chThdExitS+0x38>
    95c0:	e5903000 	ldr	r3, [r0]
    95c4:	e5843028 	str	r3, [r4, #40]	; 0x28
    95c8:	ebfffed0 	bl	9110 <chSchReadyI>
    95cc:	e5940028 	ldr	r0, [r4, #40]	; 0x28
    95d0:	e1500005 	cmp	r0, r5
    95d4:	1afffff9 	bne	95c0 <chThdExitS+0x20>
    95d8:	e5d4301d 	ldrb	r3, [r4, #29]
    95dc:	e3130003 	tst	r3, #3
    95e0:	1a000004 	bne	95f8 <chThdExitS+0x58>
    95e4:	e5942010 	ldr	r2, [r4, #16]
    95e8:	e5943014 	ldr	r3, [r4, #20]
    95ec:	e5832010 	str	r2, [r3, #16]
    95f0:	e5942010 	ldr	r2, [r4, #16]
    95f4:	e5823014 	str	r3, [r2, #20]
    95f8:	e3a0000e 	mov	r0, #14
    95fc:	e8bd4070 	pop	{r4, r5, r6, lr}
    9600:	eafffed6 	b	9160 <chSchGoSleepS>
    9604:	0000c1d4 	ldrdeq	ip, [r0], -r4
	...

00009610 <chThdExit>:
    9610:	e321f09f 	msr	CPSR_c, #159	; 0x9f
    9614:	eaffffe1 	b	95a0 <chThdExitS>
	...

00009620 <chThdWait>:
    9620:	e92d4070 	push	{r4, r5, r6, lr}
    9624:	e1a04000 	mov	r4, r0
    9628:	e321f09f 	msr	CPSR_c, #159	; 0x9f
    962c:	e5d0301c 	ldrb	r3, [r0, #28]
    9630:	e353000e 	cmp	r3, #14
    9634:	0a000006 	beq	9654 <chThdWait+0x34>
    9638:	e59f302c 	ldr	r3, [pc, #44]	; 966c <chThdWait+0x4c>
    963c:	e5902028 	ldr	r2, [r0, #40]	; 0x28
    9640:	e5933018 	ldr	r3, [r3, #24]
    9644:	e3a00007 	mov	r0, #7
    9648:	e5832000 	str	r2, [r3]
    964c:	e5843028 	str	r3, [r4, #40]	; 0x28
    9650:	ebfffec2 	bl	9160 <chSchGoSleepS>
    9654:	e5945024 	ldr	r5, [r4, #36]	; 0x24
    9658:	e321f01f 	msr	CPSR_c, #31
    965c:	e1a00004 	mov	r0, r4
    9660:	eb000002 	bl	9670 <chThdRelease>
    9664:	e1a00005 	mov	r0, r5
    9668:	e8bd8070 	pop	{r4, r5, r6, pc}
    966c:	0000c1d4 	ldrdeq	ip, [r0], -r4

00009670 <chThdRelease>:
    9670:	e321f09f 	msr	CPSR_c, #159	; 0x9f
    9674:	e5d0301e 	ldrb	r3, [r0, #30]
    9678:	e2433001 	sub	r3, r3, #1
    967c:	e6ef3073 	uxtb	r3, r3
    9680:	e5c0301e 	strb	r3, [r0, #30]
    9684:	e321f01f 	msr	CPSR_c, #31
    9688:	e3530000 	cmp	r3, #0
    968c:	112fff1e 	bxne	lr
    9690:	e5d0301c 	ldrb	r3, [r0, #28]
    9694:	e353000e 	cmp	r3, #14
    9698:	112fff1e 	bxne	lr
    969c:	e5d0301d 	ldrb	r3, [r0, #29]
    96a0:	e2033003 	and	r3, r3, #3
    96a4:	e3530001 	cmp	r3, #1
    96a8:	112fff1e 	bxne	lr
    96ac:	e5903014 	ldr	r3, [r0, #20]
    96b0:	e5901010 	ldr	r1, [r0, #16]
    96b4:	e5831010 	str	r1, [r3, #16]
    96b8:	e5902010 	ldr	r2, [r0, #16]
    96bc:	e5823014 	str	r3, [r2, #20]
    96c0:	ea00022e 	b	9f80 <chHeapFree>
	...

000096d0 <chSemInit>:
    96d0:	e5800004 	str	r0, [r0, #4]
    96d4:	e5800000 	str	r0, [r0]
    96d8:	e5801008 	str	r1, [r0, #8]
    96dc:	e12fff1e 	bx	lr

000096e0 <chSemWait>:
    96e0:	e321f09f 	msr	CPSR_c, #159	; 0x9f
    96e4:	e5903008 	ldr	r3, [r0, #8]
    96e8:	e2433001 	sub	r3, r3, #1
    96ec:	e3530000 	cmp	r3, #0
    96f0:	e5803008 	str	r3, [r0, #8]
    96f4:	ba000002 	blt	9704 <chSemWait+0x24>
    96f8:	e3a00000 	mov	r0, #0
    96fc:	e321f01f 	msr	CPSR_c, #31
    9700:	e12fff1e 	bx	lr
    9704:	e1a03000 	mov	r3, r0
    9708:	e92d4010 	push	{r4, lr}
    970c:	e59f4030 	ldr	r4, [pc, #48]	; 9744 <chSemWait+0x64>
    9710:	e3a00003 	mov	r0, #3
    9714:	e5942018 	ldr	r2, [r4, #24]
    9718:	e5823024 	str	r3, [r2, #36]	; 0x24
    971c:	e5931004 	ldr	r1, [r3, #4]
    9720:	e5823000 	str	r3, [r2]
    9724:	e5821004 	str	r1, [r2, #4]
    9728:	e5832004 	str	r2, [r3, #4]
    972c:	e5812000 	str	r2, [r1]
    9730:	ebfffe8a 	bl	9160 <chSchGoSleepS>
    9734:	e5943018 	ldr	r3, [r4, #24]
    9738:	e5930024 	ldr	r0, [r3, #36]	; 0x24
    973c:	e321f01f 	msr	CPSR_c, #31
    9740:	e8bd8010 	pop	{r4, pc}
    9744:	0000c1d4 	ldrdeq	ip, [r0], -r4
	...

00009750 <chSemSignalI>:
    9750:	e5903008 	ldr	r3, [r0, #8]
    9754:	e1a02000 	mov	r2, r0
    9758:	e2833001 	add	r3, r3, #1
    975c:	e3530000 	cmp	r3, #0
    9760:	e5803008 	str	r3, [r0, #8]
    9764:	c12fff1e 	bxgt	lr
    9768:	e3a0c000 	mov	ip, #0
    976c:	e5903000 	ldr	r3, [r0]
    9770:	e5931000 	ldr	r1, [r3]
    9774:	e1a00003 	mov	r0, r3
    9778:	e5821000 	str	r1, [r2]
    977c:	e5812004 	str	r2, [r1, #4]
    9780:	e583c024 	str	ip, [r3, #36]	; 0x24
    9784:	eafffe61 	b	9110 <chSchReadyI>
	...

00009790 <chMtxInit>:
    9790:	e3a03000 	mov	r3, #0
    9794:	e5800004 	str	r0, [r0, #4]
    9798:	e5800000 	str	r0, [r0]
    979c:	e5803008 	str	r3, [r0, #8]
    97a0:	e12fff1e 	bx	lr
	...

000097b0 <chMtxLockS>:
    97b0:	e5902008 	ldr	r2, [r0, #8]
    97b4:	e59f3168 	ldr	r3, [pc, #360]	; 9924 <chMtxLockS+0x174>
    97b8:	e3520000 	cmp	r2, #0
    97bc:	e92d4070 	push	{r4, r5, r6, lr}
    97c0:	e5934018 	ldr	r4, [r3, #24]
    97c4:	0a000051 	beq	9910 <chMtxLockS+0x160>
    97c8:	e5941008 	ldr	r1, [r4, #8]
    97cc:	e5923008 	ldr	r3, [r2, #8]
    97d0:	e1a05000 	mov	r5, r0
    97d4:	e1510003 	cmp	r1, r3
    97d8:	9a000007 	bls	97fc <chMtxLockS+0x4c>
    97dc:	e5d2301c 	ldrb	r3, [r2, #28]
    97e0:	e5821008 	str	r1, [r2, #8]
    97e4:	e3530004 	cmp	r3, #4
    97e8:	0a00002f 	beq	98ac <chMtxLockS+0xfc>
    97ec:	e3530005 	cmp	r3, #5
    97f0:	0a00001a 	beq	9860 <chMtxLockS+0xb0>
    97f4:	e3530000 	cmp	r3, #0
    97f8:	0a000011 	beq	9844 <chMtxLockS+0x94>
    97fc:	e1a03005 	mov	r3, r5
    9800:	ea000003 	b	9814 <chMtxLockS+0x64>
    9804:	e5931008 	ldr	r1, [r3, #8]
    9808:	e5942008 	ldr	r2, [r4, #8]
    980c:	e1510002 	cmp	r1, r2
    9810:	3a000002 	bcc	9820 <chMtxLockS+0x70>
    9814:	e5933000 	ldr	r3, [r3]
    9818:	e1550003 	cmp	r5, r3
    981c:	1afffff8 	bne	9804 <chMtxLockS+0x54>
    9820:	e5932004 	ldr	r2, [r3, #4]
    9824:	e5843000 	str	r3, [r4]
    9828:	e5842004 	str	r2, [r4, #4]
    982c:	e5834004 	str	r4, [r3, #4]
    9830:	e5824000 	str	r4, [r2]
    9834:	e5845024 	str	r5, [r4, #36]	; 0x24
    9838:	e3a00004 	mov	r0, #4
    983c:	e8bd4070 	pop	{r4, r5, r6, lr}
    9840:	eafffe46 	b	9160 <chSchGoSleepS>
    9844:	e892000a 	ldm	r2, {r1, r3}
    9848:	e5831000 	str	r1, [r3]
    984c:	e1a00002 	mov	r0, r2
    9850:	e5922000 	ldr	r2, [r2]
    9854:	e5823004 	str	r3, [r2, #4]
    9858:	ebfffe2c 	bl	9110 <chSchReadyI>
    985c:	eaffffe6 	b	97fc <chMtxLockS+0x4c>
    9860:	e8920009 	ldm	r2, {r0, r3}
    9864:	e5830000 	str	r0, [r3]
    9868:	e5920000 	ldr	r0, [r2]
    986c:	e5803004 	str	r3, [r0, #4]
    9870:	e592c024 	ldr	ip, [r2, #36]	; 0x24
    9874:	e1a0300c 	mov	r3, ip
    9878:	ea000002 	b	9888 <chMtxLockS+0xd8>
    987c:	e5930008 	ldr	r0, [r3, #8]
    9880:	e1500001 	cmp	r0, r1
    9884:	3a000002 	bcc	9894 <chMtxLockS+0xe4>
    9888:	e5933000 	ldr	r3, [r3]
    988c:	e15c0003 	cmp	ip, r3
    9890:	1afffff9 	bne	987c <chMtxLockS+0xcc>
    9894:	e5931004 	ldr	r1, [r3, #4]
    9898:	e5823000 	str	r3, [r2]
    989c:	e5821004 	str	r1, [r2, #4]
    98a0:	e5832004 	str	r2, [r3, #4]
    98a4:	e5812000 	str	r2, [r1]
    98a8:	eaffffd3 	b	97fc <chMtxLockS+0x4c>
    98ac:	e8920009 	ldm	r2, {r0, r3}
    98b0:	e5830000 	str	r0, [r3]
    98b4:	e5920000 	ldr	r0, [r2]
    98b8:	e5803004 	str	r3, [r0, #4]
    98bc:	e592c024 	ldr	ip, [r2, #36]	; 0x24
    98c0:	e1a0300c 	mov	r3, ip
    98c4:	ea000002 	b	98d4 <chMtxLockS+0x124>
    98c8:	e5930008 	ldr	r0, [r3, #8]
    98cc:	e1500001 	cmp	r0, r1
    98d0:	3a000003 	bcc	98e4 <chMtxLockS+0x134>
    98d4:	e5933000 	ldr	r3, [r3]
    98d8:	e15c0003 	cmp	ip, r3
    98dc:	1afffff9 	bne	98c8 <chMtxLockS+0x118>
    98e0:	e1a0300c 	mov	r3, ip
    98e4:	e5931004 	ldr	r1, [r3, #4]
    98e8:	e5823000 	str	r3, [r2]
    98ec:	e5821004 	str	r1, [r2, #4]
    98f0:	e5832004 	str	r2, [r3, #4]
    98f4:	e5812000 	str	r2, [r1]
    98f8:	e59c2008 	ldr	r2, [ip, #8]
    98fc:	e5941008 	ldr	r1, [r4, #8]
    9900:	e5923008 	ldr	r3, [r2, #8]
    9904:	e1530001 	cmp	r3, r1
    9908:	3affffb3 	bcc	97dc <chMtxLockS+0x2c>
    990c:	eaffffba 	b	97fc <chMtxLockS+0x4c>
    9910:	e594303c 	ldr	r3, [r4, #60]	; 0x3c
    9914:	e5804008 	str	r4, [r0, #8]
    9918:	e580300c 	str	r3, [r0, #12]
    991c:	e584003c 	str	r0, [r4, #60]	; 0x3c
    9920:	e8bd8070 	pop	{r4, r5, r6, pc}
    9924:	0000c1d4 	ldrdeq	ip, [r0], -r4
	...

00009930 <chMtxLock>:
    9930:	e92d4010 	push	{r4, lr}
    9934:	e321f09f 	msr	CPSR_c, #159	; 0x9f
    9938:	ebffff9c 	bl	97b0 <chMtxLockS>
    993c:	e321f01f 	msr	CPSR_c, #31
    9940:	e8bd8010 	pop	{r4, pc}
	...

00009950 <chMtxUnlock>:
    9950:	e59f3094 	ldr	r3, [pc, #148]	; 99ec <chMtxUnlock+0x9c>
    9954:	e92d4010 	push	{r4, lr}
    9958:	e5930018 	ldr	r0, [r3, #24]
    995c:	e321f09f 	msr	CPSR_c, #159	; 0x9f
    9960:	e590403c 	ldr	r4, [r0, #60]	; 0x3c
    9964:	e594c000 	ldr	ip, [r4]
    9968:	e594300c 	ldr	r3, [r4, #12]
    996c:	e15c0004 	cmp	ip, r4
    9970:	e580303c 	str	r3, [r0, #60]	; 0x3c
    9974:	0a000019 	beq	99e0 <chMtxUnlock+0x90>
    9978:	e3530000 	cmp	r3, #0
    997c:	e5901040 	ldr	r1, [r0, #64]	; 0x40
    9980:	0a000008 	beq	99a8 <chMtxUnlock+0x58>
    9984:	e5932000 	ldr	r2, [r3]
    9988:	e1520003 	cmp	r2, r3
    998c:	0a000002 	beq	999c <chMtxUnlock+0x4c>
    9990:	e5922008 	ldr	r2, [r2, #8]
    9994:	e1510002 	cmp	r1, r2
    9998:	31a01002 	movcc	r1, r2
    999c:	e593300c 	ldr	r3, [r3, #12]
    99a0:	e3530000 	cmp	r3, #0
    99a4:	1afffff6 	bne	9984 <chMtxUnlock+0x34>
    99a8:	e59c203c 	ldr	r2, [ip, #60]	; 0x3c
    99ac:	e59c3000 	ldr	r3, [ip]
    99b0:	e5801008 	str	r1, [r0, #8]
    99b4:	e5843000 	str	r3, [r4]
    99b8:	e1a0000c 	mov	r0, ip
    99bc:	e5834004 	str	r4, [r3, #4]
    99c0:	e3a01000 	mov	r1, #0
    99c4:	e584c008 	str	ip, [r4, #8]
    99c8:	e584200c 	str	r2, [r4, #12]
    99cc:	e58c403c 	str	r4, [ip, #60]	; 0x3c
    99d0:	ebfffe16 	bl	9230 <chSchWakeupS>
    99d4:	e321f01f 	msr	CPSR_c, #31
    99d8:	e1a00004 	mov	r0, r4
    99dc:	e8bd8010 	pop	{r4, pc}
    99e0:	e3a03000 	mov	r3, #0
    99e4:	e5843008 	str	r3, [r4, #8]
    99e8:	eafffff9 	b	99d4 <chMtxUnlock+0x84>
    99ec:	0000c1d4 	ldrdeq	ip, [r0], -r4

000099f0 <chEvtSignalI>:
    99f0:	e5903038 	ldr	r3, [r0, #56]	; 0x38
    99f4:	e5d0201c 	ldrb	r2, [r0, #28]
    99f8:	e1811003 	orr	r1, r1, r3
    99fc:	e3520008 	cmp	r2, #8
    9a00:	e5801038 	str	r1, [r0, #56]	; 0x38
    9a04:	0a000009 	beq	9a30 <chEvtSignalI+0x40>
    9a08:	e3520009 	cmp	r2, #9
    9a0c:	112fff1e 	bxne	lr
    9a10:	e5903024 	ldr	r3, [r0, #36]	; 0x24
    9a14:	e1d33001 	bics	r3, r3, r1
    9a18:	112fff1e 	bxne	lr
    9a1c:	e92d4010 	push	{r4, lr}
    9a20:	ebfffdba 	bl	9110 <chSchReadyI>
    9a24:	e3a03000 	mov	r3, #0
    9a28:	e5803024 	str	r3, [r0, #36]	; 0x24
    9a2c:	e8bd8010 	pop	{r4, pc}
    9a30:	e5903024 	ldr	r3, [r0, #36]	; 0x24
    9a34:	e1110003 	tst	r1, r3
    9a38:	1afffff7 	bne	9a1c <chEvtSignalI+0x2c>
    9a3c:	e12fff1e 	bx	lr

00009a40 <chEvtBroadcastFlagsI>:
    9a40:	e92d4070 	push	{r4, r5, r6, lr}
    9a44:	e5904000 	ldr	r4, [r0]
    9a48:	e1500004 	cmp	r0, r4
    9a4c:	08bd8070 	popeq	{r4, r5, r6, pc}
    9a50:	e1a05000 	mov	r5, r0
    9a54:	e1a06001 	mov	r6, r1
    9a58:	e594300c 	ldr	r3, [r4, #12]
    9a5c:	e5941008 	ldr	r1, [r4, #8]
    9a60:	e1833006 	orr	r3, r3, r6
    9a64:	e584300c 	str	r3, [r4, #12]
    9a68:	e5940004 	ldr	r0, [r4, #4]
    9a6c:	ebffffdf 	bl	99f0 <chEvtSignalI>
    9a70:	e5944000 	ldr	r4, [r4]
    9a74:	e1550004 	cmp	r5, r4
    9a78:	1afffff6 	bne	9a58 <chEvtBroadcastFlagsI+0x18>
    9a7c:	e8bd8070 	pop	{r4, r5, r6, pc}

00009a80 <qwait>:
    9a80:	e3510000 	cmp	r1, #0
    9a84:	e1a02000 	mov	r2, r0
    9a88:	0a000008 	beq	9ab0 <qwait+0x30>
    9a8c:	e59f3024 	ldr	r3, [pc, #36]	; 9ab8 <qwait+0x38>
    9a90:	e3a0000d 	mov	r0, #13
    9a94:	e5933018 	ldr	r3, [r3, #24]
    9a98:	e5832024 	str	r2, [r3, #36]	; 0x24
    9a9c:	e592c004 	ldr	ip, [r2, #4]
    9aa0:	e8831004 	stm	r3, {r2, ip}
    9aa4:	e5823004 	str	r3, [r2, #4]
    9aa8:	e58c3000 	str	r3, [ip]
    9aac:	eafffdbf 	b	91b0 <chSchGoSleepTimeoutS>
    9ab0:	e3e00000 	mvn	r0, #0
    9ab4:	e12fff1e 	bx	lr
    9ab8:	0000c1d4 	ldrdeq	ip, [r0], -r4
    9abc:	00000000 	andeq	r0, r0, r0

00009ac0 <chIQInit>:
    9ac0:	e52de004 	push	{lr}		; (str lr, [sp, #-4]!)
    9ac4:	e3a0e000 	mov	lr, #0
    9ac8:	e59dc004 	ldr	ip, [sp, #4]
    9acc:	e0812002 	add	r2, r1, r2
    9ad0:	e5802010 	str	r2, [r0, #16]
    9ad4:	e5800004 	str	r0, [r0, #4]
    9ad8:	e5800000 	str	r0, [r0]
    9adc:	e5801014 	str	r1, [r0, #20]
    9ae0:	e5801018 	str	r1, [r0, #24]
    9ae4:	e580100c 	str	r1, [r0, #12]
    9ae8:	e580301c 	str	r3, [r0, #28]
    9aec:	e580e008 	str	lr, [r0, #8]
    9af0:	e580c020 	str	ip, [r0, #32]
    9af4:	e49df004 	pop	{pc}		; (ldr pc, [sp], #4)
	...

00009b00 <chIQPutI>:
    9b00:	e5903018 	ldr	r3, [r0, #24]
    9b04:	e5902014 	ldr	r2, [r0, #20]
    9b08:	e1520003 	cmp	r2, r3
    9b0c:	e5903008 	ldr	r3, [r0, #8]
    9b10:	0a000019 	beq	9b7c <chIQPutI+0x7c>
    9b14:	e2833001 	add	r3, r3, #1
    9b18:	e282c001 	add	ip, r2, #1
    9b1c:	e580c014 	str	ip, [r0, #20]
    9b20:	e5803008 	str	r3, [r0, #8]
    9b24:	e5c21000 	strb	r1, [r2]
    9b28:	e5902014 	ldr	r2, [r0, #20]
    9b2c:	e5903010 	ldr	r3, [r0, #16]
    9b30:	e1520003 	cmp	r2, r3
    9b34:	2590300c 	ldrcs	r3, [r0, #12]
    9b38:	e5902000 	ldr	r2, [r0]
    9b3c:	25803014 	strcs	r3, [r0, #20]
    9b40:	e1520000 	cmp	r2, r0
    9b44:	0a00000a 	beq	9b74 <chIQPutI+0x74>
    9b48:	e1a03000 	mov	r3, r0
    9b4c:	e5921000 	ldr	r1, [r2]
    9b50:	e92d4010 	push	{r4, lr}
    9b54:	e1a00002 	mov	r0, r2
    9b58:	e5831000 	str	r1, [r3]
    9b5c:	e5813004 	str	r3, [r1, #4]
    9b60:	ebfffd6a 	bl	9110 <chSchReadyI>
    9b64:	e3a03000 	mov	r3, #0
    9b68:	e5803024 	str	r3, [r0, #36]	; 0x24
    9b6c:	e1a00003 	mov	r0, r3
    9b70:	e8bd8010 	pop	{r4, pc}
    9b74:	e3a00000 	mov	r0, #0
    9b78:	e12fff1e 	bx	lr
    9b7c:	e3530000 	cmp	r3, #0
    9b80:	0affffe3 	beq	9b14 <chIQPutI+0x14>
    9b84:	e3e00003 	mvn	r0, #3
    9b88:	e12fff1e 	bx	lr
    9b8c:	00000000 	andeq	r0, r0, r0

00009b90 <chIQGetTimeout>:
    9b90:	e92d4070 	push	{r4, r5, r6, lr}
    9b94:	e1a05001 	mov	r5, r1
    9b98:	e1a04000 	mov	r4, r0
    9b9c:	e321f09f 	msr	CPSR_c, #159	; 0x9f
    9ba0:	e590301c 	ldr	r3, [r0, #28]
    9ba4:	e3530000 	cmp	r3, #0
    9ba8:	0a000006 	beq	9bc8 <chIQGetTimeout+0x38>
    9bac:	e12fff33 	blx	r3
    9bb0:	ea000004 	b	9bc8 <chIQGetTimeout+0x38>
    9bb4:	e1a01005 	mov	r1, r5
    9bb8:	e1a00004 	mov	r0, r4
    9bbc:	ebffffaf 	bl	9a80 <qwait>
    9bc0:	e3500000 	cmp	r0, #0
    9bc4:	ba00000c 	blt	9bfc <chIQGetTimeout+0x6c>
    9bc8:	e5943008 	ldr	r3, [r4, #8]
    9bcc:	e3530000 	cmp	r3, #0
    9bd0:	0afffff7 	beq	9bb4 <chIQGetTimeout+0x24>
    9bd4:	e5942018 	ldr	r2, [r4, #24]
    9bd8:	e5940010 	ldr	r0, [r4, #16]
    9bdc:	e2821001 	add	r1, r2, #1
    9be0:	e2433001 	sub	r3, r3, #1
    9be4:	e1510000 	cmp	r1, r0
    9be8:	e5843008 	str	r3, [r4, #8]
    9bec:	2594300c 	ldrcs	r3, [r4, #12]
    9bf0:	e5841018 	str	r1, [r4, #24]
    9bf4:	e5d20000 	ldrb	r0, [r2]
    9bf8:	25843018 	strcs	r3, [r4, #24]
    9bfc:	e321f01f 	msr	CPSR_c, #31
    9c00:	e8bd8070 	pop	{r4, r5, r6, pc}
	...

00009c10 <chIQReadTimeout>:
    9c10:	e92d47f0 	push	{r4, r5, r6, r7, r8, r9, sl, lr}
    9c14:	e1a04000 	mov	r4, r0
    9c18:	e1a08001 	mov	r8, r1
    9c1c:	e1a09002 	mov	r9, r2
    9c20:	e1a05003 	mov	r5, r3
    9c24:	e590701c 	ldr	r7, [r0, #28]
    9c28:	e321f09f 	msr	CPSR_c, #159	; 0x9f
    9c2c:	e3a06000 	mov	r6, #0
    9c30:	e3570000 	cmp	r7, #0
    9c34:	0a000007 	beq	9c58 <chIQReadTimeout+0x48>
    9c38:	e1a00004 	mov	r0, r4
    9c3c:	e12fff37 	blx	r7
    9c40:	ea000004 	b	9c58 <chIQReadTimeout+0x48>
    9c44:	e1a01005 	mov	r1, r5
    9c48:	e1a00004 	mov	r0, r4
    9c4c:	ebffff8b 	bl	9a80 <qwait>
    9c50:	e3500000 	cmp	r0, #0
    9c54:	1a000014 	bne	9cac <chIQReadTimeout+0x9c>
    9c58:	e5943008 	ldr	r3, [r4, #8]
    9c5c:	e3530000 	cmp	r3, #0
    9c60:	0afffff7 	beq	9c44 <chIQReadTimeout+0x34>
    9c64:	e5942018 	ldr	r2, [r4, #24]
    9c68:	e2433001 	sub	r3, r3, #1
    9c6c:	e2821001 	add	r1, r2, #1
    9c70:	e5841018 	str	r1, [r4, #24]
    9c74:	e5843008 	str	r3, [r4, #8]
    9c78:	e5d23000 	ldrb	r3, [r2]
    9c7c:	e4c83001 	strb	r3, [r8], #1
    9c80:	e5943010 	ldr	r3, [r4, #16]
    9c84:	e5942018 	ldr	r2, [r4, #24]
    9c88:	e1520003 	cmp	r2, r3
    9c8c:	2594300c 	ldrcs	r3, [r4, #12]
    9c90:	25843018 	strcs	r3, [r4, #24]
    9c94:	e321f01f 	msr	CPSR_c, #31
    9c98:	e2866001 	add	r6, r6, #1
    9c9c:	e1590006 	cmp	r9, r6
    9ca0:	0a000002 	beq	9cb0 <chIQReadTimeout+0xa0>
    9ca4:	e321f09f 	msr	CPSR_c, #159	; 0x9f
    9ca8:	eaffffe0 	b	9c30 <chIQReadTimeout+0x20>
    9cac:	e321f01f 	msr	CPSR_c, #31
    9cb0:	e1a00006 	mov	r0, r6
    9cb4:	e8bd87f0 	pop	{r4, r5, r6, r7, r8, r9, sl, pc}
	...

00009cc0 <chOQInit>:
    9cc0:	e52de004 	push	{lr}		; (str lr, [sp, #-4]!)
    9cc4:	e59dc004 	ldr	ip, [sp, #4]
    9cc8:	e081e002 	add	lr, r1, r2
    9ccc:	e5800004 	str	r0, [r0, #4]
    9cd0:	e5800000 	str	r0, [r0]
    9cd4:	e5802008 	str	r2, [r0, #8]
    9cd8:	e580e010 	str	lr, [r0, #16]
    9cdc:	e5801014 	str	r1, [r0, #20]
    9ce0:	e5801018 	str	r1, [r0, #24]
    9ce4:	e580100c 	str	r1, [r0, #12]
    9ce8:	e580301c 	str	r3, [r0, #28]
    9cec:	e580c020 	str	ip, [r0, #32]
    9cf0:	e49df004 	pop	{pc}		; (ldr pc, [sp], #4)
	...

00009d00 <chOQPutTimeout>:
    9d00:	e92d4070 	push	{r4, r5, r6, lr}
    9d04:	e1a04000 	mov	r4, r0
    9d08:	e1a06001 	mov	r6, r1
    9d0c:	e1a05002 	mov	r5, r2
    9d10:	e321f09f 	msr	CPSR_c, #159	; 0x9f
    9d14:	ea000004 	b	9d2c <chOQPutTimeout+0x2c>
    9d18:	e1a01005 	mov	r1, r5
    9d1c:	e1a00004 	mov	r0, r4
    9d20:	ebffff56 	bl	9a80 <qwait>
    9d24:	e3500000 	cmp	r0, #0
    9d28:	ba000015 	blt	9d84 <chOQPutTimeout+0x84>
    9d2c:	e5943008 	ldr	r3, [r4, #8]
    9d30:	e3530000 	cmp	r3, #0
    9d34:	0afffff7 	beq	9d18 <chOQPutTimeout+0x18>
    9d38:	e5942014 	ldr	r2, [r4, #20]
    9d3c:	e2433001 	sub	r3, r3, #1
    9d40:	e2821001 	add	r1, r2, #1
    9d44:	e5841014 	str	r1, [r4, #20]
    9d48:	e5843008 	str	r3, [r4, #8]
    9d4c:	e5c26000 	strb	r6, [r2]
    9d50:	e5943010 	ldr	r3, [r4, #16]
    9d54:	e5942014 	ldr	r2, [r4, #20]
    9d58:	e1520003 	cmp	r2, r3
    9d5c:	2594300c 	ldrcs	r3, [r4, #12]
    9d60:	25843014 	strcs	r3, [r4, #20]
    9d64:	e594301c 	ldr	r3, [r4, #28]
    9d68:	e3530000 	cmp	r3, #0
    9d6c:	0a000001 	beq	9d78 <chOQPutTimeout+0x78>
    9d70:	e1a00004 	mov	r0, r4
    9d74:	e12fff33 	blx	r3
    9d78:	e321f01f 	msr	CPSR_c, #31
    9d7c:	e3a00000 	mov	r0, #0
    9d80:	e8bd8070 	pop	{r4, r5, r6, pc}
    9d84:	e321f01f 	msr	CPSR_c, #31
    9d88:	e8bd8070 	pop	{r4, r5, r6, pc}
    9d8c:	00000000 	andeq	r0, r0, r0

00009d90 <chOQGetI>:
    9d90:	e5903014 	ldr	r3, [r0, #20]
    9d94:	e5902018 	ldr	r2, [r0, #24]
    9d98:	e1530002 	cmp	r3, r2
    9d9c:	e5903008 	ldr	r3, [r0, #8]
    9da0:	0a000016 	beq	9e00 <chOQGetI+0x70>
    9da4:	e92d4010 	push	{r4, lr}
    9da8:	e590c010 	ldr	ip, [r0, #16]
    9dac:	e2833001 	add	r3, r3, #1
    9db0:	e2821001 	add	r1, r2, #1
    9db4:	e151000c 	cmp	r1, ip
    9db8:	e5803008 	str	r3, [r0, #8]
    9dbc:	e5801018 	str	r1, [r0, #24]
    9dc0:	e5d24000 	ldrb	r4, [r2]
    9dc4:	2590300c 	ldrcs	r3, [r0, #12]
    9dc8:	e5902000 	ldr	r2, [r0]
    9dcc:	25803018 	strcs	r3, [r0, #24]
    9dd0:	e1520000 	cmp	r2, r0
    9dd4:	0a000007 	beq	9df8 <chOQGetI+0x68>
    9dd8:	e1a03000 	mov	r3, r0
    9ddc:	e5921000 	ldr	r1, [r2]
    9de0:	e1a00002 	mov	r0, r2
    9de4:	e5831000 	str	r1, [r3]
    9de8:	e5813004 	str	r3, [r1, #4]
    9dec:	ebfffcc7 	bl	9110 <chSchReadyI>
    9df0:	e3a03000 	mov	r3, #0
    9df4:	e5803024 	str	r3, [r0, #36]	; 0x24
    9df8:	e1a00004 	mov	r0, r4
    9dfc:	e8bd8010 	pop	{r4, pc}
    9e00:	e3530000 	cmp	r3, #0
    9e04:	0affffe6 	beq	9da4 <chOQGetI+0x14>
    9e08:	e3e00002 	mvn	r0, #2
    9e0c:	e12fff1e 	bx	lr

00009e10 <chOQWriteTimeout>:
    9e10:	e92d47f0 	push	{r4, r5, r6, r7, r8, r9, sl, lr}
    9e14:	e1a04000 	mov	r4, r0
    9e18:	e1a05001 	mov	r5, r1
    9e1c:	e1a06002 	mov	r6, r2
    9e20:	e1a09003 	mov	r9, r3
    9e24:	e590801c 	ldr	r8, [r0, #28]
    9e28:	e321f09f 	msr	CPSR_c, #159	; 0x9f
    9e2c:	e3a07000 	mov	r7, #0
    9e30:	e5943008 	ldr	r3, [r4, #8]
    9e34:	e285a001 	add	sl, r5, #1
    9e38:	e3530000 	cmp	r3, #0
    9e3c:	e2432001 	sub	r2, r3, #1
    9e40:	0a000015 	beq	9e9c <chOQWriteTimeout+0x8c>
    9e44:	e5943014 	ldr	r3, [r4, #20]
    9e48:	e5842008 	str	r2, [r4, #8]
    9e4c:	e2832001 	add	r2, r3, #1
    9e50:	e5842014 	str	r2, [r4, #20]
    9e54:	e5d52000 	ldrb	r2, [r5]
    9e58:	e5c32000 	strb	r2, [r3]
    9e5c:	e5943010 	ldr	r3, [r4, #16]
    9e60:	e5942014 	ldr	r2, [r4, #20]
    9e64:	e1520003 	cmp	r2, r3
    9e68:	2594300c 	ldrcs	r3, [r4, #12]
    9e6c:	25843014 	strcs	r3, [r4, #20]
    9e70:	e3580000 	cmp	r8, #0
    9e74:	0a000001 	beq	9e80 <chOQWriteTimeout+0x70>
    9e78:	e1a00004 	mov	r0, r4
    9e7c:	e12fff38 	blx	r8
    9e80:	e321f01f 	msr	CPSR_c, #31
    9e84:	e2566001 	subs	r6, r6, #1
    9e88:	e2877001 	add	r7, r7, #1
    9e8c:	0a000008 	beq	9eb4 <chOQWriteTimeout+0xa4>
    9e90:	e321f09f 	msr	CPSR_c, #159	; 0x9f
    9e94:	e1a0500a 	mov	r5, sl
    9e98:	eaffffe4 	b	9e30 <chOQWriteTimeout+0x20>
    9e9c:	e1a01009 	mov	r1, r9
    9ea0:	e1a00004 	mov	r0, r4
    9ea4:	ebfffef5 	bl	9a80 <qwait>
    9ea8:	e3500000 	cmp	r0, #0
    9eac:	0affffdf 	beq	9e30 <chOQWriteTimeout+0x20>
    9eb0:	e321f01f 	msr	CPSR_c, #31
    9eb4:	e1a00007 	mov	r0, r7
    9eb8:	e8bd87f0 	pop	{r4, r5, r6, r7, r8, r9, sl, pc}
    9ebc:	00000000 	andeq	r0, r0, r0

00009ec0 <_core_init>:
    9ec0:	e59f201c 	ldr	r2, [pc, #28]	; 9ee4 <_core_init+0x24>
    9ec4:	e59f301c 	ldr	r3, [pc, #28]	; 9ee8 <_core_init+0x28>
    9ec8:	e59f001c 	ldr	r0, [pc, #28]	; 9eec <_core_init+0x2c>
    9ecc:	e59f101c 	ldr	r1, [pc, #28]	; 9ef0 <_core_init+0x30>
    9ed0:	e3c22003 	bic	r2, r2, #3
    9ed4:	e3c33003 	bic	r3, r3, #3
    9ed8:	e5802000 	str	r2, [r0]
    9edc:	e5813000 	str	r3, [r1]
    9ee0:	e12fff1e 	bx	lr
    9ee4:	0000c34b 	andeq	ip, r0, fp, asr #6
    9ee8:	06007b44 	streq	r7, [r0], -r4, asr #22
    9eec:	0000bda8 	andeq	fp, r0, r8, lsr #27
    9ef0:	0000bda4 	andeq	fp, r0, r4, lsr #27
	...

00009f00 <chCoreAlloc>:
    9f00:	e321f09f 	msr	CPSR_c, #159	; 0x9f
    9f04:	e59fc030 	ldr	ip, [pc, #48]	; 9f3c <chCoreAlloc+0x3c>
    9f08:	e59f3030 	ldr	r3, [pc, #48]	; 9f40 <chCoreAlloc+0x40>
    9f0c:	e59c2000 	ldr	r2, [ip]
    9f10:	e5931000 	ldr	r1, [r3]
    9f14:	e2803003 	add	r3, r0, #3
    9f18:	e3c33003 	bic	r3, r3, #3
    9f1c:	e0411002 	sub	r1, r1, r2
    9f20:	e1530001 	cmp	r3, r1
    9f24:	90823003 	addls	r3, r2, r3
    9f28:	958c3000 	strls	r3, [ip]
    9f2c:	91a00002 	movls	r0, r2
    9f30:	83a00000 	movhi	r0, #0
    9f34:	e321f01f 	msr	CPSR_c, #31
    9f38:	e12fff1e 	bx	lr
    9f3c:	0000bda8 	andeq	fp, r0, r8, lsr #27
    9f40:	0000bda4 	andeq	fp, r0, r4, lsr #27
	...

00009f50 <_heap_init>:
    9f50:	e3a02000 	mov	r2, #0
    9f54:	e59f3014 	ldr	r3, [pc, #20]	; 9f70 <_heap_init+0x20>
    9f58:	e59f1014 	ldr	r1, [pc, #20]	; 9f74 <_heap_init+0x24>
    9f5c:	e283000c 	add	r0, r3, #12
    9f60:	e5832004 	str	r2, [r3, #4]
    9f64:	e5832008 	str	r2, [r3, #8]
    9f68:	e5831000 	str	r1, [r3]
    9f6c:	eafffe07 	b	9790 <chMtxInit>
    9f70:	0000bdac 	andeq	fp, r0, ip, lsr #27
    9f74:	00009f00 	andeq	r9, r0, r0, lsl #30
	...

00009f80 <chHeapFree>:
    9f80:	e92d4070 	push	{r4, r5, r6, lr}
    9f84:	e1a06000 	mov	r6, r0
    9f88:	e5100008 	ldr	r0, [r0, #-8]
    9f8c:	e2464008 	sub	r4, r6, #8
    9f90:	e2805004 	add	r5, r0, #4
    9f94:	e280000c 	add	r0, r0, #12
    9f98:	ebfffe64 	bl	9930 <chMtxLock>
    9f9c:	e1a03005 	mov	r3, r5
    9fa0:	ea000002 	b	9fb0 <chHeapFree+0x30>
    9fa4:	e1540002 	cmp	r4, r2
    9fa8:	3a00000a 	bcc	9fd8 <chHeapFree+0x58>
    9fac:	e1a03002 	mov	r3, r2
    9fb0:	e0432005 	sub	r2, r3, r5
    9fb4:	e16f2f12 	clz	r2, r2
    9fb8:	e1a022a2 	lsr	r2, r2, #5
    9fbc:	e1530004 	cmp	r3, r4
    9fc0:	33822001 	orrcc	r2, r2, #1
    9fc4:	e3520000 	cmp	r2, #0
    9fc8:	e5932000 	ldr	r2, [r3]
    9fcc:	0afffff6 	beq	9fac <chHeapFree+0x2c>
    9fd0:	e3520000 	cmp	r2, #0
    9fd4:	1afffff2 	bne	9fa4 <chHeapFree+0x24>
    9fd8:	e5062008 	str	r2, [r6, #-8]
    9fdc:	e5834000 	str	r4, [r3]
    9fe0:	e9160005 	ldmdb	r6, {r0, r2}
    9fe4:	e0861002 	add	r1, r6, r2
    9fe8:	e1510000 	cmp	r1, r0
    9fec:	0a000006 	beq	a00c <chHeapFree+0x8c>
    9ff0:	e5931004 	ldr	r1, [r3, #4]
    9ff4:	e2812008 	add	r2, r1, #8
    9ff8:	e0832002 	add	r2, r3, r2
    9ffc:	e1540002 	cmp	r4, r2
    a000:	0a000008 	beq	a028 <chHeapFree+0xa8>
    a004:	e8bd4070 	pop	{r4, r5, r6, lr}
    a008:	eafffe50 	b	9950 <chMtxUnlock>
    a00c:	e5911004 	ldr	r1, [r1, #4]
    a010:	e2820008 	add	r0, r2, #8
    a014:	e0811000 	add	r1, r1, r0
    a018:	e5061004 	str	r1, [r6, #-4]
    a01c:	e7962002 	ldr	r2, [r6, r2]
    a020:	e5062008 	str	r2, [r6, #-8]
    a024:	eafffff1 	b	9ff0 <chHeapFree+0x70>
    a028:	e5162004 	ldr	r2, [r6, #-4]
    a02c:	e2822008 	add	r2, r2, #8
    a030:	e0821001 	add	r1, r2, r1
    a034:	e5831004 	str	r1, [r3, #4]
    a038:	e5162008 	ldr	r2, [r6, #-8]
    a03c:	e5832000 	str	r2, [r3]
    a040:	e8bd4070 	pop	{r4, r5, r6, lr}
    a044:	eafffe41 	b	9950 <chMtxUnlock>
	...

0000a050 <halInit>:
    a050:	e92d4010 	push	{r4, lr}
    a054:	eb0000f5 	bl	a430 <hal_lld_init>
    a058:	eb0000c8 	bl	a380 <tmInit>
    a05c:	e59f0014 	ldr	r0, [pc, #20]	; a078 <halInit+0x28>
    a060:	eb00011e 	bl	a4e0 <_pal_lld_init>
    a064:	eb000005 	bl	a080 <i2cInit>
    a068:	eb000054 	bl	a1c0 <sdInit>
    a06c:	eb00009b 	bl	a2e0 <spiInit>
    a070:	e8bd4010 	pop	{r4, lr}
    a074:	ea00035d 	b	adf0 <boardInit>
    a078:	0000bcd0 	ldrdeq	fp, [r0], -r0
    a07c:	00000000 	andeq	r0, r0, r0

0000a080 <i2cInit>:
    a080:	ea00021e 	b	a900 <i2c_lld_init>
	...

0000a090 <i2cObjectInit>:
    a090:	e3a02001 	mov	r2, #1
    a094:	e3a03000 	mov	r3, #0
    a098:	e5c02000 	strb	r2, [r0]
    a09c:	e5803004 	str	r3, [r0, #4]
    a0a0:	e2800010 	add	r0, r0, #16
    a0a4:	eafffdb9 	b	9790 <chMtxInit>
	...

0000a0b0 <i2cStart>:
    a0b0:	e92d4010 	push	{r4, lr}
    a0b4:	e1a04000 	mov	r4, r0
    a0b8:	e321f09f 	msr	CPSR_c, #159	; 0x9f
    a0bc:	e5801004 	str	r1, [r0, #4]
    a0c0:	eb000216 	bl	a920 <i2c_lld_start>
    a0c4:	e3a03002 	mov	r3, #2
    a0c8:	e5c43000 	strb	r3, [r4]
    a0cc:	e321f01f 	msr	CPSR_c, #31
    a0d0:	e8bd8010 	pop	{r4, pc}
	...

0000a0e0 <i2cMasterTransmitTimeout>:
    a0e0:	e92d4070 	push	{r4, r5, r6, lr}
    a0e4:	e24dd010 	sub	sp, sp, #16
    a0e8:	e1a04000 	mov	r4, r0
    a0ec:	e59dc020 	ldr	ip, [sp, #32]
    a0f0:	e59d6028 	ldr	r6, [sp, #40]	; 0x28
    a0f4:	e321f09f 	msr	CPSR_c, #159	; 0x9f
    a0f8:	e3a0e003 	mov	lr, #3
    a0fc:	e3a05000 	mov	r5, #0
    a100:	e58dc000 	str	ip, [sp]
    a104:	e5ddc024 	ldrb	ip, [sp, #36]	; 0x24
    a108:	e58d6008 	str	r6, [sp, #8]
    a10c:	e5805008 	str	r5, [r0, #8]
    a110:	e5c0e000 	strb	lr, [r0]
    a114:	e58dc004 	str	ip, [sp, #4]
    a118:	eb000250 	bl	aa60 <i2c_lld_master_transmit_timeout>
    a11c:	e3700001 	cmn	r0, #1
    a120:	03a03005 	moveq	r3, #5
    a124:	13a03002 	movne	r3, #2
    a128:	e5c43000 	strb	r3, [r4]
    a12c:	e321f01f 	msr	CPSR_c, #31
    a130:	e28dd010 	add	sp, sp, #16
    a134:	e8bd8070 	pop	{r4, r5, r6, pc}
	...

0000a140 <readt>:
    a140:	e280000c 	add	r0, r0, #12
    a144:	eafffeb1 	b	9c10 <chIQReadTimeout>
	...

0000a150 <read>:
    a150:	e280000c 	add	r0, r0, #12
    a154:	e3e03000 	mvn	r3, #0
    a158:	eafffeac 	b	9c10 <chIQReadTimeout>
    a15c:	00000000 	andeq	r0, r0, r0

0000a160 <writet>:
    a160:	e2800030 	add	r0, r0, #48	; 0x30
    a164:	eaffff29 	b	9e10 <chOQWriteTimeout>
	...

0000a170 <write>:
    a170:	e2800030 	add	r0, r0, #48	; 0x30
    a174:	e3e03000 	mvn	r3, #0
    a178:	eaffff24 	b	9e10 <chOQWriteTimeout>
    a17c:	00000000 	andeq	r0, r0, r0

0000a180 <gett>:
    a180:	e280000c 	add	r0, r0, #12
    a184:	eafffe81 	b	9b90 <chIQGetTimeout>
	...

0000a190 <get>:
    a190:	e280000c 	add	r0, r0, #12
    a194:	e3e01000 	mvn	r1, #0
    a198:	eafffe7c 	b	9b90 <chIQGetTimeout>
    a19c:	00000000 	andeq	r0, r0, r0

0000a1a0 <putt>:
    a1a0:	e2800030 	add	r0, r0, #48	; 0x30
    a1a4:	eafffed5 	b	9d00 <chOQPutTimeout>
	...

0000a1b0 <put>:
    a1b0:	e2800030 	add	r0, r0, #48	; 0x30
    a1b4:	e3e02000 	mvn	r2, #0
    a1b8:	eafffed0 	b	9d00 <chOQPutTimeout>
    a1bc:	00000000 	andeq	r0, r0, r0

0000a1c0 <sdInit>:
    a1c0:	ea00011e 	b	a640 <sd_lld_init>
	...

0000a1d0 <sdObjectInit>:
    a1d0:	e92d4030 	push	{r4, r5, lr}
    a1d4:	e3a0c001 	mov	ip, #1
    a1d8:	e1a04000 	mov	r4, r0
    a1dc:	e1a05002 	mov	r5, r2
    a1e0:	e59f3044 	ldr	r3, [pc, #68]	; a22c <sdObjectInit+0x5c>
    a1e4:	e24dd00c 	sub	sp, sp, #12
    a1e8:	e58d0000 	str	r0, [sp]
    a1ec:	e4803004 	str	r3, [r0], #4
    a1f0:	e5840004 	str	r0, [r4, #4]
    a1f4:	e1a03001 	mov	r3, r1
    a1f8:	e5c4c008 	strb	ip, [r4, #8]
    a1fc:	e2841054 	add	r1, r4, #84	; 0x54
    a200:	e284000c 	add	r0, r4, #12
    a204:	e3a02010 	mov	r2, #16
    a208:	ebfffe2c 	bl	9ac0 <chIQInit>
    a20c:	e58d4000 	str	r4, [sp]
    a210:	e1a03005 	mov	r3, r5
    a214:	e2841064 	add	r1, r4, #100	; 0x64
    a218:	e2840030 	add	r0, r4, #48	; 0x30
    a21c:	e3a02010 	mov	r2, #16
    a220:	ebfffea6 	bl	9cc0 <chOQInit>
    a224:	e28dd00c 	add	sp, sp, #12
    a228:	e8bd8030 	pop	{r4, r5, pc}
    a22c:	0000bca0 	andeq	fp, r0, r0, lsr #25

0000a230 <sdStart>:
    a230:	e92d4010 	push	{r4, lr}
    a234:	e1a04000 	mov	r4, r0
    a238:	e321f09f 	msr	CPSR_c, #159	; 0x9f
    a23c:	eb000107 	bl	a660 <sd_lld_start>
    a240:	e3a03002 	mov	r3, #2
    a244:	e5c43008 	strb	r3, [r4, #8]
    a248:	e321f01f 	msr	CPSR_c, #31
    a24c:	e8bd8010 	pop	{r4, pc}

0000a250 <sdIncomingDataI>:
    a250:	e5903014 	ldr	r3, [r0, #20]
    a254:	e92d4070 	push	{r4, r5, r6, lr}
    a258:	e3530000 	cmp	r3, #0
    a25c:	e1a04000 	mov	r4, r0
    a260:	e1a05001 	mov	r5, r1
    a264:	0a000008 	beq	a28c <sdIncomingDataI+0x3c>
    a268:	e1a01005 	mov	r1, r5
    a26c:	e284000c 	add	r0, r4, #12
    a270:	ebfffe22 	bl	9b00 <chIQPutI>
    a274:	e3500000 	cmp	r0, #0
    a278:	a8bd8070 	popge	{r4, r5, r6, pc}
    a27c:	e2840004 	add	r0, r4, #4
    a280:	e3a01080 	mov	r1, #128	; 0x80
    a284:	e8bd4070 	pop	{r4, r5, r6, lr}
    a288:	eafffdec 	b	9a40 <chEvtBroadcastFlagsI>
    a28c:	e3a01004 	mov	r1, #4
    a290:	e0800001 	add	r0, r0, r1
    a294:	ebfffde9 	bl	9a40 <chEvtBroadcastFlagsI>
    a298:	eafffff2 	b	a268 <sdIncomingDataI+0x18>
    a29c:	00000000 	andeq	r0, r0, r0

0000a2a0 <sdRequestDataI>:
    a2a0:	e92d4070 	push	{r4, r5, r6, lr}
    a2a4:	e1a04000 	mov	r4, r0
    a2a8:	e2800030 	add	r0, r0, #48	; 0x30
    a2ac:	ebfffeb7 	bl	9d90 <chOQGetI>
    a2b0:	e2505000 	subs	r5, r0, #0
    a2b4:	ba000001 	blt	a2c0 <sdRequestDataI+0x20>
    a2b8:	e1a00005 	mov	r0, r5
    a2bc:	e8bd8070 	pop	{r4, r5, r6, pc}
    a2c0:	e2840004 	add	r0, r4, #4
    a2c4:	e3a01008 	mov	r1, #8
    a2c8:	ebfffddc 	bl	9a40 <chEvtBroadcastFlagsI>
    a2cc:	e1a00005 	mov	r0, r5
    a2d0:	e8bd8070 	pop	{r4, r5, r6, pc}
	...

0000a2e0 <spiInit>:
    a2e0:	ea00029a 	b	ad50 <spi_lld_init>
	...

0000a2f0 <spiObjectInit>:
    a2f0:	e3a03000 	mov	r3, #0
    a2f4:	e3a02001 	mov	r2, #1
    a2f8:	e5803004 	str	r3, [r0, #4]
    a2fc:	e5c02000 	strb	r2, [r0]
    a300:	e5803008 	str	r3, [r0, #8]
    a304:	e280000c 	add	r0, r0, #12
    a308:	eafffd20 	b	9790 <chMtxInit>
    a30c:	00000000 	andeq	r0, r0, r0

0000a310 <tm_start>:
    a310:	e59f3008 	ldr	r3, [pc, #8]	; a320 <tm_start+0x10>
    a314:	e5933004 	ldr	r3, [r3, #4]
    a318:	e5803008 	str	r3, [r0, #8]
    a31c:	e12fff1e 	bx	lr
    a320:	20003000 	andcs	r3, r0, r0
	...

0000a330 <tm_stop>:
    a330:	e59f303c 	ldr	r3, [pc, #60]	; a374 <tm_stop+0x44>
    a334:	e59f103c 	ldr	r1, [pc, #60]	; a378 <tm_stop+0x48>
    a338:	e5902008 	ldr	r2, [r0, #8]
    a33c:	e5933004 	ldr	r3, [r3, #4]
    a340:	e5911000 	ldr	r1, [r1]
    a344:	e0433002 	sub	r3, r3, r2
    a348:	e590200c 	ldr	r2, [r0, #12]
    a34c:	e0433001 	sub	r3, r3, r1
    a350:	e1530002 	cmp	r3, r2
    a354:	e5803008 	str	r3, [r0, #8]
    a358:	8a000003 	bhi	a36c <tm_stop+0x3c>
    a35c:	e5902010 	ldr	r2, [r0, #16]
    a360:	e1530002 	cmp	r3, r2
    a364:	35803010 	strcc	r3, [r0, #16]
    a368:	e12fff1e 	bx	lr
    a36c:	e580300c 	str	r3, [r0, #12]
    a370:	e12fff1e 	bx	lr
    a374:	20003000 	andcs	r3, r0, r0
    a378:	0000bdc8 	andeq	fp, r0, r8, asr #27
    a37c:	00000000 	andeq	r0, r0, r0

0000a380 <tmInit>:
    a380:	e3a03000 	mov	r3, #0
    a384:	e3e01000 	mvn	r1, #0
    a388:	e92d4010 	push	{r4, lr}
    a38c:	e59f4040 	ldr	r4, [pc, #64]	; a3d4 <tmInit+0x54>
    a390:	e24dd018 	sub	sp, sp, #24
    a394:	e59f203c 	ldr	r2, [pc, #60]	; a3d8 <tmInit+0x58>
    a398:	e58d300c 	str	r3, [sp, #12]
    a39c:	e58d3010 	str	r3, [sp, #16]
    a3a0:	e5843000 	str	r3, [r4]
    a3a4:	e58d1014 	str	r1, [sp, #20]
    a3a8:	e5921004 	ldr	r1, [r2, #4]
    a3ac:	e59f3028 	ldr	r3, [pc, #40]	; a3dc <tmInit+0x5c>
    a3b0:	e59f2028 	ldr	r2, [pc, #40]	; a3e0 <tmInit+0x60>
    a3b4:	e28d0004 	add	r0, sp, #4
    a3b8:	e98d000c 	stmib	sp, {r2, r3}
    a3bc:	e58d100c 	str	r1, [sp, #12]
    a3c0:	ebffffda 	bl	a330 <tm_stop>
    a3c4:	e59d300c 	ldr	r3, [sp, #12]
    a3c8:	e5843000 	str	r3, [r4]
    a3cc:	e28dd018 	add	sp, sp, #24
    a3d0:	e8bd8010 	pop	{r4, pc}
    a3d4:	0000bdc8 	andeq	fp, r0, r8, asr #27
    a3d8:	20003000 	andcs	r3, r0, r0
    a3dc:	0000a330 	andeq	sl, r0, r0, lsr r3
    a3e0:	0000a310 	andeq	sl, r0, r0, lsl r3
	...

0000a3f0 <IrqHandler>:
    a3f0:	e92d500f 	push	{r0, r1, r2, r3, ip, lr}
    a3f4:	ebfffab5 	bl	8ed0 <chSysTimerHandlerI>
    a3f8:	e3a02000 	mov	r2, #0
    a3fc:	e59f301c 	ldr	r3, [pc, #28]	; a420 <IrqHandler+0x30>
    a400:	e59f001c 	ldr	r0, [pc, #28]	; a424 <IrqHandler+0x34>
    a404:	e583240c 	str	r2, [r3, #1036]	; 0x40c
    a408:	eb000060 	bl	a590 <sd_lld_serve_interrupt>
    a40c:	e59f0014 	ldr	r0, [pc, #20]	; a428 <IrqHandler+0x38>
    a410:	eb0000e6 	bl	a7b0 <i2c_lld_serve_interrupt>
    a414:	e59f0010 	ldr	r0, [pc, #16]	; a42c <IrqHandler+0x3c>
    a418:	eb0001e0 	bl	aba0 <spi_lld_serve_interrupt>
    a41c:	eafff737 	b	8100 <_port_irq_common>
    a420:	2000b000 	andcs	fp, r0, r0
    a424:	0000c220 	andeq	ip, r0, r0, lsr #4
    a428:	0000c2d4 	ldrdeq	ip, [r0], -r4
    a42c:	0000c314 	andeq	ip, r0, r4, lsl r3

0000a430 <hal_lld_init>:
    a430:	e52de004 	push	{lr}		; (str lr, [sp, #-4]!)
    a434:	e3a0c0f9 	mov	ip, #249	; 0xf9
    a438:	e3a0e83e 	mov	lr, #4063232	; 0x3e0000
    a43c:	e3a00000 	mov	r0, #0
    a440:	e59f302c 	ldr	r3, [pc, #44]	; a474 <hal_lld_init+0x44>
    a444:	e59f202c 	ldr	r2, [pc, #44]	; a478 <hal_lld_init+0x48>
    a448:	e59f102c 	ldr	r1, [pc, #44]	; a47c <hal_lld_init+0x4c>
    a44c:	e583e408 	str	lr, [r3, #1032]	; 0x408
    a450:	e5832400 	str	r2, [r3, #1024]	; 0x400
    a454:	e5832418 	str	r2, [r3, #1048]	; 0x418
    a458:	e583c41c 	str	ip, [r3, #1052]	; 0x41c
    a45c:	e583040c 	str	r0, [r3, #1036]	; 0x40c
    a460:	e5831408 	str	r1, [r3, #1032]	; 0x408
    a464:	e5932218 	ldr	r2, [r3, #536]	; 0x218
    a468:	e3822001 	orr	r2, r2, #1
    a46c:	e5832218 	str	r2, [r3, #536]	; 0x218
    a470:	e49df004 	pop	{pc}		; (ldr pc, [sp], #4)
    a474:	2000b000 	andcs	fp, r0, r0
    a478:	000003e7 	andeq	r0, r0, r7, ror #7
    a47c:	003e00a2 	eorseq	r0, lr, r2, lsr #1

0000a480 <set_gpio_in.isra.0>:
    a480:	e92d41f0 	push	{r4, r5, r6, r7, r8, lr}
    a484:	e3a04000 	mov	r4, #0
    a488:	e1a07000 	mov	r7, r0
    a48c:	e1a05001 	mov	r5, r1
    a490:	e1a06004 	mov	r6, r4
    a494:	ea000003 	b	a4a8 <set_gpio_in.isra.0+0x28>
    a498:	e2844001 	add	r4, r4, #1
    a49c:	e3540020 	cmp	r4, #32
    a4a0:	e1a050a5 	lsr	r5, r5, #1
    a4a4:	0a000009 	beq	a4d0 <set_gpio_in.isra.0+0x50>
    a4a8:	e3150001 	tst	r5, #1
    a4ac:	0afffff9 	beq	a498 <set_gpio_in.isra.0+0x18>
    a4b0:	e5970000 	ldr	r0, [r7]
    a4b4:	e1a01006 	mov	r1, r6
    a4b8:	e0840000 	add	r0, r4, r0
    a4bc:	e2844001 	add	r4, r4, #1
    a4c0:	eb000226 	bl	ad60 <bcm2835_gpio_fnsel>
    a4c4:	e3540020 	cmp	r4, #32
    a4c8:	e1a050a5 	lsr	r5, r5, #1
    a4cc:	1afffff5 	bne	a4a8 <set_gpio_in.isra.0+0x28>
    a4d0:	e8bd81f0 	pop	{r4, r5, r6, r7, r8, pc}
	...

0000a4e0 <_pal_lld_init>:
    a4e0:	e59f3060 	ldr	r3, [pc, #96]	; a548 <_pal_lld_init+0x68>
    a4e4:	e92d4010 	push	{r4, lr}
    a4e8:	e59fc05c 	ldr	ip, [pc, #92]	; a54c <_pal_lld_init+0x6c>
    a4ec:	e59fe05c 	ldr	lr, [pc, #92]	; a550 <_pal_lld_init+0x70>
    a4f0:	e59f205c 	ldr	r2, [pc, #92]	; a554 <_pal_lld_init+0x74>
    a4f4:	e59f405c 	ldr	r4, [pc, #92]	; a558 <_pal_lld_init+0x78>
    a4f8:	e2830014 	add	r0, r3, #20
    a4fc:	e3e01000 	mvn	r1, #0
    a500:	e9834010 	stmib	r3, {r4, lr}
    a504:	e583c00c 	str	ip, [r3, #12]
    a508:	e5832010 	str	r2, [r3, #16]
    a50c:	ebffffdb 	bl	a480 <set_gpio_in.isra.0>
    a510:	e59f3044 	ldr	r3, [pc, #68]	; a55c <_pal_lld_init+0x7c>
    a514:	e3a01020 	mov	r1, #32
    a518:	e1a00003 	mov	r0, r3
    a51c:	e59fe03c 	ldr	lr, [pc, #60]	; a560 <_pal_lld_init+0x80>
    a520:	e2844004 	add	r4, r4, #4
    a524:	e59fc038 	ldr	ip, [pc, #56]	; a564 <_pal_lld_init+0x84>
    a528:	e59f2038 	ldr	r2, [pc, #56]	; a568 <_pal_lld_init+0x88>
    a52c:	e5a01014 	str	r1, [r0, #20]!
    a530:	e9834010 	stmib	r3, {r4, lr}
    a534:	e8bd4010 	pop	{r4, lr}
    a538:	e3e01000 	mvn	r1, #0
    a53c:	e583c00c 	str	ip, [r3, #12]
    a540:	e5832010 	str	r2, [r3, #16]
    a544:	eaffffcd 	b	a480 <set_gpio_in.isra.0>
    a548:	0000c208 	andeq	ip, r0, r8, lsl #4
    a54c:	20200034 	eorcs	r0, r0, r4, lsr r0
    a550:	20200028 	eorcs	r0, r0, r8, lsr #32
    a554:	20200098 	mlacs	r0, r8, r0, r0
    a558:	2020001c 	eorcs	r0, r0, ip, lsl r0
    a55c:	0000c1f0 	strdeq	ip, [r0], -r0
    a560:	2020002c 	eorcs	r0, r0, ip, lsr #32
    a564:	20200038 	eorcs	r0, r0, r8, lsr r0
    a568:	2020009c 	mlacs	r0, ip, r0, r0
    a56c:	00000000 	andeq	r0, r0, r0

0000a570 <output_notify>:
    a570:	e59f200c 	ldr	r2, [pc, #12]	; a584 <output_notify+0x14>
    a574:	e5923044 	ldr	r3, [r2, #68]	; 0x44
    a578:	e3833002 	orr	r3, r3, #2
    a57c:	e5823044 	str	r3, [r2, #68]	; 0x44
    a580:	e12fff1e 	bx	lr
    a584:	20215000 	eorcs	r5, r1, r0
	...

0000a590 <sd_lld_serve_interrupt>:
    a590:	e59f209c 	ldr	r2, [pc, #156]	; a634 <sd_lld_serve_interrupt+0xa4>
    a594:	e92d4070 	push	{r4, r5, r6, lr}
    a598:	e5923048 	ldr	r3, [r2, #72]	; 0x48
    a59c:	e1a05000 	mov	r5, r0
    a5a0:	e2033007 	and	r3, r3, #7
    a5a4:	e3530004 	cmp	r3, #4
    a5a8:	0a000011 	beq	a5f4 <sd_lld_serve_interrupt+0x64>
    a5ac:	e59f4080 	ldr	r4, [pc, #128]	; a634 <sd_lld_serve_interrupt+0xa4>
    a5b0:	e5943048 	ldr	r3, [r4, #72]	; 0x48
    a5b4:	e2033007 	and	r3, r3, #7
    a5b8:	e3530002 	cmp	r3, #2
    a5bc:	18bd8070 	popne	{r4, r5, r6, pc}
    a5c0:	e5943054 	ldr	r3, [r4, #84]	; 0x54
    a5c4:	e3130020 	tst	r3, #32
    a5c8:	0afffffc 	beq	a5c0 <sd_lld_serve_interrupt+0x30>
    a5cc:	e1a00005 	mov	r0, r5
    a5d0:	ebffff32 	bl	a2a0 <sdRequestDataI>
    a5d4:	e3500000 	cmp	r0, #0
    a5d8:	a59f2054 	ldrge	r2, [pc, #84]	; a634 <sd_lld_serve_interrupt+0xa4>
    a5dc:	ba000010 	blt	a624 <sd_lld_serve_interrupt+0x94>
    a5e0:	e5923054 	ldr	r3, [r2, #84]	; 0x54
    a5e4:	e3130020 	tst	r3, #32
    a5e8:	0afffffc 	beq	a5e0 <sd_lld_serve_interrupt+0x50>
    a5ec:	e5820040 	str	r0, [r2, #64]	; 0x40
    a5f0:	e8bd8070 	pop	{r4, r5, r6, pc}
    a5f4:	e5923054 	ldr	r3, [r2, #84]	; 0x54
    a5f8:	e3130001 	tst	r3, #1
    a5fc:	0afffffc 	beq	a5f4 <sd_lld_serve_interrupt+0x64>
    a600:	e59f402c 	ldr	r4, [pc, #44]	; a634 <sd_lld_serve_interrupt+0xa4>
    a604:	e5941040 	ldr	r1, [r4, #64]	; 0x40
    a608:	e1a00005 	mov	r0, r5
    a60c:	e6ef1071 	uxtb	r1, r1
    a610:	ebffff0e 	bl	a250 <sdIncomingDataI>
    a614:	e5943054 	ldr	r3, [r4, #84]	; 0x54
    a618:	e3130001 	tst	r3, #1
    a61c:	1afffff8 	bne	a604 <sd_lld_serve_interrupt+0x74>
    a620:	eaffffe1 	b	a5ac <sd_lld_serve_interrupt+0x1c>
    a624:	e5943044 	ldr	r3, [r4, #68]	; 0x44
    a628:	e3c33002 	bic	r3, r3, #2
    a62c:	e5843044 	str	r3, [r4, #68]	; 0x44
    a630:	e8bd8070 	pop	{r4, r5, r6, pc}
    a634:	20215000 	eorcs	r5, r1, r0
	...

0000a640 <sd_lld_init>:
    a640:	e59f2008 	ldr	r2, [pc, #8]	; a650 <sd_lld_init+0x10>
    a644:	e3a01000 	mov	r1, #0
    a648:	e59f0004 	ldr	r0, [pc, #4]	; a654 <sd_lld_init+0x14>
    a64c:	eafffedf 	b	a1d0 <sdObjectInit>
    a650:	0000a570 	andeq	sl, r0, r0, ror r5
    a654:	0000c220 	andeq	ip, r0, r0, lsr #4
	...

0000a660 <sd_lld_start>:
    a660:	e92d47f0 	push	{r4, r5, r6, r7, r8, r9, sl, lr}
    a664:	e3a05000 	mov	r5, #0
    a668:	e59f30a0 	ldr	r3, [pc, #160]	; a710 <sd_lld_start+0xb0>
    a66c:	e1510005 	cmp	r1, r5
    a670:	01a01003 	moveq	r1, r3
    a674:	e3a02005 	mov	r2, #5
    a678:	e3a030c6 	mov	r3, #198	; 0xc6
    a67c:	e3a09003 	mov	r9, #3
    a680:	e3a08202 	mov	r8, #536870912	; 0x20000000
    a684:	e3a00001 	mov	r0, #1
    a688:	e59f4084 	ldr	r4, [pc, #132]	; a714 <sd_lld_start+0xb4>
    a68c:	e59f7084 	ldr	r7, [pc, #132]	; a718 <sd_lld_start+0xb8>
    a690:	e59f6084 	ldr	r6, [pc, #132]	; a71c <sd_lld_start+0xbc>
    a694:	e587821c 	str	r8, [r7, #540]	; 0x21c
    a698:	e5840004 	str	r0, [r4, #4]
    a69c:	e5845044 	str	r5, [r4, #68]	; 0x44
    a6a0:	e5845060 	str	r5, [r4, #96]	; 0x60
    a6a4:	e584904c 	str	r9, [r4, #76]	; 0x4c
    a6a8:	e5845050 	str	r5, [r4, #80]	; 0x50
    a6ac:	e5842044 	str	r2, [r4, #68]	; 0x44
    a6b0:	e5843048 	str	r3, [r4, #72]	; 0x48
    a6b4:	e5911000 	ldr	r1, [r1]
    a6b8:	e59f0060 	ldr	r0, [pc, #96]	; a720 <sd_lld_start+0xc0>
    a6bc:	e1a01911 	lsl	r1, r1, r9
    a6c0:	ebfff6be 	bl	81c0 <__aeabi_uidiv>
    a6c4:	e2400001 	sub	r0, r0, #1
    a6c8:	e5840068 	str	r0, [r4, #104]	; 0x68
    a6cc:	e3a01002 	mov	r1, #2
    a6d0:	e3a0000e 	mov	r0, #14
    a6d4:	eb0001a1 	bl	ad60 <bcm2835_gpio_fnsel>
    a6d8:	e3a01002 	mov	r1, #2
    a6dc:	e3a0000f 	mov	r0, #15
    a6e0:	eb00019e 	bl	ad60 <bcm2835_gpio_fnsel>
    a6e4:	e3a00096 	mov	r0, #150	; 0x96
    a6e8:	e5865094 	str	r5, [r6, #148]	; 0x94
    a6ec:	eb0001af 	bl	adb0 <bcm2835_delay>
    a6f0:	e3a03903 	mov	r3, #49152	; 0xc000
    a6f4:	e3a00096 	mov	r0, #150	; 0x96
    a6f8:	e5863098 	str	r3, [r6, #152]	; 0x98
    a6fc:	eb0001ab 	bl	adb0 <bcm2835_delay>
    a700:	e5865098 	str	r5, [r6, #152]	; 0x98
    a704:	e5849060 	str	r9, [r4, #96]	; 0x60
    a708:	e5878210 	str	r8, [r7, #528]	; 0x210
    a70c:	e8bd87f0 	pop	{r4, r5, r6, r7, r8, r9, sl, pc}
    a710:	0000bcc0 	andeq	fp, r0, r0, asr #25
    a714:	20215000 	eorcs	r5, r1, r0
    a718:	2000b000 	andcs	fp, r0, r0
    a71c:	20200000 	eorcs	r0, r0, r0
    a720:	0ee6b280 	cdpeq	2, 14, cr11, cr6, cr0, {4}
	...

0000a730 <i2c_lld_safety_timeout>:
    a730:	e5901020 	ldr	r1, [r0, #32]
    a734:	e3510000 	cmp	r1, #0
    a738:	012fff1e 	bxeq	lr
    a73c:	e1a03000 	mov	r3, r0
    a740:	e590200c 	ldr	r2, [r0, #12]
    a744:	e5900008 	ldr	r0, [r0, #8]
    a748:	e92d4010 	push	{r4, lr}
    a74c:	e592e004 	ldr	lr, [r2, #4]
    a750:	e380c020 	orr	ip, r0, #32
    a754:	e583c008 	str	ip, [r3, #8]
    a758:	e31e0c02 	tst	lr, #512	; 0x200
    a75c:	e3a0c000 	mov	ip, #0
    a760:	e3e0e000 	mvn	lr, #0
    a764:	13800021 	orrne	r0, r0, #33	; 0x21
    a768:	15830008 	strne	r0, [r3, #8]
    a76c:	e5920004 	ldr	r0, [r2, #4]
    a770:	e59f4028 	ldr	r4, [pc, #40]	; a7a0 <i2c_lld_safety_timeout+0x70>
    a774:	e3100c01 	tst	r0, #256	; 0x100
    a778:	15930008 	ldrne	r0, [r3, #8]
    a77c:	13800004 	orrne	r0, r0, #4
    a780:	15830008 	strne	r0, [r3, #8]
    a784:	e582c000 	str	ip, [r2]
    a788:	e5824004 	str	r4, [r2, #4]
    a78c:	e583c020 	str	ip, [r3, #32]
    a790:	e581e024 	str	lr, [r1, #36]	; 0x24
    a794:	e1a00001 	mov	r0, r1
    a798:	e8bd4010 	pop	{r4, lr}
    a79c:	eafffa5b 	b	9110 <chSchReadyI>
    a7a0:	00000302 	andeq	r0, r0, r2, lsl #6
	...

0000a7b0 <i2c_lld_serve_interrupt>:
    a7b0:	e590200c 	ldr	r2, [r0, #12]
    a7b4:	e5921004 	ldr	r1, [r2, #4]
    a7b8:	e3110c03 	tst	r1, #768	; 0x300
    a7bc:	0a000008 	beq	a7e4 <i2c_lld_serve_interrupt+0x34>
    a7c0:	e5903020 	ldr	r3, [r0, #32]
    a7c4:	e3530000 	cmp	r3, #0
    a7c8:	012fff1e 	bxeq	lr
    a7cc:	e3a01000 	mov	r1, #0
    a7d0:	e3e02001 	mvn	r2, #1
    a7d4:	e5801020 	str	r1, [r0, #32]
    a7d8:	e1a00003 	mov	r0, r3
    a7dc:	e5832024 	str	r2, [r3, #36]	; 0x24
    a7e0:	eafffa4a 	b	9110 <chSchReadyI>
    a7e4:	e3110002 	tst	r1, #2
    a7e8:	e52de004 	push	{lr}		; (str lr, [sp, #-4]!)
    a7ec:	0a00001a 	beq	a85c <i2c_lld_serve_interrupt+0xac>
    a7f0:	e3110020 	tst	r1, #32
    a7f4:	0a00000c 	beq	a82c <i2c_lld_serve_interrupt+0x7c>
    a7f8:	e590303c 	ldr	r3, [r0, #60]	; 0x3c
    a7fc:	e5901038 	ldr	r1, [r0, #56]	; 0x38
    a800:	e1510003 	cmp	r1, r3
    a804:	9a000008 	bls	a82c <i2c_lld_serve_interrupt+0x7c>
    a808:	e5901034 	ldr	r1, [r0, #52]	; 0x34
    a80c:	e592c010 	ldr	ip, [r2, #16]
    a810:	e283e001 	add	lr, r3, #1
    a814:	e580e03c 	str	lr, [r0, #60]	; 0x3c
    a818:	e7c1c003 	strb	ip, [r1, r3]
    a81c:	e590303c 	ldr	r3, [r0, #60]	; 0x3c
    a820:	e5901038 	ldr	r1, [r0, #56]	; 0x38
    a824:	e1530001 	cmp	r3, r1
    a828:	3afffff6 	bcc	a808 <i2c_lld_serve_interrupt+0x58>
    a82c:	e3a01000 	mov	r1, #0
    a830:	e5903020 	ldr	r3, [r0, #32]
    a834:	e59fc0b8 	ldr	ip, [pc, #184]	; a8f4 <i2c_lld_serve_interrupt+0x144>
    a838:	e1530001 	cmp	r3, r1
    a83c:	e5821000 	str	r1, [r2]
    a840:	e582c004 	str	ip, [r2, #4]
    a844:	0a000029 	beq	a8f0 <i2c_lld_serve_interrupt+0x140>
    a848:	e5801020 	str	r1, [r0, #32]
    a84c:	e5831024 	str	r1, [r3, #36]	; 0x24
    a850:	e1a00003 	mov	r0, r3
    a854:	e49de004 	pop	{lr}		; (ldr lr, [sp], #4)
    a858:	eafffa2c 	b	9110 <chSchReadyI>
    a85c:	e3110004 	tst	r1, #4
    a860:	0a000010 	beq	a8a8 <i2c_lld_serve_interrupt+0xf8>
    a864:	e5903030 	ldr	r3, [r0, #48]	; 0x30
    a868:	e590e02c 	ldr	lr, [r0, #44]	; 0x2c
    a86c:	e15e0003 	cmp	lr, r3
    a870:	949df004 	popls	{pc}		; (ldrls pc, [sp], #4)
    a874:	e3110010 	tst	r1, #16
    a878:	049df004 	popeq	{pc}		; (ldreq pc, [sp], #4)
    a87c:	e590c028 	ldr	ip, [r0, #40]	; 0x28
    a880:	e08c3003 	add	r3, ip, r3
    a884:	e08ce00e 	add	lr, ip, lr
    a888:	e26cc001 	rsb	ip, ip, #1
    a88c:	e08c1003 	add	r1, ip, r3
    a890:	e5801030 	str	r1, [r0, #48]	; 0x30
    a894:	e4d31001 	ldrb	r1, [r3], #1
    a898:	e15e0003 	cmp	lr, r3
    a89c:	e5821010 	str	r1, [r2, #16]
    a8a0:	1afffff9 	bne	a88c <i2c_lld_serve_interrupt+0xdc>
    a8a4:	e49df004 	pop	{pc}		; (ldr pc, [sp], #4)
    a8a8:	e3110008 	tst	r1, #8
    a8ac:	049df004 	popeq	{pc}		; (ldreq pc, [sp], #4)
    a8b0:	e590303c 	ldr	r3, [r0, #60]	; 0x3c
    a8b4:	e590c038 	ldr	ip, [r0, #56]	; 0x38
    a8b8:	e153000c 	cmp	r3, ip
    a8bc:	249df004 	popcs	{pc}		; (ldrcs pc, [sp], #4)
    a8c0:	e3110020 	tst	r1, #32
    a8c4:	049df004 	popeq	{pc}		; (ldreq pc, [sp], #4)
    a8c8:	e5901034 	ldr	r1, [r0, #52]	; 0x34
    a8cc:	e592c010 	ldr	ip, [r2, #16]
    a8d0:	e283e001 	add	lr, r3, #1
    a8d4:	e580e03c 	str	lr, [r0, #60]	; 0x3c
    a8d8:	e7c1c003 	strb	ip, [r1, r3]
    a8dc:	e590303c 	ldr	r3, [r0, #60]	; 0x3c
    a8e0:	e5901038 	ldr	r1, [r0, #56]	; 0x38
    a8e4:	e1530001 	cmp	r3, r1
    a8e8:	3afffff6 	bcc	a8c8 <i2c_lld_serve_interrupt+0x118>
    a8ec:	e49df004 	pop	{pc}		; (ldr pc, [sp], #4)
    a8f0:	e49df004 	pop	{pc}		; (ldr pc, [sp], #4)
    a8f4:	00000302 	andeq	r0, r0, r2, lsl #6
	...

0000a900 <i2c_lld_init>:
    a900:	e59f300c 	ldr	r3, [pc, #12]	; a914 <i2c_lld_init+0x14>
    a904:	e59f200c 	ldr	r2, [pc, #12]	; a918 <i2c_lld_init+0x18>
    a908:	e1a00003 	mov	r0, r3
    a90c:	e583200c 	str	r2, [r3, #12]
    a910:	eafffdde 	b	a090 <i2cObjectInit>
    a914:	0000c2d4 	ldrdeq	ip, [r0], -r4
    a918:	20804000 	addcs	r4, r0, r0
    a91c:	00000000 	andeq	r0, r0, r0

0000a920 <i2c_lld_start>:
    a920:	e92d4010 	push	{r4, lr}
    a924:	e1a04000 	mov	r4, r0
    a928:	e3a01004 	mov	r1, #4
    a92c:	e3a00002 	mov	r0, #2
    a930:	eb00010a 	bl	ad60 <bcm2835_gpio_fnsel>
    a934:	e3a01004 	mov	r1, #4
    a938:	e3a00003 	mov	r0, #3
    a93c:	eb000107 	bl	ad60 <bcm2835_gpio_fnsel>
    a940:	e5942004 	ldr	r2, [r4, #4]
    a944:	e59f3034 	ldr	r3, [pc, #52]	; a980 <i2c_lld_start+0x60>
    a948:	e5921000 	ldr	r1, [r2]
    a94c:	e3510000 	cmp	r1, #0
    a950:	11510003 	cmpne	r1, r3
    a954:	0a000007 	beq	a978 <i2c_lld_start+0x58>
    a958:	e59f0024 	ldr	r0, [pc, #36]	; a984 <i2c_lld_start+0x64>
    a95c:	ebfff617 	bl	81c0 <__aeabi_uidiv>
    a960:	e594200c 	ldr	r2, [r4, #12]
    a964:	e5820014 	str	r0, [r2, #20]
    a968:	e5923000 	ldr	r3, [r2]
    a96c:	e3833902 	orr	r3, r3, #32768	; 0x8000
    a970:	e5823000 	str	r3, [r2]
    a974:	e8bd8010 	pop	{r4, pc}
    a978:	e594200c 	ldr	r2, [r4, #12]
    a97c:	eafffff9 	b	a968 <i2c_lld_start+0x48>
    a980:	000186a0 	andeq	r8, r1, r0, lsr #13
    a984:	08f0d180 	ldmeq	r0!, {r7, r8, ip, lr, pc}^
	...

0000a990 <i2c_lld_master_receive_timeout>:
    a990:	e92d41f0 	push	{r4, r5, r6, r7, r8, lr}
    a994:	e24dd018 	sub	sp, sp, #24
    a998:	e59d5030 	ldr	r5, [sp, #48]	; 0x30
    a99c:	e1a04000 	mov	r4, r0
    a9a0:	e3750001 	cmn	r5, #1
    a9a4:	e1a07001 	mov	r7, r1
    a9a8:	e1a08002 	mov	r8, r2
    a9ac:	e1a06003 	mov	r6, r3
    a9b0:	0a000004 	beq	a9c8 <i2c_lld_master_receive_timeout+0x38>
    a9b4:	e1a03000 	mov	r3, r0
    a9b8:	e59f208c 	ldr	r2, [pc, #140]	; aa4c <i2c_lld_master_receive_timeout+0xbc>
    a9bc:	e1a01005 	mov	r1, r5
    a9c0:	e28d0004 	add	r0, sp, #4
    a9c4:	ebfff971 	bl	8f90 <chVTSetI>
    a9c8:	e3a02000 	mov	r2, #0
    a9cc:	e594300c 	ldr	r3, [r4, #12]
    a9d0:	e59f0078 	ldr	r0, [pc, #120]	; aa50 <i2c_lld_master_receive_timeout+0xc0>
    a9d4:	e59f1078 	ldr	r1, [pc, #120]	; aa54 <i2c_lld_master_receive_timeout+0xc4>
    a9d8:	e1c472b4 	strh	r7, [r4, #36]	; 0x24
    a9dc:	e5848034 	str	r8, [r4, #52]	; 0x34
    a9e0:	e5846038 	str	r6, [r4, #56]	; 0x38
    a9e4:	e5842028 	str	r2, [r4, #40]	; 0x28
    a9e8:	e584202c 	str	r2, [r4, #44]	; 0x2c
    a9ec:	e5842030 	str	r2, [r4, #48]	; 0x30
    a9f0:	e584203c 	str	r2, [r4, #60]	; 0x3c
    a9f4:	e583700c 	str	r7, [r3, #12]
    a9f8:	e5836008 	str	r6, [r3, #8]
    a9fc:	e5830004 	str	r0, [r3, #4]
    aa00:	e5831000 	str	r1, [r3]
    aa04:	e321f09f 	msr	CPSR_c, #159	; 0x9f
    aa08:	e59f6048 	ldr	r6, [pc, #72]	; aa58 <i2c_lld_master_receive_timeout+0xc8>
    aa0c:	e3a00002 	mov	r0, #2
    aa10:	e5963018 	ldr	r3, [r6, #24]
    aa14:	e5843020 	str	r3, [r4, #32]
    aa18:	ebfff9d0 	bl	9160 <chSchGoSleepS>
    aa1c:	e3750001 	cmn	r5, #1
    aa20:	0a000004 	beq	aa38 <i2c_lld_master_receive_timeout+0xa8>
    aa24:	e59d3010 	ldr	r3, [sp, #16]
    aa28:	e3530000 	cmp	r3, #0
    aa2c:	0a000001 	beq	aa38 <i2c_lld_master_receive_timeout+0xa8>
    aa30:	e28d0004 	add	r0, sp, #4
    aa34:	ebfff96d 	bl	8ff0 <chVTResetI>
    aa38:	e321f01f 	msr	CPSR_c, #31
    aa3c:	e5963018 	ldr	r3, [r6, #24]
    aa40:	e5930024 	ldr	r0, [r3, #36]	; 0x24
    aa44:	e28dd018 	add	sp, sp, #24
    aa48:	e8bd81f0 	pop	{r4, r5, r6, r7, r8, pc}
    aa4c:	0000a730 	andeq	sl, r0, r0, lsr r7
    aa50:	00000302 	andeq	r0, r0, r2, lsl #6
    aa54:	00008591 	muleq	r0, r1, r5
    aa58:	0000c1d4 	ldrdeq	ip, [r0], -r4
    aa5c:	00000000 	andeq	r0, r0, r0

0000aa60 <i2c_lld_master_transmit_timeout>:
    aa60:	e92d47f0 	push	{r4, r5, r6, r7, r8, r9, sl, lr}
    aa64:	e24dd020 	sub	sp, sp, #32
    aa68:	e59d5048 	ldr	r5, [sp, #72]	; 0x48
    aa6c:	e1a04000 	mov	r4, r0
    aa70:	e3750001 	cmn	r5, #1
    aa74:	e1a06001 	mov	r6, r1
    aa78:	e1a0a002 	mov	sl, r2
    aa7c:	e1a09003 	mov	r9, r3
    aa80:	e59d8040 	ldr	r8, [sp, #64]	; 0x40
    aa84:	e5dd7044 	ldrb	r7, [sp, #68]	; 0x44
    aa88:	0a000004 	beq	aaa0 <i2c_lld_master_transmit_timeout+0x40>
    aa8c:	e1a03000 	mov	r3, r0
    aa90:	e59f20f8 	ldr	r2, [pc, #248]	; ab90 <i2c_lld_master_transmit_timeout+0x130>
    aa94:	e1a01005 	mov	r1, r5
    aa98:	e28d000c 	add	r0, sp, #12
    aa9c:	ebfff93b 	bl	8f90 <chVTSetI>
    aaa0:	e3a02000 	mov	r2, #0
    aaa4:	e594300c 	ldr	r3, [r4, #12]
    aaa8:	e59f10e4 	ldr	r1, [pc, #228]	; ab94 <i2c_lld_master_transmit_timeout+0x134>
    aaac:	e5842030 	str	r2, [r4, #48]	; 0x30
    aab0:	e584203c 	str	r2, [r4, #60]	; 0x3c
    aab4:	e1c462b4 	strh	r6, [r4, #36]	; 0x24
    aab8:	e584a028 	str	sl, [r4, #40]	; 0x28
    aabc:	e584902c 	str	r9, [r4, #44]	; 0x2c
    aac0:	e5848034 	str	r8, [r4, #52]	; 0x34
    aac4:	e5847038 	str	r7, [r4, #56]	; 0x38
    aac8:	e583600c 	str	r6, [r3, #12]
    aacc:	e5839008 	str	r9, [r3, #8]
    aad0:	e5831004 	str	r1, [r3, #4]
    aad4:	e5932000 	ldr	r2, [r3]
    aad8:	e3822c83 	orr	r2, r2, #33536	; 0x8300
    aadc:	e3822080 	orr	r2, r2, #128	; 0x80
    aae0:	e5832000 	str	r2, [r3]
    aae4:	e321f09f 	msr	CPSR_c, #159	; 0x9f
    aae8:	e59f90a8 	ldr	r9, [pc, #168]	; ab98 <i2c_lld_master_transmit_timeout+0x138>
    aaec:	e3a00002 	mov	r0, #2
    aaf0:	e5993018 	ldr	r3, [r9, #24]
    aaf4:	e5843020 	str	r3, [r4, #32]
    aaf8:	ebfff998 	bl	9160 <chSchGoSleepS>
    aafc:	e3750001 	cmn	r5, #1
    ab00:	0a000004 	beq	ab18 <i2c_lld_master_transmit_timeout+0xb8>
    ab04:	e59d3018 	ldr	r3, [sp, #24]
    ab08:	e3530000 	cmp	r3, #0
    ab0c:	0a000001 	beq	ab18 <i2c_lld_master_transmit_timeout+0xb8>
    ab10:	e28d000c 	add	r0, sp, #12
    ab14:	ebfff935 	bl	8ff0 <chVTResetI>
    ab18:	e321f01f 	msr	CPSR_c, #31
    ab1c:	e5993018 	ldr	r3, [r9, #24]
    ab20:	e3570000 	cmp	r7, #0
    ab24:	e5939024 	ldr	r9, [r3, #36]	; 0x24
    ab28:	e16f3f19 	clz	r3, r9
    ab2c:	e1a032a3 	lsr	r3, r3, #5
    ab30:	03a03000 	moveq	r3, #0
    ab34:	e3530000 	cmp	r3, #0
    ab38:	1a000002 	bne	ab48 <i2c_lld_master_transmit_timeout+0xe8>
    ab3c:	e1a00009 	mov	r0, r9
    ab40:	e28dd020 	add	sp, sp, #32
    ab44:	e8bd87f0 	pop	{r4, r5, r6, r7, r8, r9, sl, pc}
    ab48:	e3e0c000 	mvn	ip, #0
    ab4c:	e1a03007 	mov	r3, r7
    ab50:	e1a02008 	mov	r2, r8
    ab54:	e1a01006 	mov	r1, r6
    ab58:	e1a00004 	mov	r0, r4
    ab5c:	e58dc000 	str	ip, [sp]
    ab60:	ebffff8a 	bl	a990 <i2c_lld_master_receive_timeout>
    ab64:	e3750001 	cmn	r5, #1
    ab68:	e1a09000 	mov	r9, r0
    ab6c:	0afffff2 	beq	ab3c <i2c_lld_master_transmit_timeout+0xdc>
    ab70:	e59d3018 	ldr	r3, [sp, #24]
    ab74:	e3530000 	cmp	r3, #0
    ab78:	0affffef 	beq	ab3c <i2c_lld_master_transmit_timeout+0xdc>
    ab7c:	e28d000c 	add	r0, sp, #12
    ab80:	ebfff91a 	bl	8ff0 <chVTResetI>
    ab84:	e1a00009 	mov	r0, r9
    ab88:	e28dd020 	add	sp, sp, #32
    ab8c:	e8bd87f0 	pop	{r4, r5, r6, r7, r8, r9, sl, pc}
    ab90:	0000a730 	andeq	sl, r0, r0, lsr r7
    ab94:	00000302 	andeq	r0, r0, r2, lsl #6
    ab98:	0000c1d4 	ldrdeq	ip, [r0], -r4
    ab9c:	00000000 	andeq	r0, r0, r0

0000aba0 <spi_lld_serve_interrupt>:
    aba0:	e59f3198 	ldr	r3, [pc, #408]	; ad40 <spi_lld_serve_interrupt+0x1a0>
    aba4:	e5933208 	ldr	r3, [r3, #520]	; 0x208
    aba8:	e3130501 	tst	r3, #4194304	; 0x400000
    abac:	012fff1e 	bxeq	lr
    abb0:	e59f318c 	ldr	r3, [pc, #396]	; ad44 <spi_lld_serve_interrupt+0x1a4>
    abb4:	e92d4010 	push	{r4, lr}
    abb8:	e5932000 	ldr	r2, [r3]
    abbc:	e1a04000 	mov	r4, r0
    abc0:	e3120801 	tst	r2, #65536	; 0x10000
    abc4:	0a000019 	beq	ac30 <spi_lld_serve_interrupt+0x90>
    abc8:	e5902024 	ldr	r2, [r0, #36]	; 0x24
    abcc:	e3520000 	cmp	r2, #0
    abd0:	0a000027 	beq	ac74 <spi_lld_serve_interrupt+0xd4>
    abd4:	e5901004 	ldr	r1, [r0, #4]
    abd8:	e5d11004 	ldrb	r1, [r1, #4]
    abdc:	e3510000 	cmp	r1, #0
    abe0:	0a00003f 	beq	ace4 <spi_lld_serve_interrupt+0x144>
    abe4:	e5931000 	ldr	r1, [r3]
    abe8:	e590c020 	ldr	ip, [r0, #32]
    abec:	e3110701 	tst	r1, #262144	; 0x40000
    abf0:	0a00000e 	beq	ac30 <spi_lld_serve_interrupt+0x90>
    abf4:	e1a0100c 	mov	r1, ip
    abf8:	e3a0e000 	mov	lr, #0
    abfc:	ea000001 	b	ac08 <spi_lld_serve_interrupt+0x68>
    ac00:	e3520000 	cmp	r2, #0
    ac04:	0a000008 	beq	ac2c <spi_lld_serve_interrupt+0x8c>
    ac08:	e35c0000 	cmp	ip, #0
    ac0c:	01a0000e 	moveq	r0, lr
    ac10:	11d100b0 	ldrhne	r0, [r1]
    ac14:	12811002 	addne	r1, r1, #2
    ac18:	e5830004 	str	r0, [r3, #4]
    ac1c:	e5930000 	ldr	r0, [r3]
    ac20:	e2422002 	sub	r2, r2, #2
    ac24:	e3100701 	tst	r0, #262144	; 0x40000
    ac28:	1afffff4 	bne	ac00 <spi_lld_serve_interrupt+0x60>
    ac2c:	e5842024 	str	r2, [r4, #36]	; 0x24
    ac30:	e59f310c 	ldr	r3, [pc, #268]	; ad44 <spi_lld_serve_interrupt+0x1a4>
    ac34:	e5932000 	ldr	r2, [r3]
    ac38:	e3120702 	tst	r2, #524288	; 0x80000
    ac3c:	1a000004 	bne	ac54 <spi_lld_serve_interrupt+0xb4>
    ac40:	e8bd8010 	pop	{r4, pc}
    ac44:	e594201c 	ldr	r2, [r4, #28]
    ac48:	e5931004 	ldr	r1, [r3, #4]
    ac4c:	e3520000 	cmp	r2, #0
    ac50:	15c21000 	strbne	r1, [r2]
    ac54:	e5932000 	ldr	r2, [r3]
    ac58:	e3120802 	tst	r2, #131072	; 0x20000
    ac5c:	1afffff8 	bne	ac44 <spi_lld_serve_interrupt+0xa4>
    ac60:	e8bd8010 	pop	{r4, pc}
    ac64:	e594201c 	ldr	r2, [r4, #28]
    ac68:	e5931004 	ldr	r1, [r3, #4]
    ac6c:	e3520000 	cmp	r2, #0
    ac70:	15c21000 	strbne	r1, [r2]
    ac74:	e5932000 	ldr	r2, [r3]
    ac78:	e3120802 	tst	r2, #131072	; 0x20000
    ac7c:	1afffff8 	bne	ac64 <spi_lld_serve_interrupt+0xc4>
    ac80:	e5941004 	ldr	r1, [r4, #4]
    ac84:	e5932000 	ldr	r2, [r3]
    ac88:	e5911000 	ldr	r1, [r1]
    ac8c:	e3c22d1a 	bic	r2, r2, #1664	; 0x680
    ac90:	e3510000 	cmp	r1, #0
    ac94:	e5832000 	str	r2, [r3]
    ac98:	0a000025 	beq	ad34 <spi_lld_serve_interrupt+0x194>
    ac9c:	e3a03004 	mov	r3, #4
    aca0:	e1a00004 	mov	r0, r4
    aca4:	e5c43000 	strb	r3, [r4]
    aca8:	e12fff31 	blx	r1
    acac:	e5d43000 	ldrb	r3, [r4]
    acb0:	e3530004 	cmp	r3, #4
    acb4:	0a00001e 	beq	ad34 <spi_lld_serve_interrupt+0x194>
    acb8:	e5940008 	ldr	r0, [r4, #8]
    acbc:	e3500000 	cmp	r0, #0
    acc0:	0affffda 	beq	ac30 <spi_lld_serve_interrupt+0x90>
    acc4:	e3a03000 	mov	r3, #0
    acc8:	e5843008 	str	r3, [r4, #8]
    accc:	ebfff90f 	bl	9110 <chSchReadyI>
    acd0:	e59f306c 	ldr	r3, [pc, #108]	; ad44 <spi_lld_serve_interrupt+0x1a4>
    acd4:	e5932000 	ldr	r2, [r3]
    acd8:	e3120702 	tst	r2, #524288	; 0x80000
    acdc:	1affffdc 	bne	ac54 <spi_lld_serve_interrupt+0xb4>
    ace0:	eaffffd6 	b	ac40 <spi_lld_serve_interrupt+0xa0>
    ace4:	e5930000 	ldr	r0, [r3]
    ace8:	e594c020 	ldr	ip, [r4, #32]
    acec:	e3100701 	tst	r0, #262144	; 0x40000
    acf0:	0affffce 	beq	ac30 <spi_lld_serve_interrupt+0x90>
    acf4:	e1a0e001 	mov	lr, r1
    acf8:	e1a0100c 	mov	r1, ip
    acfc:	ea000001 	b	ad08 <spi_lld_serve_interrupt+0x168>
    ad00:	e3520000 	cmp	r2, #0
    ad04:	0affffc9 	beq	ac30 <spi_lld_serve_interrupt+0x90>
    ad08:	e35c0000 	cmp	ip, #0
    ad0c:	01a0000e 	moveq	r0, lr
    ad10:	15d10000 	ldrbne	r0, [r1]
    ad14:	e2422001 	sub	r2, r2, #1
    ad18:	e5830004 	str	r0, [r3, #4]
    ad1c:	e5930000 	ldr	r0, [r3]
    ad20:	12811001 	addne	r1, r1, #1
    ad24:	e3100701 	tst	r0, #262144	; 0x40000
    ad28:	e5842024 	str	r2, [r4, #36]	; 0x24
    ad2c:	1afffff3 	bne	ad00 <spi_lld_serve_interrupt+0x160>
    ad30:	eaffffbe 	b	ac30 <spi_lld_serve_interrupt+0x90>
    ad34:	e3a03002 	mov	r3, #2
    ad38:	e5c43000 	strb	r3, [r4]
    ad3c:	eaffffdd 	b	acb8 <spi_lld_serve_interrupt+0x118>
    ad40:	2000b000 	andcs	fp, r0, r0
    ad44:	20204000 	eorcs	r4, r0, r0
	...

0000ad50 <spi_lld_init>:
    ad50:	e59f0000 	ldr	r0, [pc]	; ad58 <spi_lld_init+0x8>
    ad54:	eafffd65 	b	a2f0 <spiObjectInit>
    ad58:	0000c314 	andeq	ip, r0, r4, lsl r3
    ad5c:	00000000 	andeq	r0, r0, r0

0000ad60 <bcm2835_gpio_fnsel>:
    ad60:	e52de004 	push	{lr}		; (str lr, [sp, #-4]!)
    ad64:	e3a0e007 	mov	lr, #7
    ad68:	e59f2038 	ldr	r2, [pc, #56]	; ada8 <bcm2835_gpio_fnsel+0x48>
    ad6c:	e0823092 	umull	r3, r2, r2, r0
    ad70:	e1a021a2 	lsr	r2, r2, #3
    ad74:	e1a0c102 	lsl	ip, r2, #2
    ad78:	e28c3202 	add	r3, ip, #536870912	; 0x20000000
    ad7c:	e2833602 	add	r3, r3, #2097152	; 0x200000
    ad80:	e08c2002 	add	r2, ip, r2
    ad84:	e0400082 	sub	r0, r0, r2, lsl #1
    ad88:	e5932000 	ldr	r2, [r3]
    ad8c:	e0800080 	add	r0, r0, r0, lsl #1
    ad90:	e1c2201e 	bic	r2, r2, lr, lsl r0
    ad94:	e5832000 	str	r2, [r3]
    ad98:	e5932000 	ldr	r2, [r3]
    ad9c:	e1821011 	orr	r1, r2, r1, lsl r0
    ada0:	e5831000 	str	r1, [r3]
    ada4:	e49df004 	pop	{pc}		; (ldr pc, [sp], #4)
    ada8:	cccccccd 	stclgt	12, cr12, [ip], {205}	; 0xcd
    adac:	00000000 	andeq	r0, r0, r0

0000adb0 <bcm2835_delay>:
    adb0:	e3a03000 	mov	r3, #0
    adb4:	e24dd008 	sub	sp, sp, #8
    adb8:	e58d3004 	str	r3, [sp, #4]
    adbc:	e58d3004 	str	r3, [sp, #4]
    adc0:	e59d3004 	ldr	r3, [sp, #4]
    adc4:	e1500003 	cmp	r0, r3
    adc8:	9a000005 	bls	ade4 <bcm2835_delay+0x34>
    adcc:	e59d3004 	ldr	r3, [sp, #4]
    add0:	e2833001 	add	r3, r3, #1
    add4:	e58d3004 	str	r3, [sp, #4]
    add8:	e59d3004 	ldr	r3, [sp, #4]
    addc:	e1530000 	cmp	r3, r0
    ade0:	3afffff9 	bcc	adcc <bcm2835_delay+0x1c>
    ade4:	e28dd008 	add	sp, sp, #8
    ade8:	e12fff1e 	bx	lr
    adec:	00000000 	andeq	r0, r0, r0

0000adf0 <boardInit>:
    adf0:	e12fff1e 	bx	lr
	...

0000ae00 <chprintf>:
    ae00:	e92d000e 	push	{r1, r2, r3}
    ae04:	e92d4ff0 	push	{r4, r5, r6, r7, r8, r9, sl, fp, lr}
    ae08:	e1a05000 	mov	r5, r0
    ae0c:	e3a09001 	mov	r9, #1
    ae10:	e24dd030 	sub	sp, sp, #48	; 0x30
    ae14:	e28d3058 	add	r3, sp, #88	; 0x58
    ae18:	e59da054 	ldr	sl, [sp, #84]	; 0x54
    ae1c:	e58d3014 	str	r3, [sp, #20]
    ae20:	e5da1000 	ldrb	r1, [sl]
    ae24:	e28a3001 	add	r3, sl, #1
    ae28:	e3510000 	cmp	r1, #0
    ae2c:	0a00000a 	beq	ae5c <chprintf+0x5c>
    ae30:	e3510025 	cmp	r1, #37	; 0x25
    ae34:	0a00000c 	beq	ae6c <chprintf+0x6c>
    ae38:	e1a0a003 	mov	sl, r3
    ae3c:	e5952000 	ldr	r2, [r5]
    ae40:	e1a00005 	mov	r0, r5
    ae44:	e5922008 	ldr	r2, [r2, #8]
    ae48:	e12fff32 	blx	r2
    ae4c:	e5da1000 	ldrb	r1, [sl]
    ae50:	e28a3001 	add	r3, sl, #1
    ae54:	e3510000 	cmp	r1, #0
    ae58:	1afffff4 	bne	ae30 <chprintf+0x30>
    ae5c:	e28dd030 	add	sp, sp, #48	; 0x30
    ae60:	e8bd4ff0 	pop	{r4, r5, r6, r7, r8, r9, sl, fp, lr}
    ae64:	e28dd00c 	add	sp, sp, #12
    ae68:	e12fff1e 	bx	lr
    ae6c:	e5da2001 	ldrb	r2, [sl, #1]
    ae70:	e3a0e000 	mov	lr, #0
    ae74:	e352002d 	cmp	r2, #45	; 0x2d
    ae78:	13a01000 	movne	r1, #0
    ae7c:	05da2002 	ldrbeq	r2, [sl, #2]
    ae80:	028a3002 	addeq	r3, sl, #2
    ae84:	158d1004 	strne	r1, [sp, #4]
    ae88:	058d9004 	streq	r9, [sp, #4]
    ae8c:	e352002e 	cmp	r2, #46	; 0x2e
    ae90:	05d32001 	ldrbeq	r2, [r3, #1]
    ae94:	02833001 	addeq	r3, r3, #1
    ae98:	03a08030 	moveq	r8, #48	; 0x30
    ae9c:	13a08020 	movne	r8, #32
    aea0:	e1a0400e 	mov	r4, lr
    aea4:	e59dc014 	ldr	ip, [sp, #20]
    aea8:	e2831001 	add	r1, r3, #1
    aeac:	ea000004 	b	aec4 <chprintf+0xc4>
    aeb0:	e1a0e009 	mov	lr, r9
    aeb4:	e5dc3000 	ldrb	r3, [ip]
    aeb8:	e28cc004 	add	ip, ip, #4
    aebc:	e4d12001 	ldrb	r2, [r1], #1
    aec0:	e0834080 	add	r4, r3, r0, lsl #1
    aec4:	e2423030 	sub	r3, r2, #48	; 0x30
    aec8:	e6ef3073 	uxtb	r3, r3
    aecc:	e3530009 	cmp	r3, #9
    aed0:	e0840104 	add	r0, r4, r4, lsl #2
    aed4:	e1a0a001 	mov	sl, r1
    aed8:	9afffff7 	bls	aebc <chprintf+0xbc>
    aedc:	e352002a 	cmp	r2, #42	; 0x2a
    aee0:	0afffff2 	beq	aeb0 <chprintf+0xb0>
    aee4:	e35e0000 	cmp	lr, #0
    aee8:	158dc014 	strne	ip, [sp, #20]
    aeec:	e352002e 	cmp	r2, #46	; 0x2e
    aef0:	13a01000 	movne	r1, #0
    aef4:	0a00012b 	beq	b3a8 <chprintf+0x5a8>
    aef8:	e20230df 	and	r3, r2, #223	; 0xdf
    aefc:	e353004c 	cmp	r3, #76	; 0x4c
    af00:	1a0000ed 	bne	b2bc <chprintf+0x4bc>
    af04:	e5da3000 	ldrb	r3, [sl]
    af08:	e3530000 	cmp	r3, #0
    af0c:	11a02003 	movne	r2, r3
    af10:	e2423044 	sub	r3, r2, #68	; 0x44
    af14:	128aa001 	addne	sl, sl, #1
    af18:	e3530034 	cmp	r3, #52	; 0x34
    af1c:	979ff103 	ldrls	pc, [pc, r3, lsl #2]
    af20:	ea0000dd 	b	b29c <chprintf+0x49c>
    af24:	0000b4c0 	andeq	fp, r0, r0, asr #9
    af28:	0000b29c 	muleq	r0, ip, r2
    af2c:	0000b29c 	muleq	r0, ip, r2
    af30:	0000b29c 	muleq	r0, ip, r2
    af34:	0000b29c 	muleq	r0, ip, r2
    af38:	0000b29c 	muleq	r0, ip, r2
    af3c:	0000b29c 	muleq	r0, ip, r2
    af40:	0000b29c 	muleq	r0, ip, r2
    af44:	0000b29c 	muleq	r0, ip, r2
    af48:	0000b29c 	muleq	r0, ip, r2
    af4c:	0000b29c 	muleq	r0, ip, r2
    af50:	0000b4a0 	andeq	fp, r0, r0, lsr #9
    af54:	0000b29c 	muleq	r0, ip, r2
    af58:	0000b29c 	muleq	r0, ip, r2
    af5c:	0000b29c 	muleq	r0, ip, r2
    af60:	0000b29c 	muleq	r0, ip, r2
    af64:	0000b29c 	muleq	r0, ip, r2
    af68:	0000b4b8 			; <UNDEFINED> instruction: 0x0000b4b8
    af6c:	0000b29c 	muleq	r0, ip, r2
    af70:	0000b29c 	muleq	r0, ip, r2
    af74:	0000b570 	andeq	fp, r0, r0, ror r5
    af78:	0000b29c 	muleq	r0, ip, r2
    af7c:	0000b29c 	muleq	r0, ip, r2
    af80:	0000b29c 	muleq	r0, ip, r2
    af84:	0000b29c 	muleq	r0, ip, r2
    af88:	0000b29c 	muleq	r0, ip, r2
    af8c:	0000b29c 	muleq	r0, ip, r2
    af90:	0000b29c 	muleq	r0, ip, r2
    af94:	0000b29c 	muleq	r0, ip, r2
    af98:	0000b29c 	muleq	r0, ip, r2
    af9c:	0000b29c 	muleq	r0, ip, r2
    afa0:	0000b274 	andeq	fp, r0, r4, ror r2
    afa4:	0000b4c0 	andeq	fp, r0, r0, asr #9
    afa8:	0000b29c 	muleq	r0, ip, r2
    afac:	0000b074 	andeq	fp, r0, r4, ror r0
    afb0:	0000b29c 	muleq	r0, ip, r2
    afb4:	0000b29c 	muleq	r0, ip, r2
    afb8:	0000b29c 	muleq	r0, ip, r2
    afbc:	0000b29c 	muleq	r0, ip, r2
    afc0:	0000b29c 	muleq	r0, ip, r2
    afc4:	0000b29c 	muleq	r0, ip, r2
    afc8:	0000b29c 	muleq	r0, ip, r2
    afcc:	0000b29c 	muleq	r0, ip, r2
    afd0:	0000b4a0 	andeq	fp, r0, r0, lsr #9
    afd4:	0000b29c 	muleq	r0, ip, r2
    afd8:	0000b29c 	muleq	r0, ip, r2
    afdc:	0000b29c 	muleq	r0, ip, r2
    afe0:	0000aff8 	strdeq	sl, [r0], -r8
    afe4:	0000b29c 	muleq	r0, ip, r2
    afe8:	0000b4b8 			; <UNDEFINED> instruction: 0x0000b4b8
    afec:	0000b29c 	muleq	r0, ip, r2
    aff0:	0000b29c 	muleq	r0, ip, r2
    aff4:	0000b570 	andeq	fp, r0, r0, ror r5
    aff8:	e59d3014 	ldr	r3, [sp, #20]
    affc:	e5937000 	ldr	r7, [r3]
    b000:	e2833004 	add	r3, r3, #4
    b004:	e3570000 	cmp	r7, #0
    b008:	e58d3014 	str	r3, [sp, #20]
    b00c:	0a00015f 	beq	b590 <chprintf+0x790>
    b010:	e3510000 	cmp	r1, #0
    b014:	e5d73000 	ldrb	r3, [r7]
    b018:	0a000156 	beq	b578 <chprintf+0x778>
    b01c:	e3530000 	cmp	r3, #0
    b020:	0a000157 	beq	b584 <chprintf+0x784>
    b024:	e2411001 	sub	r1, r1, #1
    b028:	e1a0b007 	mov	fp, r7
    b02c:	ea000001 	b	b038 <chprintf+0x238>
    b030:	e2511001 	subs	r1, r1, #1
    b034:	4a000002 	bmi	b044 <chprintf+0x244>
    b038:	e5fb3001 	ldrb	r3, [fp, #1]!
    b03c:	e3530000 	cmp	r3, #0
    b040:	1afffffa 	bne	b030 <chprintf+0x230>
    b044:	e04b0007 	sub	r0, fp, r7
    b048:	e0544000 	subs	r4, r4, r0
    b04c:	e2406001 	sub	r6, r0, #1
    b050:	e3a08020 	mov	r8, #32
    b054:	5a000061 	bpl	b1e0 <chprintf+0x3e0>
    b058:	e59d3004 	ldr	r3, [sp, #4]
    b05c:	e3530000 	cmp	r3, #0
    b060:	1a0000e3 	bne	b3f4 <chprintf+0x5f4>
    b064:	e3560000 	cmp	r6, #0
    b068:	a59d4004 	ldrge	r4, [sp, #4]
    b06c:	aa00006e 	bge	b22c <chprintf+0x42c>
    b070:	eaffff6a 	b	ae20 <chprintf+0x20>
    b074:	e59d3014 	ldr	r3, [sp, #20]
    b078:	e2833007 	add	r3, r3, #7
    b07c:	e3c33007 	bic	r3, r3, #7
    b080:	e2832008 	add	r2, r3, #8
    b084:	e1c300d0 	ldrd	r0, [r3]
    b088:	e58d2014 	str	r2, [sp, #20]
    b08c:	ebfff6df 	bl	8c10 <__aeabi_d2f>
    b090:	e3a01000 	mov	r1, #0
    b094:	e1a0b000 	mov	fp, r0
    b098:	ebfff731 	bl	8d64 <__aeabi_fcmplt>
    b09c:	e3500000 	cmp	r0, #0
    b0a0:	13a0302d 	movne	r3, #45	; 0x2d
    b0a4:	128bb102 	addne	fp, fp, #-2147483648	; 0x80000000
    b0a8:	028d7018 	addeq	r7, sp, #24
    b0ac:	e1a0000b 	mov	r0, fp
    b0b0:	128d6019 	addne	r6, sp, #25
    b0b4:	01a06007 	moveq	r6, r7
    b0b8:	15cd3018 	strbne	r3, [sp, #24]
    b0bc:	128d7018 	addne	r7, sp, #24
    b0c0:	ebfff564 	bl	8658 <__aeabi_f2d>
    b0c4:	e1cd00f8 	strd	r0, [sp, #8]
    b0c8:	e1a0000b 	mov	r0, fp
    b0cc:	ebfff73f 	bl	8dd0 <__aeabi_f2iz>
    b0d0:	e286c00b 	add	ip, r6, #11
    b0d4:	e1a0e000 	mov	lr, r0
    b0d8:	e1a0100c 	mov	r1, ip
    b0dc:	e59f34dc 	ldr	r3, [pc, #1244]	; b5c0 <chprintf+0x7c0>
    b0e0:	e0832e93 	umull	r2, r3, r3, lr
    b0e4:	e1a031a3 	lsr	r3, r3, #3
    b0e8:	e1a02003 	mov	r2, r3
    b0ec:	e0833103 	add	r3, r3, r3, lsl #2
    b0f0:	e04e3083 	sub	r3, lr, r3, lsl #1
    b0f4:	e2833030 	add	r3, r3, #48	; 0x30
    b0f8:	e6ef3073 	uxtb	r3, r3
    b0fc:	e252e000 	subs	lr, r2, #0
    b100:	e5613001 	strb	r3, [r1, #-1]!
    b104:	1afffff4 	bne	b0dc <chprintf+0x2dc>
    b108:	e04cc001 	sub	ip, ip, r1
    b10c:	e1a0e001 	mov	lr, r1
    b110:	e1a02006 	mov	r2, r6
    b114:	e086100c 	add	r1, r6, ip
    b118:	ea000000 	b	b120 <chprintf+0x320>
    b11c:	e5fe3001 	ldrb	r3, [lr, #1]!
    b120:	e4c23001 	strb	r3, [r2], #1
    b124:	e1520001 	cmp	r2, r1
    b128:	1afffffb 	bne	b11c <chprintf+0x31c>
    b12c:	e3a0302e 	mov	r3, #46	; 0x2e
    b130:	e24cc001 	sub	ip, ip, #1
    b134:	e5c23000 	strb	r3, [r2]
    b138:	e086600c 	add	r6, r6, ip
    b13c:	ebfff53b 	bl	8630 <__aeabi_i2d>
    b140:	e1a02000 	mov	r2, r0
    b144:	e1a03001 	mov	r3, r1
    b148:	e1cd00d8 	ldrd	r0, [sp, #8]
    b14c:	ebfff469 	bl	82f8 <__aeabi_dsub>
    b150:	e3a02000 	mov	r2, #0
    b154:	e59f3468 	ldr	r3, [pc, #1128]	; b5c4 <chprintf+0x7c4>
    b158:	ebfff56c 	bl	8710 <__aeabi_dmul>
    b15c:	ebfff693 	bl	8bb0 <__aeabi_d2iz>
    b160:	e286e00d 	add	lr, r6, #13
    b164:	e286b002 	add	fp, r6, #2
    b168:	e1a0200e 	mov	r2, lr
    b16c:	e2866008 	add	r6, r6, #8
    b170:	ea000000 	b	b178 <chprintf+0x378>
    b174:	e1a0200c 	mov	r2, ip
    b178:	e59f3440 	ldr	r3, [pc, #1088]	; b5c0 <chprintf+0x7c0>
    b17c:	e242c001 	sub	ip, r2, #1
    b180:	e0831093 	umull	r1, r3, r3, r0
    b184:	e1a031a3 	lsr	r3, r3, #3
    b188:	e1a01003 	mov	r1, r3
    b18c:	e0833103 	add	r3, r3, r3, lsl #2
    b190:	e0403083 	sub	r3, r0, r3, lsl #1
    b194:	e2833030 	add	r3, r3, #48	; 0x30
    b198:	e6ef3073 	uxtb	r3, r3
    b19c:	e15c0006 	cmp	ip, r6
    b1a0:	e5423001 	strb	r3, [r2, #-1]
    b1a4:	e1a00001 	mov	r0, r1
    b1a8:	1afffff1 	bne	b174 <chprintf+0x374>
    b1ac:	e04ee006 	sub	lr, lr, r6
    b1b0:	e1a0100b 	mov	r1, fp
    b1b4:	e086600e 	add	r6, r6, lr
    b1b8:	ea000000 	b	b1c0 <chprintf+0x3c0>
    b1bc:	e4d23001 	ldrb	r3, [r2], #1
    b1c0:	e1560002 	cmp	r6, r2
    b1c4:	e4c13001 	strb	r3, [r1], #1
    b1c8:	1afffffb 	bne	b1bc <chprintf+0x3bc>
    b1cc:	e08bb00e 	add	fp, fp, lr
    b1d0:	e04b0007 	sub	r0, fp, r7
    b1d4:	e2406001 	sub	r6, r0, #1
    b1d8:	e0544000 	subs	r4, r4, r0
    b1dc:	4affff9d 	bmi	b058 <chprintf+0x258>
    b1e0:	e59d3004 	ldr	r3, [sp, #4]
    b1e4:	e3530000 	cmp	r3, #0
    b1e8:	1a000030 	bne	b2b0 <chprintf+0x4b0>
    b1ec:	e3540000 	cmp	r4, #0
    b1f0:	e2644000 	rsb	r4, r4, #0
    b1f4:	0a00002d 	beq	b2b0 <chprintf+0x4b0>
    b1f8:	e5d73000 	ldrb	r3, [r7]
    b1fc:	e353002d 	cmp	r3, #45	; 0x2d
    b200:	03580030 	cmpeq	r8, #48	; 0x30
    b204:	0a0000e5 	beq	b5a0 <chprintf+0x7a0>
    b208:	e5953000 	ldr	r3, [r5]
    b20c:	e1a01008 	mov	r1, r8
    b210:	e5933008 	ldr	r3, [r3, #8]
    b214:	e1a00005 	mov	r0, r5
    b218:	e12fff33 	blx	r3
    b21c:	e2944001 	adds	r4, r4, #1
    b220:	1afffff8 	bne	b208 <chprintf+0x408>
    b224:	e3560000 	cmp	r6, #0
    b228:	bafffefc 	blt	ae20 <chprintf+0x20>
    b22c:	e5953000 	ldr	r3, [r5]
    b230:	e2466001 	sub	r6, r6, #1
    b234:	e5933008 	ldr	r3, [r3, #8]
    b238:	e4d71001 	ldrb	r1, [r7], #1
    b23c:	e1a00005 	mov	r0, r5
    b240:	e12fff33 	blx	r3
    b244:	e3760001 	cmn	r6, #1
    b248:	1afffff7 	bne	b22c <chprintf+0x42c>
    b24c:	e3540000 	cmp	r4, #0
    b250:	0afffef2 	beq	ae20 <chprintf+0x20>
    b254:	e5953000 	ldr	r3, [r5]
    b258:	e1a01008 	mov	r1, r8
    b25c:	e5933008 	ldr	r3, [r3, #8]
    b260:	e1a00005 	mov	r0, r5
    b264:	e12fff33 	blx	r3
    b268:	e2544001 	subs	r4, r4, #1
    b26c:	1afffff8 	bne	b254 <chprintf+0x454>
    b270:	eafffeea 	b	ae20 <chprintf+0x20>
    b274:	e59d3014 	ldr	r3, [sp, #20]
    b278:	e28d7030 	add	r7, sp, #48	; 0x30
    b27c:	e5932000 	ldr	r2, [r3]
    b280:	e2833004 	add	r3, r3, #4
    b284:	e1a00009 	mov	r0, r9
    b288:	e58d3014 	str	r3, [sp, #20]
    b28c:	e5672018 	strb	r2, [r7, #-24]!	; 0xffffffe8
    b290:	e3a06000 	mov	r6, #0
    b294:	e3a08020 	mov	r8, #32
    b298:	eaffffce 	b	b1d8 <chprintf+0x3d8>
    b29c:	e28d7030 	add	r7, sp, #48	; 0x30
    b2a0:	e1a00009 	mov	r0, r9
    b2a4:	e3a06000 	mov	r6, #0
    b2a8:	e5672018 	strb	r2, [r7, #-24]!	; 0xffffffe8
    b2ac:	eaffffc9 	b	b1d8 <chprintf+0x3d8>
    b2b0:	e3560000 	cmp	r6, #0
    b2b4:	aaffffdc 	bge	b22c <chprintf+0x42c>
    b2b8:	eaffffe3 	b	b24c <chprintf+0x44c>
    b2bc:	e2423041 	sub	r3, r2, #65	; 0x41
    b2c0:	e2420044 	sub	r0, r2, #68	; 0x44
    b2c4:	e6ef3073 	uxtb	r3, r3
    b2c8:	e3500034 	cmp	r0, #52	; 0x34
    b2cc:	979ff100 	ldrls	pc, [pc, r0, lsl #2]
    b2d0:	eafffff1 	b	b29c <chprintf+0x49c>
    b2d4:	0000b554 	andeq	fp, r0, r4, asr r5
    b2d8:	0000b29c 	muleq	r0, ip, r2
    b2dc:	0000b29c 	muleq	r0, ip, r2
    b2e0:	0000b29c 	muleq	r0, ip, r2
    b2e4:	0000b29c 	muleq	r0, ip, r2
    b2e8:	0000b29c 	muleq	r0, ip, r2
    b2ec:	0000b29c 	muleq	r0, ip, r2
    b2f0:	0000b29c 	muleq	r0, ip, r2
    b2f4:	0000b29c 	muleq	r0, ip, r2
    b2f8:	0000b29c 	muleq	r0, ip, r2
    b2fc:	0000b29c 	muleq	r0, ip, r2
    b300:	0000b54c 	andeq	fp, r0, ip, asr #10
    b304:	0000b29c 	muleq	r0, ip, r2
    b308:	0000b29c 	muleq	r0, ip, r2
    b30c:	0000b29c 	muleq	r0, ip, r2
    b310:	0000b29c 	muleq	r0, ip, r2
    b314:	0000b29c 	muleq	r0, ip, r2
    b318:	0000b404 	andeq	fp, r0, r4, lsl #8
    b31c:	0000b29c 	muleq	r0, ip, r2
    b320:	0000b29c 	muleq	r0, ip, r2
    b324:	0000b544 	andeq	fp, r0, r4, asr #10
    b328:	0000b29c 	muleq	r0, ip, r2
    b32c:	0000b29c 	muleq	r0, ip, r2
    b330:	0000b29c 	muleq	r0, ip, r2
    b334:	0000b29c 	muleq	r0, ip, r2
    b338:	0000b29c 	muleq	r0, ip, r2
    b33c:	0000b29c 	muleq	r0, ip, r2
    b340:	0000b29c 	muleq	r0, ip, r2
    b344:	0000b29c 	muleq	r0, ip, r2
    b348:	0000b29c 	muleq	r0, ip, r2
    b34c:	0000b29c 	muleq	r0, ip, r2
    b350:	0000b274 	andeq	fp, r0, r4, ror r2
    b354:	0000b554 	andeq	fp, r0, r4, asr r5
    b358:	0000b29c 	muleq	r0, ip, r2
    b35c:	0000b074 	andeq	fp, r0, r4, ror r0
    b360:	0000b29c 	muleq	r0, ip, r2
    b364:	0000b29c 	muleq	r0, ip, r2
    b368:	0000b29c 	muleq	r0, ip, r2
    b36c:	0000b29c 	muleq	r0, ip, r2
    b370:	0000b29c 	muleq	r0, ip, r2
    b374:	0000b29c 	muleq	r0, ip, r2
    b378:	0000b29c 	muleq	r0, ip, r2
    b37c:	0000b29c 	muleq	r0, ip, r2
    b380:	0000b54c 	andeq	fp, r0, ip, asr #10
    b384:	0000b29c 	muleq	r0, ip, r2
    b388:	0000b29c 	muleq	r0, ip, r2
    b38c:	0000b29c 	muleq	r0, ip, r2
    b390:	0000aff8 	strdeq	sl, [r0], -r8
    b394:	0000b29c 	muleq	r0, ip, r2
    b398:	0000b404 	andeq	fp, r0, r4, lsl #8
    b39c:	0000b29c 	muleq	r0, ip, r2
    b3a0:	0000b29c 	muleq	r0, ip, r2
    b3a4:	0000b544 	andeq	fp, r0, r4, asr #10
    b3a8:	e3a0e000 	mov	lr, #0
    b3ac:	e59dc014 	ldr	ip, [sp, #20]
    b3b0:	e1a0100e 	mov	r1, lr
    b3b4:	ea000003 	b	b3c8 <chprintf+0x5c8>
    b3b8:	e1a0e009 	mov	lr, r9
    b3bc:	e5dc3000 	ldrb	r3, [ip]
    b3c0:	e28cc004 	add	ip, ip, #4
    b3c4:	e0831080 	add	r1, r3, r0, lsl #1
    b3c8:	e4da2001 	ldrb	r2, [sl], #1
    b3cc:	e0810101 	add	r0, r1, r1, lsl #2
    b3d0:	e2423030 	sub	r3, r2, #48	; 0x30
    b3d4:	e6ef3073 	uxtb	r3, r3
    b3d8:	e3530009 	cmp	r3, #9
    b3dc:	9afffff8 	bls	b3c4 <chprintf+0x5c4>
    b3e0:	e352002a 	cmp	r2, #42	; 0x2a
    b3e4:	0afffff3 	beq	b3b8 <chprintf+0x5b8>
    b3e8:	e35e0000 	cmp	lr, #0
    b3ec:	158dc014 	strne	ip, [sp, #20]
    b3f0:	eafffec0 	b	aef8 <chprintf+0xf8>
    b3f4:	e3560000 	cmp	r6, #0
    b3f8:	a3a04000 	movge	r4, #0
    b3fc:	aaffff8a 	bge	b22c <chprintf+0x42c>
    b400:	eafffe86 	b	ae20 <chprintf+0x20>
    b404:	e3a0700a 	mov	r7, #10
    b408:	e3530019 	cmp	r3, #25
    b40c:	9a000024 	bls	b4a4 <chprintf+0x6a4>
    b410:	e59d3014 	ldr	r3, [sp, #20]
    b414:	e2831004 	add	r1, r3, #4
    b418:	e5932000 	ldr	r2, [r3]
    b41c:	e58d1014 	str	r1, [sp, #20]
    b420:	e58d4008 	str	r4, [sp, #8]
    b424:	e28d6023 	add	r6, sp, #35	; 0x23
    b428:	e1a04002 	mov	r4, r2
    b42c:	ea000000 	b	b434 <chprintf+0x634>
    b430:	e1a06001 	mov	r6, r1
    b434:	e1a00004 	mov	r0, r4
    b438:	e1a01007 	mov	r1, r7
    b43c:	ebfff39c 	bl	82b4 <__aeabi_uidivmod>
    b440:	e1a0c001 	mov	ip, r1
    b444:	e28c3030 	add	r3, ip, #48	; 0x30
    b448:	e3530039 	cmp	r3, #57	; 0x39
    b44c:	c28c3037 	addgt	r3, ip, #55	; 0x37
    b450:	e6efb073 	uxtb	fp, r3
    b454:	e1a00004 	mov	r0, r4
    b458:	e1a01007 	mov	r1, r7
    b45c:	e546b001 	strb	fp, [r6, #-1]
    b460:	ebfff356 	bl	81c0 <__aeabi_uidiv>
    b464:	e2504000 	subs	r4, r0, #0
    b468:	e2461001 	sub	r1, r6, #1
    b46c:	1affffef 	bne	b430 <chprintf+0x630>
    b470:	e28d3023 	add	r3, sp, #35	; 0x23
    b474:	e28d7018 	add	r7, sp, #24
    b478:	e0430001 	sub	r0, r3, r1
    b47c:	e59d4008 	ldr	r4, [sp, #8]
    b480:	e1a02007 	mov	r2, r7
    b484:	e0811000 	add	r1, r1, r0
    b488:	ea000000 	b	b490 <chprintf+0x690>
    b48c:	e4d6b001 	ldrb	fp, [r6], #1
    b490:	e1510006 	cmp	r1, r6
    b494:	e4c2b001 	strb	fp, [r2], #1
    b498:	1afffffb 	bne	b48c <chprintf+0x68c>
    b49c:	eaffff4c 	b	b1d4 <chprintf+0x3d4>
    b4a0:	e3a07008 	mov	r7, #8
    b4a4:	e59d3014 	ldr	r3, [sp, #20]
    b4a8:	e2832004 	add	r2, r3, #4
    b4ac:	e58d2014 	str	r2, [sp, #20]
    b4b0:	e5932000 	ldr	r2, [r3]
    b4b4:	eaffffd9 	b	b420 <chprintf+0x620>
    b4b8:	e3a0700a 	mov	r7, #10
    b4bc:	eafffff8 	b	b4a4 <chprintf+0x6a4>
    b4c0:	e59d3014 	ldr	r3, [sp, #20]
    b4c4:	e2832004 	add	r2, r3, #4
    b4c8:	e593e000 	ldr	lr, [r3]
    b4cc:	e58d2014 	str	r2, [sp, #20]
    b4d0:	e35e0000 	cmp	lr, #0
    b4d4:	a28d7018 	addge	r7, sp, #24
    b4d8:	a1a0c007 	movge	ip, r7
    b4dc:	b28dc019 	addlt	ip, sp, #25
    b4e0:	b3a0302d 	movlt	r3, #45	; 0x2d
    b4e4:	e28c200b 	add	r2, ip, #11
    b4e8:	e1a00002 	mov	r0, r2
    b4ec:	b26ee000 	rsblt	lr, lr, #0
    b4f0:	b5cd3018 	strblt	r3, [sp, #24]
    b4f4:	b28d7018 	addlt	r7, sp, #24
    b4f8:	e59f30c0 	ldr	r3, [pc, #192]	; b5c0 <chprintf+0x7c0>
    b4fc:	e0831e93 	umull	r1, r3, r3, lr
    b500:	e1a031a3 	lsr	r3, r3, #3
    b504:	e1a01003 	mov	r1, r3
    b508:	e0833103 	add	r3, r3, r3, lsl #2
    b50c:	e04e3083 	sub	r3, lr, r3, lsl #1
    b510:	e2833030 	add	r3, r3, #48	; 0x30
    b514:	e6ef3073 	uxtb	r3, r3
    b518:	e251e000 	subs	lr, r1, #0
    b51c:	e5603001 	strb	r3, [r0, #-1]!
    b520:	1afffff4 	bne	b4f8 <chprintf+0x6f8>
    b524:	e042b000 	sub	fp, r2, r0
    b528:	e08cb00b 	add	fp, ip, fp
    b52c:	ea000000 	b	b534 <chprintf+0x734>
    b530:	e5f03001 	ldrb	r3, [r0, #1]!
    b534:	e4cc3001 	strb	r3, [ip], #1
    b538:	e15b000c 	cmp	fp, ip
    b53c:	1afffffb 	bne	b530 <chprintf+0x730>
    b540:	eaffff22 	b	b1d0 <chprintf+0x3d0>
    b544:	e3a07010 	mov	r7, #16
    b548:	eaffffae 	b	b408 <chprintf+0x608>
    b54c:	e3a07008 	mov	r7, #8
    b550:	eaffffac 	b	b408 <chprintf+0x608>
    b554:	e3530019 	cmp	r3, #25
    b558:	9affffd8 	bls	b4c0 <chprintf+0x6c0>
    b55c:	e59d3014 	ldr	r3, [sp, #20]
    b560:	e2832004 	add	r2, r3, #4
    b564:	e593e000 	ldr	lr, [r3]
    b568:	e58d2014 	str	r2, [sp, #20]
    b56c:	eaffffd7 	b	b4d0 <chprintf+0x6d0>
    b570:	e3a07010 	mov	r7, #16
    b574:	eaffffca 	b	b4a4 <chprintf+0x6a4>
    b578:	e3530000 	cmp	r3, #0
    b57c:	159f1044 	ldrne	r1, [pc, #68]	; b5c8 <chprintf+0x7c8>
    b580:	1afffea8 	bne	b028 <chprintf+0x228>
    b584:	e3e06000 	mvn	r6, #0
    b588:	e3a08020 	mov	r8, #32
    b58c:	eaffff13 	b	b1e0 <chprintf+0x3e0>
    b590:	e3510000 	cmp	r1, #0
    b594:	059f1030 	ldreq	r1, [pc, #48]	; b5cc <chprintf+0x7cc>
    b598:	e59f7030 	ldr	r7, [pc, #48]	; b5d0 <chprintf+0x7d0>
    b59c:	eafffea0 	b	b024 <chprintf+0x224>
    b5a0:	e5953000 	ldr	r3, [r5]
    b5a4:	e3a0102d 	mov	r1, #45	; 0x2d
    b5a8:	e5933008 	ldr	r3, [r3, #8]
    b5ac:	e1a00005 	mov	r0, r5
    b5b0:	e12fff33 	blx	r3
    b5b4:	e2877001 	add	r7, r7, #1
    b5b8:	e2466001 	sub	r6, r6, #1
    b5bc:	eaffff11 	b	b208 <chprintf+0x408>
    b5c0:	cccccccd 	stclgt	12, cr12, [ip], {205}	; 0xcd
    b5c4:	40f86a00 	rscsmi	r6, r8, r0, lsl #20
    b5c8:	00007ffe 	strdeq	r7, [r0], -lr
    b5cc:	00007fff 	strdeq	r7, [r0], -pc	; <UNPREDICTABLE>
    b5d0:	0000bcd0 	ldrdeq	fp, [r0], -r0
	...

0000b5e0 <Thread_LCD>:
    b5e0:	e92d4880 	push	{r7, fp, lr}
    b5e4:	e59f32b0 	ldr	r3, [pc, #688]	; b89c <Thread_LCD+0x2bc>
    b5e8:	e59f22b0 	ldr	r2, [pc, #688]	; b8a0 <Thread_LCD+0x2c0>
    b5ec:	e5933018 	ldr	r3, [r3, #24]
    b5f0:	e59f42ac 	ldr	r4, [pc, #684]	; b8a4 <Thread_LCD+0x2c4>
    b5f4:	e24dd00c 	sub	sp, sp, #12
    b5f8:	e3a00e7d 	mov	r0, #2000	; 0x7d0
    b5fc:	e5832018 	str	r2, [r3, #24]
    b600:	ebfff7de 	bl	9580 <chThdSleep>
    b604:	e3e05000 	mvn	r5, #0
    b608:	e3a0707c 	mov	r7, #124	; 0x7c
    b60c:	e3a08000 	mov	r8, #0
    b610:	e3a0600a 	mov	r6, #10
    b614:	e59fb28c 	ldr	fp, [pc, #652]	; b8a8 <Thread_LCD+0x2c8>
    b618:	e59fa28c 	ldr	sl, [pc, #652]	; b8ac <Thread_LCD+0x2cc>
    b61c:	e2449030 	sub	r9, r4, #48	; 0x30
    b620:	ea000005 	b	b63c <Thread_LCD+0x5c>
    b624:	ebfff779 	bl	9410 <chSchRescheduleS>
    b628:	e321f01f 	msr	CPSR_c, #31
    b62c:	e3a00f4b 	mov	r0, #300	; 0x12c
    b630:	ebfff7d2 	bl	9580 <chThdSleep>
    b634:	e59f0274 	ldr	r0, [pc, #628]	; b8b0 <Thread_LCD+0x2d0>
    b638:	ebfff7d0 	bl	9580 <chThdSleep>
    b63c:	e1a02005 	mov	r2, r5
    b640:	e1a01007 	mov	r1, r7
    b644:	e1a00004 	mov	r0, r4
    b648:	ebfff9ac 	bl	9d00 <chOQPutTimeout>
    b64c:	e1a02005 	mov	r2, r5
    b650:	e1a01008 	mov	r1, r8
    b654:	e1a00004 	mov	r0, r4
    b658:	ebfff9a8 	bl	9d00 <chOQPutTimeout>
    b65c:	e1a00006 	mov	r0, r6
    b660:	ebfff7c6 	bl	9580 <chThdSleep>
    b664:	e1a02005 	mov	r2, r5
    b668:	e1a01007 	mov	r1, r7
    b66c:	e1a00004 	mov	r0, r4
    b670:	ebfff9a2 	bl	9d00 <chOQPutTimeout>
    b674:	e1a02005 	mov	r2, r5
    b678:	e3a01018 	mov	r1, #24
    b67c:	e1a00004 	mov	r0, r4
    b680:	ebfff99e 	bl	9d00 <chOQPutTimeout>
    b684:	e1a02005 	mov	r2, r5
    b688:	e1a01008 	mov	r1, r8
    b68c:	e1a00004 	mov	r0, r4
    b690:	ebfff99a 	bl	9d00 <chOQPutTimeout>
    b694:	e1a00006 	mov	r0, r6
    b698:	ebfff7b8 	bl	9580 <chThdSleep>
    b69c:	e1a02005 	mov	r2, r5
    b6a0:	e1a01007 	mov	r1, r7
    b6a4:	e1a00004 	mov	r0, r4
    b6a8:	ebfff994 	bl	9d00 <chOQPutTimeout>
    b6ac:	e1a02005 	mov	r2, r5
    b6b0:	e3a01019 	mov	r1, #25
    b6b4:	e1a00004 	mov	r0, r4
    b6b8:	ebfff990 	bl	9d00 <chOQPutTimeout>
    b6bc:	e1a02005 	mov	r2, r5
    b6c0:	e3a01035 	mov	r1, #53	; 0x35
    b6c4:	e1a00004 	mov	r0, r4
    b6c8:	ebfff98c 	bl	9d00 <chOQPutTimeout>
    b6cc:	e1a00006 	mov	r0, r6
    b6d0:	ebfff7aa 	bl	9580 <chThdSleep>
    b6d4:	e59f01cc 	ldr	r0, [pc, #460]	; b8a8 <Thread_LCD+0x2c8>
    b6d8:	ebfff800 	bl	96e0 <chSemWait>
    b6dc:	e89a000c 	ldm	sl, {r2, r3}
    b6e0:	e59a1008 	ldr	r1, [sl, #8]
    b6e4:	e1a00009 	mov	r0, r9
    b6e8:	e58d1000 	str	r1, [sp]
    b6ec:	e59f11c0 	ldr	r1, [pc, #448]	; b8b4 <Thread_LCD+0x2d4>
    b6f0:	ebfffdc2 	bl	ae00 <chprintf>
    b6f4:	e1a02005 	mov	r2, r5
    b6f8:	e1a01007 	mov	r1, r7
    b6fc:	e1a00004 	mov	r0, r4
    b700:	ebfff97e 	bl	9d00 <chOQPutTimeout>
    b704:	e1a02005 	mov	r2, r5
    b708:	e3a01018 	mov	r1, #24
    b70c:	e1a00004 	mov	r0, r4
    b710:	ebfff97a 	bl	9d00 <chOQPutTimeout>
    b714:	e1a02005 	mov	r2, r5
    b718:	e1a01008 	mov	r1, r8
    b71c:	e1a00004 	mov	r0, r4
    b720:	ebfff976 	bl	9d00 <chOQPutTimeout>
    b724:	e1a00006 	mov	r0, r6
    b728:	ebfff794 	bl	9580 <chThdSleep>
    b72c:	e1a02005 	mov	r2, r5
    b730:	e1a01007 	mov	r1, r7
    b734:	e1a00004 	mov	r0, r4
    b738:	ebfff970 	bl	9d00 <chOQPutTimeout>
    b73c:	e1a02005 	mov	r2, r5
    b740:	e3a01019 	mov	r1, #25
    b744:	e1a00004 	mov	r0, r4
    b748:	ebfff96c 	bl	9d00 <chOQPutTimeout>
    b74c:	e1a02005 	mov	r2, r5
    b750:	e3a01025 	mov	r1, #37	; 0x25
    b754:	e1a00004 	mov	r0, r4
    b758:	ebfff968 	bl	9d00 <chOQPutTimeout>
    b75c:	e1a00006 	mov	r0, r6
    b760:	ebfff786 	bl	9580 <chThdSleep>
    b764:	e59f314c 	ldr	r3, [pc, #332]	; b8b8 <Thread_LCD+0x2d8>
    b768:	e1a00009 	mov	r0, r9
    b76c:	e5d32000 	ldrb	r2, [r3]
    b770:	e59f1144 	ldr	r1, [pc, #324]	; b8bc <Thread_LCD+0x2dc>
    b774:	ebfffda1 	bl	ae00 <chprintf>
    b778:	e1a02005 	mov	r2, r5
    b77c:	e1a01007 	mov	r1, r7
    b780:	e1a00004 	mov	r0, r4
    b784:	ebfff95d 	bl	9d00 <chOQPutTimeout>
    b788:	e1a02005 	mov	r2, r5
    b78c:	e3a01018 	mov	r1, #24
    b790:	e1a00004 	mov	r0, r4
    b794:	ebfff959 	bl	9d00 <chOQPutTimeout>
    b798:	e1a02005 	mov	r2, r5
    b79c:	e1a01008 	mov	r1, r8
    b7a0:	e1a00004 	mov	r0, r4
    b7a4:	ebfff955 	bl	9d00 <chOQPutTimeout>
    b7a8:	e1a00006 	mov	r0, r6
    b7ac:	ebfff773 	bl	9580 <chThdSleep>
    b7b0:	e1a02005 	mov	r2, r5
    b7b4:	e1a01007 	mov	r1, r7
    b7b8:	e1a00004 	mov	r0, r4
    b7bc:	ebfff94f 	bl	9d00 <chOQPutTimeout>
    b7c0:	e1a02005 	mov	r2, r5
    b7c4:	e3a01019 	mov	r1, #25
    b7c8:	e1a00004 	mov	r0, r4
    b7cc:	ebfff94b 	bl	9d00 <chOQPutTimeout>
    b7d0:	e1a02005 	mov	r2, r5
    b7d4:	e3a0101d 	mov	r1, #29
    b7d8:	e1a00004 	mov	r0, r4
    b7dc:	ebfff947 	bl	9d00 <chOQPutTimeout>
    b7e0:	e1a00006 	mov	r0, r6
    b7e4:	ebfff765 	bl	9580 <chThdSleep>
    b7e8:	e59f30d0 	ldr	r3, [pc, #208]	; b8c0 <Thread_LCD+0x2e0>
    b7ec:	e1a00009 	mov	r0, r9
    b7f0:	e5d32000 	ldrb	r2, [r3]
    b7f4:	e59f10c8 	ldr	r1, [pc, #200]	; b8c4 <Thread_LCD+0x2e4>
    b7f8:	ebfffd80 	bl	ae00 <chprintf>
    b7fc:	e1a02005 	mov	r2, r5
    b800:	e1a01007 	mov	r1, r7
    b804:	e1a00004 	mov	r0, r4
    b808:	ebfff93c 	bl	9d00 <chOQPutTimeout>
    b80c:	e1a02005 	mov	r2, r5
    b810:	e3a01018 	mov	r1, #24
    b814:	e1a00004 	mov	r0, r4
    b818:	ebfff938 	bl	9d00 <chOQPutTimeout>
    b81c:	e1a02005 	mov	r2, r5
    b820:	e1a01008 	mov	r1, r8
    b824:	e1a00004 	mov	r0, r4
    b828:	ebfff934 	bl	9d00 <chOQPutTimeout>
    b82c:	e1a00006 	mov	r0, r6
    b830:	ebfff752 	bl	9580 <chThdSleep>
    b834:	e1a02005 	mov	r2, r5
    b838:	e1a01007 	mov	r1, r7
    b83c:	e1a00004 	mov	r0, r4
    b840:	ebfff92e 	bl	9d00 <chOQPutTimeout>
    b844:	e1a02005 	mov	r2, r5
    b848:	e3a01019 	mov	r1, #25
    b84c:	e1a00004 	mov	r0, r4
    b850:	ebfff92a 	bl	9d00 <chOQPutTimeout>
    b854:	e1a02005 	mov	r2, r5
    b858:	e3a01015 	mov	r1, #21
    b85c:	e1a00004 	mov	r0, r4
    b860:	ebfff926 	bl	9d00 <chOQPutTimeout>
    b864:	e1a00006 	mov	r0, r6
    b868:	ebfff744 	bl	9580 <chThdSleep>
    b86c:	e59f3054 	ldr	r3, [pc, #84]	; b8c8 <Thread_LCD+0x2e8>
    b870:	e59f1054 	ldr	r1, [pc, #84]	; b8cc <Thread_LCD+0x2ec>
    b874:	e5d32000 	ldrb	r2, [r3]
    b878:	e1a00009 	mov	r0, r9
    b87c:	ebfffd5f 	bl	ae00 <chprintf>
    b880:	e321f09f 	msr	CPSR_c, #159	; 0x9f
    b884:	e59b3008 	ldr	r3, [fp, #8]
    b888:	e3530000 	cmp	r3, #0
    b88c:	caffff64 	bgt	b624 <Thread_LCD+0x44>
    b890:	e59f0010 	ldr	r0, [pc, #16]	; b8a8 <Thread_LCD+0x2c8>
    b894:	ebfff7ad 	bl	9750 <chSemSignalI>
    b898:	eaffff61 	b	b624 <Thread_LCD+0x44>
    b89c:	0000c1d4 	ldrdeq	ip, [r0], -r4
    b8a0:	0000bd00 	andeq	fp, r0, r0, lsl #26
    b8a4:	0000c250 	andeq	ip, r0, r0, asr r2
    b8a8:	0000bd54 	andeq	fp, r0, r4, asr sp
    b8ac:	0000c33c 	andeq	ip, r0, ip, lsr r3
    b8b0:	00001388 	andeq	r1, r0, r8, lsl #7
    b8b4:	0000bd0c 	andeq	fp, r0, ip, lsl #26
    b8b8:	0000bdcc 	andeq	fp, r0, ip, asr #27
    b8bc:	0000bd24 	andeq	fp, r0, r4, lsr #26
    b8c0:	0000bdde 	ldrdeq	fp, [r0], -lr
    b8c4:	0000bd34 	andeq	fp, r0, r4, lsr sp
    b8c8:	0000bdcd 	andeq	fp, r0, sp, asr #27
    b8cc:	0000bd44 	andeq	fp, r0, r4, asr #26

0000b8d0 <Thread_Arduino>:
    b8d0:	e92d4880 	push	{r7, fp, lr}
    b8d4:	e59f3144 	ldr	r3, [pc, #324]	; ba20 <Thread_Arduino+0x150>
    b8d8:	e59f2144 	ldr	r2, [pc, #324]	; ba24 <Thread_Arduino+0x154>
    b8dc:	e5933018 	ldr	r3, [r3, #24]
    b8e0:	e59f6140 	ldr	r6, [pc, #320]	; ba28 <Thread_Arduino+0x158>
    b8e4:	e24dd01c 	sub	sp, sp, #28
    b8e8:	e5832018 	str	r2, [r3, #24]
    b8ec:	e3a00064 	mov	r0, #100	; 0x64
    b8f0:	ebfff722 	bl	9580 <chThdSleep>
    b8f4:	e1a05006 	mov	r5, r6
    b8f8:	e3a04001 	mov	r4, #1
    b8fc:	e3e0a000 	mvn	sl, #0
    b900:	e3a09030 	mov	r9, #48	; 0x30
    b904:	e3a08ffa 	mov	r8, #1000	; 0x3e8
    b908:	e59fb11c 	ldr	fp, [pc, #284]	; ba2c <Thread_Arduino+0x15c>
    b90c:	e59f711c 	ldr	r7, [pc, #284]	; ba30 <Thread_Arduino+0x160>
    b910:	ea00002b 	b	b9c4 <Thread_Arduino+0xf4>
    b914:	ebfff6bd 	bl	9410 <chSchRescheduleS>
    b918:	e321f01f 	msr	CPSR_c, #31
    b91c:	e1a00008 	mov	r0, r8
    b920:	ebfff716 	bl	9580 <chThdSleep>
    b924:	e3a03002 	mov	r3, #2
    b928:	e1a00005 	mov	r0, r5
    b92c:	e5cd3017 	strb	r3, [sp, #23]
    b930:	ebfff76a 	bl	96e0 <chSemWait>
    b934:	e59f30f8 	ldr	r3, [pc, #248]	; ba34 <Thread_Arduino+0x164>
    b938:	e98d0410 	stmib	sp, {r4, sl}
    b93c:	e58d3000 	str	r3, [sp]
    b940:	e28d2017 	add	r2, sp, #23
    b944:	e1a01009 	mov	r1, r9
    b948:	e1a00007 	mov	r0, r7
    b94c:	e3a03001 	mov	r3, #1
    b950:	ebfff9e2 	bl	a0e0 <i2cMasterTransmitTimeout>
    b954:	e321f09f 	msr	CPSR_c, #159	; 0x9f
    b958:	e5963008 	ldr	r3, [r6, #8]
    b95c:	e3530000 	cmp	r3, #0
    b960:	da00002b 	ble	ba14 <Thread_Arduino+0x144>
    b964:	ebfff6a9 	bl	9410 <chSchRescheduleS>
    b968:	e321f01f 	msr	CPSR_c, #31
    b96c:	e1a00008 	mov	r0, r8
    b970:	ebfff702 	bl	9580 <chThdSleep>
    b974:	e3a03003 	mov	r3, #3
    b978:	e1a00005 	mov	r0, r5
    b97c:	e5cd3017 	strb	r3, [sp, #23]
    b980:	ebfff756 	bl	96e0 <chSemWait>
    b984:	e59f30ac 	ldr	r3, [pc, #172]	; ba38 <Thread_Arduino+0x168>
    b988:	e98d0410 	stmib	sp, {r4, sl}
    b98c:	e58d3000 	str	r3, [sp]
    b990:	e28d2017 	add	r2, sp, #23
    b994:	e1a01009 	mov	r1, r9
    b998:	e1a00007 	mov	r0, r7
    b99c:	e3a03001 	mov	r3, #1
    b9a0:	ebfff9ce 	bl	a0e0 <i2cMasterTransmitTimeout>
    b9a4:	e321f09f 	msr	CPSR_c, #159	; 0x9f
    b9a8:	e5963008 	ldr	r3, [r6, #8]
    b9ac:	e3530000 	cmp	r3, #0
    b9b0:	da000014 	ble	ba08 <Thread_Arduino+0x138>
    b9b4:	ebfff695 	bl	9410 <chSchRescheduleS>
    b9b8:	e321f01f 	msr	CPSR_c, #31
    b9bc:	e1a00008 	mov	r0, r8
    b9c0:	ebfff6ee 	bl	9580 <chThdSleep>
    b9c4:	e1a00005 	mov	r0, r5
    b9c8:	e5cd4017 	strb	r4, [sp, #23]
    b9cc:	ebfff743 	bl	96e0 <chSemWait>
    b9d0:	e98d0410 	stmib	sp, {r4, sl}
    b9d4:	e58db000 	str	fp, [sp]
    b9d8:	e3a03001 	mov	r3, #1
    b9dc:	e28d2017 	add	r2, sp, #23
    b9e0:	e1a01009 	mov	r1, r9
    b9e4:	e1a00007 	mov	r0, r7
    b9e8:	ebfff9bc 	bl	a0e0 <i2cMasterTransmitTimeout>
    b9ec:	e321f09f 	msr	CPSR_c, #159	; 0x9f
    b9f0:	e5963008 	ldr	r3, [r6, #8]
    b9f4:	e3530000 	cmp	r3, #0
    b9f8:	caffffc5 	bgt	b914 <Thread_Arduino+0x44>
    b9fc:	e1a00005 	mov	r0, r5
    ba00:	ebfff752 	bl	9750 <chSemSignalI>
    ba04:	eaffffc2 	b	b914 <Thread_Arduino+0x44>
    ba08:	e1a00005 	mov	r0, r5
    ba0c:	ebfff74f 	bl	9750 <chSemSignalI>
    ba10:	eaffffe7 	b	b9b4 <Thread_Arduino+0xe4>
    ba14:	e1a00005 	mov	r0, r5
    ba18:	ebfff74c 	bl	9750 <chSemSignalI>
    ba1c:	eaffffd0 	b	b964 <Thread_Arduino+0x94>
    ba20:	0000c1d4 	ldrdeq	ip, [r0], -r4
    ba24:	0000bce0 	andeq	fp, r0, r0, ror #25
    ba28:	0000bd54 	andeq	fp, r0, r4, asr sp
    ba2c:	0000bdde 	ldrdeq	fp, [r0], -lr
    ba30:	0000c2d4 	ldrdeq	ip, [r0], -r4
    ba34:	0000bdcd 	andeq	fp, r0, sp, asr #27
    ba38:	0000bdcc 	andeq	fp, r0, ip, asr #27
    ba3c:	00000000 	andeq	r0, r0, r0

0000ba40 <Thread_I2C>:
    ba40:	e92d4880 	push	{r7, fp, lr}
    ba44:	e59f30a4 	ldr	r3, [pc, #164]	; baf0 <Thread_I2C+0xb0>
    ba48:	e59f20a4 	ldr	r2, [pc, #164]	; baf4 <Thread_I2C+0xb4>
    ba4c:	e5933018 	ldr	r3, [r3, #24]
    ba50:	e59f80a0 	ldr	r8, [pc, #160]	; baf8 <Thread_I2C+0xb8>
    ba54:	e59f70a0 	ldr	r7, [pc, #160]	; bafc <Thread_I2C+0xbc>
    ba58:	e24dd014 	sub	sp, sp, #20
    ba5c:	e5832018 	str	r2, [r3, #24]
    ba60:	e3a00e7d 	mov	r0, #2000	; 0x7d0
    ba64:	ebfff6c5 	bl	9580 <chThdSleep>
    ba68:	e1a0b008 	mov	fp, r8
    ba6c:	e1a06007 	mov	r6, r7
    ba70:	e3a0a031 	mov	sl, #49	; 0x31
    ba74:	e3e09000 	mvn	r9, #0
    ba78:	e59f4080 	ldr	r4, [pc, #128]	; bb00 <Thread_I2C+0xc0>
    ba7c:	e59f5080 	ldr	r5, [pc, #128]	; bb04 <Thread_I2C+0xc4>
    ba80:	ea000007 	b	baa4 <Thread_I2C+0x64>
    ba84:	ebfff661 	bl	9410 <chSchRescheduleS>
    ba88:	e321f01f 	msr	CPSR_c, #31
    ba8c:	e1d410b0 	ldrh	r1, [r4]
    ba90:	e1d420b2 	ldrh	r2, [r4, #2]
    ba94:	e1d430b4 	ldrh	r3, [r4, #4]
    ba98:	e3a00f4b 	mov	r0, #300	; 0x12c
    ba9c:	e885000e 	stm	r5, {r1, r2, r3}
    baa0:	ebfff6b6 	bl	9580 <chThdSleep>
    baa4:	e1a00006 	mov	r0, r6
    baa8:	e5c8a000 	strb	sl, [r8]
    baac:	ebfff70b 	bl	96e0 <chSemWait>
    bab0:	e3a03006 	mov	r3, #6
    bab4:	e58d9008 	str	r9, [sp, #8]
    bab8:	e58d3004 	str	r3, [sp, #4]
    babc:	e58d4000 	str	r4, [sp]
    bac0:	e3a03001 	mov	r3, #1
    bac4:	e1a0200b 	mov	r2, fp
    bac8:	e3a01053 	mov	r1, #83	; 0x53
    bacc:	e59f0034 	ldr	r0, [pc, #52]	; bb08 <Thread_I2C+0xc8>
    bad0:	ebfff982 	bl	a0e0 <i2cMasterTransmitTimeout>
    bad4:	e321f09f 	msr	CPSR_c, #159	; 0x9f
    bad8:	e5973008 	ldr	r3, [r7, #8]
    badc:	e3530000 	cmp	r3, #0
    bae0:	caffffe7 	bgt	ba84 <Thread_I2C+0x44>
    bae4:	e1a00006 	mov	r0, r6
    bae8:	ebfff718 	bl	9750 <chSemSignalI>
    baec:	eaffffe4 	b	ba84 <Thread_I2C+0x44>
    baf0:	0000c1d4 	ldrdeq	ip, [r0], -r4
    baf4:	0000bcf0 	strdeq	fp, [r0], -r0
    baf8:	0000bdd0 	ldrdeq	fp, [r0], -r0
    bafc:	0000bd54 	andeq	fp, r0, r4, asr sp
    bb00:	0000bdd8 	ldrdeq	fp, [r0], -r8
    bb04:	0000c33c 	andeq	ip, r0, ip, lsr r3
    bb08:	0000c2d4 	ldrdeq	ip, [r0], -r4
    bb0c:	00000000 	andeq	r0, r0, r0

0000bb10 <main>:
    bb10:	e92d41f0 	push	{r4, r5, r6, r7, r8, lr}
    bb14:	e24dd018 	sub	sp, sp, #24
    bb18:	ebfff94c 	bl	a050 <halInit>
    bb1c:	e59f6118 	ldr	r6, [pc, #280]	; bc3c <main+0x12c>
    bb20:	ebfff4ca 	bl	8e50 <chSysInit>
    bb24:	e3a01001 	mov	r1, #1
    bb28:	e59f0110 	ldr	r0, [pc, #272]	; bc40 <main+0x130>
    bb2c:	ebfff6e7 	bl	96d0 <chSemInit>
    bb30:	e3a01000 	mov	r1, #0
    bb34:	e59f0108 	ldr	r0, [pc, #264]	; bc44 <main+0x134>
    bb38:	e3a04000 	mov	r4, #0
    bb3c:	ebfff9bb 	bl	a230 <sdStart>
    bb40:	e3e08000 	mvn	r8, #0
    bb44:	e1a00006 	mov	r0, r6
    bb48:	e28d1014 	add	r1, sp, #20
    bb4c:	ebfff957 	bl	a0b0 <i2cStart>
    bb50:	e3a0c02d 	mov	ip, #45	; 0x2d
    bb54:	e59f50ec 	ldr	r5, [pc, #236]	; bc48 <main+0x138>
    bb58:	e59f70ec 	ldr	r7, [pc, #236]	; bc4c <main+0x13c>
    bb5c:	e1a02005 	mov	r2, r5
    bb60:	e1a00006 	mov	r0, r6
    bb64:	e58d4004 	str	r4, [sp, #4]
    bb68:	e58d8008 	str	r8, [sp, #8]
    bb6c:	e58d7000 	str	r7, [sp]
    bb70:	e3a03002 	mov	r3, #2
    bb74:	e3a01053 	mov	r1, #83	; 0x53
    bb78:	e5c5c000 	strb	ip, [r5]
    bb7c:	e5c54001 	strb	r4, [r5, #1]
    bb80:	ebfff956 	bl	a0e0 <i2cMasterTransmitTimeout>
    bb84:	e3a0c010 	mov	ip, #16
    bb88:	e1a02005 	mov	r2, r5
    bb8c:	e3a03002 	mov	r3, #2
    bb90:	e3a01053 	mov	r1, #83	; 0x53
    bb94:	e98d0110 	stmib	sp, {r4, r8}
    bb98:	e58d7000 	str	r7, [sp]
    bb9c:	e1a00006 	mov	r0, r6
    bba0:	e5c5c001 	strb	ip, [r5, #1]
    bba4:	ebfff94d 	bl	a0e0 <i2cMasterTransmitTimeout>
    bba8:	e3a0000a 	mov	r0, #10
    bbac:	ebfff673 	bl	9580 <chThdSleep>
    bbb0:	e3a0c008 	mov	ip, #8
    bbb4:	e1a02005 	mov	r2, r5
    bbb8:	e3a03002 	mov	r3, #2
    bbbc:	e3a01053 	mov	r1, #83	; 0x53
    bbc0:	e98d0110 	stmib	sp, {r4, r8}
    bbc4:	e58d7000 	str	r7, [sp]
    bbc8:	e1a00006 	mov	r0, r6
    bbcc:	e5c5c001 	strb	ip, [r5, #1]
    bbd0:	ebfff942 	bl	a0e0 <i2cMasterTransmitTimeout>
    bbd4:	e3a0000a 	mov	r0, #10
    bbd8:	ebfff668 	bl	9580 <chThdSleep>
    bbdc:	e58d4000 	str	r4, [sp]
    bbe0:	e59f3068 	ldr	r3, [pc, #104]	; bc50 <main+0x140>
    bbe4:	e3a0207f 	mov	r2, #127	; 0x7f
    bbe8:	e3a01f46 	mov	r1, #280	; 0x118
    bbec:	e59f0060 	ldr	r0, [pc, #96]	; bc54 <main+0x144>
    bbf0:	ebfff636 	bl	94d0 <chThdCreateStatic>
    bbf4:	e58d4000 	str	r4, [sp]
    bbf8:	e59f3058 	ldr	r3, [pc, #88]	; bc58 <main+0x148>
    bbfc:	e3a0207f 	mov	r2, #127	; 0x7f
    bc00:	e3a01f46 	mov	r1, #280	; 0x118
    bc04:	e59f0050 	ldr	r0, [pc, #80]	; bc5c <main+0x14c>
    bc08:	ebfff630 	bl	94d0 <chThdCreateStatic>
    bc0c:	e3a0207f 	mov	r2, #127	; 0x7f
    bc10:	e3a01f46 	mov	r1, #280	; 0x118
    bc14:	e58d4000 	str	r4, [sp]
    bc18:	e59f3040 	ldr	r3, [pc, #64]	; bc60 <main+0x150>
    bc1c:	e59f0040 	ldr	r0, [pc, #64]	; bc64 <main+0x154>
    bc20:	ebfff62a 	bl	94d0 <chThdCreateStatic>
    bc24:	e59f303c 	ldr	r3, [pc, #60]	; bc68 <main+0x158>
    bc28:	e5930018 	ldr	r0, [r3, #24]
    bc2c:	ebfff67b 	bl	9620 <chThdWait>
    bc30:	e1a00004 	mov	r0, r4
    bc34:	e28dd018 	add	sp, sp, #24
    bc38:	e8bd81f0 	pop	{r4, r5, r6, r7, r8, pc}
    bc3c:	0000c2d4 	ldrdeq	ip, [r0], -r4
    bc40:	0000bd54 	andeq	fp, r0, r4, asr sp
    bc44:	0000c220 	andeq	ip, r0, r0, lsr #4
    bc48:	0000bdd0 	ldrdeq	fp, [r0], -r0
    bc4c:	0000bdd8 	ldrdeq	fp, [r0], -r8
    bc50:	0000ba40 	andeq	fp, r0, r0, asr #20
    bc54:	0000bef8 	strdeq	fp, [r0], -r8
    bc58:	0000b8d0 	ldrdeq	fp, [r0], -r0
    bc5c:	0000bde0 	andeq	fp, r0, r0, ror #27
    bc60:	0000b5e0 	andeq	fp, r0, r0, ror #11
    bc64:	0000c010 	andeq	ip, r0, r0, lsl r0
    bc68:	0000c1d4 	ldrdeq	ip, [r0], -r4
    bc6c:	00000000 	andeq	r0, r0, r0
    bc70:	656c6469 	strbvs	r6, [ip, #-1129]!	; 0xfffffb97
	...

0000bc80 <ch_debug>:
    bc80:	6e69616d 	powvsez	f6, f1, #5.0
    bc84:	11411600 	cmpne	r1, r0, lsl #12
    bc88:	08440404 	stmdaeq	r4, {r2, sl}^
    bc8c:	1814100c 	ldmdane	r4, {r2, r3, ip}
    bc90:	1e1d1c00 	cdpne	12, 1, cr1, cr13, cr0, {0}
    bc94:	0000201f 	andeq	r2, r0, pc, lsl r0
	...

0000bca0 <vmt>:
    bca0:	0000a170 	andeq	sl, r0, r0, ror r1
    bca4:	0000a150 	andeq	sl, r0, r0, asr r1
    bca8:	0000a1b0 			; <UNDEFINED> instruction: 0x0000a1b0
    bcac:	0000a190 	muleq	r0, r0, r1
    bcb0:	0000a1a0 	andeq	sl, r0, r0, lsr #3
    bcb4:	0000a180 	andeq	sl, r0, r0, lsl #3
    bcb8:	0000a160 	andeq	sl, r0, r0, ror #2
    bcbc:	0000a140 	andeq	sl, r0, r0, asr #2

0000bcc0 <default_config>:
    bcc0:	0001c200 	andeq	ip, r1, r0, lsl #4
	...

0000bcd0 <pal_default_config>:
    bcd0:	6c756e28 	ldclvs	14, cr6, [r5], #-160	; 0xffffff60
    bcd4:	0000296c 	andeq	r2, r0, ip, ror #18
	...
    bce0:	65726854 	ldrbvs	r6, [r2, #-2132]!	; 0xfffff7ac
    bce4:	72416461 	subvc	r6, r1, #1627389952	; 0x61000000
    bce8:	6e697564 	cdpvs	5, 6, cr7, cr9, cr4, {3}
    bcec:	0000006f 	andeq	r0, r0, pc, rrx
    bcf0:	69726553 	ldmdbvs	r2!, {r0, r1, r4, r6, r8, sl, sp, lr}^
    bcf4:	72506c61 	subsvc	r6, r0, #24832	; 0x6100
    bcf8:	49746e69 	ldmdbmi	r4!, {r0, r3, r5, r6, r9, sl, fp, sp, lr}^
    bcfc:	00004332 	andeq	r4, r0, r2, lsr r3
    bd00:	65726854 	ldrbvs	r6, [r2, #-2132]!	; 0xfffff7ac
    bd04:	434c6461 	movtmi	r6, #50273	; 0xc461
    bd08:	00000044 	andeq	r0, r0, r4, asr #32
    bd0c:	25203a58 	strcs	r3, [r0, #-2648]!	; 0xfffff5a8
    bd10:	20643530 	rsbcs	r3, r4, r0, lsr r5
    bd14:	25203a59 	strcs	r3, [r0, #-2649]!	; 0xfffff5a7
    bd18:	20643530 	rsbcs	r3, r4, r0, lsr r5
    bd1c:	25203a5a 	strcs	r3, [r0, #-2650]!	; 0xfffff5a6
    bd20:	00643530 	rsbeq	r3, r4, r0, lsr r5
    bd24:	74736944 	ldrbtvc	r6, [r3], #-2372	; 0xfffff6bc
    bd28:	65636e61 	strbvs	r6, [r3, #-3681]!	; 0xfffff19f
    bd2c:	6425203a 	strtvs	r2, [r5], #-58	; 0xffffffc6
    bd30:	00000000 	andeq	r0, r0, r0
    bd34:	706d6554 	rsbvc	r6, sp, r4, asr r5
    bd38:	74617265 	strbtvc	r7, [r1], #-613	; 0xfffffd9b
    bd3c:	3a657275 	bcc	1968718 <__heap_base__+0x195c3d0>
    bd40:	00642520 	rsbeq	r2, r4, r0, lsr #10
    bd44:	696d7548 	stmdbvs	sp!, {r3, r6, r8, sl, ip, sp, lr}^
    bd48:	79746964 	ldmdbvc	r4!, {r2, r5, r6, r8, fp, sp, lr}^
    bd4c:	6425203a 	strtvs	r2, [r5], #-58	; 0xffffffc6
    bd50:	00000000 	andeq	r0, r0, r0
